; ModuleID = 'build_script_build.32814dd1bd87794d-cgu.0'
source_filename = "build_script_build.32814dd1bd87794d-cgu.0"
target datalayout = "e-m:e-p270:32:32-p271:32:32-p272:64:64-i64:64-i128:128-f80:128-n8:16:32:64-S128"
target triple = "x86_64-unknown-linux-gnu"

%"alloc::boxed::Box<dyn core::ops::function::FnMut() -> core::result::Result<(), std::io::error::Error> + core::marker::Send + core::marker::Sync>" = type { %"core::ptr::unique::Unique<dyn core::ops::function::FnMut() -> core::result::Result<(), std::io::error::Error> + core::marker::Send + core::marker::Sync>", %"alloc::alloc::Global" }
%"core::ptr::unique::Unique<dyn core::ops::function::FnMut() -> core::result::Result<(), std::io::error::Error> + core::marker::Send + core::marker::Sync>" = type { %"core::ptr::non_null::NonNull<dyn core::ops::function::FnMut() -> core::result::Result<(), std::io::error::Error> + core::marker::Send + core::marker::Sync>", %"core::marker::PhantomData<dyn core::ops::function::FnMut() -> core::result::Result<(), std::io::error::Error> + core::marker::Send + core::marker::Sync>" }
%"core::ptr::non_null::NonNull<dyn core::ops::function::FnMut() -> core::result::Result<(), std::io::error::Error> + core::marker::Send + core::marker::Sync>" = type { { ptr, ptr } }
%"core::marker::PhantomData<dyn core::ops::function::FnMut() -> core::result::Result<(), std::io::error::Error> + core::marker::Send + core::marker::Sync>" = type {}
%"alloc::alloc::Global" = type {}
%"core::mem::maybe_uninit::MaybeUninit<std::ffi::os_str::OsString>" = type { [3 x i64] }
%"core::mem::maybe_uninit::MaybeUninit<core::option::Option<std::ffi::os_str::OsString>>" = type { [3 x i64] }

@alloc_e9aa3e56236bea0534a07b33b08bbbe6 = private unnamed_addr constant [2 x i8] c"10", align 1
@alloc_ae52c2733f312a4a903aef7e6436cb13 = private unnamed_addr constant [2 x i8] c"11", align 1
@alloc_3b059e5eb8e06e7498f909e7a08cef57 = private unnamed_addr constant [2 x i8] c"12", align 1
@alloc_d57d03743ee0b3cf85ca6cc66dce7f4d = private unnamed_addr constant [2 x i8] c"13", align 1
@alloc_e33ac00bdbd8c0cbb04273e924bd654c = private unnamed_addr constant [2 x i8] c"14", align 1
@alloc_27f411dcc9955beae922af37f2bb21f7 = private unnamed_addr constant [2 x i8] c"15", align 1
@alloc_71264e62a593ae064235a5eb90a16b4a = private unnamed_addr constant [15 x i8] c"freebsd-version", align 1
@alloc_e7b0dd178336291b9ad3b8b25bc77cb0 = private unnamed_addr constant [4 x i8] c"emcc", align 1
@alloc_53695a5ce3568835c4a92269d444b5c9 = private unnamed_addr constant [12 x i8] c"-dumpversion", align 1
@alloc_57e2a3f3daa80a9da338a6fbc7fe2a99 = private unnamed_addr constant [46 x i8] c"Failed to get rustc version: missing RUSTC env", align 1
@alloc_24c6a125bbc985b61d58fd74e29f442b = private unnamed_addr constant [21 x i8] c"failed to run rustc: ", align 1
@alloc_eaaa6a8512dd326c4c1db6475452d7d6 = private unnamed_addr constant <{ ptr, [8 x i8] }> <{ ptr @alloc_24c6a125bbc985b61d58fd74e29f442b, [8 x i8] c"\15\00\00\00\00\00\00\00" }>, align 8
@alloc_806c1ac911172019779ceab530bc1f0e = private unnamed_addr constant [5 x i8] c"RUSTC", align 1
@alloc_52455942f635c15dfc7082d483dfdeb4 = private unnamed_addr constant [91 x i8] c"/users/ddavis65/.cargo/registry/src/index.crates.io-1949cf8c6b5b557f/libc-0.2.177/build.rs\00", align 1
@alloc_f6fa39700da9355fe3d26b2329968545 = private unnamed_addr constant <{ ptr, [16 x i8] }> <{ ptr @alloc_52455942f635c15dfc7082d483dfdeb4, [16 x i8] c"Z\00\00\00\00\00\00\00\AF\00\00\00&\00\00\00" }>, align 8
@alloc_f36ce88bd5d4a921175f5521f484b675 = private unnamed_addr constant [13 x i8] c"RUSTC_WRAPPER", align 1
@alloc_0a95b2846250f640f3e914bc2bbe7701 = private unnamed_addr constant [7 x i8] c"--rustc", align 1
@alloc_a887f9858119cc7413062dc002c4d9ab = private unnamed_addr constant [9 x i8] c"--version", align 1
@alloc_c33e5af42b9b9e21f43a4fcb9c0ba190 = private unnamed_addr constant [27 x i8] c"Failed to get rustc version", align 1
@alloc_4dab0acc13c3809bd0058c5188be5d6f = private unnamed_addr constant <{ ptr, [16 x i8] }> <{ ptr @alloc_52455942f635c15dfc7082d483dfdeb4, [16 x i8] c"Z\00\00\00\00\00\00\00\C1\00\00\00\1F\00\00\00" }>, align 8
@alloc_25fabaa1939c4a56ea98ffbe8d7baf71 = private unnamed_addr constant <{ ptr, [16 x i8] }> <{ ptr @alloc_52455942f635c15dfc7082d483dfdeb4, [16 x i8] c"Z\00\00\00\00\00\00\00\C3\00\00\00\05\00\00\00" }>, align 8
@alloc_2848618747d5f5b989fc716426f82563 = private unnamed_addr constant <{ ptr, [8 x i8] }> <{ ptr @alloc_c33e5af42b9b9e21f43a4fcb9c0ba190, [8 x i8] c"\1B\00\00\00\00\00\00\00" }>, align 8
@alloc_55e278c996565db65fe0fb6e7409cbbb = private unnamed_addr constant [6 x i8] c"clippy", align 1
@alloc_d461cecc2e8426e8e429daa636d5f45b = private unnamed_addr constant <{ ptr, [16 x i8] }> <{ ptr @alloc_52455942f635c15dfc7082d483dfdeb4, [16 x i8] c"Z\00\00\00\00\00\00\00\DA\00\00\00\08\00\00\00" }>, align 8
@alloc_a66157e2319119986804caae1b60bf57 = private unnamed_addr constant <{ ptr, [16 x i8] }> <{ ptr @alloc_52455942f635c15dfc7082d483dfdeb4, [16 x i8] c"Z\00\00\00\00\00\00\00\DE\00\00\00\13\00\00\00" }>, align 8
@alloc_ca36d7e792bb4bbd1a68749f90007ce8 = private unnamed_addr constant [7 x i8] c"rustc 1", align 1
@alloc_99ffb679049157f8e234fe49e0609c15 = private unnamed_addr constant <{ ptr, [8 x i8] }> <{ ptr @alloc_ca36d7e792bb4bbd1a68749f90007ce8, [8 x i8] c"\07\00\00\00\00\00\00\00" }>, align 8
@alloc_335bcae3bfec2725b3f4e9b28b5dbc8e = private unnamed_addr constant <{ ptr, [16 x i8] }> <{ ptr @alloc_52455942f635c15dfc7082d483dfdeb4, [16 x i8] c"Z\00\00\00\00\00\00\00\EF\00\00\00\17\00\00\00" }>, align 8
@alloc_ec6b2810244466f4e289af2683cdcb6e = private unnamed_addr constant <{ ptr, [16 x i8] }> <{ ptr @alloc_52455942f635c15dfc7082d483dfdeb4, [16 x i8] c"Z\00\00\00\00\00\00\00\F3\00\00\00\17\00\00\00" }>, align 8
@alloc_29f40842bcdc552c82e0e8a30dce6972 = private unnamed_addr constant <{ ptr, [16 x i8] }> <{ ptr @alloc_52455942f635c15dfc7082d483dfdeb4, [16 x i8] c"Z\00\00\00\00\00\00\00\F3\00\00\00\11\00\00\00" }>, align 8
@alloc_0b7c7af09b9642a0ab94df2bde785bf1 = private unnamed_addr constant <{ ptr, [16 x i8] }> <{ ptr @alloc_52455942f635c15dfc7082d483dfdeb4, [16 x i8] c"Z\00\00\00\00\00\00\00\E2\00\00\00\05\00\00\00" }>, align 8
@alloc_742f06589122110502429e832b81e8bd = private unnamed_addr constant [32 x i8] c"cargo:rerun-if-changed=build.rs\0A", align 1
@alloc_fdac1ac0812313ab4c58def2ba9a1bba = private unnamed_addr constant <{ ptr, [8 x i8] }> <{ ptr @alloc_742f06589122110502429e832b81e8bd, [8 x i8] c" \00\00\00\00\00\00\00" }>, align 8
@alloc_b74b27f2b9f751849fcbc82dbd3a9d08 = private unnamed_addr constant [62 x i8] c"cargo:rerun-if-env-changed=RUST_LIBC_UNSTABLE_FREEBSD_VERSION\0A", align 1
@alloc_ae235dc40c5194048e5c6a461e5f636a = private unnamed_addr constant <{ ptr, [8 x i8] }> <{ ptr @alloc_b74b27f2b9f751849fcbc82dbd3a9d08, [8 x i8] c">\00\00\00\00\00\00\00" }>, align 8
@alloc_bed01d763589fbbc9d4dedcfaf2df5e8 = private unnamed_addr constant [41 x i8] c"cargo:warning=setting FreeBSD version to ", align 1
@alloc_49a1e817e911805af64bbc7efb390101 = private unnamed_addr constant [1 x i8] c"\0A", align 1
@alloc_c4bae09779ac9aed94716fcb76996c27 = private unnamed_addr constant <{ ptr, [8 x i8], ptr, [8 x i8] }> <{ ptr @alloc_bed01d763589fbbc9d4dedcfaf2df5e8, [8 x i8] c")\00\00\00\00\00\00\00", ptr @alloc_49a1e817e911805af64bbc7efb390101, [8 x i8] c"\01\00\00\00\00\00\00\00" }>, align 8
@alloc_c63b2e5039c7d990f01e55018d57af8b = private unnamed_addr constant [38 x i8] c"FreeBSD older than 10 is not supported", align 1
@alloc_68b6386ed3fe5f2ebb3af46f7e41ef22 = private unnamed_addr constant <{ ptr, [8 x i8] }> <{ ptr @alloc_c63b2e5039c7d990f01e55018d57af8b, [8 x i8] c"&\00\00\00\00\00\00\00" }>, align 8
@alloc_64de700dc0d3712bf4f0fd23fc9b97f6 = private unnamed_addr constant [58 x i8] c"cargo:rerun-if-env-changed=RUST_LIBC_UNSTABLE_MUSL_V1_2_3\0A", align 1
@alloc_de032bcda44f9efaaa6149d836e94807 = private unnamed_addr constant <{ ptr, [8 x i8] }> <{ ptr @alloc_64de700dc0d3712bf4f0fd23fc9b97f6, [8 x i8] c":\00\00\00\00\00\00\00" }>, align 8
@alloc_b745d31eb2902e488a48adfdc7a9757f = private unnamed_addr constant [64 x i8] c"cargo:rerun-if-env-changed=RUST_LIBC_UNSTABLE_LINUX_TIME_BITS64\0A", align 1
@alloc_323e8ab0e9acd916394341a473149dae = private unnamed_addr constant <{ ptr, [8 x i8] }> <{ ptr @alloc_b745d31eb2902e488a48adfdc7a9757f, [8 x i8] c"@\00\00\00\00\00\00\00" }>, align 8
@alloc_e099490f9865495bf255e49aa607a840 = private unnamed_addr constant [67 x i8] c"cargo:rerun-if-env-changed=RUST_LIBC_UNSTABLE_GNU_FILE_OFFSET_BITS\0A", align 1
@alloc_3a3a03545a4e0af4f2b5dca77f9d3333 = private unnamed_addr constant <{ ptr, [8 x i8] }> <{ ptr @alloc_e099490f9865495bf255e49aa607a840, [8 x i8] c"C\00\00\00\00\00\00\00" }>, align 8
@alloc_3e0db014760956dcb5153ae64d55b081 = private unnamed_addr constant [60 x i8] c"cargo:rerun-if-env-changed=RUST_LIBC_UNSTABLE_GNU_TIME_BITS\0A", align 1
@alloc_2590e465fd8679325d8cc5472f9eb653 = private unnamed_addr constant <{ ptr, [8 x i8] }> <{ ptr @alloc_3e0db014760956dcb5153ae64d55b081, [8 x i8] c"<\00\00\00\00\00\00\00" }>, align 8
@alloc_8e020aace2b3cf2c6b8375c8868270b7 = private unnamed_addr constant [2 x i8] c"32", align 1
@alloc_14fc90d5f706773754d40e4dccd34450 = private unnamed_addr constant [92 x i8] c"Do not set both RUST_LIBC_UNSTABLE_GNU_TIME_BITS and RUST_LIBC_UNSTABLE_GNU_FILE_OFFSET_BITS", align 1
@alloc_1e5d5e1506a6d0672f1b7c2d26c988da = private unnamed_addr constant <{ ptr, [8 x i8] }> <{ ptr @alloc_14fc90d5f706773754d40e4dccd34450, [8 x i8] c"\\\00\00\00\00\00\00\00" }>, align 8
@alloc_4a184034f37022296f6ca89b4adb3768 = private unnamed_addr constant [68 x i8] c"Invalid value for RUST_LIBC_UNSTABLE_GNU_TIME_BITS, must be 32 or 64", align 1
@alloc_7b93f54da8b469491d82f6de1015c303 = private unnamed_addr constant <{ ptr, [8 x i8] }> <{ ptr @alloc_4a184034f37022296f6ca89b4adb3768, [8 x i8] c"D\00\00\00\00\00\00\00" }>, align 8
@alloc_12b500c16d6393901618de0cf55c3e6c = private unnamed_addr constant [75 x i8] c"Invalid value for RUST_LIBC_UNSTABLE_GNU_FILE_OFFSET_BITS, must be 32 or 64", align 1
@alloc_6b16290e2565871cbf38ff7bf04d9093 = private unnamed_addr constant <{ ptr, [8 x i8] }> <{ ptr @alloc_12b500c16d6393901618de0cf55c3e6c, [8 x i8] c"K\00\00\00\00\00\00\00" }>, align 8
@alloc_5b38d234a72f2da1e93ed696dcb5b073 = private unnamed_addr constant [118 x i8] c"Invalid value for RUST_LIBC_UNSTABLE_GNU_TIME_BITS or RUST_LIBC_UNSTABLE_GNU_FILE_OFFSET_BITS, must be 32, 64 or unset", align 1
@alloc_a161d45c51e3a2ce1cd462f9c39c0b41 = private unnamed_addr constant <{ ptr, [8 x i8] }> <{ ptr @alloc_5b38d234a72f2da1e93ed696dcb5b073, [8 x i8] c"v\00\00\00\00\00\00\00" }>, align 8
@alloc_c8a65b5fe9f8c8ff66f0add8177e4932 = private unnamed_addr constant [101 x i8] c"RUST_LIBC_UNSTABLE_GNU_FILE_OFFSET_BITS must be 64 or unset if RUST_LIBC_UNSTABLE_GNU_TIME_BITS is 64", align 1
@alloc_fa7fecbd723b8fdb764adcf4e5184e80 = private unnamed_addr constant <{ ptr, [8 x i8] }> <{ ptr @alloc_c8a65b5fe9f8c8ff66f0add8177e4932, [8 x i8] c"e\00\00\00\00\00\00\00" }>, align 8
@alloc_8e4d7f79330c448f2977292b49677168 = private unnamed_addr constant [26 x i8] c"cargo:rustc-check-cfg=cfg(", align 1
@alloc_cba169e49d2f6a8c1ea9f5f92c42ec6b = private unnamed_addr constant [2 x i8] c")\0A", align 1
@alloc_c84ff4946beb4789c6b0b1a7a2a9e8e2 = private unnamed_addr constant <{ ptr, [8 x i8], ptr, [8 x i8] }> <{ ptr @alloc_8e4d7f79330c448f2977292b49677168, [8 x i8] c"\1A\00\00\00\00\00\00\00", ptr @alloc_cba169e49d2f6a8c1ea9f5f92c42ec6b, [8 x i8] c"\02\00\00\00\00\00\00\00" }>, align 8
@alloc_4e81f3446308e52f5d03e9e4175413e4 = private unnamed_addr constant [3 x i8] c"\22,\22", align 1
@alloc_b34d42ef5bf9b2651fd979e82ea23cba = private unnamed_addr constant [9 x i8] c",values(\22", align 1
@alloc_cb920443507f8a0fdca067277c47c9cb = private unnamed_addr constant [4 x i8] c"\22))\0A", align 1
@alloc_40bbb4396fb931d9076addb4077b3601 = private unnamed_addr constant <{ ptr, [8 x i8], ptr, [8 x i8], ptr, [8 x i8] }> <{ ptr @alloc_8e4d7f79330c448f2977292b49677168, [8 x i8] c"\1A\00\00\00\00\00\00\00", ptr @alloc_b34d42ef5bf9b2651fd979e82ea23cba, [8 x i8] c"\09\00\00\00\00\00\00\00", ptr @alloc_cb920443507f8a0fdca067277c47c9cb, [8 x i8] c"\04\00\00\00\00\00\00\00" }>, align 8
@alloc_509e3f14595a72dfc2af0a28f5824017 = private unnamed_addr constant [30 x i8] c"CARGO_FEATURE_RUSTC_DEP_OF_STD", align 1
@alloc_f73607afcba5e721c2712249402644b6 = private unnamed_addr constant [7 x i8] c"LIBC_CI", align 1
@alloc_1e1fc66c1706c6c7501acca2ae8010f4 = private unnamed_addr constant [20 x i8] c"CARGO_CFG_TARGET_ENV", align 1
@alloc_aa4687de82972c6f88dd4ebd068e3b63 = private unnamed_addr constant [19 x i8] c"CARGO_CFG_TARGET_OS", align 1
@alloc_6508c675143a2a16e0690055cd395724 = private unnamed_addr constant [30 x i8] c"CARGO_CFG_TARGET_POINTER_WIDTH", align 1
@alloc_0d3bcf6fb685f000bc18304ea76cbac4 = private unnamed_addr constant [21 x i8] c"CARGO_CFG_TARGET_ARCH", align 1
@alloc_aaa658f8720b91022cfd120b3be84301 = private unnamed_addr constant [34 x i8] c"RUST_LIBC_UNSTABLE_FREEBSD_VERSION", align 1
@alloc_fe220fddf802791bb38c187922a73152 = private unnamed_addr constant <{ ptr, [16 x i8] }> <{ ptr @alloc_52455942f635c15dfc7082d483dfdeb4, [16 x i8] c"Z\00\00\00\00\00\00\00A\00\00\00$\00\00\00" }>, align 8
@alloc_7267420313fdc34f79da1c04bfca7409 = private unnamed_addr constant [9 x i8] c"freebsd10", align 1
@alloc_5581ed16f5c58ecd3f36713b9b396029 = private unnamed_addr constant [9 x i8] c"freebsd11", align 1
@alloc_55f07188386ace482603892e4768112d = private unnamed_addr constant [9 x i8] c"freebsd12", align 1
@alloc_028f45a065ad7442c332be763445b925 = private unnamed_addr constant [9 x i8] c"freebsd13", align 1
@alloc_358590eecf303ad391259af81e368788 = private unnamed_addr constant [9 x i8] c"freebsd14", align 1
@alloc_c8539d7d8992b0450a5874fa781e9124 = private unnamed_addr constant [9 x i8] c"freebsd15", align 1
@alloc_ccedf80c3ce4e46e2ff8efee35ec798b = private unnamed_addr constant [23 x i8] c"emscripten_old_stat_abi", align 1
@alloc_154439d6e8351f7172ea58cb90d2dd09 = private unnamed_addr constant [30 x i8] c"RUST_LIBC_UNSTABLE_MUSL_V1_2_3", align 1
@alloc_be0c7e2eb8d81d67a6db9a856123bb7e = private unnamed_addr constant [11 x i8] c"loongarch64", align 1
@alloc_830cd488b6068638e05ed5b0c299b4af = private unnamed_addr constant [4 x i8] c"ohos", align 1
@alloc_513019cde2cbfb4427cb8f1afc437e08 = private unnamed_addr constant [11 x i8] c"musl_v1_2_3", align 1
@alloc_508b13eade4b92efdda744da70d08ff7 = private unnamed_addr constant [36 x i8] c"RUST_LIBC_UNSTABLE_LINUX_TIME_BITS64", align 1
@alloc_681b6f9e783332c8e0b8ad7b08df1498 = private unnamed_addr constant [17 x i8] c"linux_time_bits64", align 1
@alloc_772e61a39199df4134c467e272d2cf4b = private unnamed_addr constant [3 x i8] c"gnu", align 1
@alloc_70a1e7dc3879e83c39c209c1ae5f1722 = private unnamed_addr constant [5 x i8] c"linux", align 1
@alloc_22a6d0e24a3ac3ed7016f4ca447b0cea = private unnamed_addr constant [7 x i8] c"riscv32", align 1
@alloc_4a29a4faa0904cd7ff982831f2813e90 = private unnamed_addr constant [6 x i8] c"x86_64", align 1
@alloc_a81a2677393ac2707db2f683d48ac6b7 = private unnamed_addr constant [32 x i8] c"RUST_LIBC_UNSTABLE_GNU_TIME_BITS", align 1
@alloc_9329be348e7e4f3c8cc453f36256cbfd = private unnamed_addr constant [39 x i8] c"RUST_LIBC_UNSTABLE_GNU_FILE_OFFSET_BITS", align 1
@alloc_45da099cbd03f68de47e4007758fde25 = private unnamed_addr constant <{ ptr, [16 x i8] }> <{ ptr @alloc_52455942f635c15dfc7082d483dfdeb4, [16 x i8] c"Z\00\00\00\00\00\00\00s\00\00\00\1F\00\00\00" }>, align 8
@alloc_8092ccd99cb94b0213fd5864ca7ee6ea = private unnamed_addr constant [2 x i8] c"64", align 1
@alloc_7468bdcbac5c19804444edd63e87f464 = private unnamed_addr constant <{ ptr, [16 x i8] }> <{ ptr @alloc_52455942f635c15dfc7082d483dfdeb4, [16 x i8] c"Z\00\00\00\00\00\00\00w\00\00\00 \00\00\00" }>, align 8
@alloc_003e4cf3b9a525842e7d31687b18dba7 = private unnamed_addr constant <{ ptr, [16 x i8] }> <{ ptr @alloc_52455942f635c15dfc7082d483dfdeb4, [16 x i8] c"Z\00\00\00\00\00\00\00v\00\00\00@\00\00\00" }>, align 8
@alloc_8b86f5f151cac6306c671e1a6908f56e = private unnamed_addr constant <{ ptr, [16 x i8] }> <{ ptr @alloc_52455942f635c15dfc7082d483dfdeb4, [16 x i8] c"Z\00\00\00\00\00\00\00u\00\00\003\00\00\00" }>, align 8
@alloc_9f7eb06ad73ebd21470a6186455b2481 = private unnamed_addr constant <{ ptr, [16 x i8] }> <{ ptr @alloc_52455942f635c15dfc7082d483dfdeb4, [16 x i8] c"Z\00\00\00\00\00\00\00u\00\00\00?\00\00\00" }>, align 8
@alloc_8b67a6ac99d1b6fcfecf2db9a8496cf0 = private unnamed_addr constant <{ ptr, [16 x i8] }> <{ ptr @alloc_52455942f635c15dfc7082d483dfdeb4, [16 x i8] c"Z\00\00\00\00\00\00\00y\00\00\00 \00\00\00" }>, align 8
@alloc_40bfc005ea55345507f18576e272e94b = private unnamed_addr constant <{ ptr, [16 x i8] }> <{ ptr @alloc_52455942f635c15dfc7082d483dfdeb4, [16 x i8] c"Z\00\00\00\00\00\00\00x\00\00\00J\00\00\00" }>, align 8
@alloc_818663dfdfaf30abed970cb3185c030c = private unnamed_addr constant <{ ptr, [16 x i8] }> <{ ptr @alloc_52455942f635c15dfc7082d483dfdeb4, [16 x i8] c"Z\00\00\00\00\00\00\00t\00\00\00.\00\00\00" }>, align 8
@alloc_459cac7f5347bbbed10afbc336ba5b63 = private unnamed_addr constant <{ ptr, [16 x i8] }> <{ ptr @alloc_52455942f635c15dfc7082d483dfdeb4, [16 x i8] c"Z\00\00\00\00\00\00\00t\00\00\00C\00\00\00" }>, align 8
@alloc_7c901819c1d8faff1ff384326ea8c5f4 = private unnamed_addr constant <{ ptr, [16 x i8] }> <{ ptr @alloc_52455942f635c15dfc7082d483dfdeb4, [16 x i8] c"Z\00\00\00\00\00\00\00|\00\00\00\09\00\00\00" }>, align 8
@alloc_a4772b3acfc19af28fefe691db64c6aa = private unnamed_addr constant [15 x i8] c"gnu_time_bits64", align 1
@alloc_4052f5f320831d7a280bd8ee23d7c161 = private unnamed_addr constant [22 x i8] c"gnu_file_offset_bits64", align 1
@alloc_e051788150efb5e0f212c696366647c3 = private unnamed_addr constant [18 x i8] c"libc_deny_warnings", align 1
@alloc_e300d0c2c56fc656630ece49b293f3f6 = private unnamed_addr constant [17 x i8] c"libc_thread_local", align 1
@alloc_c1dd1d9f50ed06e24759135ae11c1cd7 = private unnamed_addr constant [13 x i8] c"espidf_time32", align 1
@alloc_0932325d29f8c848cece173911e7c4a6 = private unnamed_addr constant <{ ptr, [8 x i8], ptr, [8 x i8], ptr, [8 x i8], ptr, [8 x i8], ptr, [8 x i8], ptr, [8 x i8], ptr, [8 x i8], ptr, [8 x i8], ptr, [8 x i8], ptr, [8 x i8], ptr, [8 x i8], ptr, [8 x i8], ptr, [8 x i8], ptr, [8 x i8] }> <{ ptr @alloc_ccedf80c3ce4e46e2ff8efee35ec798b, [8 x i8] c"\17\00\00\00\00\00\00\00", ptr @alloc_c1dd1d9f50ed06e24759135ae11c1cd7, [8 x i8] c"\0D\00\00\00\00\00\00\00", ptr @alloc_7267420313fdc34f79da1c04bfca7409, [8 x i8] c"\09\00\00\00\00\00\00\00", ptr @alloc_5581ed16f5c58ecd3f36713b9b396029, [8 x i8] c"\09\00\00\00\00\00\00\00", ptr @alloc_55f07188386ace482603892e4768112d, [8 x i8] c"\09\00\00\00\00\00\00\00", ptr @alloc_028f45a065ad7442c332be763445b925, [8 x i8] c"\09\00\00\00\00\00\00\00", ptr @alloc_358590eecf303ad391259af81e368788, [8 x i8] c"\09\00\00\00\00\00\00\00", ptr @alloc_c8539d7d8992b0450a5874fa781e9124, [8 x i8] c"\09\00\00\00\00\00\00\00", ptr @alloc_4052f5f320831d7a280bd8ee23d7c161, [8 x i8] c"\16\00\00\00\00\00\00\00", ptr @alloc_a4772b3acfc19af28fefe691db64c6aa, [8 x i8] c"\0F\00\00\00\00\00\00\00", ptr @alloc_e051788150efb5e0f212c696366647c3, [8 x i8] c"\12\00\00\00\00\00\00\00", ptr @alloc_e300d0c2c56fc656630ece49b293f3f6, [8 x i8] c"\11\00\00\00\00\00\00\00", ptr @alloc_681b6f9e783332c8e0b8ad7b08df1498, [8 x i8] c"\11\00\00\00\00\00\00\00", ptr @alloc_513019cde2cbfb4427cb8f1afc437e08, [8 x i8] c"\0B\00\00\00\00\00\00\00" }>, align 8
@alloc_2cddc5e59ad0ce52fa6a12317b7d9940 = private unnamed_addr constant [9 x i8] c"target_os", align 1
@alloc_06bdffecd12566b07b46a1d9c671b787 = private unnamed_addr constant [6 x i8] c"switch", align 1
@alloc_56682c411a884305a0498f0904259ddf = private unnamed_addr constant [3 x i8] c"aix", align 1
@alloc_45bb0232104d815c4dda9598abc92521 = private unnamed_addr constant [4 x i8] c"hurd", align 1
@alloc_7d89cad1193e3093f83db65de654886c = private unnamed_addr constant [5 x i8] c"rtems", align 1
@alloc_c681dba5e39d19fa023e5cc12642d541 = private unnamed_addr constant [8 x i8] c"visionos", align 1
@alloc_83b5f38e8216cdcf7d09bbba859e9e33 = private unnamed_addr constant [5 x i8] c"nuttx", align 1
@alloc_8556a45425763a509e2688076730be6f = private unnamed_addr constant [6 x i8] c"cygwin", align 1
@alloc_227cd49c7c33a6f341699cff0c19de8b = private unnamed_addr constant <{ ptr, [8 x i8], ptr, [8 x i8], ptr, [8 x i8], ptr, [8 x i8], ptr, [8 x i8], ptr, [8 x i8], ptr, [8 x i8], ptr, [8 x i8] }> <{ ptr @alloc_06bdffecd12566b07b46a1d9c671b787, [8 x i8] c"\06\00\00\00\00\00\00\00", ptr @alloc_56682c411a884305a0498f0904259ddf, [8 x i8] c"\03\00\00\00\00\00\00\00", ptr @alloc_830cd488b6068638e05ed5b0c299b4af, [8 x i8] c"\04\00\00\00\00\00\00\00", ptr @alloc_45bb0232104d815c4dda9598abc92521, [8 x i8] c"\04\00\00\00\00\00\00\00", ptr @alloc_7d89cad1193e3093f83db65de654886c, [8 x i8] c"\05\00\00\00\00\00\00\00", ptr @alloc_c681dba5e39d19fa023e5cc12642d541, [8 x i8] c"\08\00\00\00\00\00\00\00", ptr @alloc_83b5f38e8216cdcf7d09bbba859e9e33, [8 x i8] c"\05\00\00\00\00\00\00\00", ptr @alloc_8556a45425763a509e2688076730be6f, [8 x i8] c"\06\00\00\00\00\00\00\00" }>, align 8
@alloc_df599e29b3820982aef0645887d35e8c = private unnamed_addr constant [10 x i8] c"target_env", align 1
@alloc_369c643820514fbe33fb426e73a3da06 = private unnamed_addr constant [7 x i8] c"illumos", align 1
@alloc_7e4f24954a4fa587ee17e75c042a2c6a = private unnamed_addr constant [4 x i8] c"wasi", align 1
@alloc_9ece1e428f15509c5755d645816c31a7 = private unnamed_addr constant [12 x i8] c"nto71_iosock", align 1
@alloc_47a2c3621a8fa9e428c3400e4faf2bb1 = private unnamed_addr constant [5 x i8] c"nto80", align 1
@alloc_50543c6fc28a9aa73f9310524f136113 = private unnamed_addr constant <{ ptr, [8 x i8], ptr, [8 x i8], ptr, [8 x i8], ptr, [8 x i8], ptr, [8 x i8], ptr, [8 x i8] }> <{ ptr @alloc_369c643820514fbe33fb426e73a3da06, [8 x i8] c"\07\00\00\00\00\00\00\00", ptr @alloc_7e4f24954a4fa587ee17e75c042a2c6a, [8 x i8] c"\04\00\00\00\00\00\00\00", ptr @alloc_56682c411a884305a0498f0904259ddf, [8 x i8] c"\03\00\00\00\00\00\00\00", ptr @alloc_830cd488b6068638e05ed5b0c299b4af, [8 x i8] c"\04\00\00\00\00\00\00\00", ptr @alloc_9ece1e428f15509c5755d645816c31a7, [8 x i8] c"\0C\00\00\00\00\00\00\00", ptr @alloc_47a2c3621a8fa9e428c3400e4faf2bb1, [8 x i8] c"\05\00\00\00\00\00\00\00" }>, align 8
@alloc_9259c4107c8646157225831547e51707 = private unnamed_addr constant [11 x i8] c"target_arch", align 1
@alloc_cbb73a85e2ed78c1dc2a615b03408878 = private unnamed_addr constant [8 x i8] c"mips32r6", align 1
@alloc_1cb3d6a6216aeea0aa93cb8b80a5f107 = private unnamed_addr constant [8 x i8] c"mips64r6", align 1
@alloc_a5dc2de5b3efc052edbd4e83ca0843da = private unnamed_addr constant [4 x i8] c"csky", align 1
@alloc_8ae71c71763656cbeae0e33c1cd3df64 = private unnamed_addr constant <{ ptr, [8 x i8], ptr, [8 x i8], ptr, [8 x i8], ptr, [8 x i8] }> <{ ptr @alloc_be0c7e2eb8d81d67a6db9a856123bb7e, [8 x i8] c"\0B\00\00\00\00\00\00\00", ptr @alloc_cbb73a85e2ed78c1dc2a615b03408878, [8 x i8] c"\08\00\00\00\00\00\00\00", ptr @alloc_1cb3d6a6216aeea0aa93cb8b80a5f107, [8 x i8] c"\08\00\00\00\00\00\00\00", ptr @alloc_a5dc2de5b3efc052edbd4e83ca0843da, [8 x i8] c"\04\00\00\00\00\00\00\00" }>, align 8
@alloc_2bd9fa038d7fb2af8467fdc2c22fe0ae = private unnamed_addr constant <{ ptr, [8 x i8], ptr, [8 x i8], ptr, [8 x i8], ptr, [8 x i8], ptr, [8 x i8], ptr, [8 x i8] }> <{ ptr @alloc_2cddc5e59ad0ce52fa6a12317b7d9940, [8 x i8] c"\09\00\00\00\00\00\00\00", ptr @alloc_227cd49c7c33a6f341699cff0c19de8b, [8 x i8] c"\08\00\00\00\00\00\00\00", ptr @alloc_df599e29b3820982aef0645887d35e8c, [8 x i8] c"\0A\00\00\00\00\00\00\00", ptr @alloc_50543c6fc28a9aa73f9310524f136113, [8 x i8] c"\06\00\00\00\00\00\00\00", ptr @alloc_9259c4107c8646157225831547e51707, [8 x i8] c"\0B\00\00\00\00\00\00\00", ptr @alloc_8ae71c71763656cbeae0e33c1cd3df64, [8 x i8] c"\04\00\00\00\00\00\00\00" }>, align 8
@alloc_311b976fb5d24a0a0f713b9b41a85bdb = private unnamed_addr constant <{ ptr, [16 x i8] }> <{ ptr @alloc_52455942f635c15dfc7082d483dfdeb4, [16 x i8] c"Z\00\00\00\00\00\00\00\80\00\00\00\09\00\00\00" }>, align 8
@alloc_3d7e4e4dcba1e346fc2023d7740b9453 = private unnamed_addr constant <{ ptr, [16 x i8] }> <{ ptr @alloc_52455942f635c15dfc7082d483dfdeb4, [16 x i8] c"Z\00\00\00\00\00\00\00K\00\00\00\18\00\00\00" }>, align 8
@alloc_a99599e6e9267619b8f74409350a9da3 = private unnamed_addr constant [18 x i8] c"trying to set cfg ", align 1
@alloc_4eb59c0c17baa4801b5eddd4ef47a15e = private unnamed_addr constant [31 x i8] c", but it is not in ALLOWED_CFGS", align 1
@alloc_f8739e434036f40081f788f546d596d3 = private unnamed_addr constant <{ ptr, [8 x i8], ptr, [8 x i8] }> <{ ptr @alloc_a99599e6e9267619b8f74409350a9da3, [8 x i8] c"\12\00\00\00\00\00\00\00", ptr @alloc_4eb59c0c17baa4801b5eddd4ef47a15e, [8 x i8] c"\1F\00\00\00\00\00\00\00" }>, align 8
@alloc_6d37a15ac7cea7e8070c0a492e97fefb = private unnamed_addr constant [16 x i8] c"cargo:rustc-cfg=", align 1
@alloc_5a79a85d1ca76a39f0002eef087ba57f = private unnamed_addr constant <{ ptr, [8 x i8], ptr, [8 x i8] }> <{ ptr @alloc_6d37a15ac7cea7e8070c0a492e97fefb, [8 x i8] c"\10\00\00\00\00\00\00\00", ptr @alloc_49a1e817e911805af64bbc7efb390101, [8 x i8] c"\01\00\00\00\00\00\00\00" }>, align 8
@alloc_91447c560ea996fe742d129ee14b2f70 = private unnamed_addr constant <{ ptr, [16 x i8] }> <{ ptr @alloc_52455942f635c15dfc7082d483dfdeb4, [16 x i8] c"Z\00\00\00\00\00\00\00%\01\00\00\05\00\00\00" }>, align 8
@vtable.0 = private constant <{ [24 x i8], ptr, ptr, ptr }> <{ [24 x i8] c"\00\00\00\00\00\00\00\00\08\00\00\00\00\00\00\00\08\00\00\00\00\00\00\00", ptr @"_ZN4core3ops8function6FnOnce40call_once$u7b$$u7b$vtable.shim$u7d$$u7d$17h5a2f1477fa6a6600E", ptr @"_ZN3std2rt10lang_start28_$u7b$$u7b$closure$u7d$$u7d$17h3229d35e630e5019E", ptr @"_ZN3std2rt10lang_start28_$u7b$$u7b$closure$u7d$$u7d$17h3229d35e630e5019E" }>, align 8, !dbg !0
@vtable.2 = private constant <{ ptr, [16 x i8], ptr }> <{ ptr @"_ZN4core3ptr42drop_in_place$LT$std..io..error..Error$GT$17h90ea0dbd5b290a39E", [16 x i8] c"\08\00\00\00\00\00\00\00\08\00\00\00\00\00\00\00", ptr @"_ZN58_$LT$std..io..error..Error$u20$as$u20$core..fmt..Debug$GT$3fmt17h60a0f3b1e7df0efbE" }>, align 8, !dbg !24
@vtable.3 = private constant <{ [24 x i8], ptr }> <{ [24 x i8] c"\00\00\00\00\00\00\00\00\01\00\00\00\00\00\00\00\01\00\00\00\00\00\00\00", ptr @"_ZN68_$LT$core..num..error..ParseIntError$u20$as$u20$core..fmt..Debug$GT$3fmt17h42497383b100ff8aE" }>, align 8, !dbg !148
@alloc_00ae4b301f7fab8ac9617c03fcbd7274 = private unnamed_addr constant [43 x i8] c"called `Result::unwrap()` on an `Err` value", align 1
@_ZN4core7unicode12unicode_data11white_space14WHITESPACE_MAP17hb5f4620fde8a65aaE = external local_unnamed_addr global [256 x i8]
@vtable.4 = private constant <{ [24 x i8], ptr }> <{ [24 x i8] c"\00\00\00\00\00\00\00\00\08\00\00\00\00\00\00\00\08\00\00\00\00\00\00\00", ptr @"_ZN42_$LT$$RF$T$u20$as$u20$core..fmt..Debug$GT$3fmt17h42d64c6ab4b852ffE" }>, align 8, !dbg !168
@alloc_223564df8319c322e734031185d15c7a = private unnamed_addr constant [80 x i8] c"/rustc/f8297e351a40c1439a467bbbb6879088047f50b3/library/core/src/str/pattern.rs\00", align 1
@alloc_114a47939710b1ff35e231e3818c466b = private unnamed_addr constant [96 x i8] c"/rustc/f8297e351a40c1439a467bbbb6879088047f50b3/library/alloc/src/collections/btree/navigate.rs\00", align 1
@alloc_941df310a847314966c90244023d54da = private unnamed_addr constant <{ ptr, [16 x i8] }> <{ ptr @alloc_114a47939710b1ff35e231e3818c466b, [16 x i8] c"_\00\00\00\00\00\00\00X\02\00\000\00\00\00" }>, align 8
@alloc_38ec782865df8d4640d3e87a347c1bf8 = private unnamed_addr constant <{ ptr, [16 x i8] }> <{ ptr @alloc_114a47939710b1ff35e231e3818c466b, [16 x i8] c"_\00\00\00\00\00\00\00\C6\00\00\00'\00\00\00" }>, align 8
@alloc_ca673fb95acb8e58af271999e89294ae = private unnamed_addr constant [53 x i8] c"attempt to join into collection with len > usize::MAX", align 1
@alloc_d1084648e479974e70c9329824bf76f9 = private unnamed_addr constant [9 x i8] c"mid > len", align 1
@alloc_716ff0773fff869d3b6edfdef8f974a4 = private unnamed_addr constant <{ ptr, [8 x i8] }> <{ ptr @alloc_d1084648e479974e70c9329824bf76f9, [8 x i8] c"\09\00\00\00\00\00\00\00" }>, align 8
@alloc_cf041ce8d0725f25585d561522648216 = private unnamed_addr constant [73 x i8] c"/rustc/f8297e351a40c1439a467bbbb6879088047f50b3/library/alloc/src/str.rs\00", align 1
@alloc_50dfaa9438edf557429bc9ea7987c92e = private unnamed_addr constant <{ ptr, [16 x i8] }> <{ ptr @alloc_cf041ce8d0725f25585d561522648216, [16 x i8] c"H\00\00\00\00\00\00\00\9A\00\00\00\0A\00\00\00" }>, align 8
@alloc_201074a0c9dfb1ee0baca3994e36ea1f = private unnamed_addr constant <{ ptr, [16 x i8] }> <{ ptr @alloc_cf041ce8d0725f25585d561522648216, [16 x i8] c"H\00\00\00\00\00\00\00\9D\00\00\00\16\00\00\00" }>, align 8
@alloc_47693306ee725748596388f371f8b247 = private unnamed_addr constant <{ ptr, [16 x i8] }> <{ ptr @alloc_cf041ce8d0725f25585d561522648216, [16 x i8] c"H\00\00\00\00\00\00\00\B1\00\00\00\16\00\00\00" }>, align 8
@alloc_9ff6678e36a249842bfa8d7c272d00c1 = private unnamed_addr constant [81 x i8] c"/rustc/f8297e351a40c1439a467bbbb6879088047f50b3/library/alloc/src/raw_vec/mod.rs\00", align 1
@alloc_ab6d55d2a65ad1e0dafc1ec4726e7b65 = private unnamed_addr constant <{ ptr, [16 x i8] }> <{ ptr @alloc_9ff6678e36a249842bfa8d7c272d00c1, [16 x i8] c"P\00\00\00\00\00\00\00*\02\00\00\11\00\00\00" }>, align 8
@alloc_37d2e53432a03a1f90b3e7253015eaf9 = private unnamed_addr constant [4 x i8] c"None", align 1
@vtable.5 = private constant <{ [24 x i8], ptr }> <{ [24 x i8] c"\00\00\00\00\00\00\00\00\08\00\00\00\00\00\00\00\08\00\00\00\00\00\00\00", ptr @"_ZN42_$LT$$RF$T$u20$as$u20$core..fmt..Debug$GT$3fmt17hae86bde5fa15fef1E" }>, align 8, !dbg !192
@alloc_9535bf4c204f3eb9b19ec2c83e446e52 = private unnamed_addr constant [4 x i8] c"Some", align 1
@alloc_59ba7b9f7211443cd55a366616eef46a = private unnamed_addr constant [5 x i8] c"Empty", align 1
@alloc_00315c78e51d29fe6b3102a4c1ecf6ef = private unnamed_addr constant [12 x i8] c"InvalidDigit", align 1
@alloc_bd3a3f3879e0d5f64554753e977f58d4 = private unnamed_addr constant [11 x i8] c"PosOverflow", align 1
@alloc_0964bb2a4870637395c77a018495bd5c = private unnamed_addr constant [11 x i8] c"NegOverflow", align 1
@alloc_6566120a3a17f930e960a0863fcbd591 = private unnamed_addr constant [4 x i8] c"Zero", align 1
@vtable.6 = private constant <{ [24 x i8], ptr }> <{ [24 x i8] c"\00\00\00\00\00\00\00\00\08\00\00\00\00\00\00\00\08\00\00\00\00\00\00\00", ptr @"_ZN42_$LT$$RF$T$u20$as$u20$core..fmt..Debug$GT$3fmt17hefdacb4f6ca4b8b4E" }>, align 8, !dbg !201
@alloc_f62df14955f7d78bca139b0a7668683d = private unnamed_addr constant [13 x i8] c"ParseIntError", align 1
@alloc_a5d866b1768ad3f826bccdb004a1a8ae = private unnamed_addr constant [4 x i8] c"kind", align 1
@alloc_285587e6675e6c1b33e1ca0d36855fef = private unnamed_addr constant <{ ptr, [16 x i8] }> <{ ptr @alloc_223564df8319c322e734031185d15c7a, [16 x i8] c"O\00\00\00\00\00\00\00\CE\01\00\007\00\00\00" }>, align 8
@alloc_5264e1fa93f1966af635842635a97b9c = private unnamed_addr constant [75 x i8] c"/rustc/f8297e351a40c1439a467bbbb6879088047f50b3/library/alloc/src/slice.rs\00", align 1
@alloc_9077336e87f2fbeea4d9a498a8a37d0f = private unnamed_addr constant <{ ptr, [16 x i8] }> <{ ptr @alloc_5264e1fa93f1966af635842635a97b9c, [16 x i8] c"J\00\00\00\00\00\00\00\BD\01\00\00\1D\00\00\00" }>, align 8
@__rustc_debug_gdb_scripts_section__ = linkonce_odr unnamed_addr constant [34 x i8] c"\01gdb_load_rust_pretty_printers.py\00", section ".debug_gdb_scripts", align 1

; build_script_build::rustc_version_cmd
; Function Attrs: nonlazybind uwtable
define internal fastcc void @_ZN18build_script_build17rustc_version_cmd17h4215f5cac469d4f5E(ptr dead_on_unwind noalias noundef nonnull writable writeonly align 8 captures(none) dereferenceable(56) %_0, i1 noundef zeroext %is_clippy_driver) unnamed_addr #0 personality ptr @rust_eh_personality !dbg !328 {
start:
  %e.i = alloca [8 x i8], align 8
  %_2.i56 = alloca [200 x i8], align 8
  %_2.i41 = alloca [200 x i8], align 8
  %_2.i = alloca [200 x i8], align 8
  %_29 = alloca [24 x i8], align 8
  %args = alloca [16 x i8], align 8
  %_25 = alloca [48 x i8], align 8
  %_21 = alloca [56 x i8], align 8
  %output = alloca [56 x i8], align 8
  %cmd2 = alloca [200 x i8], align 8
    #dbg_value(ptr poison, !746, !DIExpression(), !824)
  %_5 = alloca [24 x i8], align 8
  %cmd = alloca [200 x i8], align 8
  %self = alloca [24 x i8], align 8
    #dbg_value(i1 %is_clippy_driver, !383, !DIExpression(DW_OP_LLVM_convert, 1, DW_ATE_unsigned, DW_OP_LLVM_convert, 8, DW_ATE_unsigned, DW_OP_stack_value), !825)
    #dbg_declare(ptr %self, !826, !DIExpression(), !853)
    #dbg_declare(ptr %cmd, !396, !DIExpression(), !855)
    #dbg_declare(ptr %cmd2, !750, !DIExpression(), !856)
    #dbg_declare(ptr %output, !752, !DIExpression(), !857)
    #dbg_declare(ptr %args, !754, !DIExpression(), !858)
    #dbg_value(ptr @alloc_57e2a3f3daa80a9da338a6fbc7fe2a99, !850, !DIExpression(DW_OP_LLVM_fragment, 0, 64), !859)
    #dbg_value(i64 46, !850, !DIExpression(DW_OP_LLVM_fragment, 64, 64), !859)
    #dbg_declare(ptr poison, !860, !DIExpression(), !882)
    #dbg_declare(ptr poison, !891, !DIExpression(), !935)
    #dbg_value(ptr @alloc_eaaa6a8512dd326c4c1db6475452d7d6, !985, !DIExpression(), !1050)
  call void @llvm.lifetime.start.p0(i64 24, ptr nonnull %self), !dbg !1053
    #dbg_value(ptr @alloc_806c1ac911172019779ceab530bc1f0e, !1054, !DIExpression(DW_OP_LLVM_fragment, 0, 64), !1063)
    #dbg_value(i64 5, !1054, !DIExpression(DW_OP_LLVM_fragment, 64, 64), !1063)
; call std::env::_var_os
  call void @_ZN3std3env7_var_os17h78f57e2d5ca283e2E(ptr noalias noundef nonnull sret([24 x i8]) align 8 captures(address) dereferenceable(24) %self, ptr noalias noundef nonnull readonly align 1 captures(address, read_provenance) @alloc_806c1ac911172019779ceab530bc1f0e, i64 noundef 5), !dbg !1065
  %0 = load i64, ptr %self, align 8, !dbg !1066, !range !1067, !noundef !23
  %.not = icmp eq i64 %0, -9223372036854775808, !dbg !1066
  br i1 %.not, label %bb36, label %bb37, !dbg !1068, !prof !1069

bb37:                                             ; preds = %start
    #dbg_value(i64 %0, !384, !DIExpression(DW_OP_LLVM_fragment, 0, 64), !1070)
  %rustc.sroa.7.0.self.sroa_idx = getelementptr inbounds nuw i8, ptr %self, i64 8, !dbg !1071
  %rustc.sroa.7.0.copyload = load ptr, ptr %rustc.sroa.7.0.self.sroa_idx, align 8, !dbg !1071
    #dbg_value(ptr %rustc.sroa.7.0.copyload, !384, !DIExpression(DW_OP_LLVM_fragment, 64, 64), !1070)
  %rustc.sroa.8.0.self.sroa_idx = getelementptr inbounds nuw i8, ptr %self, i64 16, !dbg !1071
  %rustc.sroa.8.0.copyload = load i64, ptr %rustc.sroa.8.0.self.sroa_idx, align 8, !dbg !1071
    #dbg_value(i64 %rustc.sroa.8.0.copyload, !384, !DIExpression(DW_OP_LLVM_fragment, 128, 64), !1070)
  call void @llvm.lifetime.end.p0(i64 24, ptr nonnull %self), !dbg !1072
  call void @llvm.lifetime.start.p0(i64 200, ptr nonnull %cmd), !dbg !1073
  call void @llvm.lifetime.start.p0(i64 24, ptr nonnull %_5), !dbg !1074
    #dbg_value(ptr @alloc_f36ce88bd5d4a921175f5521f484b675, !1054, !DIExpression(DW_OP_LLVM_fragment, 0, 64), !1075)
    #dbg_value(i64 13, !1054, !DIExpression(DW_OP_LLVM_fragment, 64, 64), !1075)
; invoke std::env::_var_os
  invoke void @_ZN3std3env7_var_os17h78f57e2d5ca283e2E(ptr noalias noundef nonnull sret([24 x i8]) align 8 captures(address) dereferenceable(24) %_5, ptr noalias noundef nonnull readonly align 1 captures(address, read_provenance) @alloc_f36ce88bd5d4a921175f5521f484b675, i64 noundef 13)
          to label %bb2 unwind label %bb35.thread124, !dbg !1077

bb35.thread124:                                   ; preds = %bb37
  %1 = landingpad { ptr, i32 }
          cleanup
  br label %bb34, !dbg !1078

bb36:                                             ; preds = %start
; call core::option::expect_failed
  call void @_ZN4core6option13expect_failed17h8e1641c1f6197e5bE(ptr noalias noundef nonnull readonly align 1 captures(address, read_provenance) @alloc_57e2a3f3daa80a9da338a6fbc7fe2a99, i64 noundef 46, ptr noalias noundef readonly align 8 captures(address, read_provenance) dereferenceable(24) @alloc_f6fa39700da9355fe3d26b2329968545) #23, !dbg !1079
  unreachable, !dbg !1079

bb2:                                              ; preds = %bb37
  %2 = load i64, ptr %_5, align 8, !dbg !1074, !range !1067, !noundef !23
  %.not27 = icmp eq i64 %2, -9223372036854775808, !dbg !1074
  br i1 %.not27, label %bb4, label %bb5, !dbg !1080

bb5:                                              ; preds = %bb2
    #dbg_value(ptr %_5, !743, !DIExpression(), !824)
    #dbg_value(ptr %_5, !889, !DIExpression(), !1081)
    #dbg_value(ptr %_5, !881, !DIExpression(), !1082)
    #dbg_value(ptr undef, !746, !DIExpression(), !824)
    #dbg_value(ptr %_5, !1083, !DIExpression(), !1096)
    #dbg_value(ptr %_5, !1098, !DIExpression(), !1110)
    #dbg_value(ptr %_5, !1112, !DIExpression(), !1118)
  %3 = getelementptr inbounds nuw i8, ptr %_5, i64 16, !dbg !1120
  %len = load i64, ptr %3, align 8, !dbg !1120, !noundef !23
  %4 = icmp eq i64 %len, 0, !dbg !890
  br i1 %4, label %bb6, label %bb7, !dbg !890

bb4:                                              ; preds = %bb2
    #dbg_value(i64 %0, !1121, !DIExpression(DW_OP_LLVM_fragment, 0, 64), !1129)
    #dbg_value(ptr %rustc.sroa.7.0.copyload, !1121, !DIExpression(DW_OP_LLVM_fragment, 64, 64), !1129)
    #dbg_value(i64 %rustc.sroa.8.0.copyload, !1121, !DIExpression(DW_OP_LLVM_fragment, 128, 64), !1129)
  call void @llvm.lifetime.start.p0(i64 200, ptr nonnull %_2.i), !dbg !1131, !noalias !1132
  %5 = icmp ne ptr %rustc.sroa.7.0.copyload, null
  call void @llvm.assume(i1 %5)
; invoke std::sys::process::unix::common::Command::new
  invoke void @_ZN3std3sys7process4unix6common7Command3new17hd085411f617aeca8E(ptr noalias noundef nonnull sret([200 x i8]) align 8 captures(address) dereferenceable(200) %_2.i, ptr noalias noundef nonnull readonly align 1 captures(address, read_provenance) %rustc.sroa.7.0.copyload, i64 noundef %rustc.sroa.8.0.copyload)
          to label %bb2.i unwind label %cleanup.i, !dbg !1131, !noalias !1132

cleanup.i:                                        ; preds = %bb4
  %6 = landingpad { ptr, i32 }
          cleanup
    #dbg_value(ptr poison, !1136, !DIExpression(), !1143)
    #dbg_value(ptr poison, !1145, !DIExpression(), !1153)
    #dbg_value(ptr poison, !1155, !DIExpression(), !1163)
    #dbg_value(ptr poison, !1165, !DIExpression(), !1173)
    #dbg_value(ptr poison, !1175, !DIExpression(), !1183)
    #dbg_value(ptr poison, !1185, !DIExpression(), !1205)
    #dbg_value(i64 1, !1201, !DIExpression(DW_OP_LLVM_fragment, 0, 64), !1205)
    #dbg_value(i64 1, !1201, !DIExpression(DW_OP_LLVM_fragment, 64, 64), !1205)
    #dbg_value(i64 1, !1207, !DIExpression(DW_OP_LLVM_fragment, 0, 64), !1236)
    #dbg_value(i64 1, !1207, !DIExpression(DW_OP_LLVM_fragment, 64, 64), !1236)
    #dbg_value(ptr poison, !1231, !DIExpression(), !1236)
  %7 = icmp eq i64 %0, 0, !dbg !1238
  br i1 %7, label %bb26, label %bb2.i.i.i4.i.i.i.i, !dbg !1238

bb2.i.i.i4.i.i.i.i:                               ; preds = %cleanup.i
    #dbg_value(ptr %rustc.sroa.7.0.copyload, !1202, !DIExpression(), !1239)
    #dbg_value(i64 1, !1204, !DIExpression(DW_OP_LLVM_fragment, 0, 64), !1239)
    #dbg_value(i64 %0, !1204, !DIExpression(DW_OP_LLVM_fragment, 64, 64), !1239)
    #dbg_value(i64 1, !1240, !DIExpression(DW_OP_LLVM_fragment, 0, 64), !1250)
    #dbg_value(i64 %0, !1240, !DIExpression(DW_OP_LLVM_fragment, 64, 64), !1250)
    #dbg_value(ptr poison, !1248, !DIExpression(), !1250)
    #dbg_value(ptr %rustc.sroa.7.0.copyload, !1249, !DIExpression(), !1250)
    #dbg_value(ptr %rustc.sroa.7.0.copyload, !1252, !DIExpression(), !1259)
    #dbg_value(i64 1, !1258, !DIExpression(DW_OP_LLVM_fragment, 0, 64), !1259)
    #dbg_value(i64 %0, !1258, !DIExpression(DW_OP_LLVM_fragment, 64, 64), !1259)
; call __rustc::__rust_dealloc
  call void @_RNvCsj3IbkTTFM3W_7___rustc14___rust_dealloc(ptr noundef nonnull %rustc.sroa.7.0.copyload, i64 noundef %0, i64 noundef range(i64 1, -9223372036854775807) 1) #24, !dbg !1261, !noalias !1132
  br label %bb26, !dbg !1262

bb2.i:                                            ; preds = %bb4
  call void @llvm.memcpy.p0.p0.i64(ptr noundef nonnull align 8 dereferenceable(200) %cmd, ptr noundef nonnull align 8 dereferenceable(200) %_2.i, i64 200, i1 false), !dbg !1263, !noalias !1264
  call void @llvm.lifetime.end.p0(i64 200, ptr nonnull %_2.i), !dbg !1265, !noalias !1132
    #dbg_value(ptr poison, !1136, !DIExpression(), !1266)
    #dbg_value(ptr poison, !1145, !DIExpression(), !1268)
    #dbg_value(ptr poison, !1155, !DIExpression(), !1270)
    #dbg_value(ptr poison, !1165, !DIExpression(), !1272)
    #dbg_value(ptr poison, !1175, !DIExpression(), !1274)
    #dbg_value(ptr poison, !1185, !DIExpression(), !1276)
    #dbg_value(i64 1, !1201, !DIExpression(DW_OP_LLVM_fragment, 0, 64), !1276)
    #dbg_value(i64 1, !1201, !DIExpression(DW_OP_LLVM_fragment, 64, 64), !1276)
    #dbg_value(i64 1, !1207, !DIExpression(DW_OP_LLVM_fragment, 0, 64), !1278)
    #dbg_value(i64 1, !1207, !DIExpression(DW_OP_LLVM_fragment, 64, 64), !1278)
    #dbg_value(ptr poison, !1231, !DIExpression(), !1278)
  %8 = icmp eq i64 %0, 0, !dbg !1280
  br i1 %8, label %bb27, label %bb2.i.i.i4.i.i.i6.i, !dbg !1280

bb2.i.i.i4.i.i.i6.i:                              ; preds = %bb2.i
    #dbg_value(ptr %rustc.sroa.7.0.copyload, !1202, !DIExpression(), !1281)
    #dbg_value(i64 1, !1204, !DIExpression(DW_OP_LLVM_fragment, 0, 64), !1281)
    #dbg_value(i64 %0, !1204, !DIExpression(DW_OP_LLVM_fragment, 64, 64), !1281)
    #dbg_value(i64 1, !1240, !DIExpression(DW_OP_LLVM_fragment, 0, 64), !1282)
    #dbg_value(i64 %0, !1240, !DIExpression(DW_OP_LLVM_fragment, 64, 64), !1282)
    #dbg_value(ptr poison, !1248, !DIExpression(), !1282)
    #dbg_value(ptr %rustc.sroa.7.0.copyload, !1249, !DIExpression(), !1282)
    #dbg_value(ptr %rustc.sroa.7.0.copyload, !1252, !DIExpression(), !1284)
    #dbg_value(i64 1, !1258, !DIExpression(DW_OP_LLVM_fragment, 0, 64), !1284)
    #dbg_value(i64 %0, !1258, !DIExpression(DW_OP_LLVM_fragment, 64, 64), !1284)
; call __rustc::__rust_dealloc
  call void @_RNvCsj3IbkTTFM3W_7___rustc14___rust_dealloc(ptr noundef nonnull %rustc.sroa.7.0.copyload, i64 noundef %0, i64 noundef range(i64 1, -9223372036854775807) 1) #24, !dbg !1286, !noalias !1132
  br label %bb27, !dbg !1287

bb2.i.i.i4.i.i.i:                                 ; preds = %bb30
  %9 = getelementptr inbounds nuw i8, ptr %_5, i64 8, !dbg !1288
  %_5.val39 = load ptr, ptr %9, align 8, !dbg !1288, !nonnull !23, !noundef !23
    #dbg_value(ptr %_5.val39, !1202, !DIExpression(), !1289)
    #dbg_value(i64 1, !1204, !DIExpression(DW_OP_LLVM_fragment, 0, 64), !1289)
    #dbg_value(i64 %2, !1204, !DIExpression(DW_OP_LLVM_fragment, 64, 64), !1289)
    #dbg_value(i64 1, !1240, !DIExpression(DW_OP_LLVM_fragment, 0, 64), !1296)
    #dbg_value(i64 %2, !1240, !DIExpression(DW_OP_LLVM_fragment, 64, 64), !1296)
    #dbg_value(ptr poison, !1248, !DIExpression(), !1296)
    #dbg_value(ptr %_5.val39, !1249, !DIExpression(), !1296)
    #dbg_value(ptr %_5.val39, !1252, !DIExpression(), !1298)
    #dbg_value(i64 1, !1258, !DIExpression(DW_OP_LLVM_fragment, 0, 64), !1298)
    #dbg_value(i64 %2, !1258, !DIExpression(DW_OP_LLVM_fragment, 64, 64), !1298)
; call __rustc::__rust_dealloc
  call void @_RNvCsj3IbkTTFM3W_7___rustc14___rust_dealloc(ptr noundef nonnull %_5.val39, i64 noundef %2, i64 noundef range(i64 1, -9223372036854775807) 1) #24, !dbg !1300
  br label %bb27, !dbg !1301

bb27:                                             ; preds = %bb30.thread, %bb2.i.i.i4.i.i.i, %bb30, %bb2.i, %bb2.i.i.i4.i.i.i6.i
  call void @llvm.lifetime.end.p0(i64 24, ptr nonnull %_5), !dbg !1288
    #dbg_value(ptr @alloc_a887f9858119cc7413062dc002c4d9ab, !1302, !DIExpression(DW_OP_LLVM_fragment, 0, 64), !1312)
    #dbg_value(i64 9, !1302, !DIExpression(DW_OP_LLVM_fragment, 64, 64), !1312)
    #dbg_value(ptr %cmd, !1311, !DIExpression(), !1312)
; invoke std::sys::process::unix::common::Command::arg
  invoke void @_ZN3std3sys7process4unix6common7Command3arg17h4e7a5dd79e892c82E(ptr noalias noundef nonnull align 8 dereferenceable(200) %cmd, ptr noalias noundef nonnull readonly align 1 captures(address, read_provenance) @alloc_a887f9858119cc7413062dc002c4d9ab, i64 noundef 9)
          to label %bb15 unwind label %cleanup8, !dbg !1314

bb6:                                              ; preds = %bb5
    #dbg_value(i64 %0, !1121, !DIExpression(DW_OP_LLVM_fragment, 0, 64), !1315)
    #dbg_value(ptr %rustc.sroa.7.0.copyload, !1121, !DIExpression(DW_OP_LLVM_fragment, 64, 64), !1315)
    #dbg_value(i64 %rustc.sroa.8.0.copyload, !1121, !DIExpression(DW_OP_LLVM_fragment, 128, 64), !1315)
  call void @llvm.lifetime.start.p0(i64 200, ptr nonnull %_2.i41), !dbg !1317, !noalias !1318
  %10 = icmp ne ptr %rustc.sroa.7.0.copyload, null
  call void @llvm.assume(i1 %10)
; invoke std::sys::process::unix::common::Command::new
  invoke void @_ZN3std3sys7process4unix6common7Command3new17hd085411f617aeca8E(ptr noalias noundef nonnull sret([200 x i8]) align 8 captures(address) dereferenceable(200) %_2.i41, ptr noalias noundef nonnull readonly align 1 captures(address, read_provenance) %rustc.sroa.7.0.copyload, i64 noundef %rustc.sroa.8.0.copyload)
          to label %bb2.i48 unwind label %cleanup.i44, !dbg !1317, !noalias !1318

cleanup.i44:                                      ; preds = %bb6
  %11 = landingpad { ptr, i32 }
          cleanup
    #dbg_value(ptr poison, !1136, !DIExpression(), !1322)
    #dbg_value(ptr poison, !1145, !DIExpression(), !1324)
    #dbg_value(ptr poison, !1155, !DIExpression(), !1326)
    #dbg_value(ptr poison, !1165, !DIExpression(), !1328)
    #dbg_value(ptr poison, !1175, !DIExpression(), !1330)
    #dbg_value(ptr poison, !1185, !DIExpression(), !1332)
    #dbg_value(i64 1, !1201, !DIExpression(DW_OP_LLVM_fragment, 0, 64), !1332)
    #dbg_value(i64 1, !1201, !DIExpression(DW_OP_LLVM_fragment, 64, 64), !1332)
    #dbg_value(i64 1, !1207, !DIExpression(DW_OP_LLVM_fragment, 0, 64), !1334)
    #dbg_value(i64 1, !1207, !DIExpression(DW_OP_LLVM_fragment, 64, 64), !1334)
    #dbg_value(ptr poison, !1231, !DIExpression(), !1334)
  %12 = icmp eq i64 %0, 0, !dbg !1336
  br i1 %12, label %bb32, label %bb2.i.i.i4.i.i.i.i46, !dbg !1336

bb2.i.i.i4.i.i.i.i46:                             ; preds = %cleanup.i44
    #dbg_value(ptr %rustc.sroa.7.0.copyload, !1202, !DIExpression(), !1337)
    #dbg_value(i64 1, !1204, !DIExpression(DW_OP_LLVM_fragment, 0, 64), !1337)
    #dbg_value(i64 %0, !1204, !DIExpression(DW_OP_LLVM_fragment, 64, 64), !1337)
    #dbg_value(i64 1, !1240, !DIExpression(DW_OP_LLVM_fragment, 0, 64), !1338)
    #dbg_value(i64 %0, !1240, !DIExpression(DW_OP_LLVM_fragment, 64, 64), !1338)
    #dbg_value(ptr poison, !1248, !DIExpression(), !1338)
    #dbg_value(ptr %rustc.sroa.7.0.copyload, !1249, !DIExpression(), !1338)
    #dbg_value(ptr %rustc.sroa.7.0.copyload, !1252, !DIExpression(), !1340)
    #dbg_value(i64 1, !1258, !DIExpression(DW_OP_LLVM_fragment, 0, 64), !1340)
    #dbg_value(i64 %0, !1258, !DIExpression(DW_OP_LLVM_fragment, 64, 64), !1340)
; call __rustc::__rust_dealloc
  call void @_RNvCsj3IbkTTFM3W_7___rustc14___rust_dealloc(ptr noundef nonnull %rustc.sroa.7.0.copyload, i64 noundef %0, i64 noundef range(i64 1, -9223372036854775807) 1) #24, !dbg !1342, !noalias !1318
  br label %bb32, !dbg !1343

bb2.i48:                                          ; preds = %bb6
  call void @llvm.memcpy.p0.p0.i64(ptr noundef nonnull align 8 dereferenceable(200) %cmd, ptr noundef nonnull align 8 dereferenceable(200) %_2.i41, i64 200, i1 false), !dbg !1344, !noalias !1345
  call void @llvm.lifetime.end.p0(i64 200, ptr nonnull %_2.i41), !dbg !1346, !noalias !1318
    #dbg_value(ptr poison, !1136, !DIExpression(), !1347)
    #dbg_value(ptr poison, !1145, !DIExpression(), !1349)
    #dbg_value(ptr poison, !1155, !DIExpression(), !1351)
    #dbg_value(ptr poison, !1165, !DIExpression(), !1353)
    #dbg_value(ptr poison, !1175, !DIExpression(), !1355)
    #dbg_value(ptr poison, !1185, !DIExpression(), !1357)
    #dbg_value(i64 1, !1201, !DIExpression(DW_OP_LLVM_fragment, 0, 64), !1357)
    #dbg_value(i64 1, !1201, !DIExpression(DW_OP_LLVM_fragment, 64, 64), !1357)
    #dbg_value(i64 1, !1207, !DIExpression(DW_OP_LLVM_fragment, 0, 64), !1359)
    #dbg_value(i64 1, !1207, !DIExpression(DW_OP_LLVM_fragment, 64, 64), !1359)
    #dbg_value(ptr poison, !1231, !DIExpression(), !1359)
  %13 = icmp eq i64 %0, 0, !dbg !1361
  br i1 %13, label %bb30, label %bb2.i.i.i4.i.i.i6.i50, !dbg !1361

bb2.i.i.i4.i.i.i6.i50:                            ; preds = %bb2.i48
    #dbg_value(ptr %rustc.sroa.7.0.copyload, !1202, !DIExpression(), !1362)
    #dbg_value(i64 1, !1204, !DIExpression(DW_OP_LLVM_fragment, 0, 64), !1362)
    #dbg_value(i64 %0, !1204, !DIExpression(DW_OP_LLVM_fragment, 64, 64), !1362)
    #dbg_value(i64 1, !1240, !DIExpression(DW_OP_LLVM_fragment, 0, 64), !1363)
    #dbg_value(i64 %0, !1240, !DIExpression(DW_OP_LLVM_fragment, 64, 64), !1363)
    #dbg_value(ptr poison, !1248, !DIExpression(), !1363)
    #dbg_value(ptr %rustc.sroa.7.0.copyload, !1249, !DIExpression(), !1363)
    #dbg_value(ptr %rustc.sroa.7.0.copyload, !1252, !DIExpression(), !1365)
    #dbg_value(i64 1, !1258, !DIExpression(DW_OP_LLVM_fragment, 0, 64), !1365)
    #dbg_value(i64 %0, !1258, !DIExpression(DW_OP_LLVM_fragment, 64, 64), !1365)
; call __rustc::__rust_dealloc
  call void @_RNvCsj3IbkTTFM3W_7___rustc14___rust_dealloc(ptr noundef nonnull %rustc.sroa.7.0.copyload, i64 noundef %0, i64 noundef range(i64 1, -9223372036854775807) 1) #24, !dbg !1367, !noalias !1318
  br label %bb30, !dbg !1368

bb7:                                              ; preds = %bb5
    #dbg_value(i64 %2, !748, !DIExpression(DW_OP_LLVM_fragment, 0, 64), !1369)
    #dbg_value(i64 %2, !1121, !DIExpression(DW_OP_LLVM_fragment, 0, 64), !1370)
  %wrapper1.sroa.3.0._5.sroa_idx = getelementptr inbounds nuw i8, ptr %_5, i64 8, !dbg !1372
  %wrapper1.sroa.3.0.copyload = load ptr, ptr %wrapper1.sroa.3.0._5.sroa_idx, align 8, !dbg !1372, !nonnull !23, !noundef !23
    #dbg_value(ptr %wrapper1.sroa.3.0.copyload, !748, !DIExpression(DW_OP_LLVM_fragment, 64, 64), !1369)
    #dbg_value(ptr %wrapper1.sroa.3.0.copyload, !1121, !DIExpression(DW_OP_LLVM_fragment, 64, 64), !1370)
    #dbg_value(i64 %len, !748, !DIExpression(DW_OP_LLVM_fragment, 128, 64), !1369)
    #dbg_value(i64 %len, !1121, !DIExpression(DW_OP_LLVM_fragment, 128, 64), !1370)
  call void @llvm.lifetime.start.p0(i64 200, ptr nonnull %cmd2), !dbg !1373
  call void @llvm.lifetime.start.p0(i64 200, ptr nonnull %_2.i56), !dbg !1374, !noalias !1375
; invoke std::sys::process::unix::common::Command::new
  invoke void @_ZN3std3sys7process4unix6common7Command3new17hd085411f617aeca8E(ptr noalias noundef nonnull sret([200 x i8]) align 8 captures(address) dereferenceable(200) %_2.i56, ptr noalias noundef nonnull readonly align 1 captures(address, read_provenance) %wrapper1.sroa.3.0.copyload, i64 noundef %len)
          to label %bb2.i63 unwind label %cleanup.i59, !dbg !1374, !noalias !1375

cleanup.i59:                                      ; preds = %bb7
  %14 = landingpad { ptr, i32 }
          cleanup
    #dbg_value(ptr poison, !1136, !DIExpression(), !1379)
    #dbg_value(ptr poison, !1145, !DIExpression(), !1381)
    #dbg_value(ptr poison, !1155, !DIExpression(), !1383)
    #dbg_value(ptr poison, !1165, !DIExpression(), !1385)
    #dbg_value(ptr poison, !1175, !DIExpression(), !1387)
    #dbg_value(ptr poison, !1185, !DIExpression(), !1389)
    #dbg_value(i64 1, !1201, !DIExpression(DW_OP_LLVM_fragment, 0, 64), !1389)
    #dbg_value(i64 1, !1201, !DIExpression(DW_OP_LLVM_fragment, 64, 64), !1389)
    #dbg_value(i64 1, !1207, !DIExpression(DW_OP_LLVM_fragment, 0, 64), !1391)
    #dbg_value(i64 1, !1207, !DIExpression(DW_OP_LLVM_fragment, 64, 64), !1391)
    #dbg_value(ptr poison, !1231, !DIExpression(), !1391)
  %15 = icmp eq i64 %2, 0, !dbg !1393
  br i1 %15, label %bb34, label %bb2.i.i.i4.i.i.i.i61, !dbg !1393

bb2.i.i.i4.i.i.i.i61:                             ; preds = %cleanup.i59
    #dbg_value(ptr %wrapper1.sroa.3.0.copyload, !1202, !DIExpression(), !1394)
    #dbg_value(i64 1, !1204, !DIExpression(DW_OP_LLVM_fragment, 0, 64), !1394)
    #dbg_value(i64 %2, !1204, !DIExpression(DW_OP_LLVM_fragment, 64, 64), !1394)
    #dbg_value(i64 1, !1240, !DIExpression(DW_OP_LLVM_fragment, 0, 64), !1395)
    #dbg_value(i64 %2, !1240, !DIExpression(DW_OP_LLVM_fragment, 64, 64), !1395)
    #dbg_value(ptr poison, !1248, !DIExpression(), !1395)
    #dbg_value(ptr %wrapper1.sroa.3.0.copyload, !1249, !DIExpression(), !1395)
    #dbg_value(ptr %wrapper1.sroa.3.0.copyload, !1252, !DIExpression(), !1397)
    #dbg_value(i64 1, !1258, !DIExpression(DW_OP_LLVM_fragment, 0, 64), !1397)
    #dbg_value(i64 %2, !1258, !DIExpression(DW_OP_LLVM_fragment, 64, 64), !1397)
; call __rustc::__rust_dealloc
  call void @_RNvCsj3IbkTTFM3W_7___rustc14___rust_dealloc(ptr noundef nonnull %wrapper1.sroa.3.0.copyload, i64 noundef %2, i64 noundef range(i64 1, -9223372036854775807) 1) #24, !dbg !1399, !noalias !1375
  br label %bb34, !dbg !1400

bb2.i63:                                          ; preds = %bb7
  call void @llvm.memcpy.p0.p0.i64(ptr noundef nonnull align 8 dereferenceable(200) %cmd2, ptr noundef nonnull align 8 dereferenceable(200) %_2.i56, i64 200, i1 false), !dbg !1401, !noalias !1402
  call void @llvm.lifetime.end.p0(i64 200, ptr nonnull %_2.i56), !dbg !1403, !noalias !1375
    #dbg_value(ptr poison, !1136, !DIExpression(), !1404)
    #dbg_value(ptr poison, !1145, !DIExpression(), !1406)
    #dbg_value(ptr poison, !1155, !DIExpression(), !1408)
    #dbg_value(ptr poison, !1165, !DIExpression(), !1410)
    #dbg_value(ptr poison, !1175, !DIExpression(), !1412)
    #dbg_value(ptr poison, !1185, !DIExpression(), !1414)
    #dbg_value(i64 1, !1201, !DIExpression(DW_OP_LLVM_fragment, 0, 64), !1414)
    #dbg_value(i64 1, !1201, !DIExpression(DW_OP_LLVM_fragment, 64, 64), !1414)
    #dbg_value(i64 1, !1207, !DIExpression(DW_OP_LLVM_fragment, 0, 64), !1416)
    #dbg_value(i64 1, !1207, !DIExpression(DW_OP_LLVM_fragment, 64, 64), !1416)
    #dbg_value(ptr poison, !1231, !DIExpression(), !1416)
  %16 = icmp eq i64 %2, 0, !dbg !1418
  br i1 %16, label %bb9, label %bb2.i.i.i4.i.i.i6.i65, !dbg !1418

bb2.i.i.i4.i.i.i6.i65:                            ; preds = %bb2.i63
    #dbg_value(ptr %wrapper1.sroa.3.0.copyload, !1202, !DIExpression(), !1419)
    #dbg_value(i64 1, !1204, !DIExpression(DW_OP_LLVM_fragment, 0, 64), !1419)
    #dbg_value(i64 %2, !1204, !DIExpression(DW_OP_LLVM_fragment, 64, 64), !1419)
    #dbg_value(i64 1, !1240, !DIExpression(DW_OP_LLVM_fragment, 0, 64), !1420)
    #dbg_value(i64 %2, !1240, !DIExpression(DW_OP_LLVM_fragment, 64, 64), !1420)
    #dbg_value(ptr poison, !1248, !DIExpression(), !1420)
    #dbg_value(ptr %wrapper1.sroa.3.0.copyload, !1249, !DIExpression(), !1420)
    #dbg_value(ptr %wrapper1.sroa.3.0.copyload, !1252, !DIExpression(), !1422)
    #dbg_value(i64 1, !1258, !DIExpression(DW_OP_LLVM_fragment, 0, 64), !1422)
    #dbg_value(i64 %2, !1258, !DIExpression(DW_OP_LLVM_fragment, 64, 64), !1422)
; call __rustc::__rust_dealloc
  call void @_RNvCsj3IbkTTFM3W_7___rustc14___rust_dealloc(ptr noundef nonnull %wrapper1.sroa.3.0.copyload, i64 noundef %2, i64 noundef range(i64 1, -9223372036854775807) 1) #24, !dbg !1424, !noalias !1375
  br label %bb9, !dbg !1425

bb30:                                             ; preds = %bb2.i48, %bb2.i.i.i4.i.i.i6.i50
    #dbg_value(ptr poison, !1136, !DIExpression(), !1426)
    #dbg_value(ptr poison, !1145, !DIExpression(), !1427)
    #dbg_value(ptr poison, !1155, !DIExpression(), !1428)
    #dbg_value(ptr poison, !1165, !DIExpression(), !1429)
    #dbg_value(ptr poison, !1175, !DIExpression(), !1430)
    #dbg_value(ptr poison, !1185, !DIExpression(), !1431)
    #dbg_value(i64 1, !1201, !DIExpression(DW_OP_LLVM_fragment, 0, 64), !1431)
    #dbg_value(i64 1, !1201, !DIExpression(DW_OP_LLVM_fragment, 64, 64), !1431)
    #dbg_value(i64 1, !1207, !DIExpression(DW_OP_LLVM_fragment, 0, 64), !1432)
    #dbg_value(i64 1, !1207, !DIExpression(DW_OP_LLVM_fragment, 64, 64), !1432)
    #dbg_value(ptr poison, !1231, !DIExpression(), !1432)
  %17 = icmp eq i64 %2, 0, !dbg !1434
  br i1 %17, label %bb27, label %bb2.i.i.i4.i.i.i, !dbg !1434

bb9:                                              ; preds = %bb2.i.i.i4.i.i.i6.i65, %bb2.i63
    #dbg_value(i64 %0, !1435, !DIExpression(DW_OP_LLVM_fragment, 0, 64), !1442)
    #dbg_value(ptr %rustc.sroa.7.0.copyload, !1435, !DIExpression(DW_OP_LLVM_fragment, 64, 64), !1442)
    #dbg_value(i64 %rustc.sroa.8.0.copyload, !1435, !DIExpression(DW_OP_LLVM_fragment, 128, 64), !1442)
    #dbg_value(ptr %cmd2, !1441, !DIExpression(), !1442)
  %18 = icmp ne ptr %rustc.sroa.7.0.copyload, null
  call void @llvm.assume(i1 %18)
; invoke std::sys::process::unix::common::Command::arg
  invoke void @_ZN3std3sys7process4unix6common7Command3arg17h4e7a5dd79e892c82E(ptr noalias noundef nonnull align 8 dereferenceable(200) %cmd2, ptr noalias noundef nonnull readonly align 1 captures(address, read_provenance) %rustc.sroa.7.0.copyload, i64 noundef %rustc.sroa.8.0.copyload)
          to label %bb2.i72 unwind label %cleanup.i69, !dbg !1444, !noalias !1445

cleanup.i69:                                      ; preds = %bb9
  %19 = landingpad { ptr, i32 }
          cleanup
    #dbg_value(ptr poison, !1136, !DIExpression(), !1448)
    #dbg_value(ptr poison, !1145, !DIExpression(), !1450)
    #dbg_value(ptr poison, !1155, !DIExpression(), !1452)
    #dbg_value(ptr poison, !1165, !DIExpression(), !1454)
    #dbg_value(ptr poison, !1175, !DIExpression(), !1456)
    #dbg_value(ptr poison, !1185, !DIExpression(), !1458)
    #dbg_value(i64 1, !1201, !DIExpression(DW_OP_LLVM_fragment, 0, 64), !1458)
    #dbg_value(i64 1, !1201, !DIExpression(DW_OP_LLVM_fragment, 64, 64), !1458)
    #dbg_value(i64 1, !1207, !DIExpression(DW_OP_LLVM_fragment, 0, 64), !1460)
    #dbg_value(i64 1, !1207, !DIExpression(DW_OP_LLVM_fragment, 64, 64), !1460)
    #dbg_value(ptr poison, !1231, !DIExpression(), !1460)
  %20 = icmp eq i64 %0, 0, !dbg !1462
  br i1 %20, label %cleanup7.body, label %bb2.i.i.i4.i.i.i.i70, !dbg !1462

bb2.i.i.i4.i.i.i.i70:                             ; preds = %cleanup.i69
    #dbg_value(ptr %rustc.sroa.7.0.copyload, !1202, !DIExpression(), !1463)
    #dbg_value(i64 1, !1204, !DIExpression(DW_OP_LLVM_fragment, 0, 64), !1463)
    #dbg_value(i64 %0, !1204, !DIExpression(DW_OP_LLVM_fragment, 64, 64), !1463)
    #dbg_value(i64 1, !1240, !DIExpression(DW_OP_LLVM_fragment, 0, 64), !1464)
    #dbg_value(i64 %0, !1240, !DIExpression(DW_OP_LLVM_fragment, 64, 64), !1464)
    #dbg_value(ptr poison, !1248, !DIExpression(), !1464)
    #dbg_value(ptr %rustc.sroa.7.0.copyload, !1249, !DIExpression(), !1464)
    #dbg_value(ptr %rustc.sroa.7.0.copyload, !1252, !DIExpression(), !1466)
    #dbg_value(i64 1, !1258, !DIExpression(DW_OP_LLVM_fragment, 0, 64), !1466)
    #dbg_value(i64 %0, !1258, !DIExpression(DW_OP_LLVM_fragment, 64, 64), !1466)
; call __rustc::__rust_dealloc
  call void @_RNvCsj3IbkTTFM3W_7___rustc14___rust_dealloc(ptr noundef nonnull %rustc.sroa.7.0.copyload, i64 noundef %0, i64 noundef range(i64 1, -9223372036854775807) 1) #24, !dbg !1468, !noalias !1445
  br label %cleanup7.body, !dbg !1469

bb2.i72:                                          ; preds = %bb9
    #dbg_value(ptr poison, !1136, !DIExpression(), !1470)
    #dbg_value(ptr poison, !1145, !DIExpression(), !1472)
    #dbg_value(ptr poison, !1155, !DIExpression(), !1474)
    #dbg_value(ptr poison, !1165, !DIExpression(), !1476)
    #dbg_value(ptr poison, !1175, !DIExpression(), !1478)
    #dbg_value(ptr poison, !1185, !DIExpression(), !1480)
    #dbg_value(i64 1, !1201, !DIExpression(DW_OP_LLVM_fragment, 0, 64), !1480)
    #dbg_value(i64 1, !1201, !DIExpression(DW_OP_LLVM_fragment, 64, 64), !1480)
    #dbg_value(i64 1, !1207, !DIExpression(DW_OP_LLVM_fragment, 0, 64), !1482)
    #dbg_value(i64 1, !1207, !DIExpression(DW_OP_LLVM_fragment, 64, 64), !1482)
    #dbg_value(ptr poison, !1231, !DIExpression(), !1482)
  %21 = icmp eq i64 %0, 0, !dbg !1484
  br i1 %21, label %bb10, label %bb2.i.i.i4.i.i.i6.i73, !dbg !1484

bb2.i.i.i4.i.i.i6.i73:                            ; preds = %bb2.i72
    #dbg_value(ptr %rustc.sroa.7.0.copyload, !1202, !DIExpression(), !1485)
    #dbg_value(i64 1, !1204, !DIExpression(DW_OP_LLVM_fragment, 0, 64), !1485)
    #dbg_value(i64 %0, !1204, !DIExpression(DW_OP_LLVM_fragment, 64, 64), !1485)
    #dbg_value(i64 1, !1240, !DIExpression(DW_OP_LLVM_fragment, 0, 64), !1486)
    #dbg_value(i64 %0, !1240, !DIExpression(DW_OP_LLVM_fragment, 64, 64), !1486)
    #dbg_value(ptr poison, !1248, !DIExpression(), !1486)
    #dbg_value(ptr %rustc.sroa.7.0.copyload, !1249, !DIExpression(), !1486)
    #dbg_value(ptr %rustc.sroa.7.0.copyload, !1252, !DIExpression(), !1488)
    #dbg_value(i64 1, !1258, !DIExpression(DW_OP_LLVM_fragment, 0, 64), !1488)
    #dbg_value(i64 %0, !1258, !DIExpression(DW_OP_LLVM_fragment, 64, 64), !1488)
; call __rustc::__rust_dealloc
  call void @_RNvCsj3IbkTTFM3W_7___rustc14___rust_dealloc(ptr noundef nonnull %rustc.sroa.7.0.copyload, i64 noundef %0, i64 noundef range(i64 1, -9223372036854775807) 1) #24, !dbg !1490, !noalias !1445
  br label %bb10, !dbg !1491

cleanup7:                                         ; preds = %bb11
  %22 = landingpad { ptr, i32 }
          cleanup
  br label %cleanup7.body, !dbg !1492

cleanup7.body:                                    ; preds = %cleanup.i69, %bb2.i.i.i4.i.i.i.i70, %cleanup7
  %eh.lpad-body74 = phi { ptr, i32 } [ %22, %cleanup7 ], [ %19, %bb2.i.i.i4.i.i.i.i70 ], [ %19, %cleanup.i69 ]
; invoke core::ptr::drop_in_place<std::process::Command>
  invoke fastcc void @"_ZN4core3ptr42drop_in_place$LT$std..process..Command$GT$17h2ff4b7b8da9a6af1E"(ptr noalias noundef align 8 dereferenceable(200) %cmd2) #25
          to label %bb26 unwind label %terminate, !dbg !1492

bb10:                                             ; preds = %bb2.i.i.i4.i.i.i6.i73, %bb2.i72
  br i1 %is_clippy_driver, label %bb11, label %bb30.thread, !dbg !1493

bb30.thread:                                      ; preds = %bb11, %bb10
  call void @llvm.memcpy.p0.p0.i64(ptr noundef nonnull align 8 dereferenceable(200) %cmd, ptr noundef nonnull align 8 dereferenceable(200) %cmd2, i64 200, i1 false), !dbg !1494
  call void @llvm.lifetime.end.p0(i64 200, ptr nonnull %cmd2), !dbg !1492
  br label %bb27, !dbg !1288

bb11:                                             ; preds = %bb10
    #dbg_value(ptr @alloc_0a95b2846250f640f3e914bc2bbe7701, !1302, !DIExpression(DW_OP_LLVM_fragment, 0, 64), !1495)
    #dbg_value(i64 7, !1302, !DIExpression(DW_OP_LLVM_fragment, 64, 64), !1495)
    #dbg_value(ptr %cmd2, !1311, !DIExpression(), !1495)
; invoke std::sys::process::unix::common::Command::arg
  invoke void @_ZN3std3sys7process4unix6common7Command3arg17h4e7a5dd79e892c82E(ptr noalias noundef nonnull align 8 dereferenceable(200) %cmd2, ptr noalias noundef nonnull readonly align 1 captures(address, read_provenance) @alloc_0a95b2846250f640f3e914bc2bbe7701, i64 noundef 7)
          to label %bb30.thread unwind label %cleanup7, !dbg !1497

bb24:                                             ; preds = %bb23, %cleanup.i77, %cleanup8
  %.pn31.pn = phi { ptr, i32 } [ %.pn31, %bb23 ], [ %23, %cleanup8 ], [ %28, %cleanup.i77 ]
; invoke core::ptr::drop_in_place<std::process::Command>
  invoke fastcc void @"_ZN4core3ptr42drop_in_place$LT$std..process..Command$GT$17h2ff4b7b8da9a6af1E"(ptr noalias noundef align 8 dereferenceable(200) %cmd) #25
          to label %bb26 unwind label %terminate, !dbg !1498

cleanup8:                                         ; preds = %bb27, %bb15
  %23 = landingpad { ptr, i32 }
          cleanup
  br label %bb24

bb15:                                             ; preds = %bb27
  call void @llvm.lifetime.start.p0(i64 56, ptr nonnull %output), !dbg !1499
  call void @llvm.lifetime.start.p0(i64 56, ptr nonnull %_21), !dbg !1500
; invoke std::process::Command::output
  invoke void @_ZN3std7process7Command6output17h4e455d5ef58ae04bE(ptr noalias noundef nonnull sret([56 x i8]) align 8 captures(address) dereferenceable(56) %_21, ptr noalias noundef nonnull align 8 dereferenceable(200) %cmd)
          to label %bb16 unwind label %cleanup8, !dbg !1501

bb16:                                             ; preds = %bb15
  call void @llvm.experimental.noalias.scope.decl(metadata !1502), !dbg !1505
  call void @llvm.experimental.noalias.scope.decl(metadata !1506), !dbg !1505
    #dbg_declare(ptr %_21, !1508, !DIExpression(), !1536)
    #dbg_value(ptr @alloc_c33e5af42b9b9e21f43a4fcb9c0ba190, !1531, !DIExpression(DW_OP_LLVM_fragment, 0, 64), !1538)
    #dbg_value(i64 27, !1531, !DIExpression(DW_OP_LLVM_fragment, 64, 64), !1538)
    #dbg_declare(ptr %e.i, !1534, !DIExpression(), !1539)
  %24 = load i64, ptr %_21, align 8, !dbg !1540, !range !1067, !alias.scope !1506, !noalias !1502, !noundef !23
  %25 = icmp eq i64 %24, -9223372036854775808, !dbg !1540
  br i1 %25, label %bb2.i76, label %bb17, !dbg !1541, !prof !1069

bb2.i76:                                          ; preds = %bb16
  call void @llvm.lifetime.start.p0(i64 8, ptr nonnull %e.i), !dbg !1542, !noalias !1543
  %26 = getelementptr inbounds nuw i8, ptr %_21, i64 8, !dbg !1542
  %27 = load ptr, ptr %26, align 8, !dbg !1542, !alias.scope !1506, !noalias !1502, !nonnull !23, !noundef !23
  store ptr %27, ptr %e.i, align 8, !dbg !1542, !noalias !1543
; invoke core::result::unwrap_failed
  invoke void @_ZN4core6result13unwrap_failed17h5d9b16b0b732a2acE(ptr noalias noundef nonnull readonly align 1 captures(address, read_provenance) @alloc_c33e5af42b9b9e21f43a4fcb9c0ba190, i64 noundef 27, ptr noundef nonnull align 1 %e.i, ptr noalias noundef readonly align 8 captures(address, read_provenance) dereferenceable(32) @vtable.2, ptr noalias noundef readonly align 8 captures(address, read_provenance) dereferenceable(24) @alloc_4dab0acc13c3809bd0058c5188be5d6f) #23
          to label %unreachable.i unwind label %cleanup.i77, !dbg !1544, !noalias !1543

cleanup.i77:                                      ; preds = %bb2.i76
  %28 = landingpad { ptr, i32 }
          cleanup
; invoke core::ptr::drop_in_place<std::io::error::Error>
  invoke void @"_ZN4core3ptr42drop_in_place$LT$std..io..error..Error$GT$17h90ea0dbd5b290a39E"(ptr noalias noundef nonnull align 8 dereferenceable(8) %e.i) #25
          to label %bb24 unwind label %terminate.i, !dbg !1545, !noalias !1543

unreachable.i:                                    ; preds = %bb2.i76
  unreachable

terminate.i:                                      ; preds = %cleanup.i77
  %29 = landingpad { ptr, i32 }
          filter [0 x ptr] zeroinitializer
; call core::panicking::panic_in_cleanup
  call void @_ZN4core9panicking16panic_in_cleanup17h8f68387bb6cbbf54E() #26, !dbg !1546, !noalias !1543
  unreachable, !dbg !1546

bb17:                                             ; preds = %bb16
  call void @llvm.memcpy.p0.p0.i64(ptr noundef nonnull align 8 dereferenceable(56) %output, ptr noundef nonnull readonly align 8 dereferenceable(56) %_21, i64 56, i1 false), !dbg !1547, !alias.scope !1543
  call void @llvm.lifetime.end.p0(i64 56, ptr nonnull %_21), !dbg !1548
    #dbg_value(ptr %output, !983, !DIExpression(DW_OP_plus_uconst, 48, DW_OP_stack_value), !1549)
    #dbg_value(ptr %output, !972, !DIExpression(DW_OP_plus_uconst, 48, DW_OP_stack_value), !1550)
  %30 = getelementptr inbounds nuw i8, ptr %output, i64 48, !dbg !1551
  %value = load i32, ptr %30, align 8, !dbg !1551, !noundef !23
    #dbg_value(i32 %value, !945, !DIExpression(), !1552)
    #dbg_value(i32 %value, !932, !DIExpression(), !1553)
  %.not30 = icmp eq i32 %value, 0, !dbg !1554
  br i1 %.not30, label %bb18, label %bb19, !dbg !1555

bb18:                                             ; preds = %bb17
  call void @llvm.memcpy.p0.p0.i64(ptr noundef nonnull align 8 dereferenceable(56) %_0, ptr noundef nonnull align 8 dereferenceable(56) %output, i64 56, i1 false), !dbg !1556
  call void @llvm.lifetime.end.p0(i64 56, ptr nonnull %output), !dbg !1557
; call core::ptr::drop_in_place<std::process::Command>
  call fastcc void @"_ZN4core3ptr42drop_in_place$LT$std..process..Command$GT$17h2ff4b7b8da9a6af1E"(ptr noalias noundef align 8 dereferenceable(200) %cmd), !dbg !1498
  call void @llvm.lifetime.end.p0(i64 200, ptr nonnull %cmd), !dbg !1498
  ret void, !dbg !1558

bb19:                                             ; preds = %bb17
  call void @llvm.lifetime.start.p0(i64 48, ptr nonnull %_25), !dbg !1559
  call void @llvm.lifetime.start.p0(i64 16, ptr nonnull %args), !dbg !1559
  call void @llvm.lifetime.start.p0(i64 24, ptr nonnull %_29), !dbg !1560
    #dbg_value(ptr %output, !1098, !DIExpression(DW_OP_plus_uconst, 24, DW_OP_stack_value), !1561)
    #dbg_value(ptr %output, !1112, !DIExpression(DW_OP_plus_uconst, 24, DW_OP_stack_value), !1563)
  %31 = getelementptr inbounds nuw i8, ptr %output, i64 32, !dbg !1566
  %_62 = load ptr, ptr %31, align 8, !dbg !1566, !nonnull !23, !noundef !23
  %32 = getelementptr inbounds nuw i8, ptr %output, i64 40, !dbg !1587
  %len17 = load i64, ptr %32, align 8, !dbg !1587, !noundef !23
; invoke alloc::string::String::from_utf8_lossy
  invoke void @_ZN5alloc6string6String15from_utf8_lossy17h8717194d171f75bdE(ptr noalias noundef nonnull sret([24 x i8]) align 8 captures(address) dereferenceable(24) %_29, ptr noalias noundef nonnull readonly align 1 captures(address, read_provenance) %_62, i64 noundef %len17)
          to label %bb20 unwind label %cleanup19, !dbg !1560

bb23:                                             ; preds = %bb2.i.i.i4.i.i.i80, %cleanup20, %cleanup20, %cleanup19
  %.pn31 = phi { ptr, i32 } [ %33, %cleanup19 ], [ %38, %cleanup20 ], [ %38, %cleanup20 ], [ %38, %bb2.i.i.i4.i.i.i80 ]
; call core::ptr::drop_in_place<std::process::Output>
  call fastcc void @"_ZN4core3ptr41drop_in_place$LT$std..process..Output$GT$17h814088ad6cc4d706E"(ptr noalias noundef align 8 dereferenceable(56) %output) #25, !dbg !1557
  br label %bb24, !dbg !1557

cleanup19:                                        ; preds = %bb19
  %33 = landingpad { ptr, i32 }
          cleanup
  br label %bb23

bb20:                                             ; preds = %bb19
  store ptr %_29, ptr %args, align 8, !dbg !1559
  %_27.sroa.4.0..sroa_idx = getelementptr inbounds nuw i8, ptr %args, i64 8, !dbg !1559
  store ptr @"_ZN66_$LT$alloc..borrow..Cow$LT$B$GT$$u20$as$u20$core..fmt..Display$GT$3fmt17he8ab643ca0c8cf94E", ptr %_27.sroa.4.0..sroa_idx, align 8, !dbg !1559
    #dbg_value(ptr %args, !1049, !DIExpression(), !1050)
  store ptr @alloc_eaaa6a8512dd326c4c1db6475452d7d6, ptr %_25, align 8, !dbg !1588
  %34 = getelementptr inbounds nuw i8, ptr %_25, i64 8, !dbg !1588
  store i64 1, ptr %34, align 8, !dbg !1588
  %35 = getelementptr inbounds nuw i8, ptr %_25, i64 32, !dbg !1588
  store ptr null, ptr %35, align 8, !dbg !1588
  %36 = getelementptr inbounds nuw i8, ptr %_25, i64 16, !dbg !1588
  store ptr %args, ptr %36, align 8, !dbg !1588
  %37 = getelementptr inbounds nuw i8, ptr %_25, i64 24, !dbg !1588
  store i64 1, ptr %37, align 8, !dbg !1588
; invoke core::panicking::panic_fmt
  invoke void @_ZN4core9panicking9panic_fmt17h5138da2ef87be35bE(ptr noalias noundef nonnull readonly align 8 captures(address) dereferenceable(48) %_25, ptr noalias noundef readonly align 8 captures(address, read_provenance) dereferenceable(24) @alloc_25fabaa1939c4a56ea98ffbe8d7baf71) #23
          to label %unreachable unwind label %cleanup20, !dbg !1559

cleanup20:                                        ; preds = %bb20
  %38 = landingpad { ptr, i32 }
          cleanup
  %_29.val = load i64, ptr %_29, align 8, !dbg !1559, !range !1067, !noundef !23
    #dbg_value(ptr poison, !1589, !DIExpression(), !1617)
  switch i64 %_29.val, label %bb2.i.i.i4.i.i.i80 [
    i64 -9223372036854775808, label %bb23
    i64 0, label %bb23
  ], !dbg !1619

bb2.i.i.i4.i.i.i80:                               ; preds = %cleanup20
  %39 = getelementptr inbounds nuw i8, ptr %_29, i64 8, !dbg !1559
  %_29.val40 = load ptr, ptr %39, align 8, !dbg !1559, !nonnull !23, !noundef !23
    #dbg_value(ptr %_29.val40, !1202, !DIExpression(), !1620)
    #dbg_value(i64 1, !1204, !DIExpression(DW_OP_LLVM_fragment, 0, 64), !1620)
    #dbg_value(i64 %_29.val, !1204, !DIExpression(DW_OP_LLVM_fragment, 64, 64), !1620)
    #dbg_value(i64 1, !1240, !DIExpression(DW_OP_LLVM_fragment, 0, 64), !1634)
    #dbg_value(i64 %_29.val, !1240, !DIExpression(DW_OP_LLVM_fragment, 64, 64), !1634)
    #dbg_value(ptr poison, !1248, !DIExpression(), !1634)
    #dbg_value(ptr %_29.val40, !1249, !DIExpression(), !1634)
    #dbg_value(ptr %_29.val40, !1252, !DIExpression(), !1636)
    #dbg_value(i64 1, !1258, !DIExpression(DW_OP_LLVM_fragment, 0, 64), !1636)
    #dbg_value(i64 %_29.val, !1258, !DIExpression(DW_OP_LLVM_fragment, 64, 64), !1636)
; call __rustc::__rust_dealloc
  call void @_RNvCsj3IbkTTFM3W_7___rustc14___rust_dealloc(ptr noundef nonnull %_29.val40, i64 noundef %_29.val, i64 noundef range(i64 1, -9223372036854775807) 1) #24, !dbg !1638
  br label %bb23, !dbg !1639

unreachable:                                      ; preds = %bb20
  unreachable

terminate:                                        ; preds = %cleanup7.body, %bb24
  %40 = landingpad { ptr, i32 }
          filter [0 x ptr] zeroinitializer
; call core::panicking::panic_in_cleanup
  call void @_ZN4core9panicking16panic_in_cleanup17h8f68387bb6cbbf54E() #26, !dbg !1640
  unreachable, !dbg !1640

bb32:                                             ; preds = %bb2.i.i.i4.i.i.i.i46, %cleanup.i44
    #dbg_value(ptr poison, !1136, !DIExpression(), !1641)
    #dbg_value(ptr poison, !1145, !DIExpression(), !1643)
    #dbg_value(ptr poison, !1155, !DIExpression(), !1645)
    #dbg_value(ptr poison, !1165, !DIExpression(), !1647)
    #dbg_value(ptr poison, !1175, !DIExpression(), !1649)
    #dbg_value(ptr poison, !1185, !DIExpression(), !1651)
    #dbg_value(i64 1, !1201, !DIExpression(DW_OP_LLVM_fragment, 0, 64), !1651)
    #dbg_value(i64 1, !1201, !DIExpression(DW_OP_LLVM_fragment, 64, 64), !1651)
    #dbg_value(i64 1, !1207, !DIExpression(DW_OP_LLVM_fragment, 0, 64), !1653)
    #dbg_value(i64 1, !1207, !DIExpression(DW_OP_LLVM_fragment, 64, 64), !1653)
    #dbg_value(ptr poison, !1231, !DIExpression(), !1653)
  %41 = icmp eq i64 %2, 0, !dbg !1655
  br i1 %41, label %bb26, label %bb2.i.i.i4.i.i.i81, !dbg !1655

bb2.i.i.i4.i.i.i81:                               ; preds = %bb32
  %42 = getelementptr inbounds nuw i8, ptr %_5, i64 8, !dbg !1288
  %_5.val37 = load ptr, ptr %42, align 8, !dbg !1288, !nonnull !23, !noundef !23
    #dbg_value(ptr %_5.val37, !1202, !DIExpression(), !1656)
    #dbg_value(i64 1, !1204, !DIExpression(DW_OP_LLVM_fragment, 0, 64), !1656)
    #dbg_value(i64 %2, !1204, !DIExpression(DW_OP_LLVM_fragment, 64, 64), !1656)
    #dbg_value(i64 1, !1240, !DIExpression(DW_OP_LLVM_fragment, 0, 64), !1657)
    #dbg_value(i64 %2, !1240, !DIExpression(DW_OP_LLVM_fragment, 64, 64), !1657)
    #dbg_value(ptr poison, !1248, !DIExpression(), !1657)
    #dbg_value(ptr %_5.val37, !1249, !DIExpression(), !1657)
    #dbg_value(ptr %_5.val37, !1252, !DIExpression(), !1659)
    #dbg_value(i64 1, !1258, !DIExpression(DW_OP_LLVM_fragment, 0, 64), !1659)
    #dbg_value(i64 %2, !1258, !DIExpression(DW_OP_LLVM_fragment, 64, 64), !1659)
; call __rustc::__rust_dealloc
  call void @_RNvCsj3IbkTTFM3W_7___rustc14___rust_dealloc(ptr noundef nonnull %_5.val37, i64 noundef %2, i64 noundef range(i64 1, -9223372036854775807) 1) #24, !dbg !1661
  br label %bb26, !dbg !1662

bb26:                                             ; preds = %cleanup.i, %bb2.i.i.i4.i.i.i.i, %bb2.i.i.i4.i.i.i81, %bb32, %cleanup7.body, %bb2.i.i.i4.i.i.i83, %bb34, %bb24
  %.pn3499 = phi { ptr, i32 } [ %.pn31.pn, %bb24 ], [ %.pn34123, %bb34 ], [ %.pn34123, %bb2.i.i.i4.i.i.i83 ], [ %11, %bb2.i.i.i4.i.i.i81 ], [ %11, %bb32 ], [ %eh.lpad-body74, %cleanup7.body ], [ %6, %bb2.i.i.i4.i.i.i.i ], [ %6, %cleanup.i ]
  resume { ptr, i32 } %.pn3499, !dbg !1640

bb34:                                             ; preds = %cleanup.i59, %bb2.i.i.i4.i.i.i.i61, %bb35.thread124
  %.pn34123 = phi { ptr, i32 } [ %1, %bb35.thread124 ], [ %14, %cleanup.i59 ], [ %14, %bb2.i.i.i4.i.i.i.i61 ]
    #dbg_value(ptr poison, !1136, !DIExpression(), !1663)
    #dbg_value(ptr poison, !1145, !DIExpression(), !1665)
    #dbg_value(ptr poison, !1155, !DIExpression(), !1667)
    #dbg_value(ptr poison, !1165, !DIExpression(), !1669)
    #dbg_value(ptr poison, !1175, !DIExpression(), !1671)
    #dbg_value(ptr poison, !1185, !DIExpression(), !1673)
    #dbg_value(i64 1, !1201, !DIExpression(DW_OP_LLVM_fragment, 0, 64), !1673)
    #dbg_value(i64 1, !1201, !DIExpression(DW_OP_LLVM_fragment, 64, 64), !1673)
    #dbg_value(i64 1, !1207, !DIExpression(DW_OP_LLVM_fragment, 0, 64), !1675)
    #dbg_value(i64 1, !1207, !DIExpression(DW_OP_LLVM_fragment, 64, 64), !1675)
    #dbg_value(ptr poison, !1231, !DIExpression(), !1675)
  %43 = icmp eq i64 %0, 0, !dbg !1677
  br i1 %43, label %bb26, label %bb2.i.i.i4.i.i.i83, !dbg !1677

bb2.i.i.i4.i.i.i83:                               ; preds = %bb34
  %44 = icmp ne ptr %rustc.sroa.7.0.copyload, null
  call void @llvm.assume(i1 %44)
    #dbg_value(ptr %rustc.sroa.7.0.copyload, !1202, !DIExpression(), !1678)
    #dbg_value(i64 1, !1204, !DIExpression(DW_OP_LLVM_fragment, 0, 64), !1678)
    #dbg_value(i64 %0, !1204, !DIExpression(DW_OP_LLVM_fragment, 64, 64), !1678)
    #dbg_value(i64 1, !1240, !DIExpression(DW_OP_LLVM_fragment, 0, 64), !1679)
    #dbg_value(i64 %0, !1240, !DIExpression(DW_OP_LLVM_fragment, 64, 64), !1679)
    #dbg_value(ptr poison, !1248, !DIExpression(), !1679)
    #dbg_value(ptr %rustc.sroa.7.0.copyload, !1249, !DIExpression(), !1679)
    #dbg_value(ptr %rustc.sroa.7.0.copyload, !1252, !DIExpression(), !1681)
    #dbg_value(i64 1, !1258, !DIExpression(DW_OP_LLVM_fragment, 0, 64), !1681)
    #dbg_value(i64 %0, !1258, !DIExpression(DW_OP_LLVM_fragment, 64, 64), !1681)
; call __rustc::__rust_dealloc
  call void @_RNvCsj3IbkTTFM3W_7___rustc14___rust_dealloc(ptr noundef nonnull %rustc.sroa.7.0.copyload, i64 noundef %0, i64 noundef range(i64 1, -9223372036854775807) 1) #24, !dbg !1683
  br label %bb26, !dbg !1684
}

; build_script_build::main
; Function Attrs: nonlazybind uwtable
define hidden void @_ZN18build_script_build4main17h2e27d916abadd3d4E() unnamed_addr #0 personality ptr @rust_eh_personality !dbg !1685 {
start:
  %_258.i = alloca [48 x i8], align 8
  %_251.i = alloca [48 x i8], align 8
    #dbg_value(ptr poison, !1811, !DIExpression(), !1836)
    #dbg_value(ptr poison, !1877, !DIExpression(), !2131)
    #dbg_value(ptr poison, !1921, !DIExpression(), !2132)
    #dbg_value(ptr poison, !1811, !DIExpression(), !2133)
    #dbg_value(ptr poison, !2153, !DIExpression(), !2158)
  %result.i = alloca [24 x i8], align 8
  %args1.i571 = alloca [16 x i8], align 8
  %_12.i572 = alloca [48 x i8], align 8
  %cfg.i575 = alloca [16 x i8], align 8
  %args1.i414 = alloca [16 x i8], align 8
  %_12.i415 = alloca [48 x i8], align 8
  %cfg.i418 = alloca [16 x i8], align 8
  %args1.i = alloca [16 x i8], align 8
  %_12.i = alloca [48 x i8], align 8
  %cfg.i = alloca [16 x i8], align 8
  %_2.i.i333 = alloca [24 x i8], align 8
    #dbg_declare(ptr poison, !2159, !DIExpression(DW_OP_LLVM_fragment, 528, 48), !2241)
    #dbg_value(ptr poison, !2243, !DIExpression(DW_OP_LLVM_fragment, 0, 32), !2280)
    #dbg_value(ptr poison, !2243, !DIExpression(DW_OP_LLVM_fragment, 32, 32), !2280)
    #dbg_value(ptr poison, !2304, !DIExpression(DW_OP_LLVM_fragment, 0, 32), !2343)
    #dbg_value(ptr poison, !2304, !DIExpression(DW_OP_LLVM_fragment, 32, 32), !2343)
    #dbg_value(ptr poison, !2317, !DIExpression(DW_OP_LLVM_fragment, 0, 32), !2344)
    #dbg_value(ptr poison, !2317, !DIExpression(DW_OP_LLVM_fragment, 32, 32), !2344)
    #dbg_value(ptr poison, !2327, !DIExpression(DW_OP_LLVM_fragment, 0, 32), !2345)
    #dbg_value(ptr poison, !2327, !DIExpression(DW_OP_LLVM_fragment, 32, 32), !2345)
    #dbg_value(ptr poison, !2243, !DIExpression(DW_OP_LLVM_fragment, 0, 32), !2346)
    #dbg_value(ptr poison, !2243, !DIExpression(DW_OP_LLVM_fragment, 32, 32), !2346)
    #dbg_value(ptr poison, !2304, !DIExpression(DW_OP_LLVM_fragment, 0, 32), !2352)
    #dbg_value(ptr poison, !2304, !DIExpression(DW_OP_LLVM_fragment, 32, 32), !2352)
    #dbg_value(ptr poison, !2317, !DIExpression(DW_OP_LLVM_fragment, 0, 32), !2353)
    #dbg_value(ptr poison, !2317, !DIExpression(DW_OP_LLVM_fragment, 32, 32), !2353)
    #dbg_value(ptr poison, !2327, !DIExpression(DW_OP_LLVM_fragment, 0, 32), !2354)
    #dbg_value(ptr poison, !2327, !DIExpression(DW_OP_LLVM_fragment, 32, 32), !2354)
    #dbg_value(ptr poison, !2243, !DIExpression(DW_OP_LLVM_fragment, 0, 32), !2355)
    #dbg_value(ptr poison, !2243, !DIExpression(DW_OP_LLVM_fragment, 32, 32), !2355)
    #dbg_value(ptr poison, !2304, !DIExpression(DW_OP_LLVM_fragment, 0, 32), !2361)
    #dbg_value(ptr poison, !2304, !DIExpression(DW_OP_LLVM_fragment, 32, 32), !2361)
    #dbg_value(ptr poison, !2317, !DIExpression(DW_OP_LLVM_fragment, 0, 32), !2362)
    #dbg_value(ptr poison, !2317, !DIExpression(DW_OP_LLVM_fragment, 32, 32), !2362)
    #dbg_value(ptr poison, !2327, !DIExpression(DW_OP_LLVM_fragment, 0, 32), !2363)
    #dbg_value(ptr poison, !2327, !DIExpression(DW_OP_LLVM_fragment, 32, 32), !2363)
    #dbg_value(ptr poison, !2341, !DIExpression(DW_OP_LLVM_fragment, 0, 32), !2364)
    #dbg_value(ptr poison, !2341, !DIExpression(DW_OP_LLVM_fragment, 32, 32), !2364)
    #dbg_value(ptr poison, !2341, !DIExpression(DW_OP_LLVM_fragment, 0, 32), !2365)
    #dbg_value(ptr poison, !2341, !DIExpression(DW_OP_LLVM_fragment, 32, 32), !2365)
    #dbg_value(ptr poison, !2341, !DIExpression(DW_OP_LLVM_fragment, 0, 32), !2366)
    #dbg_value(ptr poison, !2341, !DIExpression(DW_OP_LLVM_fragment, 32, 32), !2366)
    #dbg_value(ptr poison, !2367, !DIExpression(), !2410)
    #dbg_value(ptr poison, !2367, !DIExpression(), !2432)
  %_8.i = alloca [200 x i8], align 8
  %self1.i334 = alloca [56 x i8], align 8
  %_2.i.i = alloca [24 x i8], align 8
    #dbg_value(ptr poison, !2367, !DIExpression(), !2434)
    #dbg_value(ptr poison, !2367, !DIExpression(), !2478)
  %_6.i = alloca [200 x i8], align 8
  %self1.i308 = alloca [56 x i8], align 8
  %_50.i = alloca [48 x i8], align 8
  %_46.i = alloca [48 x i8], align 8
  %_38.i = alloca [48 x i8], align 8
  %_32.i = alloca [72 x i8], align 8
  %_26.i = alloca [48 x i8], align 8
  %_22.i = alloca [16 x i8], align 8
  %pieces.i = alloca [72 x i8], align 8
  %_19.i = alloca [48 x i8], align 8
  %self1.i = alloca [24 x i8], align 8
  %_11.i = alloca [56 x i8], align 8
  %_10.i = alloca [48 x i8], align 8
  %self.i = alloca [24 x i8], align 8
  %output.i = alloca [56 x i8], align 8
  %e.i = alloca [1 x i8], align 1
    #dbg_value(ptr poison, !2480, !DIExpression(), !2489)
    #dbg_value(ptr poison, !2488, !DIExpression(), !2489)
    #dbg_value(ptr poison, !1811, !DIExpression(), !2517)
    #dbg_value(ptr poison, !2530, !DIExpression(), !2554)
    #dbg_value(ptr poison, !1811, !DIExpression(), !2555)
    #dbg_value(ptr poison, !2530, !DIExpression(), !2560)
  %args5 = alloca [32 x i8], align 8
  %_179 = alloca [48 x i8], align 8
  %values = alloca [24 x i8], align 8
  %name = alloca [16 x i8], align 8
    #dbg_value(ptr poison, !2510, !DIExpression(), !2561)
  %args2 = alloca [16 x i8], align 8
  %_158 = alloca [48 x i8], align 8
  %cfg = alloca [8 x i8], align 8
  %_139 = alloca [48 x i8], align 8
  %_133 = alloca [48 x i8], align 8
    #dbg_value(ptr poison, !2531, !DIExpression(), !2554)
    #dbg_value(ptr poison, !2541, !DIExpression(), !2562)
    #dbg_value(ptr poison, !2552, !DIExpression(), !2563)
    #dbg_value(ptr poison, !2531, !DIExpression(), !2560)
    #dbg_value(ptr poison, !2541, !DIExpression(), !2564)
    #dbg_value(ptr poison, !2552, !DIExpression(), !2565)
    #dbg_value(ptr poison, !2532, !DIExpression(), !2566)
    #dbg_value(ptr poison, !2532, !DIExpression(), !2567)
    #dbg_value(ptr poison, !2568, !DIExpression(), !2575)
    #dbg_value(ptr poison, !1830, !DIExpression(), !2577)
    #dbg_value(ptr poison, !2568, !DIExpression(), !2578)
    #dbg_value(ptr poison, !1830, !DIExpression(), !2580)
    #dbg_value(ptr poison, !2542, !DIExpression(DW_OP_LLVM_fragment, 0, 64), !2564)
    #dbg_value(ptr poison, !2551, !DIExpression(DW_OP_LLVM_fragment, 0, 64), !2565)
    #dbg_value(ptr poison, !2542, !DIExpression(DW_OP_LLVM_fragment, 0, 64), !2562)
    #dbg_value(ptr poison, !2551, !DIExpression(DW_OP_LLVM_fragment, 0, 64), !2563)
  %_118 = alloca [48 x i8], align 8
  %_114 = alloca [24 x i8], align 8
  %_109 = alloca [48 x i8], align 8
  %_106 = alloca [24 x i8], align 8
  %_100 = alloca [24 x i8], align 8
  %_98 = alloca [24 x i8], align 8
  %tb = alloca [24 x i8], align 8
  %_93 = alloca [24 x i8], align 8
  %_91 = alloca [24 x i8], align 8
  %_90 = alloca [48 x i8], align 8
  %_85 = alloca [32 x i8], align 8
  %_84 = alloca [32 x i8], align 8
  %_83 = alloca [64 x i8], align 8
  %defaultbits = alloca [24 x i8], align 8
  %_69 = alloca [48 x i8], align 8
  %_67 = alloca [48 x i8], align 8
  %_64 = alloca [48 x i8], align 8
  %_62 = alloca [32 x i8], align 8
  %_54 = alloca [48 x i8], align 8
  %_52 = alloca [32 x i8], align 8
  %_43 = alloca [48 x i8], align 8
  %args = alloca [16 x i8], align 8
  %_31 = alloca [48 x i8], align 8
  %vers = alloca [4 x i8], align 4
  %_23 = alloca [32 x i8], align 8
    #dbg_value(ptr poison, !1714, !DIExpression(DW_OP_LLVM_fragment, 0, 32), !2581)
  %_21 = alloca [48 x i8], align 8
  %_19 = alloca [32 x i8], align 8
  %_17 = alloca [32 x i8], align 8
  %_15 = alloca [32 x i8], align 8
  %_13 = alloca [32 x i8], align 8
  %_11 = alloca [32 x i8], align 8
  %_8 = alloca [32 x i8], align 8
  %_2 = alloca [48 x i8], align 8
    #dbg_declare(ptr %vers, !1706, !DIExpression(), !2582)
    #dbg_declare(ptr %args, !1708, !DIExpression(), !2583)
    #dbg_declare(ptr %defaultbits, !1724, !DIExpression(), !2584)
    #dbg_declare(ptr %tb, !1729, !DIExpression(), !2585)
    #dbg_declare(ptr %cfg, !1760, !DIExpression(), !2586)
    #dbg_declare(ptr %args2, !1762, !DIExpression(), !2587)
    #dbg_declare(ptr %name, !1789, !DIExpression(), !2588)
    #dbg_declare(ptr %values, !1792, !DIExpression(), !2589)
    #dbg_declare(ptr %args5, !1801, !DIExpression(), !2590)
    #dbg_value(ptr @alloc_fdac1ac0812313ab4c58def2ba9a1bba, !2591, !DIExpression(), !2597)
    #dbg_value(ptr @alloc_ae235dc40c5194048e5c6a461e5f636a, !2591, !DIExpression(), !2599)
    #dbg_value(i32 10, !2601, !DIExpression(), !2624)
    #dbg_value(ptr @alloc_c4bae09779ac9aed94716fcb76996c27, !2641, !DIExpression(), !2649)
    #dbg_value(i32 12, !2652, !DIExpression(), !2661)
    #dbg_value(ptr @alloc_68b6386ed3fe5f2ebb3af46f7e41ef22, !2591, !DIExpression(), !2663)
    #dbg_value(ptr @alloc_de032bcda44f9efaaa6149d836e94807, !2591, !DIExpression(), !2665)
    #dbg_value(ptr @alloc_323e8ab0e9acd916394341a473149dae, !2591, !DIExpression(), !2667)
    #dbg_value(ptr @alloc_3a3a03545a4e0af4f2b5dca77f9d3333, !2591, !DIExpression(), !2669)
    #dbg_value(ptr @alloc_2590e465fd8679325d8cc5472f9eb653, !2591, !DIExpression(), !2671)
    #dbg_value(ptr @alloc_8e020aace2b3cf2c6b8375c8868270b7, !2673, !DIExpression(DW_OP_LLVM_fragment, 0, 64), !2680)
    #dbg_value(i64 2, !2673, !DIExpression(DW_OP_LLVM_fragment, 64, 64), !2680)
    #dbg_value(ptr @alloc_8e020aace2b3cf2c6b8375c8868270b7, !2682, !DIExpression(DW_OP_LLVM_fragment, 0, 64), !2688)
    #dbg_value(i64 2, !2682, !DIExpression(DW_OP_LLVM_fragment, 64, 64), !2688)
    #dbg_value(ptr @alloc_8e020aace2b3cf2c6b8375c8868270b7, !2686, !DIExpression(DW_OP_LLVM_fragment, 0, 64), !2690)
    #dbg_value(i64 2, !2686, !DIExpression(DW_OP_LLVM_fragment, 64, 64), !2690)
    #dbg_value(ptr @alloc_8e020aace2b3cf2c6b8375c8868270b7, !2691, !DIExpression(DW_OP_LLVM_fragment, 0, 64), !2695)
    #dbg_value(i64 2, !2691, !DIExpression(DW_OP_LLVM_fragment, 64, 64), !2695)
    #dbg_value(ptr @alloc_8e020aace2b3cf2c6b8375c8868270b7, !2697, !DIExpression(DW_OP_LLVM_fragment, 0, 64), !2701)
    #dbg_value(i64 2, !2697, !DIExpression(DW_OP_LLVM_fragment, 64, 64), !2701)
    #dbg_declare(ptr poison, !2703, !DIExpression(), !2709)
    #dbg_value(ptr @alloc_1e5d5e1506a6d0672f1b7c2d26c988da, !2591, !DIExpression(), !2722)
    #dbg_value(ptr @alloc_7b93f54da8b469491d82f6de1015c303, !2591, !DIExpression(), !2724)
    #dbg_value(ptr @alloc_6b16290e2565871cbf38ff7bf04d9093, !2591, !DIExpression(), !2726)
    #dbg_value(ptr @alloc_a161d45c51e3a2ce1cd462f9c39c0b41, !2591, !DIExpression(), !2728)
    #dbg_value(ptr @alloc_fa7fecbd723b8fdb764adcf4e5184e80, !2591, !DIExpression(), !2730)
    #dbg_value(ptr @alloc_c84ff4946beb4789c6b0b1a7a2a9e8e2, !2641, !DIExpression(), !2732)
    #dbg_value(ptr poison, !2641, !DIExpression(), !2735)
    #dbg_value(ptr @alloc_4e81f3446308e52f5d03e9e4175413e4, !2127, !DIExpression(DW_OP_LLVM_fragment, 0, 64), !2738)
    #dbg_value(i64 3, !2127, !DIExpression(DW_OP_LLVM_fragment, 64, 64), !2738)
    #dbg_value(ptr @alloc_4e81f3446308e52f5d03e9e4175413e4, !2119, !DIExpression(DW_OP_LLVM_fragment, 0, 64), !2739)
    #dbg_value(i64 3, !2119, !DIExpression(DW_OP_LLVM_fragment, 64, 64), !2739)
    #dbg_value(ptr @alloc_40bbb4396fb931d9076addb4077b3601, !2740, !DIExpression(), !2752)
    #dbg_value(ptr poison, !2740, !DIExpression(), !2755)
  call void @llvm.lifetime.start.p0(i64 48, ptr nonnull %_2), !dbg !2598
  store ptr @alloc_fdac1ac0812313ab4c58def2ba9a1bba, ptr %_2, align 8, !dbg !2758
  %0 = getelementptr inbounds nuw i8, ptr %_2, i64 8, !dbg !2758
  store i64 1, ptr %0, align 8, !dbg !2758
  %1 = getelementptr inbounds nuw i8, ptr %_2, i64 32, !dbg !2758
  store ptr null, ptr %1, align 8, !dbg !2758
  %2 = getelementptr inbounds nuw i8, ptr %_2, i64 16, !dbg !2758
  store ptr inttoptr (i64 8 to ptr), ptr %2, align 8, !dbg !2758
  %3 = getelementptr inbounds nuw i8, ptr %_2, i64 24, !dbg !2758
  store i64 0, ptr %3, align 8, !dbg !2758
; call std::io::stdio::_print
  call void @_ZN3std2io5stdio6_print17h02b5be036b2109f4E(ptr noalias noundef nonnull align 8 captures(address) dereferenceable(48) %_2), !dbg !2598
  call void @llvm.lifetime.end.p0(i64 48, ptr nonnull %_2), !dbg !2598
  call void @llvm.lifetime.start.p0(i64 16, ptr nonnull %_22.i), !dbg !2759
    #dbg_value(ptr poison, !2824, !DIExpression(), !2837)
    #dbg_value(ptr poison, !2834, !DIExpression(), !2837)
    #dbg_declare(ptr %output.i, !2768, !DIExpression(), !2867)
    #dbg_declare(ptr %self.i, !2868, !DIExpression(), !2893)
    #dbg_declare(ptr %self1.i, !2868, !DIExpression(), !2895)
    #dbg_declare(ptr %pieces.i, !2776, !DIExpression(), !2897)
    #dbg_value(i8 0, !2806, !DIExpression(), !2898)
    #dbg_value(ptr @alloc_2848618747d5f5b989fc716426f82563, !2899, !DIExpression(), !2902)
    #dbg_value(ptr @alloc_55e278c996565db65fe0fb6e7409cbbb, !2904, !DIExpression(DW_OP_LLVM_fragment, 0, 64), !2910)
    #dbg_value(i64 6, !2904, !DIExpression(DW_OP_LLVM_fragment, 64, 64), !2910)
    #dbg_value(ptr @alloc_55e278c996565db65fe0fb6e7409cbbb, !2912, !DIExpression(DW_OP_LLVM_fragment, 0, 64), !2917)
    #dbg_value(i64 6, !2912, !DIExpression(DW_OP_LLVM_fragment, 64, 64), !2917)
    #dbg_value(ptr @alloc_2848618747d5f5b989fc716426f82563, !2899, !DIExpression(), !2919)
    #dbg_value(i32 46, !2922, !DIExpression(), !2928)
    #dbg_value(ptr @alloc_2848618747d5f5b989fc716426f82563, !2899, !DIExpression(), !2930)
    #dbg_value(ptr @alloc_2848618747d5f5b989fc716426f82563, !2899, !DIExpression(), !2933)
    #dbg_value(i32 45, !2922, !DIExpression(), !2936)
    #dbg_value(i64 1, !2938, !DIExpression(), !2951)
    #dbg_value(i64 1, !2953, !DIExpression(), !2980)
    #dbg_value(i64 1, !2982, !DIExpression(), !3009)
    #dbg_value(i64 1, !2988, !DIExpression(), !3011)
    #dbg_value(ptr @alloc_2848618747d5f5b989fc716426f82563, !2899, !DIExpression(), !3012)
    #dbg_value(i32 10, !3015, !DIExpression(), !3036)
    #dbg_value(ptr @alloc_2848618747d5f5b989fc716426f82563, !2899, !DIExpression(), !3051)
  call void @llvm.lifetime.start.p0(i64 56, ptr nonnull %output.i), !dbg !2759
; call build_script_build::rustc_version_cmd
  call fastcc void @_ZN18build_script_build17rustc_version_cmd17h4215f5cac469d4f5E(ptr noalias noundef align 8 captures(address) dereferenceable(56) %output.i, i1 noundef zeroext false), !dbg !3054
  call void @llvm.lifetime.start.p0(i64 24, ptr nonnull %self.i), !dbg !3055
    #dbg_value(ptr %output.i, !3056, !DIExpression(), !3060)
    #dbg_value(ptr %output.i, !3062, !DIExpression(), !3065)
    #dbg_value(ptr %output.i, !3067, !DIExpression(), !3070)
  %4 = getelementptr inbounds nuw i8, ptr %output.i, i64 8, !dbg !3072
  %_54.i = load ptr, ptr %4, align 8, !dbg !3072, !nonnull !23, !noundef !23
  %5 = getelementptr inbounds nuw i8, ptr %output.i, i64 16, !dbg !3079
  %len.i = load i64, ptr %5, align 8, !dbg !3079, !noundef !23
  %_10.sink97.i.sroa.gep = getelementptr inbounds nuw i8, ptr %_10.i, i64 8, !dbg !3055
  %_10.sink97.i.sroa.gep650 = getelementptr inbounds nuw i8, ptr %_19.i, i64 8, !dbg !3055
  %_10.sink97.i.sroa.gep651 = getelementptr inbounds nuw i8, ptr %_38.i, i64 8, !dbg !3055
  %_10.sink97.i.sroa.gep652 = getelementptr inbounds nuw i8, ptr %_46.i, i64 8, !dbg !3055
  %_10.sink97.i.sroa.gep653 = getelementptr inbounds nuw i8, ptr %_50.i, i64 8, !dbg !3055
  %_10.sink97.i.sroa.gep655 = getelementptr inbounds nuw i8, ptr %_10.i, i64 32, !dbg !3055
  %_10.sink97.i.sroa.gep656 = getelementptr inbounds nuw i8, ptr %_19.i, i64 32, !dbg !3055
  %_10.sink97.i.sroa.gep657 = getelementptr inbounds nuw i8, ptr %_38.i, i64 32, !dbg !3055
  %_10.sink97.i.sroa.gep658 = getelementptr inbounds nuw i8, ptr %_46.i, i64 32, !dbg !3055
  %_10.sink97.i.sroa.gep659 = getelementptr inbounds nuw i8, ptr %_50.i, i64 32, !dbg !3055
  %_10.sink97.i.sroa.gep661 = getelementptr inbounds nuw i8, ptr %_10.i, i64 16, !dbg !3055
  %_10.sink97.i.sroa.gep662 = getelementptr inbounds nuw i8, ptr %_19.i, i64 16, !dbg !3055
  %_10.sink97.i.sroa.gep663 = getelementptr inbounds nuw i8, ptr %_38.i, i64 16, !dbg !3055
  %_10.sink97.i.sroa.gep664 = getelementptr inbounds nuw i8, ptr %_46.i, i64 16, !dbg !3055
  %_10.sink97.i.sroa.gep665 = getelementptr inbounds nuw i8, ptr %_50.i, i64 16, !dbg !3055
  %_10.sink97.i.sroa.gep667 = getelementptr inbounds nuw i8, ptr %_10.i, i64 24, !dbg !3055
  %_10.sink97.i.sroa.gep668 = getelementptr inbounds nuw i8, ptr %_19.i, i64 24, !dbg !3055
  %_10.sink97.i.sroa.gep669 = getelementptr inbounds nuw i8, ptr %_38.i, i64 24, !dbg !3055
  %_10.sink97.i.sroa.gep670 = getelementptr inbounds nuw i8, ptr %_46.i, i64 24, !dbg !3055
  %_10.sink97.i.sroa.gep671 = getelementptr inbounds nuw i8, ptr %_50.i, i64 24, !dbg !3055
  %_251.sink28.i.sroa.gep = getelementptr inbounds nuw i8, ptr %_251.i, i64 8, !dbg !3055
  %_251.sink28.i.sroa.gep672 = getelementptr inbounds nuw i8, ptr %_258.i, i64 8, !dbg !3055
  %_251.sink28.i.sroa.gep674 = getelementptr inbounds nuw i8, ptr %_251.i, i64 32, !dbg !3055
  %_251.sink28.i.sroa.gep675 = getelementptr inbounds nuw i8, ptr %_258.i, i64 32, !dbg !3055
  %_251.sink28.i.sroa.gep677 = getelementptr inbounds nuw i8, ptr %_251.i, i64 16, !dbg !3055
  %_251.sink28.i.sroa.gep678 = getelementptr inbounds nuw i8, ptr %_258.i, i64 16, !dbg !3055
  %_251.sink28.i.sroa.gep680 = getelementptr inbounds nuw i8, ptr %_251.i, i64 24, !dbg !3055
  %_251.sink28.i.sroa.gep681 = getelementptr inbounds nuw i8, ptr %_258.i, i64 24, !dbg !3055
; invoke core::str::converts::from_utf8
  invoke void @_ZN4core3str8converts9from_utf817h6b175b90dad40760E(ptr noalias noundef nonnull sret([24 x i8]) align 8 captures(address) dereferenceable(24) %self.i, ptr noalias noundef nonnull readonly align 1 captures(address, read_provenance) %_54.i, i64 noundef %len.i)
          to label %bb2.i238 unwind label %cleanup.i, !dbg !3055

common.resume:                                    ; preds = %bb170, %bb2.i.i.i4.i.i, %cleanup.i
  %common.resume.op = phi { ptr, i32 } [ %6, %cleanup.i ], [ %.pn146.pn.pn.pn, %bb2.i.i.i4.i.i ], [ %.pn146.pn.pn.pn, %bb170 ]
  resume { ptr, i32 } %common.resume.op, !dbg !3080

cleanup.i:                                        ; preds = %bb16.i, %bb22.invoke.i, %bb50.i, %bb44.i, %bb42.i, %bb15.i, %bb34.i, %bb11.i, %bb6.i, %start
  %6 = landingpad { ptr, i32 }
          cleanup
; call core::ptr::drop_in_place<std::process::Output>
  call fastcc void @"_ZN4core3ptr41drop_in_place$LT$std..process..Output$GT$17h814088ad6cc4d706E"(ptr noalias noundef align 8 dereferenceable(56) %output.i) #25, !dbg !3081
  br label %common.resume, !dbg !3082

bb2.i238:                                         ; preds = %start
  %_56.i = load i64, ptr %self.i, align 8, !dbg !3083, !range !3084, !noundef !23
  %7 = trunc nuw i64 %_56.i to i1, !dbg !3085
  %8 = getelementptr inbounds nuw i8, ptr %self.i, i64 8, !dbg !3085
  %x.0.i = load ptr, ptr %8, align 8, !dbg !3085, !nonnull !23, !align !3086
  %9 = getelementptr inbounds nuw i8, ptr %self.i, i64 16, !dbg !3085
  %x.1.i = load i64, ptr %9, align 8, !dbg !3085
  call void @llvm.lifetime.end.p0(i64 24, ptr nonnull %self.i), !dbg !3087
  br i1 %7, label %bb4.i, label %bb5.i, !dbg !3088, !prof !1069

bb5.i:                                            ; preds = %bb2.i238
    #dbg_value(ptr poison, !2907, !DIExpression(DW_OP_LLVM_fragment, 0, 64), !2910)
    #dbg_value(ptr poison, !2916, !DIExpression(DW_OP_LLVM_fragment, 0, 64), !2917)
    #dbg_value(i64 poison, !2907, !DIExpression(DW_OP_LLVM_fragment, 64, 64), !2910)
    #dbg_value(i64 poison, !2916, !DIExpression(DW_OP_LLVM_fragment, 64, 64), !2917)
    #dbg_value(ptr poison, !3089, !DIExpression(), !3093)
    #dbg_value(ptr poison, !3092, !DIExpression(), !3093)
    #dbg_value(ptr @alloc_55e278c996565db65fe0fb6e7409cbbb, !3101, !DIExpression(DW_OP_LLVM_fragment, 0, 64), !3104)
    #dbg_value(ptr @alloc_55e278c996565db65fe0fb6e7409cbbb, !3105, !DIExpression(DW_OP_LLVM_fragment, 0, 64), !3116)
    #dbg_value(i64 6, !3101, !DIExpression(DW_OP_LLVM_fragment, 64, 64), !3104)
    #dbg_value(i64 6, !3105, !DIExpression(DW_OP_LLVM_fragment, 64, 64), !3116)
    #dbg_value(ptr poison, !3100, !DIExpression(DW_OP_LLVM_fragment, 0, 64), !3104)
    #dbg_value(i64 poison, !3100, !DIExpression(DW_OP_LLVM_fragment, 64, 64), !3104)
    #dbg_value(i64 6, !3102, !DIExpression(), !3118)
  %_4.not.i.i = icmp ult i64 %x.1.i, 6, !dbg !3119
  br i1 %_4.not.i.i, label %bb11.i, label %bb30.i, !dbg !3119

bb4.i:                                            ; preds = %bb2.i238
  call void @llvm.lifetime.start.p0(i64 48, ptr nonnull %_10.i), !dbg !3120
  br label %bb22.invoke.i, !dbg !3120

unreachable.i:                                    ; preds = %bb16.i
  unreachable

bb30.i:                                           ; preds = %bb5.i
    #dbg_value(ptr undef, !3092, !DIExpression(), !3093)
    #dbg_value(ptr poison, !3109, !DIExpression(DW_OP_LLVM_fragment, 0, 64), !3116)
    #dbg_value(i64 6, !3109, !DIExpression(DW_OP_LLVM_fragment, 64, 64), !3116)
    #dbg_value(ptr undef, !3089, !DIExpression(), !3093)
    #dbg_value(ptr @alloc_55e278c996565db65fe0fb6e7409cbbb, !3121, !DIExpression(DW_OP_LLVM_fragment, 0, 64), !3128)
    #dbg_value(i64 6, !3121, !DIExpression(DW_OP_LLVM_fragment, 64, 64), !3128)
    #dbg_value(ptr poison, !3125, !DIExpression(DW_OP_LLVM_fragment, 0, 64), !3128)
    #dbg_value(i64 6, !3125, !DIExpression(DW_OP_LLVM_fragment, 64, 64), !3128)
    #dbg_value(i64 6, !3126, !DIExpression(), !3130)
  %bcmp.i.i.i = call i32 @bcmp(ptr noundef nonnull readonly align 1 dereferenceable(6) @alloc_55e278c996565db65fe0fb6e7409cbbb, ptr noundef nonnull readonly align 1 dereferenceable(6) %x.0.i, i64 range(i64 2, 8) 6), !dbg !3131, !alias.scope !3132
  %10 = icmp eq i32 %bcmp.i.i.i, 0, !dbg !3131
  br i1 %10, label %bb6.i, label %bb11.i, !dbg !3139

bb6.i:                                            ; preds = %bb30.i
  call void @llvm.lifetime.start.p0(i64 56, ptr nonnull %_11.i), !dbg !3140
; invoke build_script_build::rustc_version_cmd
  invoke fastcc void @_ZN18build_script_build17rustc_version_cmd17h4215f5cac469d4f5E(ptr noalias noundef align 8 captures(address) dereferenceable(56) %_11.i, i1 noundef zeroext true)
          to label %bb7.i unwind label %cleanup.i, !dbg !3140

bb11.i:                                           ; preds = %bb8.i, %bb30.i, %bb5.i
  %len23.i = phi i64 [ %len.i, %bb5.i ], [ %len.i, %bb30.i ], [ %len23.pre.i, %bb8.i ], !dbg !3141
  %_64.i = phi ptr [ %_54.i, %bb5.i ], [ %_54.i, %bb30.i ], [ %_64.pre.i, %bb8.i ], !dbg !3145
  call void @llvm.lifetime.start.p0(i64 24, ptr nonnull %self1.i), !dbg !3154
    #dbg_value(ptr %output.i, !3056, !DIExpression(), !3155)
    #dbg_value(ptr %output.i, !3062, !DIExpression(), !3156)
    #dbg_value(ptr %output.i, !3067, !DIExpression(), !3157)
; invoke core::str::converts::from_utf8
  invoke void @_ZN4core3str8converts9from_utf817h6b175b90dad40760E(ptr noalias noundef nonnull sret([24 x i8]) align 8 captures(address) dereferenceable(24) %self1.i, ptr noalias noundef nonnull readonly align 1 captures(address, read_provenance) %_64.i, i64 noundef %len23.i)
          to label %bb12.i unwind label %cleanup.i, !dbg !3154

bb7.i:                                            ; preds = %bb6.i
  call void @llvm.experimental.noalias.scope.decl(metadata !3158), !dbg !3161
    #dbg_value(ptr %output.i, !3162, !DIExpression(), !3169)
  %_1.val.i.i = load i64, ptr %output.i, align 8, !dbg !3171, !alias.scope !3158
    #dbg_value(ptr poison, !1155, !DIExpression(), !3172)
    #dbg_value(ptr poison, !1165, !DIExpression(), !3174)
    #dbg_value(ptr poison, !1175, !DIExpression(), !3176)
    #dbg_value(ptr poison, !1185, !DIExpression(), !3178)
    #dbg_value(i64 1, !1201, !DIExpression(DW_OP_LLVM_fragment, 0, 64), !3178)
    #dbg_value(i64 1, !1201, !DIExpression(DW_OP_LLVM_fragment, 64, 64), !3178)
    #dbg_value(i64 1, !1207, !DIExpression(DW_OP_LLVM_fragment, 0, 64), !3180)
    #dbg_value(i64 1, !1207, !DIExpression(DW_OP_LLVM_fragment, 64, 64), !3180)
    #dbg_value(ptr poison, !1231, !DIExpression(), !3180)
  %11 = icmp eq i64 %_1.val.i.i, 0, !dbg !3182
  br i1 %11, label %bb4.i.i, label %bb2.i.i.i4.i.i.i, !dbg !3182

bb2.i.i.i4.i.i.i:                                 ; preds = %bb7.i
    #dbg_value(ptr %_54.i, !1202, !DIExpression(), !3183)
    #dbg_value(i64 1, !1204, !DIExpression(DW_OP_LLVM_fragment, 0, 64), !3183)
    #dbg_value(i64 %_1.val.i.i, !1204, !DIExpression(DW_OP_LLVM_fragment, 64, 64), !3183)
    #dbg_value(i64 1, !1240, !DIExpression(DW_OP_LLVM_fragment, 0, 64), !3184)
    #dbg_value(i64 %_1.val.i.i, !1240, !DIExpression(DW_OP_LLVM_fragment, 64, 64), !3184)
    #dbg_value(ptr poison, !1248, !DIExpression(), !3184)
    #dbg_value(ptr %_54.i, !1249, !DIExpression(), !3184)
    #dbg_value(ptr %_54.i, !1252, !DIExpression(), !3186)
    #dbg_value(i64 1, !1258, !DIExpression(DW_OP_LLVM_fragment, 0, 64), !3186)
    #dbg_value(i64 %_1.val.i.i, !1258, !DIExpression(DW_OP_LLVM_fragment, 64, 64), !3186)
; call __rustc::__rust_dealloc
  call void @_RNvCsj3IbkTTFM3W_7___rustc14___rust_dealloc(ptr noundef nonnull %_54.i, i64 noundef %_1.val.i.i, i64 noundef range(i64 1, -9223372036854775807) 1) #24, !dbg !3188, !noalias !3158
  br label %bb4.i.i, !dbg !3189

bb4.i.i:                                          ; preds = %bb2.i.i.i4.i.i.i, %bb7.i
  %12 = getelementptr inbounds nuw i8, ptr %output.i, i64 24, !dbg !3171
  %.val2.i.i = load i64, ptr %12, align 8, !dbg !3171, !alias.scope !3158
    #dbg_value(ptr poison, !1155, !DIExpression(), !3190)
    #dbg_value(ptr poison, !1165, !DIExpression(), !3192)
    #dbg_value(ptr poison, !1175, !DIExpression(), !3194)
    #dbg_value(ptr poison, !1185, !DIExpression(), !3196)
    #dbg_value(i64 1, !1201, !DIExpression(DW_OP_LLVM_fragment, 0, 64), !3196)
    #dbg_value(i64 1, !1201, !DIExpression(DW_OP_LLVM_fragment, 64, 64), !3196)
    #dbg_value(i64 1, !1207, !DIExpression(DW_OP_LLVM_fragment, 0, 64), !3198)
    #dbg_value(i64 1, !1207, !DIExpression(DW_OP_LLVM_fragment, 64, 64), !3198)
    #dbg_value(ptr poison, !1231, !DIExpression(), !3198)
  %13 = icmp eq i64 %.val2.i.i, 0, !dbg !3200
  br i1 %13, label %bb8.i, label %bb2.i.i.i4.i7.i.i, !dbg !3200

bb2.i.i.i4.i7.i.i:                                ; preds = %bb4.i.i
  %14 = getelementptr inbounds nuw i8, ptr %output.i, i64 32, !dbg !3171
  %.val3.i.i = load ptr, ptr %14, align 8, !dbg !3171, !alias.scope !3158, !nonnull !23, !noundef !23
    #dbg_value(ptr %.val3.i.i, !1202, !DIExpression(), !3201)
    #dbg_value(i64 1, !1204, !DIExpression(DW_OP_LLVM_fragment, 0, 64), !3201)
    #dbg_value(i64 %.val2.i.i, !1204, !DIExpression(DW_OP_LLVM_fragment, 64, 64), !3201)
    #dbg_value(i64 1, !1240, !DIExpression(DW_OP_LLVM_fragment, 0, 64), !3202)
    #dbg_value(i64 %.val2.i.i, !1240, !DIExpression(DW_OP_LLVM_fragment, 64, 64), !3202)
    #dbg_value(ptr poison, !1248, !DIExpression(), !3202)
    #dbg_value(ptr %.val3.i.i, !1249, !DIExpression(), !3202)
    #dbg_value(ptr %.val3.i.i, !1252, !DIExpression(), !3204)
    #dbg_value(i64 1, !1258, !DIExpression(DW_OP_LLVM_fragment, 0, 64), !3204)
    #dbg_value(i64 %.val2.i.i, !1258, !DIExpression(DW_OP_LLVM_fragment, 64, 64), !3204)
; call __rustc::__rust_dealloc
  call void @_RNvCsj3IbkTTFM3W_7___rustc14___rust_dealloc(ptr noundef nonnull %.val3.i.i, i64 noundef %.val2.i.i, i64 noundef range(i64 1, -9223372036854775807) 1) #24, !dbg !3206, !noalias !3158
  br label %bb8.i, !dbg !3207

bb8.i:                                            ; preds = %bb2.i.i.i4.i7.i.i, %bb4.i.i
  call void @llvm.memcpy.p0.p0.i64(ptr noundef nonnull align 8 dereferenceable(56) %output.i, ptr noundef nonnull align 8 dereferenceable(56) %_11.i, i64 56, i1 false), !dbg !3161
  call void @llvm.lifetime.end.p0(i64 56, ptr nonnull %_11.i), !dbg !3208
  %_64.pre.i = load ptr, ptr %4, align 8, !dbg !3145
  %len23.pre.i = load i64, ptr %5, align 8, !dbg !3141
  br label %bb11.i, !dbg !3209

bb12.i:                                           ; preds = %bb11.i
  %_66.i = load i64, ptr %self1.i, align 8, !dbg !3210, !range !3084, !noundef !23
  %15 = trunc nuw i64 %_66.i to i1, !dbg !3211
  %16 = getelementptr inbounds nuw i8, ptr %self1.i, i64 8, !dbg !3211
  %x.025.i = load ptr, ptr %16, align 8, !dbg !3211, !nonnull !23, !align !3086
  %17 = getelementptr inbounds nuw i8, ptr %self1.i, i64 16, !dbg !3211
  %x.126.i = load i64, ptr %17, align 8, !dbg !3211
  call void @llvm.lifetime.end.p0(i64 24, ptr nonnull %self1.i), !dbg !3212
  br i1 %15, label %bb13.i, label %bb34.i, !dbg !3088, !prof !1069

bb13.i:                                           ; preds = %bb12.i
  call void @llvm.lifetime.start.p0(i64 48, ptr nonnull %_19.i), !dbg !3120
  br label %bb22.invoke.i, !dbg !3120

bb34.i:                                           ; preds = %bb12.i
    #dbg_value(ptr poison, !2772, !DIExpression(DW_OP_LLVM_fragment, 0, 64), !3213)
    #dbg_value(ptr poison, !2927, !DIExpression(DW_OP_LLVM_fragment, 0, 64), !2928)
    #dbg_value(i64 poison, !2772, !DIExpression(DW_OP_LLVM_fragment, 64, 64), !3213)
    #dbg_value(i64 poison, !2927, !DIExpression(DW_OP_LLVM_fragment, 64, 64), !2928)
  call void @llvm.lifetime.start.p0(i64 72, ptr nonnull %pieces.i), !dbg !3214
  store i64 0, ptr %pieces.i, align 8, !dbg !3215
  %_70.sroa.4.0.pieces.sroa_idx.i = getelementptr inbounds nuw i8, ptr %pieces.i, i64 8, !dbg !3215
  store i64 %x.126.i, ptr %_70.sroa.4.0.pieces.sroa_idx.i, align 8, !dbg !3215
  %_70.sroa.5.0.pieces.sroa_idx.i = getelementptr inbounds nuw i8, ptr %pieces.i, i64 16, !dbg !3215
  store ptr %x.025.i, ptr %_70.sroa.5.0.pieces.sroa_idx.i, align 8, !dbg !3215
  %_70.sroa.5.sroa.4.0._70.sroa.5.0.pieces.sroa_idx.sroa_idx.i = getelementptr inbounds nuw i8, ptr %pieces.i, i64 24, !dbg !3215
  store i64 %x.126.i, ptr %_70.sroa.5.sroa.4.0._70.sroa.5.0.pieces.sroa_idx.sroa_idx.i, align 8, !dbg !3215
  %_70.sroa.5.sroa.5.0._70.sroa.5.0.pieces.sroa_idx.sroa_idx.i = getelementptr inbounds nuw i8, ptr %pieces.i, i64 32, !dbg !3215
  store i64 0, ptr %_70.sroa.5.sroa.5.0._70.sroa.5.0.pieces.sroa_idx.sroa_idx.i, align 8, !dbg !3215
  %_70.sroa.5.sroa.6.0._70.sroa.5.0.pieces.sroa_idx.sroa_idx.i = getelementptr inbounds nuw i8, ptr %pieces.i, i64 40, !dbg !3215
  store i64 %x.126.i, ptr %_70.sroa.5.sroa.6.0._70.sroa.5.0.pieces.sroa_idx.sroa_idx.i, align 8, !dbg !3215
  %_70.sroa.5.sroa.7.0._70.sroa.5.0.pieces.sroa_idx.sroa_idx.i = getelementptr inbounds nuw i8, ptr %pieces.i, i64 48, !dbg !3215
  store i32 46, ptr %_70.sroa.5.sroa.7.0._70.sroa.5.0.pieces.sroa_idx.sroa_idx.i, align 8, !dbg !3215
  %_70.sroa.5.sroa.8.0._70.sroa.5.0.pieces.sroa_idx.sroa_idx.i = getelementptr inbounds nuw i8, ptr %pieces.i, i64 52, !dbg !3215
  store i32 46, ptr %_70.sroa.5.sroa.8.0._70.sroa.5.0.pieces.sroa_idx.sroa_idx.i, align 4, !dbg !3215
  %_70.sroa.5.sroa.9.0._70.sroa.5.0.pieces.sroa_idx.sroa_idx.i = getelementptr inbounds nuw i8, ptr %pieces.i, i64 56, !dbg !3215
  store i8 1, ptr %_70.sroa.5.sroa.9.0._70.sroa.5.0.pieces.sroa_idx.sroa_idx.i, align 8, !dbg !3215
  %_70.sroa.6.0.pieces.sroa_idx.i = getelementptr inbounds nuw i8, ptr %pieces.i, i64 64, !dbg !3215
  store i8 1, ptr %_70.sroa.6.0.pieces.sroa_idx.i, align 8, !dbg !3215
  %_70.sroa.7.0.pieces.sroa_idx.i = getelementptr inbounds nuw i8, ptr %pieces.i, i64 65, !dbg !3215
  store i8 0, ptr %_70.sroa.7.0.pieces.sroa_idx.i, align 1, !dbg !3215
    #dbg_value(ptr %pieces.i, !3216, !DIExpression(), !3221)
; invoke core::str::iter::SplitInternal<P>::next
  %18 = invoke fastcc { ptr, i64 } @"_ZN4core3str4iter22SplitInternal$LT$P$GT$4next17h082cba3ef5eb34c5E"(ptr noalias noundef align 8 dereferenceable(72) %pieces.i)
          to label %bb35.i unwind label %cleanup.i, !dbg !3223

bb35.i:                                           ; preds = %bb34.i
  %19 = extractvalue { ptr, i64 } %18, 0, !dbg !3224
  %20 = extractvalue { ptr, i64 } %18, 1, !dbg !3224
  store ptr %19, ptr %_22.i, align 8, !dbg !3224
  %21 = getelementptr inbounds nuw i8, ptr %_22.i, i64 8, !dbg !3224
  store i64 %20, ptr %21, align 8, !dbg !3224
    #dbg_value(ptr %_22.i, !2801, !DIExpression(), !3225)
    #dbg_value(ptr %_22.i, !2862, !DIExpression(), !3226)
    #dbg_value(ptr @alloc_99ffb679049157f8e234fe49e0609c15, !2805, !DIExpression(), !3225)
    #dbg_value(ptr @alloc_99ffb679049157f8e234fe49e0609c15, !2863, !DIExpression(), !3226)
  %.not57.i = icmp ne ptr %19, null, !dbg !3227
    #dbg_value(ptr %_22.i, !2864, !DIExpression(), !3228)
    #dbg_value(ptr %_22.i, !2853, !DIExpression(), !3229)
    #dbg_value(ptr @alloc_99ffb679049157f8e234fe49e0609c15, !2865, !DIExpression(), !3228)
    #dbg_value(ptr @alloc_99ffb679049157f8e234fe49e0609c15, !2854, !DIExpression(), !3229)
    #dbg_value(ptr %19, !2846, !DIExpression(DW_OP_LLVM_fragment, 0, 64), !3230)
    #dbg_value(i64 %20, !2846, !DIExpression(DW_OP_LLVM_fragment, 64, 64), !3230)
    #dbg_value(ptr @alloc_ca36d7e792bb4bbd1a68749f90007ce8, !2847, !DIExpression(DW_OP_LLVM_fragment, 0, 64), !3230)
    #dbg_value(i64 poison, !2847, !DIExpression(DW_OP_LLVM_fragment, 64, 64), !3230)
    #dbg_value(ptr %19, !3231, !DIExpression(DW_OP_LLVM_fragment, 0, 64), !3235)
    #dbg_value(ptr %19, !3238, !DIExpression(DW_OP_LLVM_fragment, 0, 64), !3244)
    #dbg_value(i64 %20, !3231, !DIExpression(DW_OP_LLVM_fragment, 64, 64), !3235)
    #dbg_value(i64 %20, !3238, !DIExpression(DW_OP_LLVM_fragment, 64, 64), !3244)
    #dbg_value(ptr undef, !2834, !DIExpression(), !2837)
    #dbg_value(ptr @alloc_ca36d7e792bb4bbd1a68749f90007ce8, !3234, !DIExpression(DW_OP_LLVM_fragment, 0, 64), !3235)
    #dbg_value(ptr @alloc_ca36d7e792bb4bbd1a68749f90007ce8, !3241, !DIExpression(DW_OP_LLVM_fragment, 0, 64), !3244)
    #dbg_value(i64 poison, !3234, !DIExpression(DW_OP_LLVM_fragment, 64, 64), !3235)
    #dbg_value(i64 poison, !3241, !DIExpression(DW_OP_LLVM_fragment, 64, 64), !3244)
    #dbg_value(ptr undef, !2824, !DIExpression(), !2837)
  %22 = icmp eq i64 %20, 7
  %or.cond.i = select i1 %.not57.i, i1 %22, i1 false, !dbg !3246
  br i1 %or.cond.i, label %bb39.i, label %bb16.i, !dbg !3246, !prof !3247

bb16.i:                                           ; preds = %bb39.i, %bb35.i
  call void @llvm.lifetime.start.p0(i64 48, ptr nonnull %_26.i), !dbg !3248
  store ptr @alloc_2848618747d5f5b989fc716426f82563, ptr %_26.i, align 8, !dbg !3248
  %_27.sroa.4.0._26.sroa_idx.i = getelementptr inbounds nuw i8, ptr %_26.i, i64 8, !dbg !3248
  store i64 1, ptr %_27.sroa.4.0._26.sroa_idx.i, align 8, !dbg !3248
  %_27.sroa.5.0._26.sroa_idx.i = getelementptr inbounds nuw i8, ptr %_26.i, i64 16, !dbg !3248
  store ptr inttoptr (i64 8 to ptr), ptr %_27.sroa.5.0._26.sroa_idx.i, align 8, !dbg !3248
  %_27.sroa.6.0._26.sroa_idx.i = getelementptr inbounds nuw i8, ptr %_26.i, i64 24, !dbg !3248
  call void @llvm.memset.p0.i64(ptr noundef nonnull align 8 dereferenceable(16) %_27.sroa.6.0._26.sroa_idx.i, i8 0, i64 16, i1 false), !dbg !3248
; invoke core::panicking::assert_failed
  invoke fastcc void @_ZN4core9panicking13assert_failed17ha361d18842496f86E(ptr noalias noundef readonly align 8 captures(address, read_provenance) dereferenceable(16) %_22.i, ptr noalias noundef align 8 captures(address) dereferenceable(48) %_26.i) #23
          to label %unreachable.i unwind label %cleanup.i, !dbg !3248

bb39.i:                                           ; preds = %bb35.i
    #dbg_value(i64 %20, !3242, !DIExpression(), !3249)
  %bcmp.i = call i32 @bcmp(ptr noundef nonnull dereferenceable(7) %19, ptr noundef nonnull dereferenceable(7) @alloc_ca36d7e792bb4bbd1a68749f90007ce8, i64 7), !dbg !3250
  %_24.i = icmp eq i32 %bcmp.i, 0, !dbg !3250
  br i1 %_24.i, label %bb15.i, label %bb16.i, !dbg !3251, !prof !3252

bb15.i:                                           ; preds = %bb39.i
    #dbg_value(ptr %pieces.i, !3216, !DIExpression(), !3253)
; invoke core::str::iter::SplitInternal<P>::next
  %23 = invoke fastcc { ptr, i64 } @"_ZN4core3str4iter22SplitInternal$LT$P$GT$4next17h082cba3ef5eb34c5E"(ptr noalias noundef align 8 dereferenceable(72) %pieces.i)
          to label %bb42.i unwind label %cleanup.i, !dbg !3255

bb42.i:                                           ; preds = %bb15.i
  %24 = extractvalue { ptr, i64 } %23, 0, !dbg !3256
  %25 = extractvalue { ptr, i64 } %23, 1, !dbg !3256
    #dbg_value(ptr %24, !2809, !DIExpression(DW_OP_LLVM_fragment, 0, 64), !3257)
    #dbg_value(i64 %25, !2809, !DIExpression(DW_OP_LLVM_fragment, 64, 64), !3257)
  call void @llvm.lifetime.start.p0(i64 72, ptr nonnull %_32.i), !dbg !3258
    #dbg_value(ptr %pieces.i, !3216, !DIExpression(), !3259)
; invoke core::str::iter::SplitInternal<P>::next
  %26 = invoke fastcc { ptr, i64 } @"_ZN4core3str4iter22SplitInternal$LT$P$GT$4next17h082cba3ef5eb34c5E"(ptr noalias noundef align 8 dereferenceable(72) %pieces.i)
          to label %bb43.i unwind label %cleanup.i, !dbg !3261

bb43.i:                                           ; preds = %bb42.i
  %27 = extractvalue { ptr, i64 } %26, 0, !dbg !3262
  %.not58.i = icmp eq ptr %27, null, !dbg !3263
  br i1 %.not58.i, label %bb17.i, label %bb44.i, !dbg !3264, !prof !1069

bb17.i:                                           ; preds = %bb43.i
  call void @llvm.lifetime.start.p0(i64 48, ptr nonnull %_38.i), !dbg !3265
  br label %bb22.invoke.i, !dbg !3265

bb44.i:                                           ; preds = %bb43.i
  %28 = extractvalue { ptr, i64 } %26, 1, !dbg !3262
    #dbg_value(ptr %27, !2927, !DIExpression(DW_OP_LLVM_fragment, 0, 64), !2936)
    #dbg_value(i64 %28, !2927, !DIExpression(DW_OP_LLVM_fragment, 64, 64), !2936)
  store i64 0, ptr %_32.i, align 8, !dbg !3266
  %_98.sroa.4.0._32.sroa_idx.i = getelementptr inbounds nuw i8, ptr %_32.i, i64 8, !dbg !3266
  store i64 %28, ptr %_98.sroa.4.0._32.sroa_idx.i, align 8, !dbg !3266
  %_98.sroa.5.0._32.sroa_idx.i = getelementptr inbounds nuw i8, ptr %_32.i, i64 16, !dbg !3266
  store ptr %27, ptr %_98.sroa.5.0._32.sroa_idx.i, align 8, !dbg !3266
  %_98.sroa.5.sroa.4.0._98.sroa.5.0._32.sroa_idx.sroa_idx.i = getelementptr inbounds nuw i8, ptr %_32.i, i64 24, !dbg !3266
  store i64 %28, ptr %_98.sroa.5.sroa.4.0._98.sroa.5.0._32.sroa_idx.sroa_idx.i, align 8, !dbg !3266
  %_98.sroa.5.sroa.5.0._98.sroa.5.0._32.sroa_idx.sroa_idx.i = getelementptr inbounds nuw i8, ptr %_32.i, i64 32, !dbg !3266
  store i64 0, ptr %_98.sroa.5.sroa.5.0._98.sroa.5.0._32.sroa_idx.sroa_idx.i, align 8, !dbg !3266
  %_98.sroa.5.sroa.6.0._98.sroa.5.0._32.sroa_idx.sroa_idx.i = getelementptr inbounds nuw i8, ptr %_32.i, i64 40, !dbg !3266
  store i64 %28, ptr %_98.sroa.5.sroa.6.0._98.sroa.5.0._32.sroa_idx.sroa_idx.i, align 8, !dbg !3266
  %_98.sroa.5.sroa.7.0._98.sroa.5.0._32.sroa_idx.sroa_idx.i = getelementptr inbounds nuw i8, ptr %_32.i, i64 48, !dbg !3266
  store i32 45, ptr %_98.sroa.5.sroa.7.0._98.sroa.5.0._32.sroa_idx.sroa_idx.i, align 8, !dbg !3266
  %_98.sroa.5.sroa.8.0._98.sroa.5.0._32.sroa_idx.sroa_idx.i = getelementptr inbounds nuw i8, ptr %_32.i, i64 52, !dbg !3266
  store i32 45, ptr %_98.sroa.5.sroa.8.0._98.sroa.5.0._32.sroa_idx.sroa_idx.i, align 4, !dbg !3266
  %_98.sroa.5.sroa.9.0._98.sroa.5.0._32.sroa_idx.sroa_idx.i = getelementptr inbounds nuw i8, ptr %_32.i, i64 56, !dbg !3266
  store i8 1, ptr %_98.sroa.5.sroa.9.0._98.sroa.5.0._32.sroa_idx.sroa_idx.i, align 8, !dbg !3266
  %_98.sroa.6.0._32.sroa_idx.i = getelementptr inbounds nuw i8, ptr %_32.i, i64 64, !dbg !3266
  store i8 1, ptr %_98.sroa.6.0._32.sroa_idx.i, align 8, !dbg !3266
  %_98.sroa.7.0._32.sroa_idx.i = getelementptr inbounds nuw i8, ptr %_32.i, i64 65, !dbg !3266
  store i8 0, ptr %_98.sroa.7.0._32.sroa_idx.i, align 1, !dbg !3266
    #dbg_value(ptr %_32.i, !2944, !DIExpression(), !2951)
    #dbg_value(ptr %_32.i, !2979, !DIExpression(), !2980)
    #dbg_value(ptr %_32.i, !2987, !DIExpression(), !3009)
    #dbg_value(ptr %_32.i, !3216, !DIExpression(), !3267)
    #dbg_value(ptr %_32.i, !3269, !DIExpression(), !3290)
    #dbg_value(i64 1, !3276, !DIExpression(), !3290)
    #dbg_declare(ptr poison, !3277, !DIExpression(), !3292)
    #dbg_value(i64 1, !3278, !DIExpression(), !3293)
    #dbg_value(ptr %_32.i, !3294, !DIExpression(), !3297)
; invoke core::str::iter::SplitInternal<P>::next
  %29 = invoke fastcc { ptr, i64 } @"_ZN4core3str4iter22SplitInternal$LT$P$GT$4next17h082cba3ef5eb34c5E"(ptr noalias noundef nonnull align 8 dereferenceable(72) %_32.i)
          to label %bb51.i unwind label %cleanup.i, !dbg !3299

bb51.i:                                           ; preds = %bb44.i
  %30 = extractvalue { ptr, i64 } %29, 0, !dbg !3300
  %.not.i.not.i = icmp eq ptr %30, null, !dbg !3300
    #dbg_value(i8 poison, !3301, !DIExpression(), !3337)
  br i1 %.not.i.not.i, label %bb19.i, label %bb50.i, !dbg !3339

bb50.i:                                           ; preds = %bb51.i
; invoke core::str::iter::SplitInternal<P>::next
  %31 = invoke fastcc { ptr, i64 } @"_ZN4core3str4iter22SplitInternal$LT$P$GT$4next17h082cba3ef5eb34c5E"(ptr noalias noundef align 8 dereferenceable(72) %_32.i)
          to label %bb19.i unwind label %cleanup.i, !dbg !3340

bb19.i:                                           ; preds = %bb50.i, %bb51.i
  call void @llvm.lifetime.end.p0(i64 72, ptr nonnull %_32.i), !dbg !3341
    #dbg_value(i1 poison, !2815, !DIExpression(DW_OP_LLVM_convert, 1, DW_ATE_unsigned, DW_OP_LLVM_convert, 8, DW_ATE_unsigned, DW_OP_stack_value), !3342)
  %.not60.i = icmp eq ptr %24, null, !dbg !3343
  br i1 %.not60.i, label %bb20.i, label %bb21.i, !dbg !3344, !prof !1069

bb21.i:                                           ; preds = %bb19.i
    #dbg_value(ptr %24, !3047, !DIExpression(DW_OP_LLVM_fragment, 0, 64), !3345)
    #dbg_value(ptr %24, !3043, !DIExpression(DW_OP_LLVM_fragment, 0, 64), !3346)
    #dbg_value(ptr %24, !3035, !DIExpression(DW_OP_LLVM_fragment, 0, 64), !3036)
    #dbg_value(i64 %25, !3047, !DIExpression(DW_OP_LLVM_fragment, 64, 64), !3345)
    #dbg_value(i64 %25, !3043, !DIExpression(DW_OP_LLVM_fragment, 64, 64), !3346)
    #dbg_value(i64 %25, !3035, !DIExpression(DW_OP_LLVM_fragment, 64, 64), !3036)
    #dbg_value(ptr %24, !3347, !DIExpression(DW_OP_LLVM_fragment, 0, 64), !3405)
    #dbg_value(i64 %25, !3347, !DIExpression(DW_OP_LLVM_fragment, 64, 64), !3405)
    #dbg_value(i32 10, !3352, !DIExpression(), !3405)
    #dbg_value(i32 10, !3407, !DIExpression(), !3421)
    #dbg_value(i32 10, !3423, !DIExpression(), !3429)
    #dbg_value(i8 0, !3353, !DIExpression(), !3431)
    #dbg_value(i8 0, !3432, !DIExpression(), !3439)
  switch i64 %25, label %bb9.i.i [
    i64 0, label %bb22.i
    i64 1, label %bb7.i.i
  ], !dbg !3441

bb7.i.i:                                          ; preds = %bb21.i
  %32 = load i8, ptr %24, align 1, !dbg !3442, !alias.scope !3443, !noundef !23
  switch i8 %32, label %bb14.preheader.i.i [
    i8 43, label %bb22.i
    i8 45, label %bb22.i
  ], !dbg !3442

bb9.i.i:                                          ; preds = %bb21.i
  %.pr.i.i = load i8, ptr %24, align 1, !dbg !3442, !alias.scope !3443
  %cond.i.i = icmp eq i8 %.pr.i.i, 43, !dbg !3442
  br i1 %cond.i.i, label %bb11.i.i, label %bb37.i.i, !dbg !3442

bb11.i.i:                                         ; preds = %bb9.i.i
  %rest.0.i.i = getelementptr inbounds nuw i8, ptr %24, i64 1, !dbg !3446
  %rest.1.i.i = add i64 %25, -1, !dbg !3446
    #dbg_value(i1 true, !3355, !DIExpression(DW_OP_LLVM_convert, 1, DW_ATE_unsigned, DW_OP_LLVM_convert, 8, DW_ATE_unsigned, DW_OP_stack_value), !3447)
    #dbg_value(ptr %rest.0.i.i, !3357, !DIExpression(DW_OP_LLVM_fragment, 0, 64), !3447)
    #dbg_value(i64 %rest.1.i.i, !3357, !DIExpression(DW_OP_LLVM_fragment, 64, 64), !3447)
    #dbg_value(i32 0, !3363, !DIExpression(), !3448)
    #dbg_value(i32 10, !3437, !DIExpression(), !3439)
    #dbg_value(ptr %rest.0.i.i, !3438, !DIExpression(DW_OP_LLVM_fragment, 0, 64), !3439)
    #dbg_value(i64 %rest.1.i.i, !3438, !DIExpression(DW_OP_LLVM_fragment, 64, 64), !3439)
  %33 = icmp ult i64 %25, 10, !dbg !3449
  br i1 %33, label %bb14.preheader.i.i, label %bb19.preheader.i.i, !dbg !3450

bb19.preheader.i.i:                               ; preds = %bb37.i.i, %bb11.i.i
  %digits.sroa.16.0.ph.i.i = phi i64 [ %25, %bb37.i.i ], [ %rest.1.i.i, %bb11.i.i ]
  %digits.sroa.0.0.ph.i.i = phi ptr [ %24, %bb37.i.i ], [ %rest.0.i.i, %bb11.i.i ]
  br label %bb19.i.i, !dbg !3451

bb19.i.i:                                         ; preds = %bb32.i.i, %bb19.preheader.i.i
  %result.sroa.0.0.i.i = phi i32 [ 0, %bb19.preheader.i.i ], [ %_70.0.i.i, %bb32.i.i ], !dbg !3447
  %digits.sroa.16.0.i.i = phi i64 [ %digits.sroa.16.0.ph.i.i, %bb19.preheader.i.i ], [ %rest.16.i.i, %bb32.i.i ], !dbg !3431
  %digits.sroa.0.0.i.i = phi ptr [ %digits.sroa.0.0.ph.i.i, %bb19.preheader.i.i ], [ %rest.05.i.i, %bb32.i.i ], !dbg !3431
    #dbg_value(ptr %digits.sroa.0.0.i.i, !3357, !DIExpression(DW_OP_LLVM_fragment, 0, 64), !3447)
    #dbg_value(i64 %digits.sroa.16.0.i.i, !3357, !DIExpression(DW_OP_LLVM_fragment, 64, 64), !3447)
    #dbg_value(i32 %result.sroa.0.0.i.i, !3363, !DIExpression(), !3448)
  %_33.not.i.not.i = icmp eq i64 %digits.sroa.16.0.i.i, 0, !dbg !3451
  br i1 %_33.not.i.not.i, label %bb23.i, label %bb20.i.i, !dbg !3451

bb37.i.i:                                         ; preds = %bb9.i.i
    #dbg_value(i1 true, !3355, !DIExpression(DW_OP_LLVM_convert, 1, DW_ATE_unsigned, DW_OP_LLVM_convert, 8, DW_ATE_unsigned, DW_OP_stack_value), !3447)
    #dbg_value(ptr %24, !3357, !DIExpression(DW_OP_LLVM_fragment, 0, 64), !3447)
    #dbg_value(i64 %25, !3357, !DIExpression(DW_OP_LLVM_fragment, 64, 64), !3447)
    #dbg_value(i32 0, !3363, !DIExpression(), !3448)
    #dbg_value(i32 10, !3437, !DIExpression(), !3439)
    #dbg_value(ptr %24, !3438, !DIExpression(DW_OP_LLVM_fragment, 0, 64), !3439)
    #dbg_value(i64 %25, !3438, !DIExpression(DW_OP_LLVM_fragment, 64, 64), !3439)
  %34 = icmp ult i64 %25, 9, !dbg !3449
  br i1 %34, label %bb14.preheader.i.i, label %bb19.preheader.i.i, !dbg !3450

bb14.preheader.i.i:                               ; preds = %bb37.i.i, %bb11.i.i, %bb7.i.i
  %digits.sroa.0.1.ph88.i.i = phi ptr [ %24, %bb37.i.i ], [ %24, %bb7.i.i ], [ %rest.0.i.i, %bb11.i.i ]
  %digits.sroa.16.1.ph87.i.i = phi i64 [ %25, %bb37.i.i ], [ 1, %bb7.i.i ], [ %rest.1.i.i, %bb11.i.i ]
  br label %bb14.i.i, !dbg !3452

bb20.i.i:                                         ; preds = %bb19.i.i
    #dbg_value(ptr %digits.sroa.0.0.i.i, !3379, !DIExpression(), !3453)
    #dbg_value(ptr %digits.sroa.0.0.i.i, !3381, !DIExpression(DW_OP_plus_uconst, 1, DW_OP_stack_value, DW_OP_LLVM_fragment, 0, 64), !3453)
    #dbg_value(i64 %digits.sroa.16.0.i.i, !3381, !DIExpression(DW_OP_constu, 1, DW_OP_minus, DW_OP_stack_value, DW_OP_LLVM_fragment, 64, 64), !3453)
    #dbg_value(i32 %result.sroa.0.0.i.i, !3414, !DIExpression(), !3421)
    #dbg_value(i32 %result.sroa.0.0.i.i, !3428, !DIExpression(), !3429)
  %35 = call { i32, i1 } @llvm.umul.with.overflow.i32(i32 %result.sroa.0.0.i.i, i32 10), !dbg !3454
  %_67.1.i.i = extractvalue { i32, i1 } %35, 1, !dbg !3454
    #dbg_value(i32 poison, !3415, !DIExpression(), !3455)
    #dbg_value(i1 %_67.1.i.i, !3417, !DIExpression(DW_OP_LLVM_convert, 1, DW_ATE_unsigned, DW_OP_LLVM_convert, 8, DW_ATE_unsigned, DW_OP_stack_value), !3455)
    #dbg_value(i1 %_67.1.i.i, !3456, !DIExpression(DW_OP_LLVM_convert, 1, DW_ATE_unsigned, DW_OP_LLVM_convert, 8, DW_ATE_unsigned, DW_OP_stack_value), !3463)
  br i1 %_67.1.i.i, label %bb22.i, label %bb32.i.i, !dbg !3465, !prof !1069

bb32.i.i:                                         ; preds = %bb20.i.i
  %_67.0.i.i = extractvalue { i32, i1 } %35, 0, !dbg !3454
    #dbg_value(i32 %_67.0.i.i, !3415, !DIExpression(), !3455)
  %rest.16.i.i = add i64 %digits.sroa.16.0.i.i, -1, !dbg !3466
    #dbg_value(i64 %rest.16.i.i, !3381, !DIExpression(DW_OP_LLVM_fragment, 64, 64), !3453)
  %rest.05.i.i = getelementptr inbounds nuw i8, ptr %digits.sroa.0.0.i.i, i64 1, !dbg !3466
    #dbg_value(ptr %rest.05.i.i, !3381, !DIExpression(DW_OP_LLVM_fragment, 0, 64), !3453)
    #dbg_value(i32 %_67.0.i.i, !3382, !DIExpression(DW_OP_LLVM_fragment, 32, 32), !3467)
    #dbg_value(i32 1, !3382, !DIExpression(DW_OP_LLVM_fragment, 0, 32), !3467)
  %36 = load i8, ptr %digits.sroa.0.0.i.i, align 1, !dbg !3468, !alias.scope !3443, !noundef !23
  %37 = zext i8 %36 to i32, !dbg !3469
    #dbg_value(i32 %37, !3470, !DIExpression(), !3482)
    #dbg_value(i32 10, !3479, !DIExpression(), !3482)
    #dbg_value(i32 65, !3484, !DIExpression(), !3490)
    #dbg_value(i32 48, !3484, !DIExpression(), !3492)
    #dbg_value(i32 %37, !3489, !DIExpression(), !3492)
  %38 = add nsw i32 %37, -48, !dbg !3494
    #dbg_value(i32 %38, !3480, !DIExpression(), !3495)
  %_14.i.i.i = icmp ugt i32 %38, 9, !dbg !3496
    #dbg_value(i32 %_67.0.i.i, !3363, !DIExpression(), !3448)
  %_70.0.i.i = add i32 %38, %_67.0.i.i
  %_70.1.not.i.i = icmp ult i32 %_70.0.i.i, %_67.0.i.i
    #dbg_value(i1 %_70.1.not.i.i, !3456, !DIExpression(DW_OP_not, DW_OP_not, DW_OP_LLVM_convert, 1, DW_ATE_unsigned, DW_OP_LLVM_convert, 8, DW_ATE_unsigned, DW_OP_stack_value), !3497)
  %or.cond80.i = select i1 %_14.i.i.i, i1 true, i1 %_70.1.not.i.i, !dbg !3504
  br i1 %or.cond80.i, label %bb22.i, label %bb19.i.i, !dbg !3504

bb14.i.i:                                         ; preds = %bb18.i.i, %bb14.preheader.i.i
  %digits.sroa.0.174.i.i = phi ptr [ %rest.016.i.i, %bb18.i.i ], [ %digits.sroa.0.1.ph88.i.i, %bb14.preheader.i.i ]
  %digits.sroa.16.173.i.i = phi i64 [ %rest.117.i.i, %bb18.i.i ], [ %digits.sroa.16.1.ph87.i.i, %bb14.preheader.i.i ]
  %result.sroa.0.172.i.i = phi i32 [ %41, %bb18.i.i ], [ 0, %bb14.preheader.i.i ]
    #dbg_value(ptr %digits.sroa.0.174.i.i, !3357, !DIExpression(DW_OP_LLVM_fragment, 0, 64), !3447)
    #dbg_value(i64 %digits.sroa.16.173.i.i, !3357, !DIExpression(DW_OP_LLVM_fragment, 64, 64), !3447)
    #dbg_value(ptr %digits.sroa.0.174.i.i, !3365, !DIExpression(), !3505)
    #dbg_value(ptr %digits.sroa.0.174.i.i, !3367, !DIExpression(DW_OP_plus_uconst, 1, DW_OP_stack_value, DW_OP_LLVM_fragment, 0, 64), !3505)
    #dbg_value(i64 %digits.sroa.16.173.i.i, !3367, !DIExpression(DW_OP_constu, 1, DW_OP_minus, DW_OP_stack_value, DW_OP_LLVM_fragment, 64, 64), !3505)
    #dbg_value(i32 %result.sroa.0.172.i.i, !3363, !DIExpression(DW_OP_constu, 10, DW_OP_mul, DW_OP_stack_value), !3448)
  %_24.i.i = load i8, ptr %digits.sroa.0.174.i.i, align 1, !dbg !3506, !alias.scope !3443, !noundef !23
  %_23.i.i = zext i8 %_24.i.i to i32, !dbg !3507
    #dbg_value(i32 %_23.i.i, !3470, !DIExpression(), !3508)
    #dbg_value(i32 10, !3479, !DIExpression(), !3508)
    #dbg_value(i32 65, !3484, !DIExpression(), !3510)
    #dbg_value(i32 48, !3484, !DIExpression(), !3512)
    #dbg_value(i32 %_23.i.i, !3489, !DIExpression(), !3512)
  %39 = add nsw i32 %_23.i.i, -48, !dbg !3514
    #dbg_value(i32 %39, !3480, !DIExpression(), !3515)
  %_14.i62.i.i = icmp ugt i32 %39, 9, !dbg !3516
  br i1 %_14.i62.i.i, label %bb22.i, label %bb18.i.i, !dbg !3452

bb18.i.i:                                         ; preds = %bb14.i.i
  %40 = mul i32 %result.sroa.0.172.i.i, 10, !dbg !3517
    #dbg_value(i32 %40, !3363, !DIExpression(), !3448)
  %rest.117.i.i = add nsw i64 %digits.sroa.16.173.i.i, -1, !dbg !3518
    #dbg_value(i64 %rest.117.i.i, !3367, !DIExpression(DW_OP_LLVM_fragment, 64, 64), !3505)
  %rest.016.i.i = getelementptr inbounds nuw i8, ptr %digits.sroa.0.174.i.i, i64 1, !dbg !3518
    #dbg_value(ptr %rest.016.i.i, !3367, !DIExpression(DW_OP_LLVM_fragment, 0, 64), !3505)
    #dbg_value(i32 %39, !3368, !DIExpression(), !3519)
  %41 = add i32 %39, %40, !dbg !3520
    #dbg_value(ptr %rest.016.i.i, !3357, !DIExpression(DW_OP_LLVM_fragment, 0, 64), !3447)
    #dbg_value(i64 %rest.117.i.i, !3357, !DIExpression(DW_OP_LLVM_fragment, 64, 64), !3447)
    #dbg_value(i32 %41, !3363, !DIExpression(), !3448)
  %_18.not.i.i = icmp eq i64 %rest.117.i.i, 0, !dbg !3521
  br i1 %_18.not.i.i, label %bb23.i, label %bb14.i.i, !dbg !3521

bb20.i:                                           ; preds = %bb19.i
  call void @llvm.lifetime.start.p0(i64 48, ptr nonnull %_46.i), !dbg !3522
  br label %bb22.invoke.i, !dbg !3522

bb23.i:                                           ; preds = %bb19.i.i, %bb18.i.i
  %_0.sroa.8.0.insert.insert.i.i = phi i32 [ %41, %bb18.i.i ], [ %result.sroa.0.0.i.i, %bb19.i.i ], !dbg !3523
  call void @llvm.lifetime.end.p0(i64 72, ptr nonnull %pieces.i), !dbg !3524
  call void @llvm.experimental.noalias.scope.decl(metadata !3525), !dbg !3081
    #dbg_value(ptr %output.i, !3162, !DIExpression(), !3528)
  %_1.val.i66.i = load i64, ptr %output.i, align 8, !dbg !3530, !alias.scope !3525
    #dbg_value(ptr poison, !1155, !DIExpression(), !3531)
    #dbg_value(ptr poison, !1165, !DIExpression(), !3533)
    #dbg_value(ptr poison, !1175, !DIExpression(), !3535)
    #dbg_value(ptr poison, !1185, !DIExpression(), !3537)
    #dbg_value(i64 1, !1201, !DIExpression(DW_OP_LLVM_fragment, 0, 64), !3537)
    #dbg_value(i64 1, !1201, !DIExpression(DW_OP_LLVM_fragment, 64, 64), !3537)
    #dbg_value(i64 1, !1207, !DIExpression(DW_OP_LLVM_fragment, 0, 64), !3539)
    #dbg_value(i64 1, !1207, !DIExpression(DW_OP_LLVM_fragment, 64, 64), !3539)
    #dbg_value(ptr poison, !1231, !DIExpression(), !3539)
  %42 = icmp eq i64 %_1.val.i66.i, 0, !dbg !3541
  br i1 %42, label %bb4.i69.i, label %bb2.i.i.i4.i.i67.i, !dbg !3541

bb2.i.i.i4.i.i67.i:                               ; preds = %bb23.i
    #dbg_value(ptr %_64.i, !1202, !DIExpression(), !3542)
    #dbg_value(i64 1, !1204, !DIExpression(DW_OP_LLVM_fragment, 0, 64), !3542)
    #dbg_value(i64 %_1.val.i66.i, !1204, !DIExpression(DW_OP_LLVM_fragment, 64, 64), !3542)
    #dbg_value(i64 1, !1240, !DIExpression(DW_OP_LLVM_fragment, 0, 64), !3543)
    #dbg_value(i64 %_1.val.i66.i, !1240, !DIExpression(DW_OP_LLVM_fragment, 64, 64), !3543)
    #dbg_value(ptr poison, !1248, !DIExpression(), !3543)
    #dbg_value(ptr %_64.i, !1249, !DIExpression(), !3543)
    #dbg_value(ptr %_64.i, !1252, !DIExpression(), !3545)
    #dbg_value(i64 1, !1258, !DIExpression(DW_OP_LLVM_fragment, 0, 64), !3545)
    #dbg_value(i64 %_1.val.i66.i, !1258, !DIExpression(DW_OP_LLVM_fragment, 64, 64), !3545)
; call __rustc::__rust_dealloc
  call void @_RNvCsj3IbkTTFM3W_7___rustc14___rust_dealloc(ptr noundef nonnull %_64.i, i64 noundef %_1.val.i66.i, i64 noundef range(i64 1, -9223372036854775807) 1) #24, !dbg !3547, !noalias !3525
  br label %bb4.i69.i, !dbg !3548

bb4.i69.i:                                        ; preds = %bb2.i.i.i4.i.i67.i, %bb23.i
  %43 = getelementptr inbounds nuw i8, ptr %output.i, i64 24, !dbg !3530
  %.val2.i70.i = load i64, ptr %43, align 8, !dbg !3530, !alias.scope !3525
    #dbg_value(ptr poison, !1155, !DIExpression(), !3549)
    #dbg_value(ptr poison, !1165, !DIExpression(), !3551)
    #dbg_value(ptr poison, !1175, !DIExpression(), !3553)
    #dbg_value(ptr poison, !1185, !DIExpression(), !3555)
    #dbg_value(i64 1, !1201, !DIExpression(DW_OP_LLVM_fragment, 0, 64), !3555)
    #dbg_value(i64 1, !1201, !DIExpression(DW_OP_LLVM_fragment, 64, 64), !3555)
    #dbg_value(i64 1, !1207, !DIExpression(DW_OP_LLVM_fragment, 0, 64), !3557)
    #dbg_value(i64 1, !1207, !DIExpression(DW_OP_LLVM_fragment, 64, 64), !3557)
    #dbg_value(ptr poison, !1231, !DIExpression(), !3557)
  %44 = icmp eq i64 %.val2.i70.i, 0, !dbg !3559
  br i1 %44, label %_ZN18build_script_build19rustc_minor_nightly17hc69da0efcb520e58E.exit, label %bb2.i.i.i4.i7.i71.i, !dbg !3559

bb2.i.i.i4.i7.i71.i:                              ; preds = %bb4.i69.i
  %45 = getelementptr inbounds nuw i8, ptr %output.i, i64 32, !dbg !3530
  %.val3.i72.i = load ptr, ptr %45, align 8, !dbg !3530, !alias.scope !3525, !nonnull !23, !noundef !23
    #dbg_value(ptr %.val3.i72.i, !1202, !DIExpression(), !3560)
    #dbg_value(i64 1, !1204, !DIExpression(DW_OP_LLVM_fragment, 0, 64), !3560)
    #dbg_value(i64 %.val2.i70.i, !1204, !DIExpression(DW_OP_LLVM_fragment, 64, 64), !3560)
    #dbg_value(i64 1, !1240, !DIExpression(DW_OP_LLVM_fragment, 0, 64), !3561)
    #dbg_value(i64 %.val2.i70.i, !1240, !DIExpression(DW_OP_LLVM_fragment, 64, 64), !3561)
    #dbg_value(ptr poison, !1248, !DIExpression(), !3561)
    #dbg_value(ptr %.val3.i72.i, !1249, !DIExpression(), !3561)
    #dbg_value(ptr %.val3.i72.i, !1252, !DIExpression(), !3563)
    #dbg_value(i64 1, !1258, !DIExpression(DW_OP_LLVM_fragment, 0, 64), !3563)
    #dbg_value(i64 %.val2.i70.i, !1258, !DIExpression(DW_OP_LLVM_fragment, 64, 64), !3563)
; call __rustc::__rust_dealloc
  call void @_RNvCsj3IbkTTFM3W_7___rustc14___rust_dealloc(ptr noundef nonnull %.val3.i72.i, i64 noundef %.val2.i70.i, i64 noundef range(i64 1, -9223372036854775807) 1) #24, !dbg !3565, !noalias !3525
  br label %_ZN18build_script_build19rustc_minor_nightly17hc69da0efcb520e58E.exit, !dbg !3566

bb22.i:                                           ; preds = %bb32.i.i, %bb20.i.i, %bb14.i.i, %bb7.i.i, %bb7.i.i, %bb21.i
  call void @llvm.lifetime.start.p0(i64 48, ptr nonnull %_50.i), !dbg !3522
  br label %bb22.invoke.i, !dbg !3522

bb22.invoke.i:                                    ; preds = %bb22.i, %bb20.i, %bb17.i, %bb13.i, %bb4.i
  %_10.sink97.i.sroa.phi = phi ptr [ %_10.sink97.i.sroa.gep, %bb4.i ], [ %_10.sink97.i.sroa.gep650, %bb13.i ], [ %_10.sink97.i.sroa.gep651, %bb17.i ], [ %_10.sink97.i.sroa.gep652, %bb20.i ], [ %_10.sink97.i.sroa.gep653, %bb22.i ]
  %_10.sink97.i.sroa.phi654 = phi ptr [ %_10.sink97.i.sroa.gep655, %bb4.i ], [ %_10.sink97.i.sroa.gep656, %bb13.i ], [ %_10.sink97.i.sroa.gep657, %bb17.i ], [ %_10.sink97.i.sroa.gep658, %bb20.i ], [ %_10.sink97.i.sroa.gep659, %bb22.i ]
  %_10.sink97.i.sroa.phi660 = phi ptr [ %_10.sink97.i.sroa.gep661, %bb4.i ], [ %_10.sink97.i.sroa.gep662, %bb13.i ], [ %_10.sink97.i.sroa.gep663, %bb17.i ], [ %_10.sink97.i.sroa.gep664, %bb20.i ], [ %_10.sink97.i.sroa.gep665, %bb22.i ]
  %_10.sink97.i.sroa.phi666 = phi ptr [ %_10.sink97.i.sroa.gep667, %bb4.i ], [ %_10.sink97.i.sroa.gep668, %bb13.i ], [ %_10.sink97.i.sroa.gep669, %bb17.i ], [ %_10.sink97.i.sroa.gep670, %bb20.i ], [ %_10.sink97.i.sroa.gep671, %bb22.i ]
  %_10.sink97.i = phi ptr [ %_10.i, %bb4.i ], [ %_19.i, %bb13.i ], [ %_38.i, %bb17.i ], [ %_46.i, %bb20.i ], [ %_50.i, %bb22.i ]
  %46 = phi ptr [ @alloc_d461cecc2e8426e8e429daa636d5f45b, %bb4.i ], [ @alloc_a66157e2319119986804caae1b60bf57, %bb13.i ], [ @alloc_335bcae3bfec2725b3f4e9b28b5dbc8e, %bb17.i ], [ @alloc_ec6b2810244466f4e289af2683cdcb6e, %bb20.i ], [ @alloc_29f40842bcdc552c82e0e8a30dce6972, %bb22.i ]
  store ptr @alloc_2848618747d5f5b989fc716426f82563, ptr %_10.sink97.i, align 8, !dbg !3567
  store i64 1, ptr %_10.sink97.i.sroa.phi, align 8, !dbg !3567
  store ptr null, ptr %_10.sink97.i.sroa.phi654, align 8, !dbg !3567
  store ptr inttoptr (i64 8 to ptr), ptr %_10.sink97.i.sroa.phi660, align 8, !dbg !3567
  store i64 0, ptr %_10.sink97.i.sroa.phi666, align 8, !dbg !3567
; invoke core::panicking::panic_fmt
  invoke void @_ZN4core9panicking9panic_fmt17h5138da2ef87be35bE(ptr noalias noundef nonnull readonly align 8 captures(address) dereferenceable(48) %_10.sink97.i, ptr noalias noundef nonnull readonly align 8 captures(address, read_provenance) dereferenceable(24) %46) #23
          to label %bb22.cont.i unwind label %cleanup.i, !dbg !3120

bb22.cont.i:                                      ; preds = %bb22.invoke.i
  unreachable

_ZN18build_script_build19rustc_minor_nightly17hc69da0efcb520e58E.exit: ; preds = %bb4.i69.i, %bb2.i.i.i4.i7.i71.i
  call void @llvm.lifetime.end.p0(i64 56, ptr nonnull %output.i), !dbg !3081
  call void @llvm.lifetime.end.p0(i64 16, ptr nonnull %_22.i), !dbg !3568
    #dbg_value(i32 %_0.sroa.8.0.insert.insert.i.i, !1687, !DIExpression(), !3569)
    #dbg_value(i1 poison, !1689, !DIExpression(DW_OP_LLVM_convert, 1, DW_ATE_unsigned, DW_OP_LLVM_convert, 8, DW_ATE_unsigned, DW_OP_stack_value), !3569)
  call void @llvm.lifetime.start.p0(i64 32, ptr nonnull %_8), !dbg !3570
    #dbg_value(ptr @alloc_509e3f14595a72dfc2af0a28f5824017, !3571, !DIExpression(DW_OP_LLVM_fragment, 0, 64), !3602)
    #dbg_value(i64 30, !3571, !DIExpression(DW_OP_LLVM_fragment, 64, 64), !3602)
; call std::env::_var
  call void @_ZN3std3env4_var17h25c6d924f650e097E(ptr noalias noundef nonnull sret([32 x i8]) align 8 captures(address) dereferenceable(32) %_8, ptr noalias noundef nonnull readonly align 1 captures(address, read_provenance) @alloc_509e3f14595a72dfc2af0a28f5824017, i64 noundef 30), !dbg !3604
    #dbg_value(ptr %_8, !3605, !DIExpression(), !3612)
  %_207 = load i64, ptr %_8, align 8, !dbg !3614, !range !3084, !noundef !23
  %rustc_dep_of_std = icmp eq i64 %_207, 0, !dbg !3615
    #dbg_value(i1 %rustc_dep_of_std, !1690, !DIExpression(DW_OP_LLVM_convert, 1, DW_ATE_unsigned, DW_OP_LLVM_convert, 8, DW_ATE_unsigned, DW_OP_stack_value), !3617)
  call void @llvm.experimental.noalias.scope.decl(metadata !3618), !dbg !3621
    #dbg_value(ptr %_8, !3622, !DIExpression(), !3630)
  %47 = getelementptr inbounds nuw i8, ptr %_8, i64 8, !dbg !3632
  %.val.i = load i64, ptr %47, align 8, !dbg !3632, !alias.scope !3618
  br i1 %rustc_dep_of_std, label %bb2.i239, label %bb3.i, !dbg !3632

bb2.i239:                                         ; preds = %_ZN18build_script_build19rustc_minor_nightly17hc69da0efcb520e58E.exit
    #dbg_value(ptr poison, !1630, !DIExpression(), !3633)
    #dbg_value(ptr poison, !1155, !DIExpression(), !3635)
    #dbg_value(ptr poison, !1165, !DIExpression(), !3637)
    #dbg_value(ptr poison, !1175, !DIExpression(), !3639)
    #dbg_value(ptr poison, !1185, !DIExpression(), !3641)
    #dbg_value(i64 1, !1201, !DIExpression(DW_OP_LLVM_fragment, 0, 64), !3641)
    #dbg_value(i64 1, !1201, !DIExpression(DW_OP_LLVM_fragment, 64, 64), !3641)
    #dbg_value(i64 1, !1207, !DIExpression(DW_OP_LLVM_fragment, 0, 64), !3643)
    #dbg_value(i64 1, !1207, !DIExpression(DW_OP_LLVM_fragment, 64, 64), !3643)
    #dbg_value(ptr poison, !1231, !DIExpression(), !3643)
  %48 = icmp eq i64 %.val.i, 0, !dbg !3645
  br i1 %48, label %"_ZN4core3ptr91drop_in_place$LT$core..result..Result$LT$alloc..string..String$C$std..env..VarError$GT$$GT$17h9dab6c61be006bccE.exit", label %bb1.sink.split.i, !dbg !3645

bb3.i:                                            ; preds = %_ZN18build_script_build19rustc_minor_nightly17hc69da0efcb520e58E.exit
    #dbg_value(ptr poison, !3646, !DIExpression(), !3654)
  switch i64 %.val.i, label %bb1.sink.split.i [
    i64 -9223372036854775808, label %"_ZN4core3ptr91drop_in_place$LT$core..result..Result$LT$alloc..string..String$C$std..env..VarError$GT$$GT$17h9dab6c61be006bccE.exit"
    i64 0, label %"_ZN4core3ptr91drop_in_place$LT$core..result..Result$LT$alloc..string..String$C$std..env..VarError$GT$$GT$17h9dab6c61be006bccE.exit"
  ], !dbg !3656

bb1.sink.split.i:                                 ; preds = %bb3.i, %bb2.i239
  %49 = getelementptr inbounds nuw i8, ptr %_8, i64 16, !dbg !3632
  %.val3.i = load ptr, ptr %49, align 8, !dbg !3632, !alias.scope !3618, !nonnull !23, !noundef !23
; call __rustc::__rust_dealloc
  call void @_RNvCsj3IbkTTFM3W_7___rustc14___rust_dealloc(ptr noundef nonnull %.val3.i, i64 noundef %.val.i, i64 noundef range(i64 1, -9223372036854775807) 1) #24, !dbg !3632, !noalias !3618
  br label %"_ZN4core3ptr91drop_in_place$LT$core..result..Result$LT$alloc..string..String$C$std..env..VarError$GT$$GT$17h9dab6c61be006bccE.exit", !dbg !3632

"_ZN4core3ptr91drop_in_place$LT$core..result..Result$LT$alloc..string..String$C$std..env..VarError$GT$$GT$17h9dab6c61be006bccE.exit": ; preds = %bb2.i239, %bb3.i, %bb3.i, %bb1.sink.split.i
  call void @llvm.lifetime.end.p0(i64 32, ptr nonnull %_8), !dbg !3621
  call void @llvm.lifetime.start.p0(i64 32, ptr nonnull %_11), !dbg !3657
    #dbg_value(ptr @alloc_f73607afcba5e721c2712249402644b6, !3571, !DIExpression(DW_OP_LLVM_fragment, 0, 64), !3658)
    #dbg_value(i64 7, !3571, !DIExpression(DW_OP_LLVM_fragment, 64, 64), !3658)
; call std::env::_var
  call void @_ZN3std3env4_var17h25c6d924f650e097E(ptr noalias noundef nonnull sret([32 x i8]) align 8 captures(address) dereferenceable(32) %_11, ptr noalias noundef nonnull readonly align 1 captures(address, read_provenance) @alloc_f73607afcba5e721c2712249402644b6, i64 noundef 7), !dbg !3660
    #dbg_value(ptr %_11, !3605, !DIExpression(), !3661)
  %_208 = load i64, ptr %_11, align 8, !dbg !3663, !range !3084, !noundef !23
  %libc_ci = icmp eq i64 %_208, 0, !dbg !3664
    #dbg_value(i1 %libc_ci, !1692, !DIExpression(DW_OP_LLVM_convert, 1, DW_ATE_unsigned, DW_OP_LLVM_convert, 8, DW_ATE_unsigned, DW_OP_stack_value), !3665)
  call void @llvm.experimental.noalias.scope.decl(metadata !3666), !dbg !3669
    #dbg_value(ptr %_11, !3622, !DIExpression(), !3670)
  %50 = getelementptr inbounds nuw i8, ptr %_11, i64 8, !dbg !3672
  %.val.i241 = load i64, ptr %50, align 8, !dbg !3672, !alias.scope !3666
  br i1 %libc_ci, label %bb2.i245, label %bb3.i242, !dbg !3672

bb2.i245:                                         ; preds = %"_ZN4core3ptr91drop_in_place$LT$core..result..Result$LT$alloc..string..String$C$std..env..VarError$GT$$GT$17h9dab6c61be006bccE.exit"
    #dbg_value(ptr poison, !1630, !DIExpression(), !3673)
    #dbg_value(ptr poison, !1155, !DIExpression(), !3675)
    #dbg_value(ptr poison, !1165, !DIExpression(), !3677)
    #dbg_value(ptr poison, !1175, !DIExpression(), !3679)
    #dbg_value(ptr poison, !1185, !DIExpression(), !3681)
    #dbg_value(i64 1, !1201, !DIExpression(DW_OP_LLVM_fragment, 0, 64), !3681)
    #dbg_value(i64 1, !1201, !DIExpression(DW_OP_LLVM_fragment, 64, 64), !3681)
    #dbg_value(i64 1, !1207, !DIExpression(DW_OP_LLVM_fragment, 0, 64), !3683)
    #dbg_value(i64 1, !1207, !DIExpression(DW_OP_LLVM_fragment, 64, 64), !3683)
    #dbg_value(ptr poison, !1231, !DIExpression(), !3683)
  %51 = icmp eq i64 %.val.i241, 0, !dbg !3685
  br i1 %51, label %"_ZN4core3ptr91drop_in_place$LT$core..result..Result$LT$alloc..string..String$C$std..env..VarError$GT$$GT$17h9dab6c61be006bccE.exit246", label %bb1.sink.split.i243, !dbg !3685

bb3.i242:                                         ; preds = %"_ZN4core3ptr91drop_in_place$LT$core..result..Result$LT$alloc..string..String$C$std..env..VarError$GT$$GT$17h9dab6c61be006bccE.exit"
    #dbg_value(ptr poison, !3646, !DIExpression(), !3686)
  switch i64 %.val.i241, label %bb1.sink.split.i243 [
    i64 -9223372036854775808, label %"_ZN4core3ptr91drop_in_place$LT$core..result..Result$LT$alloc..string..String$C$std..env..VarError$GT$$GT$17h9dab6c61be006bccE.exit246"
    i64 0, label %"_ZN4core3ptr91drop_in_place$LT$core..result..Result$LT$alloc..string..String$C$std..env..VarError$GT$$GT$17h9dab6c61be006bccE.exit246"
  ], !dbg !3688

bb1.sink.split.i243:                              ; preds = %bb3.i242, %bb2.i245
  %52 = getelementptr inbounds nuw i8, ptr %_11, i64 16, !dbg !3672
  %.val3.i244 = load ptr, ptr %52, align 8, !dbg !3672, !alias.scope !3666, !nonnull !23, !noundef !23
; call __rustc::__rust_dealloc
  call void @_RNvCsj3IbkTTFM3W_7___rustc14___rust_dealloc(ptr noundef nonnull %.val3.i244, i64 noundef %.val.i241, i64 noundef range(i64 1, -9223372036854775807) 1) #24, !dbg !3672, !noalias !3666
  br label %"_ZN4core3ptr91drop_in_place$LT$core..result..Result$LT$alloc..string..String$C$std..env..VarError$GT$$GT$17h9dab6c61be006bccE.exit246", !dbg !3672

"_ZN4core3ptr91drop_in_place$LT$core..result..Result$LT$alloc..string..String$C$std..env..VarError$GT$$GT$17h9dab6c61be006bccE.exit246": ; preds = %bb2.i245, %bb3.i242, %bb3.i242, %bb1.sink.split.i243
  call void @llvm.lifetime.end.p0(i64 32, ptr nonnull %_11), !dbg !3669
  call void @llvm.lifetime.start.p0(i64 32, ptr nonnull %_13), !dbg !3689
    #dbg_value(ptr @alloc_1e1fc66c1706c6c7501acca2ae8010f4, !3571, !DIExpression(DW_OP_LLVM_fragment, 0, 64), !3690)
    #dbg_value(i64 20, !3571, !DIExpression(DW_OP_LLVM_fragment, 64, 64), !3690)
; call std::env::_var
  call void @_ZN3std3env4_var17h25c6d924f650e097E(ptr noalias noundef nonnull sret([32 x i8]) align 8 captures(address) dereferenceable(32) %_13, ptr noalias noundef nonnull readonly align 1 captures(address, read_provenance) @alloc_1e1fc66c1706c6c7501acca2ae8010f4, i64 noundef 20), !dbg !3692
  call void @llvm.experimental.noalias.scope.decl(metadata !3693), !dbg !3696
  call void @llvm.experimental.noalias.scope.decl(metadata !3697), !dbg !3696
    #dbg_declare(ptr %_13, !3699, !DIExpression(), !3707)
  %_2.i247 = load i64, ptr %_13, align 8, !dbg !3709, !range !3084, !alias.scope !3697, !noalias !3693, !noundef !23
  %53 = trunc nuw i64 %_2.i247 to i1, !dbg !3710
  br i1 %53, label %bb3.i.i, label %bb7.i248, !dbg !3710

bb7.i248:                                         ; preds = %"_ZN4core3ptr91drop_in_place$LT$core..result..Result$LT$alloc..string..String$C$std..env..VarError$GT$$GT$17h9dab6c61be006bccE.exit246"
  %54 = getelementptr inbounds nuw i8, ptr %_13, i64 8, !dbg !3711
  %target_env.sroa.0.0.copyload = load i64, ptr %54, align 8, !dbg !3711, !alias.scope !3712
    #dbg_value(i64 %target_env.sroa.0.0.copyload, !1694, !DIExpression(DW_OP_LLVM_fragment, 0, 64), !3713)
  %target_env.sroa.6.0..sroa_idx = getelementptr inbounds nuw i8, ptr %_13, i64 16, !dbg !3711
  %target_env.sroa.6.0.copyload = load ptr, ptr %target_env.sroa.6.0..sroa_idx, align 8, !dbg !3711, !alias.scope !3712
    #dbg_value(ptr %target_env.sroa.6.0.copyload, !1694, !DIExpression(DW_OP_LLVM_fragment, 64, 64), !3713)
  %target_env.sroa.11.0..sroa_idx = getelementptr inbounds nuw i8, ptr %_13, i64 24, !dbg !3711
  %target_env.sroa.11.0.copyload = load i64, ptr %target_env.sroa.11.0..sroa_idx, align 8, !dbg !3711, !alias.scope !3712
    #dbg_value(i64 %target_env.sroa.11.0.copyload, !1694, !DIExpression(DW_OP_LLVM_fragment, 128, 64), !3713)
  br label %"_ZN4core6result19Result$LT$T$C$E$GT$17unwrap_or_default17h02bcd51c2733317bE.exit", !dbg !3714

bb3.i.i:                                          ; preds = %"_ZN4core3ptr91drop_in_place$LT$core..result..Result$LT$alloc..string..String$C$std..env..VarError$GT$$GT$17h9dab6c61be006bccE.exit246"
    #dbg_value(i64 0, !1694, !DIExpression(DW_OP_LLVM_fragment, 0, 64), !3713)
    #dbg_value(ptr inttoptr (i64 1 to ptr), !1694, !DIExpression(DW_OP_LLVM_fragment, 64, 64), !3713)
    #dbg_value(i64 0, !1694, !DIExpression(DW_OP_LLVM_fragment, 128, 64), !3713)
  call void @llvm.experimental.noalias.scope.decl(metadata !3715), !dbg !3714
    #dbg_value(ptr %_13, !3622, !DIExpression(), !3718)
  %55 = getelementptr inbounds nuw i8, ptr %_13, i64 8, !dbg !3720
  %.val.i.i = load i64, ptr %55, align 8, !dbg !3720, !alias.scope !3721, !noalias !3693
    #dbg_value(ptr poison, !3646, !DIExpression(), !3722)
  switch i64 %.val.i.i, label %bb1.sink.split.i.i [
    i64 -9223372036854775808, label %"_ZN4core6result19Result$LT$T$C$E$GT$17unwrap_or_default17h02bcd51c2733317bE.exit"
    i64 0, label %"_ZN4core6result19Result$LT$T$C$E$GT$17unwrap_or_default17h02bcd51c2733317bE.exit"
  ], !dbg !3724

bb1.sink.split.i.i:                               ; preds = %bb3.i.i
  %56 = getelementptr inbounds nuw i8, ptr %_13, i64 16, !dbg !3720
  %.val3.i.i250 = load ptr, ptr %56, align 8, !dbg !3720, !alias.scope !3721, !noalias !3693, !nonnull !23, !noundef !23
; call __rustc::__rust_dealloc
  call void @_RNvCsj3IbkTTFM3W_7___rustc14___rust_dealloc(ptr noundef nonnull %.val3.i.i250, i64 noundef %.val.i.i, i64 noundef range(i64 1, -9223372036854775807) 1) #24, !dbg !3720, !noalias !3725
  br label %"_ZN4core6result19Result$LT$T$C$E$GT$17unwrap_or_default17h02bcd51c2733317bE.exit", !dbg !3720

"_ZN4core6result19Result$LT$T$C$E$GT$17unwrap_or_default17h02bcd51c2733317bE.exit": ; preds = %bb7.i248, %bb3.i.i, %bb3.i.i, %bb1.sink.split.i.i
  %target_env.sroa.11.0 = phi i64 [ 0, %bb1.sink.split.i.i ], [ 0, %bb3.i.i ], [ 0, %bb3.i.i ], [ %target_env.sroa.11.0.copyload, %bb7.i248 ], !dbg !3726
  %target_env.sroa.6.0 = phi ptr [ inttoptr (i64 1 to ptr), %bb1.sink.split.i.i ], [ inttoptr (i64 1 to ptr), %bb3.i.i ], [ inttoptr (i64 1 to ptr), %bb3.i.i ], [ %target_env.sroa.6.0.copyload, %bb7.i248 ], !dbg !3726
  %target_env.sroa.0.0 = phi i64 [ 0, %bb1.sink.split.i.i ], [ 0, %bb3.i.i ], [ 0, %bb3.i.i ], [ %target_env.sroa.0.0.copyload, %bb7.i248 ], !dbg !3726
    #dbg_value(i64 %target_env.sroa.0.0, !1694, !DIExpression(DW_OP_LLVM_fragment, 0, 64), !3713)
    #dbg_value(ptr %target_env.sroa.6.0, !1694, !DIExpression(DW_OP_LLVM_fragment, 64, 64), !3713)
    #dbg_value(i64 %target_env.sroa.11.0, !1694, !DIExpression(DW_OP_LLVM_fragment, 128, 64), !3713)
  call void @llvm.lifetime.end.p0(i64 32, ptr nonnull %_13), !dbg !3727
  call void @llvm.lifetime.start.p0(i64 32, ptr nonnull %_15), !dbg !3728
    #dbg_value(ptr @alloc_aa4687de82972c6f88dd4ebd068e3b63, !3571, !DIExpression(DW_OP_LLVM_fragment, 0, 64), !3729)
    #dbg_value(i64 19, !3571, !DIExpression(DW_OP_LLVM_fragment, 64, 64), !3729)
; invoke std::env::_var
  invoke void @_ZN3std3env4_var17h25c6d924f650e097E(ptr noalias noundef nonnull sret([32 x i8]) align 8 captures(address) dereferenceable(32) %_15, ptr noalias noundef nonnull readonly align 1 captures(address, read_provenance) @alloc_aa4687de82972c6f88dd4ebd068e3b63, i64 noundef 19)
          to label %bb9 unwind label %cleanup, !dbg !3731

bb170:                                            ; preds = %bb2.i.i.i4.i.i264, %bb169, %cleanup
  %.pn146.pn.pn.pn = phi { ptr, i32 } [ %59, %cleanup ], [ %.pn146.pn.pn, %bb169 ], [ %.pn146.pn.pn, %bb2.i.i.i4.i.i264 ]
    #dbg_value(ptr poison, !1630, !DIExpression(), !3732)
    #dbg_value(ptr poison, !1155, !DIExpression(), !3734)
    #dbg_value(ptr poison, !1165, !DIExpression(), !3736)
    #dbg_value(ptr poison, !1175, !DIExpression(), !3738)
    #dbg_value(ptr poison, !1185, !DIExpression(), !3740)
    #dbg_value(i64 1, !1201, !DIExpression(DW_OP_LLVM_fragment, 0, 64), !3740)
    #dbg_value(i64 1, !1201, !DIExpression(DW_OP_LLVM_fragment, 64, 64), !3740)
    #dbg_value(i64 1, !1207, !DIExpression(DW_OP_LLVM_fragment, 0, 64), !3742)
    #dbg_value(i64 1, !1207, !DIExpression(DW_OP_LLVM_fragment, 64, 64), !3742)
    #dbg_value(ptr poison, !1231, !DIExpression(), !3742)
  %57 = icmp eq i64 %target_env.sroa.0.0, 0, !dbg !3744
  br i1 %57, label %common.resume, label %bb2.i.i.i4.i.i, !dbg !3744

bb2.i.i.i4.i.i:                                   ; preds = %bb170
  %58 = icmp ne ptr %target_env.sroa.6.0, null
  call void @llvm.assume(i1 %58)
    #dbg_value(ptr %target_env.sroa.6.0, !1202, !DIExpression(), !3745)
    #dbg_value(i64 1, !1204, !DIExpression(DW_OP_LLVM_fragment, 0, 64), !3745)
    #dbg_value(i64 %target_env.sroa.0.0, !1204, !DIExpression(DW_OP_LLVM_fragment, 64, 64), !3745)
    #dbg_value(i64 1, !1240, !DIExpression(DW_OP_LLVM_fragment, 0, 64), !3746)
    #dbg_value(i64 %target_env.sroa.0.0, !1240, !DIExpression(DW_OP_LLVM_fragment, 64, 64), !3746)
    #dbg_value(ptr poison, !1248, !DIExpression(), !3746)
    #dbg_value(ptr %target_env.sroa.6.0, !1249, !DIExpression(), !3746)
    #dbg_value(ptr %target_env.sroa.6.0, !1252, !DIExpression(), !3748)
    #dbg_value(i64 1, !1258, !DIExpression(DW_OP_LLVM_fragment, 0, 64), !3748)
    #dbg_value(i64 %target_env.sroa.0.0, !1258, !DIExpression(DW_OP_LLVM_fragment, 64, 64), !3748)
; call __rustc::__rust_dealloc
  call void @_RNvCsj3IbkTTFM3W_7___rustc14___rust_dealloc(ptr noundef nonnull %target_env.sroa.6.0, i64 noundef %target_env.sroa.0.0, i64 noundef range(i64 1, -9223372036854775807) 1) #24, !dbg !3750
  br label %common.resume, !dbg !3751

cleanup:                                          ; preds = %"_ZN4core6result19Result$LT$T$C$E$GT$17unwrap_or_default17h02bcd51c2733317bE.exit"
  %59 = landingpad { ptr, i32 }
          cleanup
  br label %bb170

bb9:                                              ; preds = %"_ZN4core6result19Result$LT$T$C$E$GT$17unwrap_or_default17h02bcd51c2733317bE.exit"
  call void @llvm.experimental.noalias.scope.decl(metadata !3752), !dbg !3755
  call void @llvm.experimental.noalias.scope.decl(metadata !3756), !dbg !3755
    #dbg_declare(ptr %_15, !3699, !DIExpression(), !3758)
  %_2.i252 = load i64, ptr %_15, align 8, !dbg !3760, !range !3084, !alias.scope !3756, !noalias !3752, !noundef !23
  %60 = trunc nuw i64 %_2.i252 to i1, !dbg !3761
  br i1 %60, label %bb3.i.i255, label %bb7.i253, !dbg !3761

bb7.i253:                                         ; preds = %bb9
  %61 = getelementptr inbounds nuw i8, ptr %_15, i64 8, !dbg !3762
  %target_os.sroa.0.0.copyload = load i64, ptr %61, align 8, !dbg !3762, !alias.scope !3763
    #dbg_value(i64 %target_os.sroa.0.0.copyload, !1696, !DIExpression(DW_OP_LLVM_fragment, 0, 64), !3764)
  %target_os.sroa.6.0..sroa_idx = getelementptr inbounds nuw i8, ptr %_15, i64 16, !dbg !3762
  %target_os.sroa.6.0.copyload = load ptr, ptr %target_os.sroa.6.0..sroa_idx, align 8, !dbg !3762, !alias.scope !3763
    #dbg_value(ptr %target_os.sroa.6.0.copyload, !1696, !DIExpression(DW_OP_LLVM_fragment, 64, 64), !3764)
  %target_os.sroa.10.0..sroa_idx = getelementptr inbounds nuw i8, ptr %_15, i64 24, !dbg !3762
  %target_os.sroa.10.0.copyload = load i64, ptr %target_os.sroa.10.0..sroa_idx, align 8, !dbg !3762, !alias.scope !3763
    #dbg_value(i64 %target_os.sroa.10.0.copyload, !1696, !DIExpression(DW_OP_LLVM_fragment, 128, 64), !3764)
  %62 = icmp eq i64 %target_os.sroa.10.0.copyload, 5
  br label %bb10, !dbg !3765

bb3.i.i255:                                       ; preds = %bb9
    #dbg_value(i64 0, !1696, !DIExpression(DW_OP_LLVM_fragment, 0, 64), !3764)
    #dbg_value(ptr inttoptr (i64 1 to ptr), !1696, !DIExpression(DW_OP_LLVM_fragment, 64, 64), !3764)
    #dbg_value(i64 0, !1696, !DIExpression(DW_OP_LLVM_fragment, 128, 64), !3764)
  call void @llvm.experimental.noalias.scope.decl(metadata !3766), !dbg !3765
    #dbg_value(ptr %_15, !3622, !DIExpression(), !3769)
  %63 = getelementptr inbounds nuw i8, ptr %_15, i64 8, !dbg !3771
  %.val.i.i258 = load i64, ptr %63, align 8, !dbg !3771, !alias.scope !3772, !noalias !3752
    #dbg_value(ptr poison, !3646, !DIExpression(), !3773)
  switch i64 %.val.i.i258, label %bb1.sink.split.i.i259 [
    i64 -9223372036854775808, label %bb10
    i64 0, label %bb10
  ], !dbg !3775

bb1.sink.split.i.i259:                            ; preds = %bb3.i.i255
  %64 = getelementptr inbounds nuw i8, ptr %_15, i64 16, !dbg !3771
  %.val3.i.i260 = load ptr, ptr %64, align 8, !dbg !3771, !alias.scope !3772, !noalias !3752, !nonnull !23, !noundef !23
; call __rustc::__rust_dealloc
  call void @_RNvCsj3IbkTTFM3W_7___rustc14___rust_dealloc(ptr noundef nonnull %.val3.i.i260, i64 noundef %.val.i.i258, i64 noundef range(i64 1, -9223372036854775807) 1) #24, !dbg !3771, !noalias !3776
  br label %bb10, !dbg !3771

bb10:                                             ; preds = %bb1.sink.split.i.i259, %bb3.i.i255, %bb3.i.i255, %bb7.i253
  %target_os.sroa.10.0 = phi i1 [ false, %bb1.sink.split.i.i259 ], [ false, %bb3.i.i255 ], [ false, %bb3.i.i255 ], [ %62, %bb7.i253 ], !dbg !3777
  %target_os.sroa.6.0 = phi ptr [ inttoptr (i64 1 to ptr), %bb1.sink.split.i.i259 ], [ inttoptr (i64 1 to ptr), %bb3.i.i255 ], [ inttoptr (i64 1 to ptr), %bb3.i.i255 ], [ %target_os.sroa.6.0.copyload, %bb7.i253 ], !dbg !3777
  %target_os.sroa.0.0 = phi i64 [ 0, %bb1.sink.split.i.i259 ], [ 0, %bb3.i.i255 ], [ 0, %bb3.i.i255 ], [ %target_os.sroa.0.0.copyload, %bb7.i253 ], !dbg !3777
    #dbg_value(i64 %target_os.sroa.0.0, !1696, !DIExpression(DW_OP_LLVM_fragment, 0, 64), !3764)
    #dbg_value(ptr %target_os.sroa.6.0, !1696, !DIExpression(DW_OP_LLVM_fragment, 64, 64), !3764)
    #dbg_value(i64 poison, !1696, !DIExpression(DW_OP_LLVM_fragment, 128, 64), !3764)
  call void @llvm.lifetime.end.p0(i64 32, ptr nonnull %_15), !dbg !3778
  call void @llvm.lifetime.start.p0(i64 32, ptr nonnull %_17), !dbg !3779
    #dbg_value(ptr @alloc_6508c675143a2a16e0690055cd395724, !3571, !DIExpression(DW_OP_LLVM_fragment, 0, 64), !3780)
    #dbg_value(i64 30, !3571, !DIExpression(DW_OP_LLVM_fragment, 64, 64), !3780)
; invoke std::env::_var
  invoke void @_ZN3std3env4_var17h25c6d924f650e097E(ptr noalias noundef nonnull sret([32 x i8]) align 8 captures(address) dereferenceable(32) %_17, ptr noalias noundef nonnull readonly align 1 captures(address, read_provenance) @alloc_6508c675143a2a16e0690055cd395724, i64 noundef 30)
          to label %bb11 unwind label %cleanup45, !dbg !3782

bb169:                                            ; preds = %bb2.i.i.i4.i.i278, %bb168, %cleanup45
  %.pn146.pn.pn = phi { ptr, i32 } [ %67, %cleanup45 ], [ %.pn146.pn, %bb168 ], [ %.pn146.pn, %bb2.i.i.i4.i.i278 ]
    #dbg_value(ptr poison, !1630, !DIExpression(), !3783)
    #dbg_value(ptr poison, !1155, !DIExpression(), !3785)
    #dbg_value(ptr poison, !1165, !DIExpression(), !3787)
    #dbg_value(ptr poison, !1175, !DIExpression(), !3789)
    #dbg_value(ptr poison, !1185, !DIExpression(), !3791)
    #dbg_value(i64 1, !1201, !DIExpression(DW_OP_LLVM_fragment, 0, 64), !3791)
    #dbg_value(i64 1, !1201, !DIExpression(DW_OP_LLVM_fragment, 64, 64), !3791)
    #dbg_value(i64 1, !1207, !DIExpression(DW_OP_LLVM_fragment, 0, 64), !3793)
    #dbg_value(i64 1, !1207, !DIExpression(DW_OP_LLVM_fragment, 64, 64), !3793)
    #dbg_value(ptr poison, !1231, !DIExpression(), !3793)
  %65 = icmp eq i64 %target_os.sroa.0.0, 0, !dbg !3795
  br i1 %65, label %bb170, label %bb2.i.i.i4.i.i264, !dbg !3795

bb2.i.i.i4.i.i264:                                ; preds = %bb169
  %66 = icmp ne ptr %target_os.sroa.6.0, null
  call void @llvm.assume(i1 %66)
    #dbg_value(ptr %target_os.sroa.6.0, !1202, !DIExpression(), !3796)
    #dbg_value(i64 1, !1204, !DIExpression(DW_OP_LLVM_fragment, 0, 64), !3796)
    #dbg_value(i64 %target_os.sroa.0.0, !1204, !DIExpression(DW_OP_LLVM_fragment, 64, 64), !3796)
    #dbg_value(i64 1, !1240, !DIExpression(DW_OP_LLVM_fragment, 0, 64), !3797)
    #dbg_value(i64 %target_os.sroa.0.0, !1240, !DIExpression(DW_OP_LLVM_fragment, 64, 64), !3797)
    #dbg_value(ptr poison, !1248, !DIExpression(), !3797)
    #dbg_value(ptr %target_os.sroa.6.0, !1249, !DIExpression(), !3797)
    #dbg_value(ptr %target_os.sroa.6.0, !1252, !DIExpression(), !3799)
    #dbg_value(i64 1, !1258, !DIExpression(DW_OP_LLVM_fragment, 0, 64), !3799)
    #dbg_value(i64 %target_os.sroa.0.0, !1258, !DIExpression(DW_OP_LLVM_fragment, 64, 64), !3799)
; call __rustc::__rust_dealloc
  call void @_RNvCsj3IbkTTFM3W_7___rustc14___rust_dealloc(ptr noundef nonnull %target_os.sroa.6.0, i64 noundef %target_os.sroa.0.0, i64 noundef range(i64 1, -9223372036854775807) 1) #24, !dbg !3801
  br label %bb170, !dbg !3802

cleanup45:                                        ; preds = %bb10
  %67 = landingpad { ptr, i32 }
          cleanup
  br label %bb169

bb11:                                             ; preds = %bb10
  call void @llvm.experimental.noalias.scope.decl(metadata !3803), !dbg !3806
  call void @llvm.experimental.noalias.scope.decl(metadata !3807), !dbg !3806
    #dbg_declare(ptr %_17, !3699, !DIExpression(), !3809)
  %_2.i266 = load i64, ptr %_17, align 8, !dbg !3811, !range !3084, !alias.scope !3807, !noalias !3803, !noundef !23
  %68 = trunc nuw i64 %_2.i266 to i1, !dbg !3812
  br i1 %68, label %bb3.i.i269, label %bb7.i267, !dbg !3812

bb7.i267:                                         ; preds = %bb11
  %69 = getelementptr inbounds nuw i8, ptr %_17, i64 8, !dbg !3813
  %target_ptr_width.sroa.0.0.copyload = load i64, ptr %69, align 8, !dbg !3813, !alias.scope !3814
    #dbg_value(i64 %target_ptr_width.sroa.0.0.copyload, !1698, !DIExpression(DW_OP_LLVM_fragment, 0, 64), !3815)
  %target_ptr_width.sroa.6.0..sroa_idx = getelementptr inbounds nuw i8, ptr %_17, i64 16, !dbg !3813
  %target_ptr_width.sroa.6.0.copyload = load ptr, ptr %target_ptr_width.sroa.6.0..sroa_idx, align 8, !dbg !3813, !alias.scope !3814
    #dbg_value(ptr %target_ptr_width.sroa.6.0.copyload, !1698, !DIExpression(DW_OP_LLVM_fragment, 64, 64), !3815)
  %target_ptr_width.sroa.10.0..sroa_idx = getelementptr inbounds nuw i8, ptr %_17, i64 24, !dbg !3813
  %target_ptr_width.sroa.10.0.copyload = load i64, ptr %target_ptr_width.sroa.10.0..sroa_idx, align 8, !dbg !3813, !alias.scope !3814
    #dbg_value(i64 %target_ptr_width.sroa.10.0.copyload, !1698, !DIExpression(DW_OP_LLVM_fragment, 128, 64), !3815)
  %70 = icmp eq i64 %target_ptr_width.sroa.10.0.copyload, 2
  br label %bb12, !dbg !3816

bb3.i.i269:                                       ; preds = %bb11
    #dbg_value(i64 0, !1698, !DIExpression(DW_OP_LLVM_fragment, 0, 64), !3815)
    #dbg_value(ptr inttoptr (i64 1 to ptr), !1698, !DIExpression(DW_OP_LLVM_fragment, 64, 64), !3815)
    #dbg_value(i64 0, !1698, !DIExpression(DW_OP_LLVM_fragment, 128, 64), !3815)
  call void @llvm.experimental.noalias.scope.decl(metadata !3817), !dbg !3816
    #dbg_value(ptr %_17, !3622, !DIExpression(), !3820)
  %71 = getelementptr inbounds nuw i8, ptr %_17, i64 8, !dbg !3822
  %.val.i.i272 = load i64, ptr %71, align 8, !dbg !3822, !alias.scope !3823, !noalias !3803
    #dbg_value(ptr poison, !3646, !DIExpression(), !3824)
  switch i64 %.val.i.i272, label %bb1.sink.split.i.i273 [
    i64 -9223372036854775808, label %bb12
    i64 0, label %bb12
  ], !dbg !3826

bb1.sink.split.i.i273:                            ; preds = %bb3.i.i269
  %72 = getelementptr inbounds nuw i8, ptr %_17, i64 16, !dbg !3822
  %.val3.i.i274 = load ptr, ptr %72, align 8, !dbg !3822, !alias.scope !3823, !noalias !3803, !nonnull !23, !noundef !23
; call __rustc::__rust_dealloc
  call void @_RNvCsj3IbkTTFM3W_7___rustc14___rust_dealloc(ptr noundef nonnull %.val3.i.i274, i64 noundef %.val.i.i272, i64 noundef range(i64 1, -9223372036854775807) 1) #24, !dbg !3822, !noalias !3827
  br label %bb12, !dbg !3822

bb12:                                             ; preds = %bb1.sink.split.i.i273, %bb3.i.i269, %bb3.i.i269, %bb7.i267
  %target_ptr_width.sroa.10.0 = phi i1 [ false, %bb1.sink.split.i.i273 ], [ false, %bb3.i.i269 ], [ false, %bb3.i.i269 ], [ %70, %bb7.i267 ], !dbg !3828
  %target_ptr_width.sroa.6.0 = phi ptr [ inttoptr (i64 1 to ptr), %bb1.sink.split.i.i273 ], [ inttoptr (i64 1 to ptr), %bb3.i.i269 ], [ inttoptr (i64 1 to ptr), %bb3.i.i269 ], [ %target_ptr_width.sroa.6.0.copyload, %bb7.i267 ], !dbg !3828
  %target_ptr_width.sroa.0.0 = phi i64 [ 0, %bb1.sink.split.i.i273 ], [ 0, %bb3.i.i269 ], [ 0, %bb3.i.i269 ], [ %target_ptr_width.sroa.0.0.copyload, %bb7.i267 ], !dbg !3828
    #dbg_value(i64 %target_ptr_width.sroa.0.0, !1698, !DIExpression(DW_OP_LLVM_fragment, 0, 64), !3815)
    #dbg_value(ptr %target_ptr_width.sroa.6.0, !1698, !DIExpression(DW_OP_LLVM_fragment, 64, 64), !3815)
    #dbg_value(i64 poison, !1698, !DIExpression(DW_OP_LLVM_fragment, 128, 64), !3815)
  call void @llvm.lifetime.end.p0(i64 32, ptr nonnull %_17), !dbg !3829
  call void @llvm.lifetime.start.p0(i64 32, ptr nonnull %_19), !dbg !3830
    #dbg_value(ptr @alloc_0d3bcf6fb685f000bc18304ea76cbac4, !3571, !DIExpression(DW_OP_LLVM_fragment, 0, 64), !3831)
    #dbg_value(i64 21, !3571, !DIExpression(DW_OP_LLVM_fragment, 64, 64), !3831)
; invoke std::env::_var
  invoke void @_ZN3std3env4_var17h25c6d924f650e097E(ptr noalias noundef nonnull sret([32 x i8]) align 8 captures(address) dereferenceable(32) %_19, ptr noalias noundef nonnull readonly align 1 captures(address, read_provenance) @alloc_0d3bcf6fb685f000bc18304ea76cbac4, i64 noundef 21)
          to label %bb13 unwind label %cleanup46, !dbg !3833

bb168:                                            ; preds = %bb2.i.i.i4.i.i290, %bb167, %cleanup46
  %.pn146.pn = phi { ptr, i32 } [ %75, %cleanup46 ], [ %.pn146, %bb167 ], [ %.pn146, %bb2.i.i.i4.i.i290 ]
    #dbg_value(ptr poison, !1630, !DIExpression(), !3834)
    #dbg_value(ptr poison, !1155, !DIExpression(), !3836)
    #dbg_value(ptr poison, !1165, !DIExpression(), !3838)
    #dbg_value(ptr poison, !1175, !DIExpression(), !3840)
    #dbg_value(ptr poison, !1185, !DIExpression(), !3842)
    #dbg_value(i64 1, !1201, !DIExpression(DW_OP_LLVM_fragment, 0, 64), !3842)
    #dbg_value(i64 1, !1201, !DIExpression(DW_OP_LLVM_fragment, 64, 64), !3842)
    #dbg_value(i64 1, !1207, !DIExpression(DW_OP_LLVM_fragment, 0, 64), !3844)
    #dbg_value(i64 1, !1207, !DIExpression(DW_OP_LLVM_fragment, 64, 64), !3844)
    #dbg_value(ptr poison, !1231, !DIExpression(), !3844)
  %73 = icmp eq i64 %target_ptr_width.sroa.0.0, 0, !dbg !3846
  br i1 %73, label %bb169, label %bb2.i.i.i4.i.i278, !dbg !3846

bb2.i.i.i4.i.i278:                                ; preds = %bb168
  %74 = icmp ne ptr %target_ptr_width.sroa.6.0, null
  call void @llvm.assume(i1 %74)
    #dbg_value(ptr %target_ptr_width.sroa.6.0, !1202, !DIExpression(), !3847)
    #dbg_value(i64 1, !1204, !DIExpression(DW_OP_LLVM_fragment, 0, 64), !3847)
    #dbg_value(i64 %target_ptr_width.sroa.0.0, !1204, !DIExpression(DW_OP_LLVM_fragment, 64, 64), !3847)
    #dbg_value(i64 1, !1240, !DIExpression(DW_OP_LLVM_fragment, 0, 64), !3848)
    #dbg_value(i64 %target_ptr_width.sroa.0.0, !1240, !DIExpression(DW_OP_LLVM_fragment, 64, 64), !3848)
    #dbg_value(ptr poison, !1248, !DIExpression(), !3848)
    #dbg_value(ptr %target_ptr_width.sroa.6.0, !1249, !DIExpression(), !3848)
    #dbg_value(ptr %target_ptr_width.sroa.6.0, !1252, !DIExpression(), !3850)
    #dbg_value(i64 1, !1258, !DIExpression(DW_OP_LLVM_fragment, 0, 64), !3850)
    #dbg_value(i64 %target_ptr_width.sroa.0.0, !1258, !DIExpression(DW_OP_LLVM_fragment, 64, 64), !3850)
; call __rustc::__rust_dealloc
  call void @_RNvCsj3IbkTTFM3W_7___rustc14___rust_dealloc(ptr noundef nonnull %target_ptr_width.sroa.6.0, i64 noundef %target_ptr_width.sroa.0.0, i64 noundef range(i64 1, -9223372036854775807) 1) #24, !dbg !3852
  br label %bb169, !dbg !3853

cleanup46:                                        ; preds = %bb12
  %75 = landingpad { ptr, i32 }
          cleanup
  br label %bb168

bb13:                                             ; preds = %bb12
  call void @llvm.experimental.noalias.scope.decl(metadata !3854), !dbg !3857
  call void @llvm.experimental.noalias.scope.decl(metadata !3858), !dbg !3857
    #dbg_declare(ptr %_19, !3699, !DIExpression(), !3860)
  %_2.i280 = load i64, ptr %_19, align 8, !dbg !3862, !range !3084, !alias.scope !3858, !noalias !3854, !noundef !23
  %76 = trunc nuw i64 %_2.i280 to i1, !dbg !3863
  br i1 %76, label %bb3.i.i283, label %bb7.i281, !dbg !3863

bb7.i281:                                         ; preds = %bb13
  %77 = getelementptr inbounds nuw i8, ptr %_19, i64 8, !dbg !3864
  %target_arch.sroa.0.0.copyload = load i64, ptr %77, align 8, !dbg !3864, !alias.scope !3865
    #dbg_value(i64 %target_arch.sroa.0.0.copyload, !1700, !DIExpression(DW_OP_LLVM_fragment, 0, 64), !3866)
  %target_arch.sroa.6.0..sroa_idx = getelementptr inbounds nuw i8, ptr %_19, i64 16, !dbg !3864
  %target_arch.sroa.6.0.copyload = load ptr, ptr %target_arch.sroa.6.0..sroa_idx, align 8, !dbg !3864, !alias.scope !3865
    #dbg_value(ptr %target_arch.sroa.6.0.copyload, !1700, !DIExpression(DW_OP_LLVM_fragment, 64, 64), !3866)
  %target_arch.sroa.12.0..sroa_idx = getelementptr inbounds nuw i8, ptr %_19, i64 24, !dbg !3864
  %target_arch.sroa.12.0.copyload = load i64, ptr %target_arch.sroa.12.0..sroa_idx, align 8, !dbg !3864, !alias.scope !3865
    #dbg_value(i64 %target_arch.sroa.12.0.copyload, !1700, !DIExpression(DW_OP_LLVM_fragment, 128, 64), !3866)
  br label %bb14, !dbg !3867

bb3.i.i283:                                       ; preds = %bb13
    #dbg_value(i64 0, !1700, !DIExpression(DW_OP_LLVM_fragment, 0, 64), !3866)
    #dbg_value(ptr inttoptr (i64 1 to ptr), !1700, !DIExpression(DW_OP_LLVM_fragment, 64, 64), !3866)
    #dbg_value(i64 0, !1700, !DIExpression(DW_OP_LLVM_fragment, 128, 64), !3866)
  call void @llvm.experimental.noalias.scope.decl(metadata !3868), !dbg !3867
    #dbg_value(ptr %_19, !3622, !DIExpression(), !3871)
  %78 = getelementptr inbounds nuw i8, ptr %_19, i64 8, !dbg !3873
  %.val.i.i286 = load i64, ptr %78, align 8, !dbg !3873, !alias.scope !3874, !noalias !3854
    #dbg_value(ptr poison, !3646, !DIExpression(), !3875)
  switch i64 %.val.i.i286, label %bb1.sink.split.i.i287 [
    i64 -9223372036854775808, label %bb14
    i64 0, label %bb14
  ], !dbg !3877

bb1.sink.split.i.i287:                            ; preds = %bb3.i.i283
  %79 = getelementptr inbounds nuw i8, ptr %_19, i64 16, !dbg !3873
  %.val3.i.i288 = load ptr, ptr %79, align 8, !dbg !3873, !alias.scope !3874, !noalias !3854, !nonnull !23, !noundef !23
; call __rustc::__rust_dealloc
  call void @_RNvCsj3IbkTTFM3W_7___rustc14___rust_dealloc(ptr noundef nonnull %.val3.i.i288, i64 noundef %.val.i.i286, i64 noundef range(i64 1, -9223372036854775807) 1) #24, !dbg !3873, !noalias !3878
  br label %bb14, !dbg !3873

bb14:                                             ; preds = %bb1.sink.split.i.i287, %bb3.i.i283, %bb3.i.i283, %bb7.i281
  %target_arch.sroa.12.0 = phi i64 [ 0, %bb1.sink.split.i.i287 ], [ 0, %bb3.i.i283 ], [ 0, %bb3.i.i283 ], [ %target_arch.sroa.12.0.copyload, %bb7.i281 ], !dbg !3879
  %target_arch.sroa.6.0 = phi ptr [ inttoptr (i64 1 to ptr), %bb1.sink.split.i.i287 ], [ inttoptr (i64 1 to ptr), %bb3.i.i283 ], [ inttoptr (i64 1 to ptr), %bb3.i.i283 ], [ %target_arch.sroa.6.0.copyload, %bb7.i281 ], !dbg !3879
  %target_arch.sroa.0.0 = phi i64 [ 0, %bb1.sink.split.i.i287 ], [ 0, %bb3.i.i283 ], [ 0, %bb3.i.i283 ], [ %target_arch.sroa.0.0.copyload, %bb7.i281 ], !dbg !3879
    #dbg_value(i64 %target_arch.sroa.0.0, !1700, !DIExpression(DW_OP_LLVM_fragment, 0, 64), !3866)
    #dbg_value(ptr %target_arch.sroa.6.0, !1700, !DIExpression(DW_OP_LLVM_fragment, 64, 64), !3866)
    #dbg_value(i64 %target_arch.sroa.12.0, !1700, !DIExpression(DW_OP_LLVM_fragment, 128, 64), !3866)
  call void @llvm.lifetime.end.p0(i64 32, ptr nonnull %_19), !dbg !3880
  call void @llvm.lifetime.start.p0(i64 48, ptr nonnull %_21), !dbg !2600
  store ptr @alloc_ae235dc40c5194048e5c6a461e5f636a, ptr %_21, align 8, !dbg !3881
  %80 = getelementptr inbounds nuw i8, ptr %_21, i64 8, !dbg !3881
  store i64 1, ptr %80, align 8, !dbg !3881
  %81 = getelementptr inbounds nuw i8, ptr %_21, i64 32, !dbg !3881
  store ptr null, ptr %81, align 8, !dbg !3881
  %82 = getelementptr inbounds nuw i8, ptr %_21, i64 16, !dbg !3881
  store ptr inttoptr (i64 8 to ptr), ptr %82, align 8, !dbg !3881
  %83 = getelementptr inbounds nuw i8, ptr %_21, i64 24, !dbg !3881
  store i64 0, ptr %83, align 8, !dbg !3881
; invoke std::io::stdio::_print
  invoke void @_ZN3std2io5stdio6_print17h02b5be036b2109f4E(ptr noalias noundef nonnull align 8 captures(address) dereferenceable(48) %_21)
          to label %bb15 unwind label %cleanup47.loopexit.split-lp, !dbg !2600

bb167:                                            ; preds = %cleanup52, %bb2.i.i.i4.i.i304, %cleanup47.loopexit, %cleanup47.loopexit.split-lp, %bb189, %bb2.i.i.i4.i.i610, %cleanup118, %cleanup.i593, %bb2.i.i.i4.i.i594, %cleanup.body.i336, %bb20.i351, %bb2.i.i.i4.i448.i, %"_ZN4core3ptr42drop_in_place$LT$alloc..string..String$GT$17h68737dc0311e371bE.exit474"
  %.pn146 = phi { ptr, i32 } [ %.pn142.pn.pn, %"_ZN4core3ptr42drop_in_place$LT$alloc..string..String$GT$17h68737dc0311e371bE.exit474" ], [ %.pn683, %bb189 ], [ %eh.lpad-body453.i, %cleanup.body.i336 ], [ %.pn507.i, %bb20.i351 ], [ %.pn507.i, %bb2.i.i.i4.i448.i ], [ %lpad.phi, %bb2.i.i.i4.i.i594 ], [ %lpad.phi, %cleanup.i593 ], [ %451, %cleanup118 ], [ %451, %bb2.i.i.i4.i.i610 ], [ %lpad.loopexit776, %cleanup47.loopexit ], [ %lpad.loopexit.split-lp777, %cleanup47.loopexit.split-lp ], [ %107, %bb2.i.i.i4.i.i304 ], [ %107, %cleanup52 ]
    #dbg_value(ptr poison, !1630, !DIExpression(), !3882)
    #dbg_value(ptr poison, !1155, !DIExpression(), !3884)
    #dbg_value(ptr poison, !1165, !DIExpression(), !3886)
    #dbg_value(ptr poison, !1175, !DIExpression(), !3888)
    #dbg_value(ptr poison, !1185, !DIExpression(), !3890)
    #dbg_value(i64 1, !1201, !DIExpression(DW_OP_LLVM_fragment, 0, 64), !3890)
    #dbg_value(i64 1, !1201, !DIExpression(DW_OP_LLVM_fragment, 64, 64), !3890)
    #dbg_value(i64 1, !1207, !DIExpression(DW_OP_LLVM_fragment, 0, 64), !3892)
    #dbg_value(i64 1, !1207, !DIExpression(DW_OP_LLVM_fragment, 64, 64), !3892)
    #dbg_value(ptr poison, !1231, !DIExpression(), !3892)
  %84 = icmp eq i64 %target_arch.sroa.0.0, 0, !dbg !3894
  br i1 %84, label %bb168, label %bb2.i.i.i4.i.i290, !dbg !3894

bb2.i.i.i4.i.i290:                                ; preds = %bb167
  %85 = icmp ne ptr %target_arch.sroa.6.0, null
  call void @llvm.assume(i1 %85)
    #dbg_value(ptr %target_arch.sroa.6.0, !1202, !DIExpression(), !3895)
    #dbg_value(i64 1, !1204, !DIExpression(DW_OP_LLVM_fragment, 0, 64), !3895)
    #dbg_value(i64 %target_arch.sroa.0.0, !1204, !DIExpression(DW_OP_LLVM_fragment, 64, 64), !3895)
    #dbg_value(i64 1, !1240, !DIExpression(DW_OP_LLVM_fragment, 0, 64), !3896)
    #dbg_value(i64 %target_arch.sroa.0.0, !1240, !DIExpression(DW_OP_LLVM_fragment, 64, 64), !3896)
    #dbg_value(ptr poison, !1248, !DIExpression(), !3896)
    #dbg_value(ptr %target_arch.sroa.6.0, !1249, !DIExpression(), !3896)
    #dbg_value(ptr %target_arch.sroa.6.0, !1252, !DIExpression(), !3898)
    #dbg_value(i64 1, !1258, !DIExpression(DW_OP_LLVM_fragment, 0, 64), !3898)
    #dbg_value(i64 %target_arch.sroa.0.0, !1258, !DIExpression(DW_OP_LLVM_fragment, 64, 64), !3898)
; call __rustc::__rust_dealloc
  call void @_RNvCsj3IbkTTFM3W_7___rustc14___rust_dealloc(ptr noundef nonnull %target_arch.sroa.6.0, i64 noundef %target_arch.sroa.0.0, i64 noundef range(i64 1, -9223372036854775807) 1) #24, !dbg !3900
  br label %bb168, !dbg !3901

cleanup47.loopexit:                               ; preds = %bb138.12, %bb138.11, %bb138.10, %bb138.9, %bb138.8, %bb138.7, %bb138.6, %bb138.5, %bb138.4, %bb138.3, %bb138.2, %bb138.1, %bb138, %bb134.preheader
  %lpad.loopexit776 = landingpad { ptr, i32 }
          cleanup
  br label %bb167

cleanup47.loopexit.split-lp:                      ; preds = %bb3.i.i469.invoke, %bb30.invoke, %bb14, %bb41, %bb53, %bb55, %bb56, %bb57, %bb131, %bb31, %bb15, %bb33, %bb67.i, %bb39, %bb36, %bb49, %bb51, %bb129, %bb65.i
  %lpad.loopexit.split-lp777 = landingpad { ptr, i32 }
          cleanup
  br label %bb167

bb15:                                             ; preds = %bb14
  call void @llvm.lifetime.end.p0(i64 48, ptr nonnull %_21), !dbg !2600
  call void @llvm.lifetime.start.p0(i64 32, ptr nonnull %_23), !dbg !3902
    #dbg_value(ptr @alloc_aaa658f8720b91022cfd120b3be84301, !3571, !DIExpression(DW_OP_LLVM_fragment, 0, 64), !3903)
    #dbg_value(i64 34, !3571, !DIExpression(DW_OP_LLVM_fragment, 64, 64), !3903)
; invoke std::env::_var
  invoke void @_ZN3std3env4_var17h25c6d924f650e097E(ptr noalias noundef nonnull sret([32 x i8]) align 8 captures(address) dereferenceable(32) %_23, ptr noalias noundef nonnull readonly align 1 captures(address, read_provenance) @alloc_aaa658f8720b91022cfd120b3be84301, i64 noundef 34)
          to label %bb16 unwind label %cleanup47.loopexit.split-lp, !dbg !3905

bb16:                                             ; preds = %bb15
  %_24 = load i64, ptr %_23, align 8, !dbg !3902, !range !3084, !noundef !23
  %86 = trunc nuw i64 %_24 to i1, !dbg !3906
  br i1 %86, label %bb20, label %bb17, !dbg !3906

bb20:                                             ; preds = %bb16
  br i1 %libc_ci, label %bb22, label %bb3.i328, !dbg !3907

bb17:                                             ; preds = %bb16
  %87 = getelementptr inbounds nuw i8, ptr %_23, i64 8, !dbg !3908
  %version.sroa.0.0.copyload = load i64, ptr %87, align 8, !dbg !3908
    #dbg_value(i64 %version.sroa.0.0.copyload, !1704, !DIExpression(DW_OP_LLVM_fragment, 0, 64), !3909)
  %version.sroa.5.0..sroa_idx = getelementptr inbounds nuw i8, ptr %_23, i64 16, !dbg !3908
  %version.sroa.5.0.copyload = load ptr, ptr %version.sroa.5.0..sroa_idx, align 8, !dbg !3908, !nonnull !23, !noundef !23
    #dbg_value(ptr %version.sroa.5.0.copyload, !1704, !DIExpression(DW_OP_LLVM_fragment, 64, 64), !3909)
  %version.sroa.8.0..sroa_idx = getelementptr inbounds nuw i8, ptr %_23, i64 24, !dbg !3908
  %version.sroa.8.0.copyload = load i64, ptr %version.sroa.8.0..sroa_idx, align 8, !dbg !3908
    #dbg_value(i64 %version.sroa.8.0.copyload, !1704, !DIExpression(DW_OP_LLVM_fragment, 128, 64), !3909)
  call void @llvm.lifetime.start.p0(i64 4, ptr nonnull %vers), !dbg !3910
    #dbg_value(ptr %version.sroa.5.0.copyload, !2637, !DIExpression(DW_OP_LLVM_fragment, 0, 64), !3911)
    #dbg_value(ptr %version.sroa.5.0.copyload, !2631, !DIExpression(DW_OP_LLVM_fragment, 0, 64), !3912)
    #dbg_value(ptr %version.sroa.5.0.copyload, !2623, !DIExpression(DW_OP_LLVM_fragment, 0, 64), !2624)
    #dbg_value(i64 %version.sroa.8.0.copyload, !2637, !DIExpression(DW_OP_LLVM_fragment, 64, 64), !3911)
    #dbg_value(i64 %version.sroa.8.0.copyload, !2631, !DIExpression(DW_OP_LLVM_fragment, 64, 64), !3912)
    #dbg_value(i64 %version.sroa.8.0.copyload, !2623, !DIExpression(DW_OP_LLVM_fragment, 64, 64), !2624)
    #dbg_value(ptr %version.sroa.5.0.copyload, !3913, !DIExpression(DW_OP_LLVM_fragment, 0, 64), !3971)
    #dbg_value(i64 %version.sroa.8.0.copyload, !3913, !DIExpression(DW_OP_LLVM_fragment, 64, 64), !3971)
    #dbg_value(i32 10, !3918, !DIExpression(), !3971)
    #dbg_value(i8 1, !3919, !DIExpression(), !3973)
    #dbg_value(i8 1, !3974, !DIExpression(), !3979)
  switch i64 %version.sroa.8.0.copyload, label %bb9thread-pre-split.i [
    i64 0, label %bb2.i
    i64 1, label %bb7.i294
  ], !dbg !3981

bb47.loopexit122.split.loop.exit.i:               ; preds = %bb26.i
  %.mux114.le.i = select i1 %_14.i117.i, i8 1, i8 2
  br label %bb2.i, !dbg !3982

bb47.loopexit126.split.loop.exit.i:               ; preds = %bb35.i296
  %.mux.le.i = select i1 %_14.i.i, i8 1, i8 3
  br label %bb2.i, !dbg !3982

bb7.i294:                                         ; preds = %bb17
  %88 = load i8, ptr %version.sroa.5.0.copyload, align 1, !dbg !3983, !alias.scope !3984, !noundef !23
  switch i8 %88, label %bb9.i [
    i8 43, label %bb2.i
    i8 45, label %bb2.i
  ], !dbg !3983

bb9thread-pre-split.i:                            ; preds = %bb17
  %.pr.i = load i8, ptr %version.sroa.5.0.copyload, align 1, !dbg !3983, !alias.scope !3984
  br label %bb9.i, !dbg !3983

bb9.i:                                            ; preds = %bb9thread-pre-split.i, %bb7.i294
  %89 = phi i8 [ %.pr.i, %bb9thread-pre-split.i ], [ %88, %bb7.i294 ], !dbg !3983
  switch i8 %89, label %bb66.i [
    i8 43, label %bb11.i300
    i8 45, label %bb10.i
  ], !dbg !3983

bb11.i300:                                        ; preds = %bb9.i
  %rest.0.i = getelementptr inbounds nuw i8, ptr %version.sroa.5.0.copyload, i64 1, !dbg !3987
  %rest.1.i = add i64 %version.sroa.8.0.copyload, -1, !dbg !3987
    #dbg_value(i1 true, !3921, !DIExpression(DW_OP_LLVM_convert, 1, DW_ATE_unsigned, DW_OP_LLVM_convert, 8, DW_ATE_unsigned, DW_OP_stack_value), !3988)
    #dbg_value(ptr %rest.0.i, !3923, !DIExpression(DW_OP_LLVM_fragment, 0, 64), !3988)
    #dbg_value(i64 %rest.1.i, !3923, !DIExpression(DW_OP_LLVM_fragment, 64, 64), !3988)
    #dbg_value(i32 0, !3929, !DIExpression(), !3989)
    #dbg_value(i32 10, !3977, !DIExpression(), !3979)
    #dbg_value(ptr %rest.0.i, !3978, !DIExpression(DW_OP_LLVM_fragment, 0, 64), !3979)
    #dbg_value(i64 %rest.1.i, !3978, !DIExpression(DW_OP_LLVM_fragment, 64, 64), !3979)
  %90 = icmp ult i64 %version.sroa.8.0.copyload, 9, !dbg !3990
  br i1 %90, label %bb14.preheader.i, label %bb25.preheader.i, !dbg !3991

bb10.i:                                           ; preds = %bb9.i
  %91 = getelementptr inbounds nuw i8, ptr %version.sroa.5.0.copyload, i64 1, !dbg !3992
  %92 = add i64 %version.sroa.8.0.copyload, -1, !dbg !3992
    #dbg_value(i1 false, !3921, !DIExpression(DW_OP_LLVM_convert, 1, DW_ATE_unsigned, DW_OP_LLVM_convert, 8, DW_ATE_unsigned, DW_OP_stack_value), !3988)
    #dbg_value(ptr %91, !3923, !DIExpression(DW_OP_LLVM_fragment, 0, 64), !3988)
    #dbg_value(i64 %92, !3923, !DIExpression(DW_OP_LLVM_fragment, 64, 64), !3988)
    #dbg_value(i32 0, !3929, !DIExpression(), !3989)
    #dbg_value(i32 10, !3977, !DIExpression(), !3979)
    #dbg_value(ptr %91, !3978, !DIExpression(DW_OP_LLVM_fragment, 0, 64), !3979)
    #dbg_value(i64 %92, !3978, !DIExpression(DW_OP_LLVM_fragment, 64, 64), !3979)
  %93 = icmp ult i64 %version.sroa.8.0.copyload, 9, !dbg !3990
  br i1 %93, label %bb20.preheader.i, label %bb34.i295, !dbg !3991

bb20.preheader.i:                                 ; preds = %bb10.i
    #dbg_value(ptr %91, !3923, !DIExpression(DW_OP_LLVM_fragment, 0, 64), !3988)
    #dbg_value(i64 %92, !3923, !DIExpression(DW_OP_LLVM_fragment, 64, 64), !3988)
    #dbg_value(i32 0, !3929, !DIExpression(), !3989)
  %_31.not134.i = icmp eq i64 %92, 0, !dbg !3993
  br i1 %_31.not134.i, label %bb18, label %bb21.i298, !dbg !3993

bb25.i:                                           ; preds = %bb31.i, %bb25.preheader.i
  %result.sroa.0.0.i = phi i32 [ %_91.0.i, %bb31.i ], [ 0, %bb25.preheader.i ], !dbg !3988
  %digits.sroa.27.0.i = phi i64 [ %rest.126.i, %bb31.i ], [ %digits.sroa.27.0.ph.i, %bb25.preheader.i ], !dbg !3973
  %digits.sroa.0.0.i = phi ptr [ %rest.025.i, %bb31.i ], [ %digits.sroa.0.0.ph.i, %bb25.preheader.i ], !dbg !3973
    #dbg_value(ptr %digits.sroa.0.0.i, !3923, !DIExpression(DW_OP_LLVM_fragment, 0, 64), !3988)
    #dbg_value(i64 %digits.sroa.27.0.i, !3923, !DIExpression(DW_OP_LLVM_fragment, 64, 64), !3988)
    #dbg_value(i32 %result.sroa.0.0.i, !3929, !DIExpression(), !3989)
  %_44.not.i = icmp eq i64 %digits.sroa.27.0.i, 0, !dbg !3994
  br i1 %_44.not.i, label %bb18, label %bb26.i, !dbg !3994

bb34.i295:                                        ; preds = %bb10.i, %bb40.i
  %result.sroa.0.2.i = phi i32 [ %_99.0.i, %bb40.i ], [ 0, %bb10.i ], !dbg !3988
  %digits.sroa.27.2.i = phi i64 [ %rest.17.i, %bb40.i ], [ %92, %bb10.i ], !dbg !3973
  %digits.sroa.0.2.i = phi ptr [ %rest.06.i, %bb40.i ], [ %91, %bb10.i ], !dbg !3973
    #dbg_value(ptr %digits.sroa.0.2.i, !3923, !DIExpression(DW_OP_LLVM_fragment, 0, 64), !3988)
    #dbg_value(i64 %digits.sroa.27.2.i, !3923, !DIExpression(DW_OP_LLVM_fragment, 64, 64), !3988)
    #dbg_value(i32 %result.sroa.0.2.i, !3929, !DIExpression(), !3989)
  %_63.not.i = icmp eq i64 %digits.sroa.27.2.i, 0, !dbg !3995
  br i1 %_63.not.i, label %bb18, label %bb35.i296, !dbg !3995

bb35.i296:                                        ; preds = %bb34.i295
    #dbg_value(ptr %digits.sroa.0.2.i, !3958, !DIExpression(), !3996)
    #dbg_value(ptr %digits.sroa.0.2.i, !3960, !DIExpression(DW_OP_plus_uconst, 1, DW_OP_stack_value, DW_OP_LLVM_fragment, 0, 64), !3996)
    #dbg_value(i64 %digits.sroa.27.2.i, !3960, !DIExpression(DW_OP_constu, 1, DW_OP_minus, DW_OP_stack_value, DW_OP_LLVM_fragment, 64, 64), !3996)
    #dbg_value(i32 %result.sroa.0.2.i, !3997, !DIExpression(), !4011)
    #dbg_value(i32 %result.sroa.0.2.i, !4014, !DIExpression(), !4024)
    #dbg_value(i32 10, !4004, !DIExpression(), !4011)
    #dbg_value(i32 10, !4023, !DIExpression(), !4024)
  %94 = call { i32, i1 } @llvm.smul.with.overflow.i32(i32 %result.sroa.0.2.i, i32 10), !dbg !4027
  %_95.1.i = extractvalue { i32, i1 } %94, 1, !dbg !4027
    #dbg_value(i32 poison, !4008, !DIExpression(), !4028)
    #dbg_value(i1 %_95.1.i, !4010, !DIExpression(DW_OP_LLVM_convert, 1, DW_ATE_unsigned, DW_OP_LLVM_convert, 8, DW_ATE_unsigned, DW_OP_stack_value), !4028)
    #dbg_value(i1 %_95.1.i, !4029, !DIExpression(DW_OP_LLVM_convert, 1, DW_ATE_unsigned, DW_OP_LLVM_convert, 8, DW_ATE_unsigned, DW_OP_stack_value), !4032)
    #dbg_value(i32 poison, !3961, !DIExpression(DW_OP_LLVM_fragment, 0, 32), !4035)
    #dbg_value(i32 poison, !3961, !DIExpression(DW_OP_LLVM_fragment, 32, 32), !4035)
  %_72.i = load i8, ptr %digits.sroa.0.2.i, align 1, !dbg !4036, !alias.scope !3984, !noundef !23
  %_71.i = zext i8 %_72.i to i32, !dbg !4037
    #dbg_value(i32 %_71.i, !3470, !DIExpression(), !4038)
    #dbg_value(i32 10, !3479, !DIExpression(), !4038)
    #dbg_value(i32 65, !3484, !DIExpression(), !4040)
    #dbg_value(i32 48, !3484, !DIExpression(), !4042)
    #dbg_value(i32 %_71.i, !3489, !DIExpression(), !4042)
  %95 = add nsw i32 %_71.i, -48, !dbg !4044
    #dbg_value(i32 %95, !3480, !DIExpression(), !4045)
  %_14.i.i = icmp ugt i32 %95, 9, !dbg !4046
  %brmerge.i = select i1 %_14.i.i, i1 true, i1 %_95.1.i, !dbg !4047
  br i1 %brmerge.i, label %bb47.loopexit126.split.loop.exit.i, label %bb40.i, !dbg !4047

bb40.i:                                           ; preds = %bb35.i296
  %_95.0.i = extractvalue { i32, i1 } %94, 0, !dbg !4048
    #dbg_value(i32 %_95.0.i, !3961, !DIExpression(DW_OP_LLVM_fragment, 32, 32), !4035)
  %rest.17.i = add i64 %digits.sroa.27.2.i, -1, !dbg !4049
    #dbg_value(i64 %rest.17.i, !3960, !DIExpression(DW_OP_LLVM_fragment, 64, 64), !3996)
  %rest.06.i = getelementptr inbounds nuw i8, ptr %digits.sroa.0.2.i, i64 1, !dbg !4049
    #dbg_value(ptr %rest.06.i, !3960, !DIExpression(DW_OP_LLVM_fragment, 0, 64), !3996)
    #dbg_value(i32 %_95.0.i, !3929, !DIExpression(), !3989)
    #dbg_value(i32 %_95.0.i, !4050, !DIExpression(), !4057)
    #dbg_value(i32 %_95.0.i, !4060, !DIExpression(), !4064)
  %96 = call { i32, i1 } @llvm.ssub.with.overflow.i32(i32 %_95.0.i, i32 %95), !dbg !4066
  %_99.1.i = extractvalue { i32, i1 } %96, 1, !dbg !4066
    #dbg_value(i32 poison, !4054, !DIExpression(), !4067)
    #dbg_value(i1 %_99.1.i, !4056, !DIExpression(DW_OP_LLVM_convert, 1, DW_ATE_unsigned, DW_OP_LLVM_convert, 8, DW_ATE_unsigned, DW_OP_stack_value), !4067)
    #dbg_value(i1 %_99.1.i, !4029, !DIExpression(DW_OP_LLVM_convert, 1, DW_ATE_unsigned, DW_OP_LLVM_convert, 8, DW_ATE_unsigned, DW_OP_stack_value), !4068)
  %_99.0.i = extractvalue { i32, i1 } %96, 0, !dbg !4070
  br i1 %_99.1.i, label %bb2.i, label %bb34.i295, !dbg !4071

bb21.i298:                                        ; preds = %bb20.preheader.i, %bb24.i
  %digits.sroa.0.3137.i = phi ptr [ %rest.019.i, %bb24.i ], [ %91, %bb20.preheader.i ]
  %digits.sroa.27.3136.i = phi i64 [ %rest.120.i, %bb24.i ], [ %92, %bb20.preheader.i ]
  %result.sroa.0.4135.i = phi i32 [ %99, %bb24.i ], [ 0, %bb20.preheader.i ]
    #dbg_value(ptr %digits.sroa.0.3137.i, !3923, !DIExpression(DW_OP_LLVM_fragment, 0, 64), !3988)
    #dbg_value(i64 %digits.sroa.27.3136.i, !3923, !DIExpression(DW_OP_LLVM_fragment, 64, 64), !3988)
    #dbg_value(ptr %digits.sroa.0.3137.i, !3938, !DIExpression(), !4072)
    #dbg_value(ptr %digits.sroa.0.3137.i, !3940, !DIExpression(DW_OP_plus_uconst, 1, DW_OP_stack_value, DW_OP_LLVM_fragment, 0, 64), !4072)
    #dbg_value(i64 %digits.sroa.27.3136.i, !3940, !DIExpression(DW_OP_constu, 1, DW_OP_minus, DW_OP_stack_value, DW_OP_LLVM_fragment, 64, 64), !4072)
    #dbg_value(i32 %result.sroa.0.4135.i, !3929, !DIExpression(DW_OP_constu, 10, DW_OP_mul, DW_OP_stack_value), !3989)
  %_38.i299 = load i8, ptr %digits.sroa.0.3137.i, align 1, !dbg !4073, !alias.scope !3984, !noundef !23
  %_37.i = zext i8 %_38.i299 to i32, !dbg !4074
    #dbg_value(i32 %_37.i, !3470, !DIExpression(), !4075)
    #dbg_value(i32 10, !3479, !DIExpression(), !4075)
    #dbg_value(i32 65, !3484, !DIExpression(), !4077)
    #dbg_value(i32 48, !3484, !DIExpression(), !4079)
    #dbg_value(i32 %_37.i, !3489, !DIExpression(), !4079)
  %97 = add nsw i32 %_37.i, -48, !dbg !4081
    #dbg_value(i32 %97, !3480, !DIExpression(), !4082)
  %_14.i115.i = icmp ult i32 %97, 10, !dbg !4083
  br i1 %_14.i115.i, label %bb24.i, label %bb2.i, !dbg !4084

bb24.i:                                           ; preds = %bb21.i298
  %98 = mul i32 %result.sroa.0.4135.i, 10, !dbg !4085
    #dbg_value(i32 %98, !3929, !DIExpression(), !3989)
  %rest.120.i = add nsw i64 %digits.sroa.27.3136.i, -1, !dbg !4086
    #dbg_value(i64 %rest.120.i, !3940, !DIExpression(DW_OP_LLVM_fragment, 64, 64), !4072)
  %rest.019.i = getelementptr inbounds nuw i8, ptr %digits.sroa.0.3137.i, i64 1, !dbg !4086
    #dbg_value(ptr %rest.019.i, !3940, !DIExpression(DW_OP_LLVM_fragment, 0, 64), !4072)
    #dbg_value(i32 %97, !3941, !DIExpression(), !4087)
  %99 = sub i32 %98, %97, !dbg !4088
    #dbg_value(ptr %rest.019.i, !3923, !DIExpression(DW_OP_LLVM_fragment, 0, 64), !3988)
    #dbg_value(i64 %rest.120.i, !3923, !DIExpression(DW_OP_LLVM_fragment, 64, 64), !3988)
    #dbg_value(i32 %99, !3929, !DIExpression(), !3989)
  %_31.not.i = icmp eq i64 %rest.120.i, 0, !dbg !3993
  br i1 %_31.not.i, label %bb18, label %bb21.i298, !dbg !3993

bb66.i:                                           ; preds = %bb9.i
    #dbg_value(i1 true, !3921, !DIExpression(DW_OP_LLVM_convert, 1, DW_ATE_unsigned, DW_OP_LLVM_convert, 8, DW_ATE_unsigned, DW_OP_stack_value), !3988)
    #dbg_value(ptr %version.sroa.5.0.copyload, !3923, !DIExpression(DW_OP_LLVM_fragment, 0, 64), !3988)
    #dbg_value(i64 %version.sroa.8.0.copyload, !3923, !DIExpression(DW_OP_LLVM_fragment, 64, 64), !3988)
    #dbg_value(i32 0, !3929, !DIExpression(), !3989)
    #dbg_value(i32 10, !3977, !DIExpression(), !3979)
    #dbg_value(ptr %version.sroa.5.0.copyload, !3978, !DIExpression(DW_OP_LLVM_fragment, 0, 64), !3979)
    #dbg_value(i64 %version.sroa.8.0.copyload, !3978, !DIExpression(DW_OP_LLVM_fragment, 64, 64), !3979)
  %100 = icmp ult i64 %version.sroa.8.0.copyload, 8, !dbg !3990
  br i1 %100, label %bb15.preheader.i, label %bb25.preheader.i, !dbg !3991

bb25.preheader.i:                                 ; preds = %bb66.i, %bb11.i300
  %digits.sroa.27.0.ph.i = phi i64 [ %version.sroa.8.0.copyload, %bb66.i ], [ %rest.1.i, %bb11.i300 ]
  %digits.sroa.0.0.ph.i = phi ptr [ %version.sroa.5.0.copyload, %bb66.i ], [ %rest.0.i, %bb11.i300 ]
  br label %bb25.i, !dbg !3994

bb14.preheader.i:                                 ; preds = %bb11.i300
    #dbg_value(ptr %rest.0.i, !3923, !DIExpression(DW_OP_LLVM_fragment, 0, 64), !3988)
    #dbg_value(i64 %rest.1.i, !3923, !DIExpression(DW_OP_LLVM_fragment, 64, 64), !3988)
    #dbg_value(i32 0, !3929, !DIExpression(), !3989)
  %_18.not140.i = icmp eq i64 %rest.1.i, 0, !dbg !4089
  br i1 %_18.not140.i, label %bb18, label %bb15.preheader.i, !dbg !4089

bb15.preheader.i:                                 ; preds = %bb14.preheader.i, %bb66.i
  %digits.sroa.0.1.ph162.i = phi ptr [ %rest.0.i, %bb14.preheader.i ], [ %version.sroa.5.0.copyload, %bb66.i ]
  %digits.sroa.27.1.ph161.i = phi i64 [ %rest.1.i, %bb14.preheader.i ], [ %version.sroa.8.0.copyload, %bb66.i ]
  br label %bb15.i301, !dbg !4090

bb26.i:                                           ; preds = %bb25.i
    #dbg_value(ptr %digits.sroa.0.0.i, !3945, !DIExpression(), !4091)
    #dbg_value(ptr %digits.sroa.0.0.i, !3947, !DIExpression(DW_OP_plus_uconst, 1, DW_OP_stack_value, DW_OP_LLVM_fragment, 0, 64), !4091)
    #dbg_value(i64 %digits.sroa.27.0.i, !3947, !DIExpression(DW_OP_constu, 1, DW_OP_minus, DW_OP_stack_value, DW_OP_LLVM_fragment, 64, 64), !4091)
    #dbg_value(i32 %result.sroa.0.0.i, !3997, !DIExpression(), !4092)
    #dbg_value(i32 %result.sroa.0.0.i, !4014, !DIExpression(), !4094)
    #dbg_value(i32 10, !4004, !DIExpression(), !4092)
    #dbg_value(i32 10, !4023, !DIExpression(), !4094)
  %101 = call { i32, i1 } @llvm.smul.with.overflow.i32(i32 %result.sroa.0.0.i, i32 10), !dbg !4096
  %_87.1.i = extractvalue { i32, i1 } %101, 1, !dbg !4096
    #dbg_value(i32 poison, !4005, !DIExpression(), !4097)
    #dbg_value(i1 %_87.1.i, !4007, !DIExpression(DW_OP_LLVM_convert, 1, DW_ATE_unsigned, DW_OP_LLVM_convert, 8, DW_ATE_unsigned, DW_OP_stack_value), !4097)
    #dbg_value(i1 %_87.1.i, !4029, !DIExpression(DW_OP_LLVM_convert, 1, DW_ATE_unsigned, DW_OP_LLVM_convert, 8, DW_ATE_unsigned, DW_OP_stack_value), !4098)
    #dbg_value(i32 poison, !3948, !DIExpression(DW_OP_LLVM_fragment, 0, 32), !4100)
    #dbg_value(i32 poison, !3948, !DIExpression(DW_OP_LLVM_fragment, 32, 32), !4100)
  %_53.i = load i8, ptr %digits.sroa.0.0.i, align 1, !dbg !4101, !alias.scope !3984, !noundef !23
  %_52.i = zext i8 %_53.i to i32, !dbg !4102
    #dbg_value(i32 %_52.i, !3470, !DIExpression(), !4103)
    #dbg_value(i32 10, !3479, !DIExpression(), !4103)
    #dbg_value(i32 65, !3484, !DIExpression(), !4105)
    #dbg_value(i32 48, !3484, !DIExpression(), !4107)
    #dbg_value(i32 %_52.i, !3489, !DIExpression(), !4107)
  %102 = add nsw i32 %_52.i, -48, !dbg !4109
    #dbg_value(i32 %102, !3480, !DIExpression(), !4110)
  %_14.i117.i = icmp ugt i32 %102, 9, !dbg !4111
  %brmerge113.i = select i1 %_14.i117.i, i1 true, i1 %_87.1.i, !dbg !4112
  br i1 %brmerge113.i, label %bb47.loopexit122.split.loop.exit.i, label %bb31.i, !dbg !4112

bb31.i:                                           ; preds = %bb26.i
  %_87.0.i = extractvalue { i32, i1 } %101, 0, !dbg !4113
    #dbg_value(i32 %_87.0.i, !3948, !DIExpression(DW_OP_LLVM_fragment, 32, 32), !4100)
  %rest.126.i = add i64 %digits.sroa.27.0.i, -1, !dbg !4114
    #dbg_value(i64 %rest.126.i, !3947, !DIExpression(DW_OP_LLVM_fragment, 64, 64), !4091)
  %rest.025.i = getelementptr inbounds nuw i8, ptr %digits.sroa.0.0.i, i64 1, !dbg !4114
    #dbg_value(ptr %rest.025.i, !3947, !DIExpression(DW_OP_LLVM_fragment, 0, 64), !4091)
    #dbg_value(i32 %_87.0.i, !3929, !DIExpression(), !3989)
    #dbg_value(i32 %_87.0.i, !4115, !DIExpression(), !4122)
    #dbg_value(i32 %_87.0.i, !4124, !DIExpression(), !4128)
  %103 = call { i32, i1 } @llvm.sadd.with.overflow.i32(i32 %_87.0.i, i32 %102), !dbg !4130
  %_91.1.i = extractvalue { i32, i1 } %103, 1, !dbg !4130
    #dbg_value(i32 poison, !4119, !DIExpression(), !4131)
    #dbg_value(i1 %_91.1.i, !4121, !DIExpression(DW_OP_LLVM_convert, 1, DW_ATE_unsigned, DW_OP_LLVM_convert, 8, DW_ATE_unsigned, DW_OP_stack_value), !4131)
    #dbg_value(i1 %_91.1.i, !4029, !DIExpression(DW_OP_LLVM_convert, 1, DW_ATE_unsigned, DW_OP_LLVM_convert, 8, DW_ATE_unsigned, DW_OP_stack_value), !4132)
  %_91.0.i = extractvalue { i32, i1 } %103, 0, !dbg !4134
  br i1 %_91.1.i, label %bb2.i, label %bb25.i, !dbg !4135

bb15.i301:                                        ; preds = %bb19.i303, %bb15.preheader.i
  %digits.sroa.0.1143.i = phi ptr [ %rest.046.i, %bb19.i303 ], [ %digits.sroa.0.1.ph162.i, %bb15.preheader.i ]
  %digits.sroa.27.1142.i = phi i64 [ %rest.147.i, %bb19.i303 ], [ %digits.sroa.27.1.ph161.i, %bb15.preheader.i ]
  %result.sroa.0.1141.i = phi i32 [ %106, %bb19.i303 ], [ 0, %bb15.preheader.i ]
    #dbg_value(ptr %digits.sroa.0.1143.i, !3923, !DIExpression(DW_OP_LLVM_fragment, 0, 64), !3988)
    #dbg_value(i64 %digits.sroa.27.1142.i, !3923, !DIExpression(DW_OP_LLVM_fragment, 64, 64), !3988)
    #dbg_value(ptr %digits.sroa.0.1143.i, !3931, !DIExpression(), !4136)
    #dbg_value(ptr %digits.sroa.0.1143.i, !3933, !DIExpression(DW_OP_plus_uconst, 1, DW_OP_stack_value, DW_OP_LLVM_fragment, 0, 64), !4136)
    #dbg_value(i64 %digits.sroa.27.1142.i, !3933, !DIExpression(DW_OP_constu, 1, DW_OP_minus, DW_OP_stack_value, DW_OP_LLVM_fragment, 64, 64), !4136)
    #dbg_value(i32 %result.sroa.0.1141.i, !3929, !DIExpression(DW_OP_constu, 10, DW_OP_mul, DW_OP_stack_value), !3989)
  %_25.i = load i8, ptr %digits.sroa.0.1143.i, align 1, !dbg !4137, !alias.scope !3984, !noundef !23
  %_24.i302 = zext i8 %_25.i to i32, !dbg !4138
    #dbg_value(i32 %_24.i302, !3470, !DIExpression(), !4139)
    #dbg_value(i32 10, !3479, !DIExpression(), !4139)
    #dbg_value(i32 65, !3484, !DIExpression(), !4141)
    #dbg_value(i32 48, !3484, !DIExpression(), !4143)
    #dbg_value(i32 %_24.i302, !3489, !DIExpression(), !4143)
  %104 = add nsw i32 %_24.i302, -48, !dbg !4145
    #dbg_value(i32 %104, !3480, !DIExpression(), !4146)
  %_14.i119.i = icmp ult i32 %104, 10, !dbg !4147
  br i1 %_14.i119.i, label %bb19.i303, label %bb2.i, !dbg !4090

bb19.i303:                                        ; preds = %bb15.i301
  %105 = mul i32 %result.sroa.0.1141.i, 10, !dbg !4148
    #dbg_value(i32 %105, !3929, !DIExpression(), !3989)
  %rest.147.i = add nsw i64 %digits.sroa.27.1142.i, -1, !dbg !4149
    #dbg_value(i64 %rest.147.i, !3933, !DIExpression(DW_OP_LLVM_fragment, 64, 64), !4136)
  %rest.046.i = getelementptr inbounds nuw i8, ptr %digits.sroa.0.1143.i, i64 1, !dbg !4149
    #dbg_value(ptr %rest.046.i, !3933, !DIExpression(DW_OP_LLVM_fragment, 0, 64), !4136)
    #dbg_value(i32 %104, !3934, !DIExpression(), !4150)
  %106 = add i32 %104, %105, !dbg !4151
    #dbg_value(ptr %rest.046.i, !3923, !DIExpression(DW_OP_LLVM_fragment, 0, 64), !3988)
    #dbg_value(i64 %rest.147.i, !3923, !DIExpression(DW_OP_LLVM_fragment, 64, 64), !3988)
    #dbg_value(i32 %106, !3929, !DIExpression(), !3989)
  %_18.not.i = icmp eq i64 %rest.147.i, 0, !dbg !4089
  br i1 %_18.not.i, label %bb18, label %bb15.i301, !dbg !4089

cleanup52:                                        ; preds = %bb2.i, %bb18
  %107 = landingpad { ptr, i32 }
          cleanup
    #dbg_value(ptr poison, !1630, !DIExpression(), !4152)
    #dbg_value(ptr poison, !1155, !DIExpression(), !4154)
    #dbg_value(ptr poison, !1165, !DIExpression(), !4156)
    #dbg_value(ptr poison, !1175, !DIExpression(), !4158)
    #dbg_value(ptr poison, !1185, !DIExpression(), !4160)
    #dbg_value(i64 1, !1201, !DIExpression(DW_OP_LLVM_fragment, 0, 64), !4160)
    #dbg_value(i64 1, !1201, !DIExpression(DW_OP_LLVM_fragment, 64, 64), !4160)
    #dbg_value(i64 1, !1207, !DIExpression(DW_OP_LLVM_fragment, 0, 64), !4162)
    #dbg_value(i64 1, !1207, !DIExpression(DW_OP_LLVM_fragment, 64, 64), !4162)
    #dbg_value(ptr poison, !1231, !DIExpression(), !4162)
  %108 = icmp eq i64 %version.sroa.0.0.copyload, 0, !dbg !4164
  br i1 %108, label %bb167, label %bb2.i.i.i4.i.i304, !dbg !4164

bb2.i.i.i4.i.i304:                                ; preds = %cleanup52
    #dbg_value(ptr %version.sroa.5.0.copyload, !1202, !DIExpression(), !4165)
    #dbg_value(i64 1, !1204, !DIExpression(DW_OP_LLVM_fragment, 0, 64), !4165)
    #dbg_value(i64 %version.sroa.0.0.copyload, !1204, !DIExpression(DW_OP_LLVM_fragment, 64, 64), !4165)
    #dbg_value(i64 1, !1240, !DIExpression(DW_OP_LLVM_fragment, 0, 64), !4166)
    #dbg_value(i64 %version.sroa.0.0.copyload, !1240, !DIExpression(DW_OP_LLVM_fragment, 64, 64), !4166)
    #dbg_value(ptr poison, !1248, !DIExpression(), !4166)
    #dbg_value(ptr %version.sroa.5.0.copyload, !1249, !DIExpression(), !4166)
    #dbg_value(ptr %version.sroa.5.0.copyload, !1252, !DIExpression(), !4168)
    #dbg_value(i64 1, !1258, !DIExpression(DW_OP_LLVM_fragment, 0, 64), !4168)
    #dbg_value(i64 %version.sroa.0.0.copyload, !1258, !DIExpression(DW_OP_LLVM_fragment, 64, 64), !4168)
; call __rustc::__rust_dealloc
  call void @_RNvCsj3IbkTTFM3W_7___rustc14___rust_dealloc(ptr noundef nonnull %version.sroa.5.0.copyload, i64 noundef %version.sroa.0.0.copyload, i64 noundef range(i64 1, -9223372036854775807) 1) #24, !dbg !4170
  br label %bb167, !dbg !4171

bb2.i:                                            ; preds = %bb40.i, %bb21.i298, %bb31.i, %bb15.i301, %bb17, %bb7.i294, %bb7.i294, %bb47.loopexit122.split.loop.exit.i, %bb47.loopexit126.split.loop.exit.i
  %_0.sroa.12.0.insert.insert.i.ph = phi i8 [ %.mux.le.i, %bb47.loopexit126.split.loop.exit.i ], [ %.mux114.le.i, %bb47.loopexit122.split.loop.exit.i ], [ 1, %bb7.i294 ], [ 1, %bb7.i294 ], [ 0, %bb17 ], [ 1, %bb15.i301 ], [ 2, %bb31.i ], [ 1, %bb21.i298 ], [ 3, %bb40.i ]
    #dbg_value(!DIArgList(i64 poison, i64 poison), !4172, !DIExpression(DW_OP_LLVM_arg, 0, DW_OP_LLVM_arg, 1, DW_OP_or, DW_OP_constu, 8, DW_OP_shr, DW_OP_LLVM_convert, 64, DW_ATE_unsigned, DW_OP_LLVM_convert, 8, DW_ATE_unsigned, DW_OP_stack_value, DW_OP_LLVM_fragment, 8, 8), !4182)
    #dbg_value(!DIArgList(i64 poison, i64 poison), !4172, !DIExpression(DW_OP_LLVM_arg, 0, DW_OP_LLVM_arg, 1, DW_OP_or, DW_OP_constu, 16, DW_OP_shr, DW_OP_LLVM_convert, 64, DW_ATE_unsigned, DW_OP_LLVM_convert, 16, DW_ATE_unsigned, DW_OP_stack_value, DW_OP_LLVM_fragment, 16, 16), !4182)
    #dbg_value(!DIArgList(i64 poison, i64 poison), !4172, !DIExpression(DW_OP_LLVM_arg, 0, DW_OP_LLVM_arg, 1, DW_OP_or, DW_OP_constu, 32, DW_OP_shr, DW_OP_LLVM_convert, 64, DW_ATE_unsigned, DW_OP_LLVM_convert, 32, DW_ATE_unsigned, DW_OP_stack_value, DW_OP_LLVM_fragment, 32, 32), !4182)
    #dbg_declare(ptr %e.i, !4180, !DIExpression(), !4184)
    #dbg_value(!DIArgList(i64 poison, i64 poison), !4172, !DIExpression(DW_OP_LLVM_arg, 0, DW_OP_LLVM_arg, 1, DW_OP_or, DW_OP_LLVM_convert, 64, DW_ATE_unsigned, DW_OP_LLVM_convert, 8, DW_ATE_unsigned, DW_OP_stack_value, DW_OP_LLVM_fragment, 0, 8), !4182)
    #dbg_value(i64 poison, !4172, !DIExpression(DW_OP_LLVM_convert, 64, DW_ATE_unsigned, DW_OP_LLVM_convert, 8, DW_ATE_unsigned, DW_OP_stack_value, DW_OP_LLVM_fragment, 8, 8), !4182)
    #dbg_value(i8 %_0.sroa.12.0.insert.insert.i.ph, !4172, !DIExpression(DW_OP_LLVM_fragment, 8, 8), !4182)
  call void @llvm.lifetime.start.p0(i64 1, ptr nonnull %e.i), !dbg !4185
  store i8 %_0.sroa.12.0.insert.insert.i.ph, ptr %e.i, align 1, !dbg !4185
; invoke core::result::unwrap_failed
  invoke void @_ZN4core6result13unwrap_failed17h5d9b16b0b732a2acE(ptr noalias noundef nonnull readonly align 1 captures(address, read_provenance) @alloc_00ae4b301f7fab8ac9617c03fcbd7274, i64 noundef 43, ptr noundef nonnull align 1 %e.i, ptr noalias noundef readonly align 8 captures(address, read_provenance) dereferenceable(32) @vtable.3, ptr noalias noundef readonly align 8 captures(address, read_provenance) dereferenceable(24) @alloc_fe220fddf802791bb38c187922a73152) #23
          to label %.noexc unwind label %cleanup52, !dbg !4186

.noexc:                                           ; preds = %bb2.i
  unreachable

bb18:                                             ; preds = %bb34.i295, %bb24.i, %bb25.i, %bb19.i303, %bb14.preheader.i, %bb20.preheader.i
  %result.sroa.0.3.i = phi i32 [ 0, %bb14.preheader.i ], [ 0, %bb20.preheader.i ], [ %106, %bb19.i303 ], [ %result.sroa.0.0.i, %bb25.i ], [ %99, %bb24.i ], [ %result.sroa.0.2.i, %bb34.i295 ], !dbg !4187
    #dbg_value(i32 %result.sroa.0.3.i, !3929, !DIExpression(), !3989)
    #dbg_value(!DIArgList(i64 poison, i64 poison), !4172, !DIExpression(DW_OP_LLVM_arg, 0, DW_OP_LLVM_arg, 1, DW_OP_or, DW_OP_constu, 8, DW_OP_shr, DW_OP_LLVM_convert, 64, DW_ATE_unsigned, DW_OP_LLVM_convert, 8, DW_ATE_unsigned, DW_OP_stack_value, DW_OP_LLVM_fragment, 8, 8), !4182)
    #dbg_value(!DIArgList(i64 poison, i64 poison), !4172, !DIExpression(DW_OP_LLVM_arg, 0, DW_OP_LLVM_arg, 1, DW_OP_or, DW_OP_constu, 16, DW_OP_shr, DW_OP_LLVM_convert, 64, DW_ATE_unsigned, DW_OP_LLVM_convert, 16, DW_ATE_unsigned, DW_OP_stack_value, DW_OP_LLVM_fragment, 16, 16), !4182)
    #dbg_value(!DIArgList(i64 poison, i64 poison), !4172, !DIExpression(DW_OP_LLVM_arg, 0, DW_OP_LLVM_arg, 1, DW_OP_or, DW_OP_constu, 32, DW_OP_shr, DW_OP_LLVM_convert, 64, DW_ATE_unsigned, DW_OP_LLVM_convert, 32, DW_ATE_unsigned, DW_OP_stack_value, DW_OP_LLVM_fragment, 32, 32), !4182)
    #dbg_declare(ptr %e.i, !4180, !DIExpression(), !4184)
    #dbg_value(!DIArgList(i64 poison, i64 poison), !4172, !DIExpression(DW_OP_LLVM_arg, 0, DW_OP_LLVM_arg, 1, DW_OP_or, DW_OP_LLVM_convert, 64, DW_ATE_unsigned, DW_OP_LLVM_convert, 8, DW_ATE_unsigned, DW_OP_stack_value, DW_OP_LLVM_fragment, 0, 8), !4182)
    #dbg_value(i32 %result.sroa.0.3.i, !4172, !DIExpression(DW_OP_LLVM_convert, 32, DW_ATE_unsigned, DW_OP_LLVM_convert, 64, DW_ATE_unsigned, DW_OP_LLVM_convert, 64, DW_ATE_unsigned, DW_OP_LLVM_convert, 32, DW_ATE_unsigned, DW_OP_stack_value, DW_OP_LLVM_fragment, 32, 32), !4182)
    #dbg_value(i32 %result.sroa.0.3.i, !4172, !DIExpression(DW_OP_LLVM_fragment, 32, 32), !4182)
  store i32 %result.sroa.0.3.i, ptr %vers, align 4, !dbg !4188
  call void @llvm.lifetime.start.p0(i64 48, ptr nonnull %_31), !dbg !4189
  call void @llvm.lifetime.start.p0(i64 16, ptr nonnull %args), !dbg !4189
  store ptr %vers, ptr %args, align 8, !dbg !4189
  %_33.sroa.4.0..sroa_idx = getelementptr inbounds nuw i8, ptr %args, i64 8, !dbg !4189
  store ptr @"_ZN4core3fmt3num3imp52_$LT$impl$u20$core..fmt..Display$u20$for$u20$i32$GT$3fmt17ha5bd85893b48e317E", ptr %_33.sroa.4.0..sroa_idx, align 8, !dbg !4189
    #dbg_value(ptr %args, !2648, !DIExpression(), !2649)
  store ptr @alloc_c4bae09779ac9aed94716fcb76996c27, ptr %_31, align 8, !dbg !4190
  %109 = getelementptr inbounds nuw i8, ptr %_31, i64 8, !dbg !4190
  store i64 2, ptr %109, align 8, !dbg !4190
  %110 = getelementptr inbounds nuw i8, ptr %_31, i64 32, !dbg !4190
  store ptr null, ptr %110, align 8, !dbg !4190
  %111 = getelementptr inbounds nuw i8, ptr %_31, i64 16, !dbg !4190
  store ptr %args, ptr %111, align 8, !dbg !4190
  %112 = getelementptr inbounds nuw i8, ptr %_31, i64 24, !dbg !4190
  store i64 1, ptr %112, align 8, !dbg !4190
; invoke std::io::stdio::_print
  invoke void @_ZN3std2io5stdio6_print17h02b5be036b2109f4E(ptr noalias noundef nonnull align 8 captures(address) dereferenceable(48) %_31)
          to label %bb19 unwind label %cleanup52, !dbg !4189

bb19:                                             ; preds = %bb18
  call void @llvm.lifetime.end.p0(i64 48, ptr nonnull %_31), !dbg !4189
  call void @llvm.lifetime.end.p0(i64 16, ptr nonnull %args), !dbg !4189
  %113 = load i32, ptr %vers, align 4, !dbg !4191, !noundef !23
    #dbg_value(i32 %113, !1702, !DIExpression(), !4192)
  call void @llvm.lifetime.end.p0(i64 4, ptr nonnull %vers), !dbg !4193
    #dbg_value(ptr poison, !1630, !DIExpression(), !4194)
    #dbg_value(ptr poison, !1155, !DIExpression(), !4196)
    #dbg_value(ptr poison, !1165, !DIExpression(), !4198)
    #dbg_value(ptr poison, !1175, !DIExpression(), !4200)
    #dbg_value(ptr poison, !1185, !DIExpression(), !4202)
    #dbg_value(i64 1, !1201, !DIExpression(DW_OP_LLVM_fragment, 0, 64), !4202)
    #dbg_value(i64 1, !1201, !DIExpression(DW_OP_LLVM_fragment, 64, 64), !4202)
    #dbg_value(i64 1, !1207, !DIExpression(DW_OP_LLVM_fragment, 0, 64), !4204)
    #dbg_value(i64 1, !1207, !DIExpression(DW_OP_LLVM_fragment, 64, 64), !4204)
    #dbg_value(ptr poison, !1231, !DIExpression(), !4204)
  %114 = icmp eq i64 %version.sroa.0.0.copyload, 0, !dbg !4206
  br i1 %114, label %bb172, label %bb2.i.i.i4.i.i306, !dbg !4206

bb2.i.i.i4.i.i306:                                ; preds = %bb19
    #dbg_value(ptr %version.sroa.5.0.copyload, !1202, !DIExpression(), !4207)
    #dbg_value(i64 1, !1204, !DIExpression(DW_OP_LLVM_fragment, 0, 64), !4207)
    #dbg_value(i64 %version.sroa.0.0.copyload, !1204, !DIExpression(DW_OP_LLVM_fragment, 64, 64), !4207)
    #dbg_value(i64 1, !1240, !DIExpression(DW_OP_LLVM_fragment, 0, 64), !4208)
    #dbg_value(i64 %version.sroa.0.0.copyload, !1240, !DIExpression(DW_OP_LLVM_fragment, 64, 64), !4208)
    #dbg_value(ptr poison, !1248, !DIExpression(), !4208)
    #dbg_value(ptr %version.sroa.5.0.copyload, !1249, !DIExpression(), !4208)
    #dbg_value(ptr %version.sroa.5.0.copyload, !1252, !DIExpression(), !4210)
    #dbg_value(i64 1, !1258, !DIExpression(DW_OP_LLVM_fragment, 0, 64), !4210)
    #dbg_value(i64 %version.sroa.0.0.copyload, !1258, !DIExpression(DW_OP_LLVM_fragment, 64, 64), !4210)
; call __rustc::__rust_dealloc
  call void @_RNvCsj3IbkTTFM3W_7___rustc14___rust_dealloc(ptr noundef nonnull %version.sroa.5.0.copyload, i64 noundef %version.sroa.0.0.copyload, i64 noundef range(i64 1, -9223372036854775807) 1) #24, !dbg !4212
  br label %bb172, !dbg !4213

cleanup53:                                        ; preds = %bb56.i, %bb22
  %115 = landingpad { ptr, i32 }
          cleanup
  br label %bb189

bb22:                                             ; preds = %bb20
    #dbg_declare(ptr %self1.i308, !4214, !DIExpression(), !4233)
    #dbg_declare(ptr poison, !4235, !DIExpression(), !4241)
    #dbg_value(ptr @alloc_e9aa3e56236bea0534a07b33b08bbbe6, !4257, !DIExpression(DW_OP_LLVM_fragment, 0, 64), !4261)
    #dbg_value(i64 2, !4257, !DIExpression(DW_OP_LLVM_fragment, 64, 64), !4261)
    #dbg_value(ptr @alloc_e9aa3e56236bea0534a07b33b08bbbe6, !4263, !DIExpression(DW_OP_LLVM_fragment, 0, 64), !4267)
    #dbg_value(i64 2, !4263, !DIExpression(DW_OP_LLVM_fragment, 64, 64), !4267)
    #dbg_value(ptr @alloc_ae52c2733f312a4a903aef7e6436cb13, !4257, !DIExpression(DW_OP_LLVM_fragment, 0, 64), !4269)
    #dbg_value(i64 2, !4257, !DIExpression(DW_OP_LLVM_fragment, 64, 64), !4269)
    #dbg_value(ptr @alloc_ae52c2733f312a4a903aef7e6436cb13, !4263, !DIExpression(DW_OP_LLVM_fragment, 0, 64), !4271)
    #dbg_value(i64 2, !4263, !DIExpression(DW_OP_LLVM_fragment, 64, 64), !4271)
    #dbg_value(ptr @alloc_3b059e5eb8e06e7498f909e7a08cef57, !4257, !DIExpression(DW_OP_LLVM_fragment, 0, 64), !4274)
    #dbg_value(i64 2, !4257, !DIExpression(DW_OP_LLVM_fragment, 64, 64), !4274)
    #dbg_value(ptr @alloc_3b059e5eb8e06e7498f909e7a08cef57, !4263, !DIExpression(DW_OP_LLVM_fragment, 0, 64), !4276)
    #dbg_value(i64 2, !4263, !DIExpression(DW_OP_LLVM_fragment, 64, 64), !4276)
    #dbg_value(ptr @alloc_d57d03743ee0b3cf85ca6cc66dce7f4d, !4257, !DIExpression(DW_OP_LLVM_fragment, 0, 64), !4279)
    #dbg_value(i64 2, !4257, !DIExpression(DW_OP_LLVM_fragment, 64, 64), !4279)
    #dbg_value(ptr @alloc_d57d03743ee0b3cf85ca6cc66dce7f4d, !4263, !DIExpression(DW_OP_LLVM_fragment, 0, 64), !4281)
    #dbg_value(i64 2, !4263, !DIExpression(DW_OP_LLVM_fragment, 64, 64), !4281)
    #dbg_value(ptr @alloc_e33ac00bdbd8c0cbb04273e924bd654c, !4257, !DIExpression(DW_OP_LLVM_fragment, 0, 64), !4284)
    #dbg_value(i64 2, !4257, !DIExpression(DW_OP_LLVM_fragment, 64, 64), !4284)
    #dbg_value(ptr @alloc_e33ac00bdbd8c0cbb04273e924bd654c, !4263, !DIExpression(DW_OP_LLVM_fragment, 0, 64), !4286)
    #dbg_value(i64 2, !4263, !DIExpression(DW_OP_LLVM_fragment, 64, 64), !4286)
    #dbg_value(ptr @alloc_27f411dcc9955beae922af37f2bb21f7, !4257, !DIExpression(DW_OP_LLVM_fragment, 0, 64), !4289)
    #dbg_value(i64 2, !4257, !DIExpression(DW_OP_LLVM_fragment, 64, 64), !4289)
    #dbg_value(ptr @alloc_27f411dcc9955beae922af37f2bb21f7, !4263, !DIExpression(DW_OP_LLVM_fragment, 0, 64), !4291)
    #dbg_value(i64 2, !4263, !DIExpression(DW_OP_LLVM_fragment, 64, 64), !4291)
  call void @llvm.lifetime.start.p0(i64 56, ptr nonnull %self1.i308), !dbg !4294
  call void @llvm.lifetime.start.p0(i64 200, ptr nonnull %_6.i), !dbg !4294
    #dbg_value(ptr @alloc_71264e62a593ae064235a5eb90a16b4a, !4295, !DIExpression(DW_OP_LLVM_fragment, 0, 64), !4301)
    #dbg_value(i64 15, !4295, !DIExpression(DW_OP_LLVM_fragment, 64, 64), !4301)
; invoke std::sys::process::unix::common::Command::new
  invoke void @_ZN3std3sys7process4unix6common7Command3new17hd085411f617aeca8E(ptr noalias noundef nonnull sret([200 x i8]) align 8 captures(address) dereferenceable(200) %_6.i, ptr noalias noundef nonnull readonly align 1 captures(address, read_provenance) @alloc_71264e62a593ae064235a5eb90a16b4a, i64 noundef 15)
          to label %.noexc324 unwind label %cleanup53, !dbg !4303

.noexc324:                                        ; preds = %bb22
; invoke std::process::Command::output
  invoke void @_ZN3std7process7Command6output17h4e455d5ef58ae04bE(ptr noalias noundef nonnull sret([56 x i8]) align 8 captures(address) dereferenceable(56) %self1.i308, ptr noalias noundef nonnull align 8 dereferenceable(200) %_6.i)
          to label %bb2.i310 unwind label %cleanup.i309, !dbg !4304

cleanup.i309:                                     ; preds = %.noexc324
  %116 = landingpad { ptr, i32 }
          cleanup
  br label %cleanup.body.i, !dbg !4305

cleanup.body.i:                                   ; preds = %bb1.i.i.i.i.i182.i, %cleanup.i309
  %eh.lpad-body171.i = phi { ptr, i32 } [ %116, %cleanup.i309 ], [ %134, %bb1.i.i.i.i.i182.i ]
; invoke core::ptr::drop_in_place<std::process::Command>
  invoke fastcc void @"_ZN4core3ptr42drop_in_place$LT$std..process..Command$GT$17h2ff4b7b8da9a6af1E"(ptr noalias noundef align 8 dereferenceable(200) %_6.i) #25
          to label %bb189 unwind label %terminate.i, !dbg !4305

bb2.i310:                                         ; preds = %.noexc324
  %117 = load i64, ptr %self1.i308, align 8, !dbg !4306, !range !1067, !noundef !23
  %118 = icmp eq i64 %117, -9223372036854775808, !dbg !4306
  %119 = getelementptr inbounds nuw i8, ptr %self1.i308, i64 8, !dbg !4307
  br i1 %118, label %bb3.i106.i, label %bb40.i311, !dbg !4308

bb40.i311:                                        ; preds = %bb2.i310
  %x.sroa.6.sroa.0.0.copyload.i = load ptr, ptr %119, align 8, !dbg !4309
  %x.sroa.6.sroa.6.0.x.sroa.6.0.self1.sroa_idx.sroa_idx.i = getelementptr inbounds nuw i8, ptr %self1.i308, i64 16, !dbg !4309
  %x.sroa.6.sroa.6.0.copyload.i = load i64, ptr %x.sroa.6.sroa.6.0.x.sroa.6.0.self1.sroa_idx.sroa_idx.i, align 8, !dbg !4309
  %x.sroa.6.sroa.7.0.x.sroa.6.0.self1.sroa_idx.sroa_idx.i = getelementptr inbounds nuw i8, ptr %self1.i308, i64 24, !dbg !4309
  %x.sroa.6.sroa.7.0.copyload.i = load i64, ptr %x.sroa.6.sroa.7.0.x.sroa.6.0.self1.sroa_idx.sroa_idx.i, align 8, !dbg !4309
  %x.sroa.6.sroa.8.0.x.sroa.6.0.self1.sroa_idx.sroa_idx.i = getelementptr inbounds nuw i8, ptr %self1.i308, i64 32, !dbg !4309
  %x.sroa.6.sroa.8.0.copyload.i = load ptr, ptr %x.sroa.6.sroa.8.0.x.sroa.6.0.self1.sroa_idx.sroa_idx.i, align 8, !dbg !4309
  %x.sroa.6.sroa.10.0.x.sroa.6.0.self1.sroa_idx.sroa_idx.i = getelementptr inbounds nuw i8, ptr %self1.i308, i64 48, !dbg !4309
  %x.sroa.6.sroa.10.0.copyload.i = load i32, ptr %x.sroa.6.sroa.10.0.x.sroa.6.0.self1.sroa_idx.sroa_idx.i, align 8, !dbg !4309
  call void @llvm.lifetime.end.p0(i64 56, ptr nonnull %self1.i308), !dbg !4310
    #dbg_value(i64 %117, !2447, !DIExpression(DW_OP_LLVM_fragment, 0, 64), !4311)
    #dbg_value(ptr %x.sroa.6.sroa.0.0.copyload.i, !2447, !DIExpression(DW_OP_LLVM_fragment, 64, 64), !4311)
    #dbg_value(i64 %x.sroa.6.sroa.6.0.copyload.i, !2447, !DIExpression(DW_OP_LLVM_fragment, 128, 64), !4311)
    #dbg_value(i64 %x.sroa.6.sroa.7.0.copyload.i, !2447, !DIExpression(DW_OP_LLVM_fragment, 192, 64), !4311)
    #dbg_value(ptr %x.sroa.6.sroa.8.0.copyload.i, !2447, !DIExpression(DW_OP_LLVM_fragment, 256, 64), !4311)
    #dbg_value(i64 poison, !2447, !DIExpression(DW_OP_LLVM_fragment, 320, 64), !4311)
    #dbg_value(i32 %x.sroa.6.sroa.10.0.copyload.i, !2447, !DIExpression(DW_OP_LLVM_fragment, 384, 32), !4311)
    #dbg_value(i32 poison, !2447, !DIExpression(DW_OP_LLVM_fragment, 416, 32), !4311)
; invoke core::ptr::drop_in_place<std::process::Command>
  invoke fastcc void @"_ZN4core3ptr42drop_in_place$LT$std..process..Command$GT$17h2ff4b7b8da9a6af1E"(ptr noalias noundef align 8 dereferenceable(200) %_6.i)
          to label %bb4.i312 unwind label %bb33.i, !dbg !4305

bb3.i106.i:                                       ; preds = %bb2.i310
    #dbg_value(ptr %self1.i308, !4312, !DIExpression(), !4320)
  call void @llvm.experimental.noalias.scope.decl(metadata !4322), !dbg !4325
    #dbg_value(ptr %119, !4326, !DIExpression(), !4334)
  %_1.val.i172.i = load ptr, ptr %119, align 8, !dbg !4336, !alias.scope !4322, !nonnull !23, !noundef !23
    #dbg_value(ptr poison, !4337, !DIExpression(), !4345)
    #dbg_value(ptr poison, !4347, !DIExpression(), !4355)
    #dbg_value(ptr %_1.val.i172.i, !4357, !DIExpression(), !4378)
    #dbg_declare(ptr poison, !4364, !DIExpression(), !4380)
    #dbg_value(i64 1, !4381, !DIExpression(), !4391)
    #dbg_value(i64 1, !4393, !DIExpression(), !4399)
    #dbg_value(i64 -1, !4401, !DIExpression(), !4408)
    #dbg_value(ptr %_1.val.i172.i, !4410, !DIExpression(), !4415)
    #dbg_value(ptr %_1.val.i172.i, !4390, !DIExpression(), !4391)
  %120 = ptrtoint ptr %_1.val.i172.i to i64, !dbg !4417
    #dbg_value(i64 %120, !4365, !DIExpression(), !4418)
  %_5.i.i.i.i173.i = and i64 %120, 3, !dbg !4419
  %switch.i.i.i174.i = icmp eq i64 %_5.i.i.i.i173.i, 1, !dbg !4420
  br i1 %switch.i.i.i174.i, label %bb2.i2.i.i.i175.i, label %bb56.i, !dbg !4420, !prof !4421

bb2.i2.i.i.i175.i:                                ; preds = %bb3.i106.i
    #dbg_value(ptr %_1.val.i172.i, !4398, !DIExpression(), !4399)
    #dbg_value(ptr %_1.val.i172.i, !4407, !DIExpression(), !4408)
  %121 = getelementptr i8, ptr %_1.val.i172.i, i64 -1, !dbg !4422
    #dbg_value(ptr poison, !4423, !DIExpression(), !4429)
  %122 = icmp ne ptr %121, null
  call void @llvm.assume(i1 %122)
    #dbg_value(ptr poison, !4431, !DIExpression(), !4439)
  %_6.val.i.i.i.i.i176.i = load ptr, ptr %121, align 8, !dbg !4441, !noalias !4322
  %123 = getelementptr i8, ptr %_1.val.i172.i, i64 7, !dbg !4441
  %_6.val1.i.i.i.i.i177.i = load ptr, ptr %123, align 8, !dbg !4441, !noalias !4322, !nonnull !23, !align !4442, !noundef !23
    #dbg_value(ptr poison, !4443, !DIExpression(), !4450)
    #dbg_value(ptr poison, !4452, !DIExpression(), !4460)
  %124 = load ptr, ptr %_6.val1.i.i.i.i.i177.i, align 8, !dbg !4462, !invariant.load !23, !noalias !4322
  %.not.i.i.i.i.i.i.i178.i = icmp eq ptr %124, null, !dbg !4462
  br i1 %.not.i.i.i.i.i.i.i178.i, label %bb3.i.i.i.i.i.i.i183.i, label %is_not_null.i.i.i.i.i.i.i179.i, !dbg !4462

is_not_null.i.i.i.i.i.i.i179.i:                   ; preds = %bb2.i2.i.i.i175.i
  %125 = icmp ne ptr %_6.val.i.i.i.i.i176.i, null
  call void @llvm.assume(i1 %125)
  invoke void %124(ptr noundef nonnull %_6.val.i.i.i.i.i176.i)
          to label %bb3.i.i.i.i.i.i.i183.i unwind label %cleanup.i.i.i.i.i.i.i180.i, !dbg !4462, !noalias !4322

bb3.i.i.i.i.i.i.i183.i:                           ; preds = %is_not_null.i.i.i.i.i.i.i179.i, %bb2.i2.i.i.i175.i
  %126 = icmp ne ptr %_6.val.i.i.i.i.i176.i, null
  call void @llvm.assume(i1 %126)
    #dbg_value(ptr poison, !4463, !DIExpression(), !4491)
    #dbg_value(ptr %_6.val.i.i.i.i.i176.i, !4472, !DIExpression(DW_OP_LLVM_fragment, 0, 64), !4493)
    #dbg_value(ptr %_6.val1.i.i.i.i.i177.i, !4472, !DIExpression(DW_OP_LLVM_fragment, 64, 64), !4493)
    #dbg_value(ptr %_6.val.i.i.i.i.i176.i, !4494, !DIExpression(DW_OP_LLVM_fragment, 0, 64), !4504)
    #dbg_value(ptr %_6.val.i.i.i.i.i176.i, !4506, !DIExpression(DW_OP_LLVM_fragment, 0, 64), !4512)
    #dbg_value(ptr %_6.val.i.i.i.i.i176.i, !4514, !DIExpression(DW_OP_LLVM_fragment, 0, 64), !4517)
    #dbg_value(ptr %_6.val1.i.i.i.i.i177.i, !4494, !DIExpression(DW_OP_LLVM_fragment, 64, 64), !4504)
    #dbg_value(ptr %_6.val1.i.i.i.i.i177.i, !4506, !DIExpression(DW_OP_LLVM_fragment, 64, 64), !4512)
    #dbg_value(ptr %_6.val1.i.i.i.i.i177.i, !4514, !DIExpression(DW_OP_LLVM_fragment, 64, 64), !4517)
  %127 = getelementptr inbounds nuw i8, ptr %_6.val1.i.i.i.i.i177.i, i64 8, !dbg !4519
  %128 = load i64, ptr %127, align 8, !dbg !4519, !range !4520, !invariant.load !23, !noalias !4322
  %129 = getelementptr inbounds nuw i8, ptr %_6.val1.i.i.i.i.i177.i, i64 16, !dbg !4519
    #dbg_value(i64 %128, !4501, !DIExpression(), !4521)
    #dbg_value(i64 %128, !4522, !DIExpression(), !4529)
  %130 = load i64, ptr %129, align 8, !dbg !4531, !range !4532, !invariant.load !23, !noalias !4322
    #dbg_value(i64 %130, !4503, !DIExpression(), !4521)
    #dbg_value(i64 %130, !4528, !DIExpression(), !4529)
  %131 = add i64 %130, -1, !dbg !4533
  %132 = icmp sgt i64 %131, -1, !dbg !4533
  call void @llvm.assume(i1 %132), !dbg !4533
    #dbg_value(i64 %128, !4488, !DIExpression(DW_OP_LLVM_fragment, 64, 64), !4534)
    #dbg_value(i64 %130, !4488, !DIExpression(DW_OP_LLVM_fragment, 0, 64), !4534)
  %133 = icmp eq i64 %128, 0, !dbg !4535
  br i1 %133, label %"_ZN4core3ptr68drop_in_place$LT$alloc..boxed..Box$LT$std..io..error..Custom$GT$$GT$17h894d68b8edeedcf3E.exit.i.i.i.i185.i", label %"_ZN63_$LT$alloc..alloc..Global$u20$as$u20$core..alloc..Allocator$GT$10deallocate17h2c1b7023ba670f79E.exit.i.i.i.i.i.i.i.i184.i", !dbg !4535

"_ZN63_$LT$alloc..alloc..Global$u20$as$u20$core..alloc..Allocator$GT$10deallocate17h2c1b7023ba670f79E.exit.i.i.i.i.i.i.i.i184.i": ; preds = %bb3.i.i.i.i.i.i.i183.i
    #dbg_value(i64 %130, !1240, !DIExpression(DW_OP_LLVM_fragment, 0, 64), !4536)
    #dbg_value(i64 %128, !1240, !DIExpression(DW_OP_LLVM_fragment, 64, 64), !4536)
    #dbg_value(ptr poison, !1248, !DIExpression(), !4536)
    #dbg_value(ptr %_6.val.i.i.i.i.i176.i, !1249, !DIExpression(), !4536)
    #dbg_value(ptr %_6.val.i.i.i.i.i176.i, !1252, !DIExpression(), !4538)
    #dbg_value(i64 %130, !1258, !DIExpression(DW_OP_LLVM_fragment, 0, 64), !4538)
    #dbg_value(i64 %128, !1258, !DIExpression(DW_OP_LLVM_fragment, 64, 64), !4538)
; call __rustc::__rust_dealloc
  call void @_RNvCsj3IbkTTFM3W_7___rustc14___rust_dealloc(ptr noundef nonnull %_6.val.i.i.i.i.i176.i, i64 noundef %128, i64 noundef range(i64 1, -9223372036854775807) %130) #24, !dbg !4540, !noalias !4322
  br label %"_ZN4core3ptr68drop_in_place$LT$alloc..boxed..Box$LT$std..io..error..Custom$GT$$GT$17h894d68b8edeedcf3E.exit.i.i.i.i185.i", !dbg !4541

cleanup.i.i.i.i.i.i.i180.i:                       ; preds = %is_not_null.i.i.i.i.i.i.i179.i
  %134 = landingpad { ptr, i32 }
          cleanup
    #dbg_value(ptr poison, !4463, !DIExpression(), !4542)
    #dbg_value(ptr %_6.val.i.i.i.i.i176.i, !4472, !DIExpression(DW_OP_LLVM_fragment, 0, 64), !4544)
    #dbg_value(ptr %_6.val1.i.i.i.i.i177.i, !4472, !DIExpression(DW_OP_LLVM_fragment, 64, 64), !4544)
    #dbg_value(ptr %_6.val.i.i.i.i.i176.i, !4494, !DIExpression(DW_OP_LLVM_fragment, 0, 64), !4545)
    #dbg_value(ptr %_6.val.i.i.i.i.i176.i, !4506, !DIExpression(DW_OP_LLVM_fragment, 0, 64), !4547)
    #dbg_value(ptr %_6.val.i.i.i.i.i176.i, !4514, !DIExpression(DW_OP_LLVM_fragment, 0, 64), !4549)
    #dbg_value(ptr %_6.val1.i.i.i.i.i177.i, !4494, !DIExpression(DW_OP_LLVM_fragment, 64, 64), !4545)
    #dbg_value(ptr %_6.val1.i.i.i.i.i177.i, !4506, !DIExpression(DW_OP_LLVM_fragment, 64, 64), !4547)
    #dbg_value(ptr %_6.val1.i.i.i.i.i177.i, !4514, !DIExpression(DW_OP_LLVM_fragment, 64, 64), !4549)
  %135 = getelementptr inbounds nuw i8, ptr %_6.val1.i.i.i.i.i177.i, i64 8, !dbg !4551
  %136 = load i64, ptr %135, align 8, !dbg !4551, !range !4520, !invariant.load !23, !noalias !4322
  %137 = getelementptr inbounds nuw i8, ptr %_6.val1.i.i.i.i.i177.i, i64 16, !dbg !4551
    #dbg_value(i64 %136, !4501, !DIExpression(), !4552)
    #dbg_value(i64 %136, !4522, !DIExpression(), !4553)
  %138 = load i64, ptr %137, align 8, !dbg !4555, !range !4532, !invariant.load !23, !noalias !4322
    #dbg_value(i64 %138, !4503, !DIExpression(), !4552)
    #dbg_value(i64 %138, !4528, !DIExpression(), !4553)
  %139 = add i64 %138, -1, !dbg !4556
  %140 = icmp sgt i64 %139, -1, !dbg !4556
  call void @llvm.assume(i1 %140), !dbg !4556
    #dbg_value(i64 %136, !4488, !DIExpression(DW_OP_LLVM_fragment, 64, 64), !4557)
    #dbg_value(i64 %138, !4488, !DIExpression(DW_OP_LLVM_fragment, 0, 64), !4557)
  %141 = icmp eq i64 %136, 0, !dbg !4558
  br i1 %141, label %bb1.i.i.i.i.i182.i, label %"_ZN63_$LT$alloc..alloc..Global$u20$as$u20$core..alloc..Allocator$GT$10deallocate17h2c1b7023ba670f79E.exit.i4.i.i.i.i.i.i.i181.i", !dbg !4558

"_ZN63_$LT$alloc..alloc..Global$u20$as$u20$core..alloc..Allocator$GT$10deallocate17h2c1b7023ba670f79E.exit.i4.i.i.i.i.i.i.i181.i": ; preds = %cleanup.i.i.i.i.i.i.i180.i
    #dbg_value(i64 %138, !1240, !DIExpression(DW_OP_LLVM_fragment, 0, 64), !4559)
    #dbg_value(i64 %136, !1240, !DIExpression(DW_OP_LLVM_fragment, 64, 64), !4559)
    #dbg_value(ptr poison, !1248, !DIExpression(), !4559)
    #dbg_value(ptr %_6.val.i.i.i.i.i176.i, !1249, !DIExpression(), !4559)
    #dbg_value(ptr %_6.val.i.i.i.i.i176.i, !1252, !DIExpression(), !4561)
    #dbg_value(i64 %138, !1258, !DIExpression(DW_OP_LLVM_fragment, 0, 64), !4561)
    #dbg_value(i64 %136, !1258, !DIExpression(DW_OP_LLVM_fragment, 64, 64), !4561)
; call __rustc::__rust_dealloc
  call void @_RNvCsj3IbkTTFM3W_7___rustc14___rust_dealloc(ptr noundef nonnull %_6.val.i.i.i.i.i176.i, i64 noundef %136, i64 noundef range(i64 1, -9223372036854775807) %138) #24, !dbg !4563, !noalias !4322
  br label %bb1.i.i.i.i.i182.i, !dbg !4564

bb1.i.i.i.i.i182.i:                               ; preds = %"_ZN63_$LT$alloc..alloc..Global$u20$as$u20$core..alloc..Allocator$GT$10deallocate17h2c1b7023ba670f79E.exit.i4.i.i.i.i.i.i.i181.i", %cleanup.i.i.i.i.i.i.i180.i
    #dbg_value(ptr poison, !4565, !DIExpression(), !4585)
    #dbg_value(i64 24, !4582, !DIExpression(DW_OP_LLVM_fragment, 64, 64), !4587)
    #dbg_value(i64 8, !4582, !DIExpression(DW_OP_LLVM_fragment, 0, 64), !4587)
    #dbg_value(ptr %121, !4571, !DIExpression(), !4588)
    #dbg_value(i64 8, !1240, !DIExpression(DW_OP_LLVM_fragment, 0, 64), !4589)
    #dbg_value(i64 24, !1240, !DIExpression(DW_OP_LLVM_fragment, 64, 64), !4589)
    #dbg_value(ptr poison, !1248, !DIExpression(), !4589)
    #dbg_value(ptr %121, !1249, !DIExpression(), !4589)
    #dbg_value(ptr %121, !1252, !DIExpression(), !4591)
    #dbg_value(i64 8, !1258, !DIExpression(DW_OP_LLVM_fragment, 0, 64), !4591)
    #dbg_value(i64 24, !1258, !DIExpression(DW_OP_LLVM_fragment, 64, 64), !4591)
; call __rustc::__rust_dealloc
  call void @_RNvCsj3IbkTTFM3W_7___rustc14___rust_dealloc(ptr noundef nonnull %121, i64 noundef 24, i64 noundef 8) #24, !dbg !4593, !noalias !4322
  br label %cleanup.body.i, !dbg !4441

"_ZN4core3ptr68drop_in_place$LT$alloc..boxed..Box$LT$std..io..error..Custom$GT$$GT$17h894d68b8edeedcf3E.exit.i.i.i.i185.i": ; preds = %"_ZN63_$LT$alloc..alloc..Global$u20$as$u20$core..alloc..Allocator$GT$10deallocate17h2c1b7023ba670f79E.exit.i.i.i.i.i.i.i.i184.i", %bb3.i.i.i.i.i.i.i183.i
    #dbg_value(ptr poison, !4565, !DIExpression(), !4594)
    #dbg_value(i64 24, !4582, !DIExpression(DW_OP_LLVM_fragment, 64, 64), !4596)
    #dbg_value(i64 8, !4582, !DIExpression(DW_OP_LLVM_fragment, 0, 64), !4596)
    #dbg_value(ptr %121, !4571, !DIExpression(), !4597)
    #dbg_value(i64 8, !1240, !DIExpression(DW_OP_LLVM_fragment, 0, 64), !4598)
    #dbg_value(i64 24, !1240, !DIExpression(DW_OP_LLVM_fragment, 64, 64), !4598)
    #dbg_value(ptr poison, !1248, !DIExpression(), !4598)
    #dbg_value(ptr %121, !1249, !DIExpression(), !4598)
    #dbg_value(ptr %121, !1252, !DIExpression(), !4600)
    #dbg_value(i64 8, !1258, !DIExpression(DW_OP_LLVM_fragment, 0, 64), !4600)
    #dbg_value(i64 24, !1258, !DIExpression(DW_OP_LLVM_fragment, 64, 64), !4600)
; call __rustc::__rust_dealloc
  call void @_RNvCsj3IbkTTFM3W_7___rustc14___rust_dealloc(ptr noundef nonnull %121, i64 noundef 24, i64 noundef 8) #24, !dbg !4602, !noalias !4322
  br label %bb56.i, !dbg !4603

bb4.i312:                                         ; preds = %bb40.i311
  call void @llvm.lifetime.end.p0(i64 200, ptr nonnull %_6.i), !dbg !4305
    #dbg_value(ptr undef, !4255, !DIExpression(DW_OP_plus_uconst, 48, DW_OP_stack_value), !4604)
    #dbg_value(ptr undef, !4249, !DIExpression(DW_OP_plus_uconst, 48, DW_OP_stack_value), !4605)
    #dbg_value(i32 %x.sroa.6.sroa.10.0.copyload.i, !4245, !DIExpression(), !4606)
    #dbg_value(i32 %x.sroa.6.sroa.10.0.copyload.i, !4238, !DIExpression(), !4607)
  %.not.i = icmp eq i32 %x.sroa.6.sroa.10.0.copyload.i, 0, !dbg !4608
  br i1 %.not.i, label %bb5.i317, label %bb6.i313, !dbg !4609

bb5.i317:                                         ; preds = %bb4.i312
    #dbg_value(i64 %117, !4610, !DIExpression(DW_OP_LLVM_fragment, 0, 64), !4618)
    #dbg_value(ptr %x.sroa.6.sroa.0.0.copyload.i, !4610, !DIExpression(DW_OP_LLVM_fragment, 64, 64), !4618)
    #dbg_value(i64 %x.sroa.6.sroa.6.0.copyload.i, !4610, !DIExpression(DW_OP_LLVM_fragment, 128, 64), !4618)
  call void @llvm.lifetime.start.p0(i64 24, ptr nonnull %_2.i.i), !dbg !4620, !noalias !4621
; invoke core::str::converts::from_utf8
  invoke void @_ZN4core3str8converts9from_utf817h6b175b90dad40760E(ptr noalias noundef nonnull sret([24 x i8]) align 8 captures(address) dereferenceable(24) %_2.i.i, ptr noalias noundef nonnull readonly align 1 captures(address, read_provenance) %x.sroa.6.sroa.0.0.copyload.i, i64 noundef %x.sroa.6.sroa.6.0.copyload.i)
          to label %bb1.i.i unwind label %cleanup.i.i, !dbg !4620, !noalias !4621

cleanup.i.i:                                      ; preds = %bb5.i317
  %142 = landingpad { ptr, i32 }
          cleanup
    #dbg_value(ptr poison, !1155, !DIExpression(), !4625)
    #dbg_value(ptr poison, !1165, !DIExpression(), !4627)
    #dbg_value(ptr poison, !1175, !DIExpression(), !4629)
    #dbg_value(ptr poison, !1185, !DIExpression(), !4631)
    #dbg_value(i64 1, !1201, !DIExpression(DW_OP_LLVM_fragment, 0, 64), !4631)
    #dbg_value(i64 1, !1201, !DIExpression(DW_OP_LLVM_fragment, 64, 64), !4631)
    #dbg_value(i64 1, !1207, !DIExpression(DW_OP_LLVM_fragment, 0, 64), !4633)
    #dbg_value(i64 1, !1207, !DIExpression(DW_OP_LLVM_fragment, 64, 64), !4633)
    #dbg_value(ptr poison, !1231, !DIExpression(), !4633)
  %143 = icmp eq i64 %117, 0, !dbg !4635
  br i1 %143, label %bb32.i, label %bb32.sink.split.i, !dbg !4635

bb1.i.i:                                          ; preds = %bb5.i317
  %_5.i.i = load i64, ptr %_2.i.i, align 8, !dbg !4620, !range !3084, !noalias !4621, !noundef !23
  %144 = trunc nuw i64 %_5.i.i to i1, !dbg !4636
  call void @llvm.lifetime.end.p0(i64 24, ptr nonnull %_2.i.i), !dbg !4637, !noalias !4621
  br i1 %144, label %bb58.i, label %bb48.i, !dbg !4636

bb6.i313:                                         ; preds = %bb4.i312
    #dbg_value(ptr poison, !1155, !DIExpression(), !4638)
    #dbg_value(ptr poison, !1165, !DIExpression(), !4640)
    #dbg_value(ptr poison, !1175, !DIExpression(), !4642)
    #dbg_value(ptr poison, !1185, !DIExpression(), !4644)
    #dbg_value(i64 1, !1201, !DIExpression(DW_OP_LLVM_fragment, 0, 64), !4644)
    #dbg_value(i64 1, !1201, !DIExpression(DW_OP_LLVM_fragment, 64, 64), !4644)
    #dbg_value(i64 1, !1207, !DIExpression(DW_OP_LLVM_fragment, 0, 64), !4646)
    #dbg_value(i64 1, !1207, !DIExpression(DW_OP_LLVM_fragment, 64, 64), !4646)
    #dbg_value(ptr poison, !1231, !DIExpression(), !4646)
  %145 = icmp eq i64 %117, 0, !dbg !4648
  br i1 %145, label %bb30.i315, label %bb2.i.i.i4.i.i314, !dbg !4648

bb2.i.i.i4.i.i314:                                ; preds = %bb6.i313
  %146 = icmp ne ptr %x.sroa.6.sroa.0.0.copyload.i, null
  call void @llvm.assume(i1 %146)
    #dbg_value(ptr %x.sroa.6.sroa.0.0.copyload.i, !1202, !DIExpression(), !4649)
    #dbg_value(i64 1, !1204, !DIExpression(DW_OP_LLVM_fragment, 0, 64), !4649)
    #dbg_value(i64 %117, !1204, !DIExpression(DW_OP_LLVM_fragment, 64, 64), !4649)
    #dbg_value(i64 1, !1240, !DIExpression(DW_OP_LLVM_fragment, 0, 64), !4650)
    #dbg_value(i64 %117, !1240, !DIExpression(DW_OP_LLVM_fragment, 64, 64), !4650)
    #dbg_value(ptr poison, !1248, !DIExpression(), !4650)
    #dbg_value(ptr %x.sroa.6.sroa.0.0.copyload.i, !1249, !DIExpression(), !4650)
    #dbg_value(ptr %x.sroa.6.sroa.0.0.copyload.i, !1252, !DIExpression(), !4652)
    #dbg_value(i64 1, !1258, !DIExpression(DW_OP_LLVM_fragment, 0, 64), !4652)
    #dbg_value(i64 %117, !1258, !DIExpression(DW_OP_LLVM_fragment, 64, 64), !4652)
  br label %bb30.sink.split.i, !dbg !4654

bb48.i:                                           ; preds = %bb1.i.i
    #dbg_value(i64 %x.sroa.6.sroa.6.0.copyload.i, !2438, !DIExpression(DW_OP_LLVM_fragment, 192, 64), !4655)
    #dbg_value(i64 %117, !2438, !DIExpression(DW_OP_LLVM_fragment, 64, 64), !4655)
    #dbg_value(ptr %x.sroa.6.sroa.0.0.copyload.i, !2438, !DIExpression(DW_OP_LLVM_fragment, 128, 64), !4655)
    #dbg_value(i64 -9223372036854775808, !2438, !DIExpression(DW_OP_LLVM_fragment, 0, 64), !4655)
    #dbg_value(i64 %117, !2452, !DIExpression(DW_OP_LLVM_fragment, 0, 64), !4656)
    #dbg_value(ptr %x.sroa.6.sroa.0.0.copyload.i, !2452, !DIExpression(DW_OP_LLVM_fragment, 64, 64), !4656)
    #dbg_value(i64 %x.sroa.6.sroa.6.0.copyload.i, !2452, !DIExpression(DW_OP_LLVM_fragment, 128, 64), !4656)
    #dbg_value(ptr %x.sroa.6.sroa.0.0.copyload.i, !4260, !DIExpression(DW_OP_LLVM_fragment, 0, 64), !4261)
    #dbg_value(ptr %x.sroa.6.sroa.0.0.copyload.i, !4266, !DIExpression(DW_OP_LLVM_fragment, 0, 64), !4267)
    #dbg_value(i64 %x.sroa.6.sroa.6.0.copyload.i, !4260, !DIExpression(DW_OP_LLVM_fragment, 64, 64), !4261)
    #dbg_value(i64 %x.sroa.6.sroa.6.0.copyload.i, !4266, !DIExpression(DW_OP_LLVM_fragment, 64, 64), !4267)
    #dbg_value(ptr poison, !3089, !DIExpression(), !4657)
    #dbg_value(ptr poison, !3092, !DIExpression(), !4657)
    #dbg_value(ptr @alloc_e9aa3e56236bea0534a07b33b08bbbe6, !3101, !DIExpression(DW_OP_LLVM_fragment, 0, 64), !4660)
    #dbg_value(ptr @alloc_e9aa3e56236bea0534a07b33b08bbbe6, !3105, !DIExpression(DW_OP_LLVM_fragment, 0, 64), !4661)
    #dbg_value(i64 2, !3101, !DIExpression(DW_OP_LLVM_fragment, 64, 64), !4660)
    #dbg_value(i64 2, !3105, !DIExpression(DW_OP_LLVM_fragment, 64, 64), !4661)
    #dbg_value(ptr %x.sroa.6.sroa.0.0.copyload.i, !3100, !DIExpression(DW_OP_LLVM_fragment, 0, 64), !4660)
    #dbg_value(i64 %x.sroa.6.sroa.6.0.copyload.i, !3100, !DIExpression(DW_OP_LLVM_fragment, 64, 64), !4660)
    #dbg_value(i64 2, !3102, !DIExpression(), !4663)
  %_4.not.i.i318 = icmp ult i64 %x.sroa.6.sroa.6.0.copyload.i, 2, !dbg !4664
  br i1 %_4.not.i.i318, label %bb20.i322, label %bb49.i, !dbg !4664

bb58.i:                                           ; preds = %bb1.i.i
    #dbg_value(i64 poison, !2438, !DIExpression(DW_OP_LLVM_fragment, 256, 64), !4655)
    #dbg_value(i64 poison, !2438, !DIExpression(DW_OP_LLVM_fragment, 192, 64), !4655)
    #dbg_value(ptr %x.sroa.6.sroa.0.0.copyload.i, !2438, !DIExpression(DW_OP_LLVM_fragment, 64, 64), !4655)
    #dbg_value(i64 %x.sroa.6.sroa.6.0.copyload.i, !2438, !DIExpression(DW_OP_LLVM_fragment, 128, 64), !4655)
    #dbg_value(i64 %117, !2438, !DIExpression(DW_OP_LLVM_fragment, 0, 64), !4655)
    #dbg_value(ptr undef, !2367, !DIExpression(), !2434)
  %cond.i = icmp eq i64 %117, 0, !dbg !4665
  br i1 %cond.i, label %bb30.i315, label %bb30.sink.split.i, !dbg !4665

bb49.i:                                           ; preds = %bb48.i
    #dbg_value(ptr undef, !3092, !DIExpression(), !4657)
    #dbg_value(ptr %x.sroa.6.sroa.0.0.copyload.i, !3109, !DIExpression(DW_OP_LLVM_fragment, 0, 64), !4661)
    #dbg_value(i64 2, !3109, !DIExpression(DW_OP_LLVM_fragment, 64, 64), !4661)
    #dbg_value(ptr undef, !3089, !DIExpression(), !4657)
    #dbg_value(ptr @alloc_e9aa3e56236bea0534a07b33b08bbbe6, !3121, !DIExpression(DW_OP_LLVM_fragment, 0, 64), !4666)
    #dbg_value(i64 2, !3121, !DIExpression(DW_OP_LLVM_fragment, 64, 64), !4666)
    #dbg_value(ptr %x.sroa.6.sroa.0.0.copyload.i, !3125, !DIExpression(DW_OP_LLVM_fragment, 0, 64), !4666)
    #dbg_value(i64 2, !3125, !DIExpression(DW_OP_LLVM_fragment, 64, 64), !4666)
    #dbg_value(i64 2, !3126, !DIExpression(), !4668)
  %bcmp.i.i.i319 = call i32 @bcmp(ptr noundef nonnull readonly align 1 dereferenceable(2) @alloc_e9aa3e56236bea0534a07b33b08bbbe6, ptr noundef nonnull readonly align 1 dereferenceable(2) %x.sroa.6.sroa.0.0.copyload.i, i64 range(i64 2, 8) 2), !dbg !4669, !alias.scope !4670
  %147 = icmp eq i32 %bcmp.i.i.i319, 0, !dbg !4669
  br i1 %147, label %bb20.i322, label %bb50.i320, !dbg !4677

bb50.i320:                                        ; preds = %bb49.i
    #dbg_value(ptr %x.sroa.6.sroa.0.0.copyload.i, !4260, !DIExpression(DW_OP_LLVM_fragment, 0, 64), !4269)
    #dbg_value(ptr %x.sroa.6.sroa.0.0.copyload.i, !4266, !DIExpression(DW_OP_LLVM_fragment, 0, 64), !4271)
    #dbg_value(i64 poison, !4260, !DIExpression(DW_OP_LLVM_fragment, 64, 64), !4269)
    #dbg_value(i64 poison, !4266, !DIExpression(DW_OP_LLVM_fragment, 64, 64), !4271)
    #dbg_value(ptr @alloc_ae52c2733f312a4a903aef7e6436cb13, !3101, !DIExpression(DW_OP_LLVM_fragment, 0, 64), !4678)
    #dbg_value(ptr @alloc_ae52c2733f312a4a903aef7e6436cb13, !3105, !DIExpression(DW_OP_LLVM_fragment, 0, 64), !4680)
    #dbg_value(i64 2, !3101, !DIExpression(DW_OP_LLVM_fragment, 64, 64), !4678)
    #dbg_value(i64 2, !3105, !DIExpression(DW_OP_LLVM_fragment, 64, 64), !4680)
    #dbg_value(ptr %x.sroa.6.sroa.0.0.copyload.i, !3100, !DIExpression(DW_OP_LLVM_fragment, 0, 64), !4678)
    #dbg_value(i64 poison, !3100, !DIExpression(DW_OP_LLVM_fragment, 64, 64), !4678)
    #dbg_value(i64 2, !3102, !DIExpression(), !4683)
    #dbg_value(ptr undef, !3092, !DIExpression(), !4684)
    #dbg_value(ptr %x.sroa.6.sroa.0.0.copyload.i, !3109, !DIExpression(DW_OP_LLVM_fragment, 0, 64), !4680)
    #dbg_value(i64 2, !3109, !DIExpression(DW_OP_LLVM_fragment, 64, 64), !4680)
    #dbg_value(ptr undef, !3089, !DIExpression(), !4684)
    #dbg_value(ptr @alloc_ae52c2733f312a4a903aef7e6436cb13, !3121, !DIExpression(DW_OP_LLVM_fragment, 0, 64), !4685)
    #dbg_value(i64 2, !3121, !DIExpression(DW_OP_LLVM_fragment, 64, 64), !4685)
    #dbg_value(ptr %x.sroa.6.sroa.0.0.copyload.i, !3125, !DIExpression(DW_OP_LLVM_fragment, 0, 64), !4685)
    #dbg_value(i64 2, !3125, !DIExpression(DW_OP_LLVM_fragment, 64, 64), !4685)
    #dbg_value(i64 2, !3126, !DIExpression(), !4687)
  %bcmp.i.i126.i = call i32 @bcmp(ptr noundef nonnull readonly align 1 dereferenceable(2) @alloc_ae52c2733f312a4a903aef7e6436cb13, ptr noundef nonnull readonly align 1 dereferenceable(2) %x.sroa.6.sroa.0.0.copyload.i, i64 range(i64 2, 8) 2), !dbg !4688, !alias.scope !4689
  %148 = icmp eq i32 %bcmp.i.i126.i, 0, !dbg !4688
  br i1 %148, label %bb20.i322, label %bb51.i321, !dbg !4696

bb51.i321:                                        ; preds = %bb50.i320
    #dbg_value(ptr %x.sroa.6.sroa.0.0.copyload.i, !4260, !DIExpression(DW_OP_LLVM_fragment, 0, 64), !4274)
    #dbg_value(ptr %x.sroa.6.sroa.0.0.copyload.i, !4266, !DIExpression(DW_OP_LLVM_fragment, 0, 64), !4276)
    #dbg_value(i64 poison, !4260, !DIExpression(DW_OP_LLVM_fragment, 64, 64), !4274)
    #dbg_value(i64 poison, !4266, !DIExpression(DW_OP_LLVM_fragment, 64, 64), !4276)
    #dbg_value(ptr @alloc_3b059e5eb8e06e7498f909e7a08cef57, !3101, !DIExpression(DW_OP_LLVM_fragment, 0, 64), !4697)
    #dbg_value(ptr @alloc_3b059e5eb8e06e7498f909e7a08cef57, !3105, !DIExpression(DW_OP_LLVM_fragment, 0, 64), !4699)
    #dbg_value(i64 2, !3101, !DIExpression(DW_OP_LLVM_fragment, 64, 64), !4697)
    #dbg_value(i64 2, !3105, !DIExpression(DW_OP_LLVM_fragment, 64, 64), !4699)
    #dbg_value(ptr %x.sroa.6.sroa.0.0.copyload.i, !3100, !DIExpression(DW_OP_LLVM_fragment, 0, 64), !4697)
    #dbg_value(i64 poison, !3100, !DIExpression(DW_OP_LLVM_fragment, 64, 64), !4697)
    #dbg_value(i64 2, !3102, !DIExpression(), !4702)
    #dbg_value(ptr undef, !3092, !DIExpression(), !4703)
    #dbg_value(ptr %x.sroa.6.sroa.0.0.copyload.i, !3109, !DIExpression(DW_OP_LLVM_fragment, 0, 64), !4699)
    #dbg_value(i64 2, !3109, !DIExpression(DW_OP_LLVM_fragment, 64, 64), !4699)
    #dbg_value(ptr undef, !3089, !DIExpression(), !4703)
    #dbg_value(ptr @alloc_3b059e5eb8e06e7498f909e7a08cef57, !3121, !DIExpression(DW_OP_LLVM_fragment, 0, 64), !4704)
    #dbg_value(i64 2, !3121, !DIExpression(DW_OP_LLVM_fragment, 64, 64), !4704)
    #dbg_value(ptr %x.sroa.6.sroa.0.0.copyload.i, !3125, !DIExpression(DW_OP_LLVM_fragment, 0, 64), !4704)
    #dbg_value(i64 2, !3125, !DIExpression(DW_OP_LLVM_fragment, 64, 64), !4704)
    #dbg_value(i64 2, !3126, !DIExpression(), !4706)
  %bcmp.i.i132.i = call i32 @bcmp(ptr noundef nonnull readonly align 1 dereferenceable(2) @alloc_3b059e5eb8e06e7498f909e7a08cef57, ptr noundef nonnull readonly align 1 dereferenceable(2) %x.sroa.6.sroa.0.0.copyload.i, i64 range(i64 2, 8) 2), !dbg !4707, !alias.scope !4708
  %149 = icmp eq i32 %bcmp.i.i132.i, 0, !dbg !4707
  br i1 %149, label %bb20.i322, label %bb52.i, !dbg !4715

bb52.i:                                           ; preds = %bb51.i321
    #dbg_value(ptr %x.sroa.6.sroa.0.0.copyload.i, !4260, !DIExpression(DW_OP_LLVM_fragment, 0, 64), !4279)
    #dbg_value(ptr %x.sroa.6.sroa.0.0.copyload.i, !4266, !DIExpression(DW_OP_LLVM_fragment, 0, 64), !4281)
    #dbg_value(i64 poison, !4260, !DIExpression(DW_OP_LLVM_fragment, 64, 64), !4279)
    #dbg_value(i64 poison, !4266, !DIExpression(DW_OP_LLVM_fragment, 64, 64), !4281)
    #dbg_value(ptr @alloc_d57d03743ee0b3cf85ca6cc66dce7f4d, !3101, !DIExpression(DW_OP_LLVM_fragment, 0, 64), !4716)
    #dbg_value(ptr @alloc_d57d03743ee0b3cf85ca6cc66dce7f4d, !3105, !DIExpression(DW_OP_LLVM_fragment, 0, 64), !4718)
    #dbg_value(i64 2, !3101, !DIExpression(DW_OP_LLVM_fragment, 64, 64), !4716)
    #dbg_value(i64 2, !3105, !DIExpression(DW_OP_LLVM_fragment, 64, 64), !4718)
    #dbg_value(ptr %x.sroa.6.sroa.0.0.copyload.i, !3100, !DIExpression(DW_OP_LLVM_fragment, 0, 64), !4716)
    #dbg_value(i64 poison, !3100, !DIExpression(DW_OP_LLVM_fragment, 64, 64), !4716)
    #dbg_value(i64 2, !3102, !DIExpression(), !4721)
    #dbg_value(ptr undef, !3092, !DIExpression(), !4722)
    #dbg_value(ptr %x.sroa.6.sroa.0.0.copyload.i, !3109, !DIExpression(DW_OP_LLVM_fragment, 0, 64), !4718)
    #dbg_value(i64 2, !3109, !DIExpression(DW_OP_LLVM_fragment, 64, 64), !4718)
    #dbg_value(ptr undef, !3089, !DIExpression(), !4722)
    #dbg_value(ptr @alloc_d57d03743ee0b3cf85ca6cc66dce7f4d, !3121, !DIExpression(DW_OP_LLVM_fragment, 0, 64), !4723)
    #dbg_value(i64 2, !3121, !DIExpression(DW_OP_LLVM_fragment, 64, 64), !4723)
    #dbg_value(ptr %x.sroa.6.sroa.0.0.copyload.i, !3125, !DIExpression(DW_OP_LLVM_fragment, 0, 64), !4723)
    #dbg_value(i64 2, !3125, !DIExpression(DW_OP_LLVM_fragment, 64, 64), !4723)
    #dbg_value(i64 2, !3126, !DIExpression(), !4725)
  %bcmp.i.i138.i = call i32 @bcmp(ptr noundef nonnull readonly align 1 dereferenceable(2) @alloc_d57d03743ee0b3cf85ca6cc66dce7f4d, ptr noundef nonnull readonly align 1 dereferenceable(2) %x.sroa.6.sroa.0.0.copyload.i, i64 range(i64 2, 8) 2), !dbg !4726, !alias.scope !4727
  %150 = icmp eq i32 %bcmp.i.i138.i, 0, !dbg !4726
  br i1 %150, label %bb20.i322, label %bb53.i, !dbg !4734

bb53.i:                                           ; preds = %bb52.i
    #dbg_value(ptr %x.sroa.6.sroa.0.0.copyload.i, !4260, !DIExpression(DW_OP_LLVM_fragment, 0, 64), !4284)
    #dbg_value(ptr %x.sroa.6.sroa.0.0.copyload.i, !4266, !DIExpression(DW_OP_LLVM_fragment, 0, 64), !4286)
    #dbg_value(i64 poison, !4260, !DIExpression(DW_OP_LLVM_fragment, 64, 64), !4284)
    #dbg_value(i64 poison, !4266, !DIExpression(DW_OP_LLVM_fragment, 64, 64), !4286)
    #dbg_value(ptr @alloc_e33ac00bdbd8c0cbb04273e924bd654c, !3101, !DIExpression(DW_OP_LLVM_fragment, 0, 64), !4735)
    #dbg_value(ptr @alloc_e33ac00bdbd8c0cbb04273e924bd654c, !3105, !DIExpression(DW_OP_LLVM_fragment, 0, 64), !4737)
    #dbg_value(i64 2, !3101, !DIExpression(DW_OP_LLVM_fragment, 64, 64), !4735)
    #dbg_value(i64 2, !3105, !DIExpression(DW_OP_LLVM_fragment, 64, 64), !4737)
    #dbg_value(ptr %x.sroa.6.sroa.0.0.copyload.i, !3100, !DIExpression(DW_OP_LLVM_fragment, 0, 64), !4735)
    #dbg_value(i64 poison, !3100, !DIExpression(DW_OP_LLVM_fragment, 64, 64), !4735)
    #dbg_value(i64 2, !3102, !DIExpression(), !4740)
    #dbg_value(ptr undef, !3092, !DIExpression(), !4741)
    #dbg_value(ptr %x.sroa.6.sroa.0.0.copyload.i, !3109, !DIExpression(DW_OP_LLVM_fragment, 0, 64), !4737)
    #dbg_value(i64 2, !3109, !DIExpression(DW_OP_LLVM_fragment, 64, 64), !4737)
    #dbg_value(ptr undef, !3089, !DIExpression(), !4741)
    #dbg_value(ptr @alloc_e33ac00bdbd8c0cbb04273e924bd654c, !3121, !DIExpression(DW_OP_LLVM_fragment, 0, 64), !4742)
    #dbg_value(i64 2, !3121, !DIExpression(DW_OP_LLVM_fragment, 64, 64), !4742)
    #dbg_value(ptr %x.sroa.6.sroa.0.0.copyload.i, !3125, !DIExpression(DW_OP_LLVM_fragment, 0, 64), !4742)
    #dbg_value(i64 2, !3125, !DIExpression(DW_OP_LLVM_fragment, 64, 64), !4742)
    #dbg_value(i64 2, !3126, !DIExpression(), !4744)
  %bcmp.i.i144.i = call i32 @bcmp(ptr noundef nonnull readonly align 1 dereferenceable(2) @alloc_e33ac00bdbd8c0cbb04273e924bd654c, ptr noundef nonnull readonly align 1 dereferenceable(2) %x.sroa.6.sroa.0.0.copyload.i, i64 range(i64 2, 8) 2), !dbg !4745, !alias.scope !4746
  %151 = icmp eq i32 %bcmp.i.i144.i, 0, !dbg !4745
  br i1 %151, label %bb20.i322, label %bb54.i, !dbg !4753

bb54.i:                                           ; preds = %bb53.i
    #dbg_value(ptr %x.sroa.6.sroa.0.0.copyload.i, !4260, !DIExpression(DW_OP_LLVM_fragment, 0, 64), !4289)
    #dbg_value(ptr %x.sroa.6.sroa.0.0.copyload.i, !4266, !DIExpression(DW_OP_LLVM_fragment, 0, 64), !4291)
    #dbg_value(i64 poison, !4260, !DIExpression(DW_OP_LLVM_fragment, 64, 64), !4289)
    #dbg_value(i64 poison, !4266, !DIExpression(DW_OP_LLVM_fragment, 64, 64), !4291)
    #dbg_value(ptr @alloc_27f411dcc9955beae922af37f2bb21f7, !3101, !DIExpression(DW_OP_LLVM_fragment, 0, 64), !4754)
    #dbg_value(ptr @alloc_27f411dcc9955beae922af37f2bb21f7, !3105, !DIExpression(DW_OP_LLVM_fragment, 0, 64), !4756)
    #dbg_value(i64 2, !3101, !DIExpression(DW_OP_LLVM_fragment, 64, 64), !4754)
    #dbg_value(i64 2, !3105, !DIExpression(DW_OP_LLVM_fragment, 64, 64), !4756)
    #dbg_value(ptr %x.sroa.6.sroa.0.0.copyload.i, !3100, !DIExpression(DW_OP_LLVM_fragment, 0, 64), !4754)
    #dbg_value(i64 poison, !3100, !DIExpression(DW_OP_LLVM_fragment, 64, 64), !4754)
    #dbg_value(i64 2, !3102, !DIExpression(), !4759)
    #dbg_value(ptr undef, !3092, !DIExpression(), !4760)
    #dbg_value(ptr %x.sroa.6.sroa.0.0.copyload.i, !3109, !DIExpression(DW_OP_LLVM_fragment, 0, 64), !4756)
    #dbg_value(i64 2, !3109, !DIExpression(DW_OP_LLVM_fragment, 64, 64), !4756)
    #dbg_value(ptr undef, !3089, !DIExpression(), !4760)
    #dbg_value(ptr @alloc_27f411dcc9955beae922af37f2bb21f7, !3121, !DIExpression(DW_OP_LLVM_fragment, 0, 64), !4761)
    #dbg_value(i64 2, !3121, !DIExpression(DW_OP_LLVM_fragment, 64, 64), !4761)
    #dbg_value(ptr %x.sroa.6.sroa.0.0.copyload.i, !3125, !DIExpression(DW_OP_LLVM_fragment, 0, 64), !4761)
    #dbg_value(i64 2, !3125, !DIExpression(DW_OP_LLVM_fragment, 64, 64), !4761)
    #dbg_value(i64 2, !3126, !DIExpression(), !4763)
  %bcmp.i.i150.i = call i32 @bcmp(ptr noundef nonnull readonly align 1 dereferenceable(2) @alloc_27f411dcc9955beae922af37f2bb21f7, ptr noundef nonnull readonly align 1 dereferenceable(2) %x.sroa.6.sroa.0.0.copyload.i, i64 range(i64 2, 8) 2), !dbg !4764, !alias.scope !4765
  %bcmp.i.i150.fr.i = freeze i32 %bcmp.i.i150.i, !dbg !4764
  %152 = icmp eq i32 %bcmp.i.i150.fr.i, 0, !dbg !4764
  br label %bb20.i322, !dbg !4656

bb20.i322:                                        ; preds = %bb54.i, %bb53.i, %bb52.i, %bb51.i321, %bb50.i320, %bb49.i, %bb48.i
  %_0.sroa.12.1.i = phi i32 [ 10, %bb49.i ], [ 11, %bb50.i320 ], [ 12, %bb51.i321 ], [ 13, %bb52.i ], [ 14, %bb53.i ], [ 15, %bb54.i ], [ 15, %bb48.i ], !dbg !4656
  %_0.sroa.0.1.i = phi i1 [ true, %bb49.i ], [ true, %bb50.i320 ], [ true, %bb51.i321 ], [ true, %bb52.i ], [ true, %bb53.i ], [ %152, %bb54.i ], [ false, %bb48.i ], !dbg !4656
    #dbg_value(ptr poison, !1630, !DIExpression(), !4772)
    #dbg_value(ptr poison, !1155, !DIExpression(), !4774)
    #dbg_value(ptr poison, !1165, !DIExpression(), !4776)
    #dbg_value(ptr poison, !1175, !DIExpression(), !4778)
    #dbg_value(ptr poison, !1185, !DIExpression(), !4780)
    #dbg_value(i64 1, !1201, !DIExpression(DW_OP_LLVM_fragment, 0, 64), !4780)
    #dbg_value(i64 1, !1201, !DIExpression(DW_OP_LLVM_fragment, 64, 64), !4780)
    #dbg_value(i64 1, !1207, !DIExpression(DW_OP_LLVM_fragment, 0, 64), !4782)
    #dbg_value(i64 1, !1207, !DIExpression(DW_OP_LLVM_fragment, 64, 64), !4782)
    #dbg_value(ptr poison, !1231, !DIExpression(), !4782)
  %153 = icmp eq i64 %117, 0, !dbg !4784
  br i1 %153, label %bb21.i323, label %bb2.i.i.i4.i.i154.i, !dbg !4784

bb2.i.i.i4.i.i154.i:                              ; preds = %bb20.i322
    #dbg_value(ptr %x.sroa.6.sroa.0.0.copyload.i, !1202, !DIExpression(), !4785)
    #dbg_value(i64 1, !1204, !DIExpression(DW_OP_LLVM_fragment, 0, 64), !4785)
    #dbg_value(i64 %117, !1204, !DIExpression(DW_OP_LLVM_fragment, 64, 64), !4785)
    #dbg_value(i64 1, !1240, !DIExpression(DW_OP_LLVM_fragment, 0, 64), !4786)
    #dbg_value(i64 %117, !1240, !DIExpression(DW_OP_LLVM_fragment, 64, 64), !4786)
    #dbg_value(ptr poison, !1248, !DIExpression(), !4786)
    #dbg_value(ptr %x.sroa.6.sroa.0.0.copyload.i, !1249, !DIExpression(), !4786)
    #dbg_value(ptr %x.sroa.6.sroa.0.0.copyload.i, !1252, !DIExpression(), !4788)
    #dbg_value(i64 1, !1258, !DIExpression(DW_OP_LLVM_fragment, 0, 64), !4788)
    #dbg_value(i64 %117, !1258, !DIExpression(DW_OP_LLVM_fragment, 64, 64), !4788)
; call __rustc::__rust_dealloc
