; ModuleID = 'build_script_build.664fdef8861fca56-cgu.0'
source_filename = "build_script_build.664fdef8861fca56-cgu.0"
target datalayout = "e-m:e-p270:32:32-p271:32:32-p272:64:64-i64:64-i128:128-f80:128-n8:16:32:64-S128"
target triple = "x86_64-unknown-linux-gnu"

%"core::fmt::rt::Argument<'_>" = type { %"core::fmt::rt::ArgumentType<'_>" }
%"core::fmt::rt::ArgumentType<'_>" = type { ptr, [1 x i64] }
%"alloc::boxed::Box<dyn core::ops::function::FnMut() -> core::result::Result<(), std::io::error::Error> + core::marker::Send + core::marker::Sync>" = type { %"core::ptr::unique::Unique<dyn core::ops::function::FnMut() -> core::result::Result<(), std::io::error::Error> + core::marker::Send + core::marker::Sync>", %"alloc::alloc::Global" }
%"core::ptr::unique::Unique<dyn core::ops::function::FnMut() -> core::result::Result<(), std::io::error::Error> + core::marker::Send + core::marker::Sync>" = type { %"core::ptr::non_null::NonNull<dyn core::ops::function::FnMut() -> core::result::Result<(), std::io::error::Error> + core::marker::Send + core::marker::Sync>", %"core::marker::PhantomData<dyn core::ops::function::FnMut() -> core::result::Result<(), std::io::error::Error> + core::marker::Send + core::marker::Sync>" }
%"core::ptr::non_null::NonNull<dyn core::ops::function::FnMut() -> core::result::Result<(), std::io::error::Error> + core::marker::Send + core::marker::Sync>" = type { { ptr, ptr } }
%"core::marker::PhantomData<dyn core::ops::function::FnMut() -> core::result::Result<(), std::io::error::Error> + core::marker::Send + core::marker::Sync>" = type {}
%"alloc::alloc::Global" = type {}
%"core::mem::maybe_uninit::MaybeUninit<std::ffi::os_str::OsString>" = type { [3 x i64] }
%"core::mem::maybe_uninit::MaybeUninit<core::option::Option<std::ffi::os_str::OsString>>" = type { [3 x i64] }

@anon.343ad20a3284b1f9e404afc411eb8ab2.0 = private unnamed_addr constant <{ [8 x i8], [4 x i8], [4 x i8] }> <{ [8 x i8] undef, [4 x i8] c"\00\00\11\00", [4 x i8] undef }>, align 8
@alloc_18d73aa062d524e9620b9e3b55bd9eb1 = private unnamed_addr constant [218 x i8] c"unsafe precondition(s) violated: slice::get_unchecked_mut requires that the range is within the slice\0A\0AThis indicates a bug in the program. This Undefined Behavior check is optional, and cannot be relied on for safety.", align 1
@anon.343ad20a3284b1f9e404afc411eb8ab2.1 = private unnamed_addr constant <{ [8 x i8], [8 x i8] }> <{ [8 x i8] zeroinitializer, [8 x i8] undef }>, align 8
@alloc_71264e62a593ae064235a5eb90a16b4a = private unnamed_addr constant [15 x i8] c"freebsd-version", align 1
@alloc_e9aa3e56236bea0534a07b33b08bbbe6 = private unnamed_addr constant [2 x i8] c"10", align 1
@alloc_ae52c2733f312a4a903aef7e6436cb13 = private unnamed_addr constant [2 x i8] c"11", align 1
@alloc_3b059e5eb8e06e7498f909e7a08cef57 = private unnamed_addr constant [2 x i8] c"12", align 1
@alloc_d57d03743ee0b3cf85ca6cc66dce7f4d = private unnamed_addr constant [2 x i8] c"13", align 1
@alloc_e33ac00bdbd8c0cbb04273e924bd654c = private unnamed_addr constant [2 x i8] c"14", align 1
@alloc_27f411dcc9955beae922af37f2bb21f7 = private unnamed_addr constant [2 x i8] c"15", align 1
@anon.343ad20a3284b1f9e404afc411eb8ab2.2 = private unnamed_addr constant <{ [4 x i8], [4 x i8] }> <{ [4 x i8] zeroinitializer, [4 x i8] undef }>, align 4
@anon.343ad20a3284b1f9e404afc411eb8ab2.3 = private unnamed_addr constant [8 x i8] c"\01\00\00\00\0F\00\00\00", align 4
@anon.343ad20a3284b1f9e404afc411eb8ab2.4 = private unnamed_addr constant [8 x i8] c"\01\00\00\00\0E\00\00\00", align 4
@anon.343ad20a3284b1f9e404afc411eb8ab2.5 = private unnamed_addr constant [8 x i8] c"\01\00\00\00\0D\00\00\00", align 4
@anon.343ad20a3284b1f9e404afc411eb8ab2.6 = private unnamed_addr constant [8 x i8] c"\01\00\00\00\0C\00\00\00", align 4
@anon.343ad20a3284b1f9e404afc411eb8ab2.7 = private unnamed_addr constant [8 x i8] c"\01\00\00\00\0B\00\00\00", align 4
@anon.343ad20a3284b1f9e404afc411eb8ab2.8 = private unnamed_addr constant [8 x i8] c"\01\00\00\00\0A\00\00\00", align 4
@alloc_e7b0dd178336291b9ad3b8b25bc77cb0 = private unnamed_addr constant [4 x i8] c"emcc", align 1
@alloc_53695a5ce3568835c4a92269d444b5c9 = private unnamed_addr constant [12 x i8] c"-dumpversion", align 1
@alloc_806c1ac911172019779ceab530bc1f0e = private unnamed_addr constant [5 x i8] c"RUSTC", align 1
@alloc_57e2a3f3daa80a9da338a6fbc7fe2a99 = private unnamed_addr constant [46 x i8] c"Failed to get rustc version: missing RUSTC env", align 1
@alloc_52455942f635c15dfc7082d483dfdeb4 = private unnamed_addr constant [91 x i8] c"/users/ddavis65/.cargo/registry/src/index.crates.io-1949cf8c6b5b557f/libc-0.2.177/build.rs\00", align 1
@alloc_f6fa39700da9355fe3d26b2329968545 = private unnamed_addr constant <{ ptr, [16 x i8] }> <{ ptr @alloc_52455942f635c15dfc7082d483dfdeb4, [16 x i8] c"Z\00\00\00\00\00\00\00\AF\00\00\00&\00\00\00" }>, align 8
@alloc_f36ce88bd5d4a921175f5521f484b675 = private unnamed_addr constant [13 x i8] c"RUSTC_WRAPPER", align 1
@alloc_0a95b2846250f640f3e914bc2bbe7701 = private unnamed_addr constant [7 x i8] c"--rustc", align 1
@alloc_a887f9858119cc7413062dc002c4d9ab = private unnamed_addr constant [9 x i8] c"--version", align 1
@alloc_c33e5af42b9b9e21f43a4fcb9c0ba190 = private unnamed_addr constant [27 x i8] c"Failed to get rustc version", align 1
@alloc_4dab0acc13c3809bd0058c5188be5d6f = private unnamed_addr constant <{ ptr, [16 x i8] }> <{ ptr @alloc_52455942f635c15dfc7082d483dfdeb4, [16 x i8] c"Z\00\00\00\00\00\00\00\C1\00\00\00\1F\00\00\00" }>, align 8
@alloc_24c6a125bbc985b61d58fd74e29f442b = private unnamed_addr constant [21 x i8] c"failed to run rustc: ", align 1
@alloc_eaaa6a8512dd326c4c1db6475452d7d6 = private unnamed_addr constant <{ ptr, [8 x i8] }> <{ ptr @alloc_24c6a125bbc985b61d58fd74e29f442b, [8 x i8] c"\15\00\00\00\00\00\00\00" }>, align 8
@alloc_25fabaa1939c4a56ea98ffbe8d7baf71 = private unnamed_addr constant <{ ptr, [16 x i8] }> <{ ptr @alloc_52455942f635c15dfc7082d483dfdeb4, [16 x i8] c"Z\00\00\00\00\00\00\00\C3\00\00\00\05\00\00\00" }>, align 8
@alloc_2848618747d5f5b989fc716426f82563 = private unnamed_addr constant <{ ptr, [8 x i8] }> <{ ptr @alloc_c33e5af42b9b9e21f43a4fcb9c0ba190, [8 x i8] c"\1B\00\00\00\00\00\00\00" }>, align 8
@alloc_d461cecc2e8426e8e429daa636d5f45b = private unnamed_addr constant <{ ptr, [16 x i8] }> <{ ptr @alloc_52455942f635c15dfc7082d483dfdeb4, [16 x i8] c"Z\00\00\00\00\00\00\00\DA\00\00\00\08\00\00\00" }>, align 8
@alloc_55e278c996565db65fe0fb6e7409cbbb = private unnamed_addr constant [6 x i8] c"clippy", align 1
@alloc_a66157e2319119986804caae1b60bf57 = private unnamed_addr constant <{ ptr, [16 x i8] }> <{ ptr @alloc_52455942f635c15dfc7082d483dfdeb4, [16 x i8] c"Z\00\00\00\00\00\00\00\DE\00\00\00\13\00\00\00" }>, align 8
@alloc_ca36d7e792bb4bbd1a68749f90007ce8 = private unnamed_addr constant [7 x i8] c"rustc 1", align 1
@alloc_99ffb679049157f8e234fe49e0609c15 = private unnamed_addr constant <{ ptr, [8 x i8] }> <{ ptr @alloc_ca36d7e792bb4bbd1a68749f90007ce8, [8 x i8] c"\07\00\00\00\00\00\00\00" }>, align 8
@alloc_335bcae3bfec2725b3f4e9b28b5dbc8e = private unnamed_addr constant <{ ptr, [16 x i8] }> <{ ptr @alloc_52455942f635c15dfc7082d483dfdeb4, [16 x i8] c"Z\00\00\00\00\00\00\00\EF\00\00\00\17\00\00\00" }>, align 8
@alloc_ec6b2810244466f4e289af2683cdcb6e = private unnamed_addr constant <{ ptr, [16 x i8] }> <{ ptr @alloc_52455942f635c15dfc7082d483dfdeb4, [16 x i8] c"Z\00\00\00\00\00\00\00\F3\00\00\00\17\00\00\00" }>, align 8
@alloc_29f40842bcdc552c82e0e8a30dce6972 = private unnamed_addr constant <{ ptr, [16 x i8] }> <{ ptr @alloc_52455942f635c15dfc7082d483dfdeb4, [16 x i8] c"Z\00\00\00\00\00\00\00\F3\00\00\00\11\00\00\00" }>, align 8
@alloc_0b7c7af09b9642a0ab94df2bde785bf1 = private unnamed_addr constant <{ ptr, [16 x i8] }> <{ ptr @alloc_52455942f635c15dfc7082d483dfdeb4, [16 x i8] c"Z\00\00\00\00\00\00\00\E2\00\00\00\05\00\00\00" }>, align 8
@alloc_12dcbe319bdb437b2d068742d0ee3321 = private unnamed_addr constant [3 x i8] c"dev", align 1
@alloc_22ec252afd5f5781ca8ee9b115d4a0d6 = private unnamed_addr constant [7 x i8] c"nightly", align 1
@alloc_742f06589122110502429e832b81e8bd = private unnamed_addr constant [32 x i8] c"cargo:rerun-if-changed=build.rs\0A", align 1
@alloc_fdac1ac0812313ab4c58def2ba9a1bba = private unnamed_addr constant <{ ptr, [8 x i8] }> <{ ptr @alloc_742f06589122110502429e832b81e8bd, [8 x i8] c" \00\00\00\00\00\00\00" }>, align 8
@alloc_509e3f14595a72dfc2af0a28f5824017 = private unnamed_addr constant [30 x i8] c"CARGO_FEATURE_RUSTC_DEP_OF_STD", align 1
@alloc_f73607afcba5e721c2712249402644b6 = private unnamed_addr constant [7 x i8] c"LIBC_CI", align 1
@alloc_1e1fc66c1706c6c7501acca2ae8010f4 = private unnamed_addr constant [20 x i8] c"CARGO_CFG_TARGET_ENV", align 1
@alloc_aa4687de82972c6f88dd4ebd068e3b63 = private unnamed_addr constant [19 x i8] c"CARGO_CFG_TARGET_OS", align 1
@alloc_6508c675143a2a16e0690055cd395724 = private unnamed_addr constant [30 x i8] c"CARGO_CFG_TARGET_POINTER_WIDTH", align 1
@alloc_0d3bcf6fb685f000bc18304ea76cbac4 = private unnamed_addr constant [21 x i8] c"CARGO_CFG_TARGET_ARCH", align 1
@alloc_b74b27f2b9f751849fcbc82dbd3a9d08 = private unnamed_addr constant [62 x i8] c"cargo:rerun-if-env-changed=RUST_LIBC_UNSTABLE_FREEBSD_VERSION\0A", align 1
@alloc_ae235dc40c5194048e5c6a461e5f636a = private unnamed_addr constant <{ ptr, [8 x i8] }> <{ ptr @alloc_b74b27f2b9f751849fcbc82dbd3a9d08, [8 x i8] c">\00\00\00\00\00\00\00" }>, align 8
@alloc_aaa658f8720b91022cfd120b3be84301 = private unnamed_addr constant [34 x i8] c"RUST_LIBC_UNSTABLE_FREEBSD_VERSION", align 1
@alloc_fe220fddf802791bb38c187922a73152 = private unnamed_addr constant <{ ptr, [16 x i8] }> <{ ptr @alloc_52455942f635c15dfc7082d483dfdeb4, [16 x i8] c"Z\00\00\00\00\00\00\00A\00\00\00$\00\00\00" }>, align 8
@alloc_bed01d763589fbbc9d4dedcfaf2df5e8 = private unnamed_addr constant [41 x i8] c"cargo:warning=setting FreeBSD version to ", align 1
@alloc_49a1e817e911805af64bbc7efb390101 = private unnamed_addr constant [1 x i8] c"\0A", align 1
@alloc_c4bae09779ac9aed94716fcb76996c27 = private unnamed_addr constant <{ ptr, [8 x i8], ptr, [8 x i8] }> <{ ptr @alloc_bed01d763589fbbc9d4dedcfaf2df5e8, [8 x i8] c")\00\00\00\00\00\00\00", ptr @alloc_49a1e817e911805af64bbc7efb390101, [8 x i8] c"\01\00\00\00\00\00\00\00" }>, align 8
@alloc_7267420313fdc34f79da1c04bfca7409 = private unnamed_addr constant [9 x i8] c"freebsd10", align 1
@alloc_5581ed16f5c58ecd3f36713b9b396029 = private unnamed_addr constant [9 x i8] c"freebsd11", align 1
@alloc_55f07188386ace482603892e4768112d = private unnamed_addr constant [9 x i8] c"freebsd12", align 1
@alloc_028f45a065ad7442c332be763445b925 = private unnamed_addr constant [9 x i8] c"freebsd13", align 1
@alloc_358590eecf303ad391259af81e368788 = private unnamed_addr constant [9 x i8] c"freebsd14", align 1
@alloc_c8539d7d8992b0450a5874fa781e9124 = private unnamed_addr constant [9 x i8] c"freebsd15", align 1
@alloc_ccedf80c3ce4e46e2ff8efee35ec798b = private unnamed_addr constant [23 x i8] c"emscripten_old_stat_abi", align 1
@alloc_154439d6e8351f7172ea58cb90d2dd09 = private unnamed_addr constant [30 x i8] c"RUST_LIBC_UNSTABLE_MUSL_V1_2_3", align 1
@alloc_64de700dc0d3712bf4f0fd23fc9b97f6 = private unnamed_addr constant [58 x i8] c"cargo:rerun-if-env-changed=RUST_LIBC_UNSTABLE_MUSL_V1_2_3\0A", align 1
@alloc_de032bcda44f9efaaa6149d836e94807 = private unnamed_addr constant <{ ptr, [8 x i8] }> <{ ptr @alloc_64de700dc0d3712bf4f0fd23fc9b97f6, [8 x i8] c":\00\00\00\00\00\00\00" }>, align 8
@alloc_be0c7e2eb8d81d67a6db9a856123bb7e = private unnamed_addr constant [11 x i8] c"loongarch64", align 1
@alloc_2e7bbecbcec02399e86576d60c771361 = private unnamed_addr constant <{ ptr, [8 x i8] }> <{ ptr @alloc_be0c7e2eb8d81d67a6db9a856123bb7e, [8 x i8] c"\0B\00\00\00\00\00\00\00" }>, align 8
@alloc_830cd488b6068638e05ed5b0c299b4af = private unnamed_addr constant [4 x i8] c"ohos", align 1
@alloc_2fc69c39833a4bd5454cc9c70a124b17 = private unnamed_addr constant <{ ptr, [8 x i8] }> <{ ptr @alloc_830cd488b6068638e05ed5b0c299b4af, [8 x i8] c"\04\00\00\00\00\00\00\00" }>, align 8
@alloc_513019cde2cbfb4427cb8f1afc437e08 = private unnamed_addr constant [11 x i8] c"musl_v1_2_3", align 1
@alloc_508b13eade4b92efdda744da70d08ff7 = private unnamed_addr constant [36 x i8] c"RUST_LIBC_UNSTABLE_LINUX_TIME_BITS64", align 1
@alloc_b745d31eb2902e488a48adfdc7a9757f = private unnamed_addr constant [64 x i8] c"cargo:rerun-if-env-changed=RUST_LIBC_UNSTABLE_LINUX_TIME_BITS64\0A", align 1
@alloc_323e8ab0e9acd916394341a473149dae = private unnamed_addr constant <{ ptr, [8 x i8] }> <{ ptr @alloc_b745d31eb2902e488a48adfdc7a9757f, [8 x i8] c"@\00\00\00\00\00\00\00" }>, align 8
@alloc_681b6f9e783332c8e0b8ad7b08df1498 = private unnamed_addr constant [17 x i8] c"linux_time_bits64", align 1
@alloc_e099490f9865495bf255e49aa607a840 = private unnamed_addr constant [67 x i8] c"cargo:rerun-if-env-changed=RUST_LIBC_UNSTABLE_GNU_FILE_OFFSET_BITS\0A", align 1
@alloc_3a3a03545a4e0af4f2b5dca77f9d3333 = private unnamed_addr constant <{ ptr, [8 x i8] }> <{ ptr @alloc_e099490f9865495bf255e49aa607a840, [8 x i8] c"C\00\00\00\00\00\00\00" }>, align 8
@alloc_3e0db014760956dcb5153ae64d55b081 = private unnamed_addr constant [60 x i8] c"cargo:rerun-if-env-changed=RUST_LIBC_UNSTABLE_GNU_TIME_BITS\0A", align 1
@alloc_2590e465fd8679325d8cc5472f9eb653 = private unnamed_addr constant <{ ptr, [8 x i8] }> <{ ptr @alloc_3e0db014760956dcb5153ae64d55b081, [8 x i8] c"<\00\00\00\00\00\00\00" }>, align 8
@alloc_772e61a39199df4134c467e272d2cf4b = private unnamed_addr constant [3 x i8] c"gnu", align 1
@alloc_c553423d1176b2f1ae75e882f9dbcffb = private unnamed_addr constant <{ ptr, [8 x i8] }> <{ ptr @alloc_772e61a39199df4134c467e272d2cf4b, [8 x i8] c"\03\00\00\00\00\00\00\00" }>, align 8
@alloc_70a1e7dc3879e83c39c209c1ae5f1722 = private unnamed_addr constant [5 x i8] c"linux", align 1
@alloc_598b9846894745729b1c526f09869566 = private unnamed_addr constant <{ ptr, [8 x i8] }> <{ ptr @alloc_70a1e7dc3879e83c39c209c1ae5f1722, [8 x i8] c"\05\00\00\00\00\00\00\00" }>, align 8
@alloc_8e020aace2b3cf2c6b8375c8868270b7 = private unnamed_addr constant [2 x i8] c"32", align 1
@alloc_bcc69fbd0a6d2ba0f3134856b57b2f75 = private unnamed_addr constant <{ ptr, [8 x i8] }> <{ ptr @alloc_8e020aace2b3cf2c6b8375c8868270b7, [8 x i8] c"\02\00\00\00\00\00\00\00" }>, align 8
@alloc_22a6d0e24a3ac3ed7016f4ca447b0cea = private unnamed_addr constant [7 x i8] c"riscv32", align 1
@alloc_b8b0095006d4bfb8a0793b9f484fbe6e = private unnamed_addr constant <{ ptr, [8 x i8] }> <{ ptr @alloc_22a6d0e24a3ac3ed7016f4ca447b0cea, [8 x i8] c"\07\00\00\00\00\00\00\00" }>, align 8
@alloc_4a29a4faa0904cd7ff982831f2813e90 = private unnamed_addr constant [6 x i8] c"x86_64", align 1
@alloc_c152a840973ba04895d1feffaffa964c = private unnamed_addr constant <{ ptr, [8 x i8] }> <{ ptr @alloc_4a29a4faa0904cd7ff982831f2813e90, [8 x i8] c"\06\00\00\00\00\00\00\00" }>, align 8
@alloc_a81a2677393ac2707db2f683d48ac6b7 = private unnamed_addr constant [32 x i8] c"RUST_LIBC_UNSTABLE_GNU_TIME_BITS", align 1
@alloc_9329be348e7e4f3c8cc453f36256cbfd = private unnamed_addr constant [39 x i8] c"RUST_LIBC_UNSTABLE_GNU_FILE_OFFSET_BITS", align 1
@alloc_14fc90d5f706773754d40e4dccd34450 = private unnamed_addr constant [92 x i8] c"Do not set both RUST_LIBC_UNSTABLE_GNU_TIME_BITS and RUST_LIBC_UNSTABLE_GNU_FILE_OFFSET_BITS", align 1
@alloc_1e5d5e1506a6d0672f1b7c2d26c988da = private unnamed_addr constant <{ ptr, [8 x i8] }> <{ ptr @alloc_14fc90d5f706773754d40e4dccd34450, [8 x i8] c"\\\00\00\00\00\00\00\00" }>, align 8
@alloc_45da099cbd03f68de47e4007758fde25 = private unnamed_addr constant <{ ptr, [16 x i8] }> <{ ptr @alloc_52455942f635c15dfc7082d483dfdeb4, [16 x i8] c"Z\00\00\00\00\00\00\00s\00\00\00\1F\00\00\00" }>, align 8
@alloc_8092ccd99cb94b0213fd5864ca7ee6ea = private unnamed_addr constant [2 x i8] c"64", align 1
@alloc_c41425a8a17a4e6719c34e05978ea17c = private unnamed_addr constant <{ ptr, [8 x i8] }> <{ ptr @alloc_8092ccd99cb94b0213fd5864ca7ee6ea, [8 x i8] c"\02\00\00\00\00\00\00\00" }>, align 8
@alloc_4a184034f37022296f6ca89b4adb3768 = private unnamed_addr constant [68 x i8] c"Invalid value for RUST_LIBC_UNSTABLE_GNU_TIME_BITS, must be 32 or 64", align 1
@alloc_7b93f54da8b469491d82f6de1015c303 = private unnamed_addr constant <{ ptr, [8 x i8] }> <{ ptr @alloc_4a184034f37022296f6ca89b4adb3768, [8 x i8] c"D\00\00\00\00\00\00\00" }>, align 8
@alloc_7468bdcbac5c19804444edd63e87f464 = private unnamed_addr constant <{ ptr, [16 x i8] }> <{ ptr @alloc_52455942f635c15dfc7082d483dfdeb4, [16 x i8] c"Z\00\00\00\00\00\00\00w\00\00\00 \00\00\00" }>, align 8
@alloc_003e4cf3b9a525842e7d31687b18dba7 = private unnamed_addr constant <{ ptr, [16 x i8] }> <{ ptr @alloc_52455942f635c15dfc7082d483dfdeb4, [16 x i8] c"Z\00\00\00\00\00\00\00v\00\00\00@\00\00\00" }>, align 8
@alloc_8b86f5f151cac6306c671e1a6908f56e = private unnamed_addr constant <{ ptr, [16 x i8] }> <{ ptr @alloc_52455942f635c15dfc7082d483dfdeb4, [16 x i8] c"Z\00\00\00\00\00\00\00u\00\00\003\00\00\00" }>, align 8
@alloc_9f7eb06ad73ebd21470a6186455b2481 = private unnamed_addr constant <{ ptr, [16 x i8] }> <{ ptr @alloc_52455942f635c15dfc7082d483dfdeb4, [16 x i8] c"Z\00\00\00\00\00\00\00u\00\00\00?\00\00\00" }>, align 8
@alloc_12b500c16d6393901618de0cf55c3e6c = private unnamed_addr constant [75 x i8] c"Invalid value for RUST_LIBC_UNSTABLE_GNU_FILE_OFFSET_BITS, must be 32 or 64", align 1
@alloc_6b16290e2565871cbf38ff7bf04d9093 = private unnamed_addr constant <{ ptr, [8 x i8] }> <{ ptr @alloc_12b500c16d6393901618de0cf55c3e6c, [8 x i8] c"K\00\00\00\00\00\00\00" }>, align 8
@alloc_8b67a6ac99d1b6fcfecf2db9a8496cf0 = private unnamed_addr constant <{ ptr, [16 x i8] }> <{ ptr @alloc_52455942f635c15dfc7082d483dfdeb4, [16 x i8] c"Z\00\00\00\00\00\00\00y\00\00\00 \00\00\00" }>, align 8
@alloc_40bfc005ea55345507f18576e272e94b = private unnamed_addr constant <{ ptr, [16 x i8] }> <{ ptr @alloc_52455942f635c15dfc7082d483dfdeb4, [16 x i8] c"Z\00\00\00\00\00\00\00x\00\00\00J\00\00\00" }>, align 8
@alloc_818663dfdfaf30abed970cb3185c030c = private unnamed_addr constant <{ ptr, [16 x i8] }> <{ ptr @alloc_52455942f635c15dfc7082d483dfdeb4, [16 x i8] c"Z\00\00\00\00\00\00\00t\00\00\00.\00\00\00" }>, align 8
@alloc_459cac7f5347bbbed10afbc336ba5b63 = private unnamed_addr constant <{ ptr, [16 x i8] }> <{ ptr @alloc_52455942f635c15dfc7082d483dfdeb4, [16 x i8] c"Z\00\00\00\00\00\00\00t\00\00\00C\00\00\00" }>, align 8
@alloc_5b38d234a72f2da1e93ed696dcb5b073 = private unnamed_addr constant [118 x i8] c"Invalid value for RUST_LIBC_UNSTABLE_GNU_TIME_BITS or RUST_LIBC_UNSTABLE_GNU_FILE_OFFSET_BITS, must be 32, 64 or unset", align 1
@alloc_a161d45c51e3a2ce1cd462f9c39c0b41 = private unnamed_addr constant <{ ptr, [8 x i8] }> <{ ptr @alloc_5b38d234a72f2da1e93ed696dcb5b073, [8 x i8] c"v\00\00\00\00\00\00\00" }>, align 8
@alloc_7c901819c1d8faff1ff384326ea8c5f4 = private unnamed_addr constant <{ ptr, [16 x i8] }> <{ ptr @alloc_52455942f635c15dfc7082d483dfdeb4, [16 x i8] c"Z\00\00\00\00\00\00\00|\00\00\00\09\00\00\00" }>, align 8
@alloc_a4772b3acfc19af28fefe691db64c6aa = private unnamed_addr constant [15 x i8] c"gnu_time_bits64", align 1
@alloc_4052f5f320831d7a280bd8ee23d7c161 = private unnamed_addr constant [22 x i8] c"gnu_file_offset_bits64", align 1
@alloc_e051788150efb5e0f212c696366647c3 = private unnamed_addr constant [18 x i8] c"libc_deny_warnings", align 1
@alloc_e300d0c2c56fc656630ece49b293f3f6 = private unnamed_addr constant [17 x i8] c"libc_thread_local", align 1
@alloc_c1dd1d9f50ed06e24759135ae11c1cd7 = private unnamed_addr constant [13 x i8] c"espidf_time32", align 1
@alloc_0932325d29f8c848cece173911e7c4a6 = private unnamed_addr constant <{ ptr, [8 x i8], ptr, [8 x i8], ptr, [8 x i8], ptr, [8 x i8], ptr, [8 x i8], ptr, [8 x i8], ptr, [8 x i8], ptr, [8 x i8], ptr, [8 x i8], ptr, [8 x i8], ptr, [8 x i8], ptr, [8 x i8], ptr, [8 x i8], ptr, [8 x i8] }> <{ ptr @alloc_ccedf80c3ce4e46e2ff8efee35ec798b, [8 x i8] c"\17\00\00\00\00\00\00\00", ptr @alloc_c1dd1d9f50ed06e24759135ae11c1cd7, [8 x i8] c"\0D\00\00\00\00\00\00\00", ptr @alloc_7267420313fdc34f79da1c04bfca7409, [8 x i8] c"\09\00\00\00\00\00\00\00", ptr @alloc_5581ed16f5c58ecd3f36713b9b396029, [8 x i8] c"\09\00\00\00\00\00\00\00", ptr @alloc_55f07188386ace482603892e4768112d, [8 x i8] c"\09\00\00\00\00\00\00\00", ptr @alloc_028f45a065ad7442c332be763445b925, [8 x i8] c"\09\00\00\00\00\00\00\00", ptr @alloc_358590eecf303ad391259af81e368788, [8 x i8] c"\09\00\00\00\00\00\00\00", ptr @alloc_c8539d7d8992b0450a5874fa781e9124, [8 x i8] c"\09\00\00\00\00\00\00\00", ptr @alloc_4052f5f320831d7a280bd8ee23d7c161, [8 x i8] c"\16\00\00\00\00\00\00\00", ptr @alloc_a4772b3acfc19af28fefe691db64c6aa, [8 x i8] c"\0F\00\00\00\00\00\00\00", ptr @alloc_e051788150efb5e0f212c696366647c3, [8 x i8] c"\12\00\00\00\00\00\00\00", ptr @alloc_e300d0c2c56fc656630ece49b293f3f6, [8 x i8] c"\11\00\00\00\00\00\00\00", ptr @alloc_681b6f9e783332c8e0b8ad7b08df1498, [8 x i8] c"\11\00\00\00\00\00\00\00", ptr @alloc_513019cde2cbfb4427cb8f1afc437e08, [8 x i8] c"\0B\00\00\00\00\00\00\00" }>, align 8
@alloc_2cddc5e59ad0ce52fa6a12317b7d9940 = private unnamed_addr constant [9 x i8] c"target_os", align 1
@alloc_06bdffecd12566b07b46a1d9c671b787 = private unnamed_addr constant [6 x i8] c"switch", align 1
@alloc_56682c411a884305a0498f0904259ddf = private unnamed_addr constant [3 x i8] c"aix", align 1
@alloc_45bb0232104d815c4dda9598abc92521 = private unnamed_addr constant [4 x i8] c"hurd", align 1
@alloc_7d89cad1193e3093f83db65de654886c = private unnamed_addr constant [5 x i8] c"rtems", align 1
@alloc_c681dba5e39d19fa023e5cc12642d541 = private unnamed_addr constant [8 x i8] c"visionos", align 1
@alloc_83b5f38e8216cdcf7d09bbba859e9e33 = private unnamed_addr constant [5 x i8] c"nuttx", align 1
@alloc_8556a45425763a509e2688076730be6f = private unnamed_addr constant [6 x i8] c"cygwin", align 1
@alloc_227cd49c7c33a6f341699cff0c19de8b = private unnamed_addr constant <{ ptr, [8 x i8], ptr, [8 x i8], ptr, [8 x i8], ptr, [8 x i8], ptr, [8 x i8], ptr, [8 x i8], ptr, [8 x i8], ptr, [8 x i8] }> <{ ptr @alloc_06bdffecd12566b07b46a1d9c671b787, [8 x i8] c"\06\00\00\00\00\00\00\00", ptr @alloc_56682c411a884305a0498f0904259ddf, [8 x i8] c"\03\00\00\00\00\00\00\00", ptr @alloc_830cd488b6068638e05ed5b0c299b4af, [8 x i8] c"\04\00\00\00\00\00\00\00", ptr @alloc_45bb0232104d815c4dda9598abc92521, [8 x i8] c"\04\00\00\00\00\00\00\00", ptr @alloc_7d89cad1193e3093f83db65de654886c, [8 x i8] c"\05\00\00\00\00\00\00\00", ptr @alloc_c681dba5e39d19fa023e5cc12642d541, [8 x i8] c"\08\00\00\00\00\00\00\00", ptr @alloc_83b5f38e8216cdcf7d09bbba859e9e33, [8 x i8] c"\05\00\00\00\00\00\00\00", ptr @alloc_8556a45425763a509e2688076730be6f, [8 x i8] c"\06\00\00\00\00\00\00\00" }>, align 8
@alloc_df599e29b3820982aef0645887d35e8c = private unnamed_addr constant [10 x i8] c"target_env", align 1
@alloc_369c643820514fbe33fb426e73a3da06 = private unnamed_addr constant [7 x i8] c"illumos", align 1
@alloc_7e4f24954a4fa587ee17e75c042a2c6a = private unnamed_addr constant [4 x i8] c"wasi", align 1
@alloc_9ece1e428f15509c5755d645816c31a7 = private unnamed_addr constant [12 x i8] c"nto71_iosock", align 1
@alloc_47a2c3621a8fa9e428c3400e4faf2bb1 = private unnamed_addr constant [5 x i8] c"nto80", align 1
@alloc_50543c6fc28a9aa73f9310524f136113 = private unnamed_addr constant <{ ptr, [8 x i8], ptr, [8 x i8], ptr, [8 x i8], ptr, [8 x i8], ptr, [8 x i8], ptr, [8 x i8] }> <{ ptr @alloc_369c643820514fbe33fb426e73a3da06, [8 x i8] c"\07\00\00\00\00\00\00\00", ptr @alloc_7e4f24954a4fa587ee17e75c042a2c6a, [8 x i8] c"\04\00\00\00\00\00\00\00", ptr @alloc_56682c411a884305a0498f0904259ddf, [8 x i8] c"\03\00\00\00\00\00\00\00", ptr @alloc_830cd488b6068638e05ed5b0c299b4af, [8 x i8] c"\04\00\00\00\00\00\00\00", ptr @alloc_9ece1e428f15509c5755d645816c31a7, [8 x i8] c"\0C\00\00\00\00\00\00\00", ptr @alloc_47a2c3621a8fa9e428c3400e4faf2bb1, [8 x i8] c"\05\00\00\00\00\00\00\00" }>, align 8
@alloc_9259c4107c8646157225831547e51707 = private unnamed_addr constant [11 x i8] c"target_arch", align 1
@alloc_cbb73a85e2ed78c1dc2a615b03408878 = private unnamed_addr constant [8 x i8] c"mips32r6", align 1
@alloc_1cb3d6a6216aeea0aa93cb8b80a5f107 = private unnamed_addr constant [8 x i8] c"mips64r6", align 1
@alloc_a5dc2de5b3efc052edbd4e83ca0843da = private unnamed_addr constant [4 x i8] c"csky", align 1
@alloc_8ae71c71763656cbeae0e33c1cd3df64 = private unnamed_addr constant <{ ptr, [8 x i8], ptr, [8 x i8], ptr, [8 x i8], ptr, [8 x i8] }> <{ ptr @alloc_be0c7e2eb8d81d67a6db9a856123bb7e, [8 x i8] c"\0B\00\00\00\00\00\00\00", ptr @alloc_cbb73a85e2ed78c1dc2a615b03408878, [8 x i8] c"\08\00\00\00\00\00\00\00", ptr @alloc_1cb3d6a6216aeea0aa93cb8b80a5f107, [8 x i8] c"\08\00\00\00\00\00\00\00", ptr @alloc_a5dc2de5b3efc052edbd4e83ca0843da, [8 x i8] c"\04\00\00\00\00\00\00\00" }>, align 8
@alloc_2bd9fa038d7fb2af8467fdc2c22fe0ae = private unnamed_addr constant <{ ptr, [8 x i8], ptr, [8 x i8], ptr, [8 x i8], ptr, [8 x i8], ptr, [8 x i8], ptr, [8 x i8] }> <{ ptr @alloc_2cddc5e59ad0ce52fa6a12317b7d9940, [8 x i8] c"\09\00\00\00\00\00\00\00", ptr @alloc_227cd49c7c33a6f341699cff0c19de8b, [8 x i8] c"\08\00\00\00\00\00\00\00", ptr @alloc_df599e29b3820982aef0645887d35e8c, [8 x i8] c"\0A\00\00\00\00\00\00\00", ptr @alloc_50543c6fc28a9aa73f9310524f136113, [8 x i8] c"\06\00\00\00\00\00\00\00", ptr @alloc_9259c4107c8646157225831547e51707, [8 x i8] c"\0B\00\00\00\00\00\00\00", ptr @alloc_8ae71c71763656cbeae0e33c1cd3df64, [8 x i8] c"\04\00\00\00\00\00\00\00" }>, align 8
@alloc_4e81f3446308e52f5d03e9e4175413e4 = private unnamed_addr constant [3 x i8] c"\22,\22", align 1
@alloc_6451cabe30bf8eceba038f6f3ea6a713 = private unnamed_addr constant [29 x i8] c"cargo:rustc-check-cfg=values(", align 1
@alloc_2553ec131219601dd6ca857cf7016140 = private unnamed_addr constant [2 x i8] c",\22", align 1
@alloc_28d3976663191d6e04f2b014bc4061fd = private unnamed_addr constant [3 x i8] c"\22)\0A", align 1
@alloc_bb617a68bfda9dda54c7fe72f747350a = private unnamed_addr constant <{ ptr, [8 x i8], ptr, [8 x i8], ptr, [8 x i8] }> <{ ptr @alloc_6451cabe30bf8eceba038f6f3ea6a713, [8 x i8] c"\1D\00\00\00\00\00\00\00", ptr @alloc_2553ec131219601dd6ca857cf7016140, [8 x i8] c"\02\00\00\00\00\00\00\00", ptr @alloc_28d3976663191d6e04f2b014bc4061fd, [8 x i8] c"\03\00\00\00\00\00\00\00" }>, align 8
@alloc_8e4d7f79330c448f2977292b49677168 = private unnamed_addr constant [26 x i8] c"cargo:rustc-check-cfg=cfg(", align 1
@alloc_b34d42ef5bf9b2651fd979e82ea23cba = private unnamed_addr constant [9 x i8] c",values(\22", align 1
@alloc_cb920443507f8a0fdca067277c47c9cb = private unnamed_addr constant [4 x i8] c"\22))\0A", align 1
@alloc_40bbb4396fb931d9076addb4077b3601 = private unnamed_addr constant <{ ptr, [8 x i8], ptr, [8 x i8], ptr, [8 x i8] }> <{ ptr @alloc_8e4d7f79330c448f2977292b49677168, [8 x i8] c"\1A\00\00\00\00\00\00\00", ptr @alloc_b34d42ef5bf9b2651fd979e82ea23cba, [8 x i8] c"\09\00\00\00\00\00\00\00", ptr @alloc_cb920443507f8a0fdca067277c47c9cb, [8 x i8] c"\04\00\00\00\00\00\00\00" }>, align 8
@alloc_cba169e49d2f6a8c1ea9f5f92c42ec6b = private unnamed_addr constant [2 x i8] c")\0A", align 1
@alloc_60496b59d373627270e6e460b30eb112 = private unnamed_addr constant <{ ptr, [8 x i8], ptr, [8 x i8] }> <{ ptr @alloc_6451cabe30bf8eceba038f6f3ea6a713, [8 x i8] c"\1D\00\00\00\00\00\00\00", ptr @alloc_cba169e49d2f6a8c1ea9f5f92c42ec6b, [8 x i8] c"\02\00\00\00\00\00\00\00" }>, align 8
@alloc_c84ff4946beb4789c6b0b1a7a2a9e8e2 = private unnamed_addr constant <{ ptr, [8 x i8], ptr, [8 x i8] }> <{ ptr @alloc_8e4d7f79330c448f2977292b49677168, [8 x i8] c"\1A\00\00\00\00\00\00\00", ptr @alloc_cba169e49d2f6a8c1ea9f5f92c42ec6b, [8 x i8] c"\02\00\00\00\00\00\00\00" }>, align 8
@alloc_c8a65b5fe9f8c8ff66f0add8177e4932 = private unnamed_addr constant [101 x i8] c"RUST_LIBC_UNSTABLE_GNU_FILE_OFFSET_BITS must be 64 or unset if RUST_LIBC_UNSTABLE_GNU_TIME_BITS is 64", align 1
@alloc_fa7fecbd723b8fdb764adcf4e5184e80 = private unnamed_addr constant <{ ptr, [8 x i8] }> <{ ptr @alloc_c8a65b5fe9f8c8ff66f0add8177e4932, [8 x i8] c"e\00\00\00\00\00\00\00" }>, align 8
@alloc_311b976fb5d24a0a0f713b9b41a85bdb = private unnamed_addr constant <{ ptr, [16 x i8] }> <{ ptr @alloc_52455942f635c15dfc7082d483dfdeb4, [16 x i8] c"Z\00\00\00\00\00\00\00\80\00\00\00\09\00\00\00" }>, align 8
@alloc_c63b2e5039c7d990f01e55018d57af8b = private unnamed_addr constant [38 x i8] c"FreeBSD older than 10 is not supported", align 1
@alloc_68b6386ed3fe5f2ebb3af46f7e41ef22 = private unnamed_addr constant <{ ptr, [8 x i8] }> <{ ptr @alloc_c63b2e5039c7d990f01e55018d57af8b, [8 x i8] c"&\00\00\00\00\00\00\00" }>, align 8
@alloc_3d7e4e4dcba1e346fc2023d7740b9453 = private unnamed_addr constant <{ ptr, [16 x i8] }> <{ ptr @alloc_52455942f635c15dfc7082d483dfdeb4, [16 x i8] c"Z\00\00\00\00\00\00\00K\00\00\00\18\00\00\00" }>, align 8
@alloc_a99599e6e9267619b8f74409350a9da3 = private unnamed_addr constant [18 x i8] c"trying to set cfg ", align 1
@alloc_4eb59c0c17baa4801b5eddd4ef47a15e = private unnamed_addr constant [31 x i8] c", but it is not in ALLOWED_CFGS", align 1
@alloc_f8739e434036f40081f788f546d596d3 = private unnamed_addr constant <{ ptr, [8 x i8], ptr, [8 x i8] }> <{ ptr @alloc_a99599e6e9267619b8f74409350a9da3, [8 x i8] c"\12\00\00\00\00\00\00\00", ptr @alloc_4eb59c0c17baa4801b5eddd4ef47a15e, [8 x i8] c"\1F\00\00\00\00\00\00\00" }>, align 8
@alloc_91447c560ea996fe742d129ee14b2f70 = private unnamed_addr constant <{ ptr, [16 x i8] }> <{ ptr @alloc_52455942f635c15dfc7082d483dfdeb4, [16 x i8] c"Z\00\00\00\00\00\00\00%\01\00\00\05\00\00\00" }>, align 8
@alloc_6d37a15ac7cea7e8070c0a492e97fefb = private unnamed_addr constant [16 x i8] c"cargo:rustc-cfg=", align 1
@alloc_5a79a85d1ca76a39f0002eef087ba57f = private unnamed_addr constant <{ ptr, [8 x i8], ptr, [8 x i8] }> <{ ptr @alloc_6d37a15ac7cea7e8070c0a492e97fefb, [8 x i8] c"\10\00\00\00\00\00\00\00", ptr @alloc_49a1e817e911805af64bbc7efb390101, [8 x i8] c"\01\00\00\00\00\00\00\00" }>, align 8
@alloc_902d0502498a7867f18a1b093eb45298 = private unnamed_addr constant [91 x i8] c"/rustc/ed61e7d7e242494fb7057f2657300d9e77bb4fcb/library/std/src/io/error/repr_bitpacked.rs\00", align 1
@alloc_c46812334728ce009f8cea92fbb7a3bb = private unnamed_addr constant <{ ptr, [16 x i8] }> <{ ptr @alloc_902d0502498a7867f18a1b093eb45298, [16 x i8] c"Z\00\00\00\00\00\00\00\11\01\00\00\1A\00\00\00" }>, align 8
@alloc_a500d906b91607583596fa15e63c2ada = private unnamed_addr constant [40 x i8] c"internal error: entered unreachable code", align 1
@alloc_df38229897fa3f90ed81b968e38fcae7 = private unnamed_addr constant <{ ptr, [16 x i8] }> <{ ptr @alloc_902d0502498a7867f18a1b093eb45298, [16 x i8] c"Z\00\00\00\00\00\00\00\22\01\00\00\0D\00\00\00" }>, align 8
@vtable.0 = private unnamed_addr constant <{ [24 x i8], ptr, ptr, ptr }> <{ [24 x i8] c"\00\00\00\00\00\00\00\00\08\00\00\00\00\00\00\00\08\00\00\00\00\00\00\00", ptr @"_ZN4core3ops8function6FnOnce40call_once$u7b$$u7b$vtable.shim$u7d$$u7d$17ha97ee585b7598d4bE", ptr @"_ZN3std2rt10lang_start28_$u7b$$u7b$closure$u7d$$u7d$17he1ae4005f14d8178E", ptr @"_ZN3std2rt10lang_start28_$u7b$$u7b$closure$u7d$$u7d$17he1ae4005f14d8178E" }>, align 8
@alloc_ae6dc619079e3c3b08144a35532ecff7 = private unnamed_addr constant [2 x i8] c"()", align 1
@alloc_e237299e4bb43e9cd7106e57333349ad = private unnamed_addr constant [76 x i8] c"/rustc/ed61e7d7e242494fb7057f2657300d9e77bb4fcb/library/core/src/num/mod.rs\00", align 1
@alloc_75ed0a1913404846148a1d20155f0342 = private unnamed_addr constant <{ ptr, [16 x i8] }> <{ ptr @alloc_e237299e4bb43e9cd7106e57333349ad, [16 x i8] c"K\00\00\00\00\00\00\00v\06\00\00\01\00\00\00" }>, align 8
@alloc_ce0610c284ab9716c052bc29463b18fc = private unnamed_addr constant <{ ptr, [16 x i8] }> <{ ptr @alloc_e237299e4bb43e9cd7106e57333349ad, [16 x i8] c"K\00\00\00\00\00\00\00w\06\00\00\01\00\00\00" }>, align 8
@alloc_dd79dfae92e8fdc23813c4c7a1b7cf72 = private unnamed_addr constant [228 x i8] c"unsafe precondition(s) violated: ptr::write_bytes requires that the destination pointer is aligned and non-null\0A\0AThis indicates a bug in the program. This Undefined Behavior check is optional, and cannot be relied on for safety.", align 1
@alloc_fad0cd83b7d1858a846a172eb260e593 = private unnamed_addr constant [42 x i8] c"is_aligned_to: align is not a power-of-two", align 1
@alloc_e92e94d0ff530782b571cfd99ec66aef = private unnamed_addr constant <{ ptr, [8 x i8] }> <{ ptr @alloc_fad0cd83b7d1858a846a172eb260e593, [8 x i8] c"*\00\00\00\00\00\00\00" }>, align 8
@alloc_903e9c430036971d21747e34da9984f0 = private unnamed_addr constant [82 x i8] c"/rustc/ed61e7d7e242494fb7057f2657300d9e77bb4fcb/library/core/src/ptr/const_ptr.rs\00", align 1
@alloc_db58294b8d2ce64ae31d5b63c946c529 = private unnamed_addr constant <{ ptr, [16 x i8] }> <{ ptr @alloc_903e9c430036971d21747e34da9984f0, [16 x i8] c"Q\00\00\00\00\00\00\00^\05\00\00\0D\00\00\00" }>, align 8
@alloc_560a59ed819b9d9a5841f6e731c4c8e5 = private unnamed_addr constant [210 x i8] c"unsafe precondition(s) violated: NonNull::new_unchecked requires that the pointer is non-null\0A\0AThis indicates a bug in the program. This Undefined Behavior check is optional, and cannot be relied on for safety.", align 1
@alloc_ec595fc0e82ef92fc59bd74f68296eae = private unnamed_addr constant [73 x i8] c"assertion failed: 0 < pointee_size && pointee_size <= isize::MAX as usize", align 1
@alloc_9c482f2f4ee4370f43752c111033314e = private unnamed_addr constant [81 x i8] c"/rustc/ed61e7d7e242494fb7057f2657300d9e77bb4fcb/library/core/src/ptr/non_null.rs\00", align 1
@alloc_f8be598209e2f834cf2d2b9cc4a8e7e5 = private unnamed_addr constant <{ ptr, [16 x i8] }> <{ ptr @alloc_9c482f2f4ee4370f43752c111033314e, [16 x i8] c"P\00\00\00\00\00\00\00\B9\03\00\00 \00\00\00" }>, align 8
@alloc_d11c91003c30fc64cdedefcfd2d1727f = private unnamed_addr constant [84 x i8] c"/rustc/ed61e7d7e242494fb7057f2657300d9e77bb4fcb/library/core/src/str/validations.rs\00", align 1
@alloc_529b6025d83b9ebb0e57fdfa1395d046 = private unnamed_addr constant <{ ptr, [16 x i8] }> <{ ptr @alloc_d11c91003c30fc64cdedefcfd2d1727f, [16 x i8] c"S\00\00\00\00\00\00\000\00\00\00$\00\00\00" }>, align 8
@alloc_7f873a0e7c47e0ef63cb2a1c0771ddcd = private unnamed_addr constant <{ ptr, [16 x i8] }> <{ ptr @alloc_d11c91003c30fc64cdedefcfd2d1727f, [16 x i8] c"S\00\00\00\00\00\00\007\00\00\00(\00\00\00" }>, align 8
@alloc_5b1ece176c586484ef2b256193cf7173 = private unnamed_addr constant <{ ptr, [16 x i8] }> <{ ptr @alloc_d11c91003c30fc64cdedefcfd2d1727f, [16 x i8] c"S\00\00\00\00\00\00\00?\00\00\00,\00\00\00" }>, align 8
@alloc_d35d46144934c9827c8be2c636a8f370 = private unnamed_addr constant <{ ptr, [16 x i8] }> <{ ptr @alloc_d11c91003c30fc64cdedefcfd2d1727f, [16 x i8] c"S\00\00\00\00\00\00\00]\00\00\00)\00\00\00" }>, align 8
@alloc_665d5d661668e66e88a8de838b13b717 = private unnamed_addr constant <{ ptr, [16 x i8] }> <{ ptr @alloc_d11c91003c30fc64cdedefcfd2d1727f, [16 x i8] c"S\00\00\00\00\00\00\00b\00\00\00-\00\00\00" }>, align 8
@alloc_5ed187e3efe0ef0d2eaa93b916f4b9e6 = private unnamed_addr constant <{ ptr, [16 x i8] }> <{ ptr @alloc_d11c91003c30fc64cdedefcfd2d1727f, [16 x i8] c"S\00\00\00\00\00\00\00g\00\00\001\00\00\00" }>, align 8
@alloc_5812f59b5ea3b3def17ff43dfa536d82 = private unnamed_addr constant [81 x i8] c"/rustc/ed61e7d7e242494fb7057f2657300d9e77bb4fcb/library/core/src/char/methods.rs\00", align 1
@alloc_6736a29328e21c02de81e0f0189c02bf = private unnamed_addr constant <{ ptr, [16 x i8] }> <{ ptr @alloc_5812f59b5ea3b3def17ff43dfa536d82, [16 x i8] c"P\00\00\00\00\00\00\00T\07\00\00\09\00\00\00" }>, align 8
@alloc_78b6a49e36fe808e0ef950c2feb9fafc = private unnamed_addr constant [71 x i8] c"to_digit: invalid radix -- radix must be in the range 2 to 36 inclusive", align 1
@alloc_708eb9f2492b697e0d761b647be5d46c = private unnamed_addr constant <{ ptr, [8 x i8] }> <{ ptr @alloc_78b6a49e36fe808e0ef950c2feb9fafc, [8 x i8] c"G\00\00\00\00\00\00\00" }>, align 8
@alloc_8d0c494df655f9d67b952dcf71fa636b = private unnamed_addr constant <{ ptr, [16 x i8] }> <{ ptr @alloc_5812f59b5ea3b3def17ff43dfa536d82, [16 x i8] c"P\00\00\00\00\00\00\00\93\01\00\00\09\00\00\00" }>, align 8
@alloc_75fb06c2453febd814e73f5f2e72ae38 = private unnamed_addr constant [199 x i8] c"unsafe precondition(s) violated: hint::unreachable_unchecked must never be reached\0A\0AThis indicates a bug in the program. This Undefined Behavior check is optional, and cannot be relied on for safety.", align 1
@alloc_1be5ea12ba708d9a11b6e93a7d387a75 = private unnamed_addr constant [281 x i8] c"unsafe precondition(s) violated: Layout::from_size_align_unchecked requires that align is a power of 2 and the rounded-up allocation size does not exceed isize::MAX\0A\0AThis indicates a bug in the program. This Undefined Behavior check is optional, and cannot be relied on for safety.", align 1
@alloc_0acc99ed7acd97f9883bf55d79fc5c36 = private unnamed_addr constant [78 x i8] c"/rustc/ed61e7d7e242494fb7057f2657300d9e77bb4fcb/library/core/src/slice/mod.rs\00", align 1
@alloc_23d5711918cfc51e85335d704f33ed74 = private unnamed_addr constant <{ ptr, [16 x i8] }> <{ ptr @alloc_0acc99ed7acd97f9883bf55d79fc5c36, [16 x i8] c"M\00\00\00\00\00\00\00:\0A\00\00+\00\00\00" }>, align 8
@alloc_a6e8913658d98d0dbd0444b57ddfd811 = private unnamed_addr constant [27 x i8] c"chunk size must be non-zero", align 1
@alloc_2cdbb89777c912da09e05e08ed401368 = private unnamed_addr constant <{ ptr, [8 x i8] }> <{ ptr @alloc_a6e8913658d98d0dbd0444b57ddfd811, [8 x i8] c"\1B\00\00\00\00\00\00\00" }>, align 8
@alloc_dae296fac431ff5a15ce24bf627d1494 = private unnamed_addr constant [79 x i8] c"/rustc/ed61e7d7e242494fb7057f2657300d9e77bb4fcb/library/core/src/slice/iter.rs\00", align 1
@alloc_f1d9428fe4a168bd4e02a3ac5a470ada = private unnamed_addr constant <{ ptr, [16 x i8] }> <{ ptr @alloc_dae296fac431ff5a15ce24bf627d1494, [16 x i8] c"N\00\00\00\00\00\00\00K\07\00\00\13\00\00\00" }>, align 8
@alloc_e5f853092f06813853f39dc22287dc14 = private unnamed_addr constant <{ ptr, [16 x i8] }> <{ ptr @alloc_dae296fac431ff5a15ce24bf627d1494, [16 x i8] c"N\00\00\00\00\00\00\00N\07\00\00)\00\00\00" }>, align 8
@alloc_2a4e51eb45533e1138f63e9e1640584b = private unnamed_addr constant [78 x i8] c"/rustc/ed61e7d7e242494fb7057f2657300d9e77bb4fcb/library/core/src/ub_checks.rs\00", align 1
@alloc_f43627efe9d9e10b7544d0f2c13bff14 = private unnamed_addr constant <{ ptr, [16 x i8] }> <{ ptr @alloc_2a4e51eb45533e1138f63e9e1640584b, [16 x i8] c"M\00\00\00\00\00\00\00\94\00\00\006\00\00\00" }>, align 8
@alloc_a28e8c8fd5088943a8b5d44af697ff83 = private unnamed_addr constant [279 x i8] c"unsafe precondition(s) violated: slice::from_raw_parts requires the pointer to be aligned and non-null, and the total size of the slice not to exceed `isize::MAX`\0A\0AThis indicates a bug in the program. This Undefined Behavior check is optional, and cannot be relied on for safety.", align 1
@alloc_5c1a2f972552229672fc942406cfc298 = private unnamed_addr constant [283 x i8] c"unsafe precondition(s) violated: slice::from_raw_parts_mut requires the pointer to be aligned and non-null, and the total size of the slice not to exceed `isize::MAX`\0A\0AThis indicates a bug in the program. This Undefined Behavior check is optional, and cannot be relied on for safety.", align 1
@alloc_2ef43ee3c40dc3dac4839bf6ed126cca = private unnamed_addr constant [81 x i8] c"/rustc/ed61e7d7e242494fb7057f2657300d9e77bb4fcb/library/core/src/slice/memchr.rs\00", align 1
@alloc_abc0a28ca3b1362e4c20e4b15c85a683 = private unnamed_addr constant <{ ptr, [16 x i8] }> <{ ptr @alloc_2ef43ee3c40dc3dac4839bf6ed126cca, [16 x i8] c"P\00\00\00\00\00\00\00(\00\00\00\0C\00\00\00" }>, align 8
@vtable.1 = private unnamed_addr constant <{ ptr, [16 x i8], ptr }> <{ ptr @"_ZN4core3ptr42drop_in_place$LT$std..io..error..Error$GT$17hcf1a9877c19dca3aE", [16 x i8] c"\08\00\00\00\00\00\00\00\08\00\00\00\00\00\00\00", ptr @"_ZN58_$LT$std..io..error..Error$u20$as$u20$core..fmt..Debug$GT$3fmt17h62ceb23194058131E" }>, align 8
@vtable.2 = private unnamed_addr constant <{ [24 x i8], ptr }> <{ [24 x i8] c"\00\00\00\00\00\00\00\00\00\00\00\00\00\00\00\00\01\00\00\00\00\00\00\00", ptr @"_ZN70_$LT$core..num..error..TryFromIntError$u20$as$u20$core..fmt..Debug$GT$3fmt17h1b49c22632b5e673E" }>, align 8
@vtable.3 = private unnamed_addr constant <{ [24 x i8], ptr }> <{ [24 x i8] c"\00\00\00\00\00\00\00\00\01\00\00\00\00\00\00\00\01\00\00\00\00\00\00\00", ptr @"_ZN68_$LT$core..num..error..ParseIntError$u20$as$u20$core..fmt..Debug$GT$3fmt17ha3a87f33f6dad506E" }>, align 8
@alloc_00ae4b301f7fab8ac9617c03fcbd7274 = private unnamed_addr constant [43 x i8] c"called `Result::unwrap()` on an `Err` value", align 1
@_ZN4core7unicode12unicode_data11white_space14WHITESPACE_MAP17h4cf41e25fd3a5318E = external global [256 x i8]
@alloc_7e265bead62de86fc7ffd8ffc9522574 = private unnamed_addr constant [89 x i8] c"/rustc/ed61e7d7e242494fb7057f2657300d9e77bb4fcb/library/core/src/unicode/unicode_data.rs\00", align 1
@alloc_6defd339d793744daa3cb881ef6fc606 = private unnamed_addr constant <{ ptr, [16 x i8] }> <{ ptr @alloc_7e265bead62de86fc7ffd8ffc9522574, [16 x i8] c"X\00\00\00\00\00\00\00\EC\02\00\00\12\00\00\00" }>, align 8
@alloc_f173f0e2cf77b1f431edeee8d5a86d45 = private unnamed_addr constant <{ ptr, [16 x i8] }> <{ ptr @alloc_7e265bead62de86fc7ffd8ffc9522574, [16 x i8] c"X\00\00\00\00\00\00\00\EE\02\00\00\13\00\00\00" }>, align 8
@vtable.4 = private unnamed_addr constant <{ [24 x i8], ptr }> <{ [24 x i8] c"\00\00\00\00\00\00\00\00\08\00\00\00\00\00\00\00\08\00\00\00\00\00\00\00", ptr @"_ZN42_$LT$$RF$T$u20$as$u20$core..fmt..Debug$GT$3fmt17h09b69c134faea6dbE" }>, align 8
@anon.343ad20a3284b1f9e404afc411eb8ab2.9 = private unnamed_addr constant <{ [1 x i8], [1 x i8] }> <{ [1 x i8] c"\01", [1 x i8] undef }>, align 1
@alloc_611ea47e56fe111765d49cc77e8ab451 = private unnamed_addr constant [32 x i8] c"char len should be less than 255", align 1
@alloc_57a97f4c431b3c93ee236177789aa348 = private unnamed_addr constant [80 x i8] c"/rustc/ed61e7d7e242494fb7057f2657300d9e77bb4fcb/library/core/src/str/pattern.rs\00", align 1
@alloc_b500a81e107d34fc072c39066c4fd09a = private unnamed_addr constant <{ ptr, [16 x i8] }> <{ ptr @alloc_57a97f4c431b3c93ee236177789aa348, [16 x i8] c"O\00\00\00\00\00\00\00;\02\00\00\0E\00\00\00" }>, align 8
@alloc_a0ff30602d19d21b56414ac1c5c0017d = private unnamed_addr constant [78 x i8] c"/rustc/ed61e7d7e242494fb7057f2657300d9e77bb4fcb/library/core/src/slice/cmp.rs\00", align 1
@alloc_55fd7b769f754139b3aad3868d385b47 = private unnamed_addr constant <{ ptr, [16 x i8] }> <{ ptr @alloc_a0ff30602d19d21b56414ac1c5c0017d, [16 x i8] c"M\00\00\00\00\00\00\00\AB\01\00\00\01\00\00\00" }>, align 8
@alloc_f10fc29c8be86212c56366c4370bac98 = private unnamed_addr constant [92 x i8] c"/rustc/ed61e7d7e242494fb7057f2657300d9e77bb4fcb/library/alloc/src/collections/btree/node.rs\00", align 1
@alloc_ba25e373ca35912bbc2ec0447b0c2131 = private unnamed_addr constant <{ ptr, [16 x i8] }> <{ ptr @alloc_f10fc29c8be86212c56366c4370bac98, [16 x i8] c"[\00\00\00\00\00\00\00\B1\04\00\00!\00\00\00" }>, align 8
@alloc_90f1b71a1a64acc40295032110d555ce = private unnamed_addr constant [96 x i8] c"/rustc/ed61e7d7e242494fb7057f2657300d9e77bb4fcb/library/alloc/src/collections/btree/navigate.rs\00", align 1
@alloc_2a3d7116d2c19ef4e3e458825ea62d6c = private unnamed_addr constant <{ ptr, [16 x i8] }> <{ ptr @alloc_90f1b71a1a64acc40295032110d555ce, [16 x i8] c"_\00\00\00\00\00\00\00X\02\00\000\00\00\00" }>, align 8
@alloc_bffbad77b9a567f3980a3e0c2ea20be5 = private unnamed_addr constant <{ ptr, [16 x i8] }> <{ ptr @alloc_90f1b71a1a64acc40295032110d555ce, [16 x i8] c"_\00\00\00\00\00\00\00\E7\00\00\007\00\00\00" }>, align 8
@alloc_45e7f064ef554a475bda9d3f7c527dae = private unnamed_addr constant <{ ptr, [16 x i8] }> <{ ptr @alloc_90f1b71a1a64acc40295032110d555ce, [16 x i8] c"_\00\00\00\00\00\00\00\C6\00\00\00'\00\00\00" }>, align 8
@alloc_ca673fb95acb8e58af271999e89294ae = private unnamed_addr constant [53 x i8] c"attempt to join into collection with len > usize::MAX", align 1
@alloc_ff50501e7a901934424b8b44623674d8 = private unnamed_addr constant [73 x i8] c"/rustc/ed61e7d7e242494fb7057f2657300d9e77bb4fcb/library/alloc/src/str.rs\00", align 1
@alloc_c4c7104c092049d2a43fdf96f4b5ab4b = private unnamed_addr constant <{ ptr, [16 x i8] }> <{ ptr @alloc_ff50501e7a901934424b8b44623674d8, [16 x i8] c"H\00\00\00\00\00\00\00\9A\00\00\00\0A\00\00\00" }>, align 8
@alloc_e6240d8997547a5e4e2d20c96a61f8a4 = private unnamed_addr constant <{ ptr, [16 x i8] }> <{ ptr @alloc_ff50501e7a901934424b8b44623674d8, [16 x i8] c"H\00\00\00\00\00\00\00\9D\00\00\00\16\00\00\00" }>, align 8
@alloc_1cf0f84c10c77bf3e6e8a7ff9cf52cc4 = private unnamed_addr constant <{ ptr, [16 x i8] }> <{ ptr @alloc_ff50501e7a901934424b8b44623674d8, [16 x i8] c"H\00\00\00\00\00\00\00\A0\00\00\00\0C\00\00\00" }>, align 8
@alloc_2811ee32ff0b32916334a4a657e1975b = private unnamed_addr constant [80 x i8] c"/rustc/ed61e7d7e242494fb7057f2657300d9e77bb4fcb/library/core/src/slice/index.rs\00", align 1
@alloc_6d58875bed48d4daeac5f1e5bdc75319 = private unnamed_addr constant <{ ptr, [16 x i8] }> <{ ptr @alloc_2811ee32ff0b32916334a4a657e1975b, [16 x i8] c"O\00\00\00\00\00\00\00\07\02\00\00 \00\00\00" }>, align 8
@alloc_e1461e8089710cfb4340d877cc549e67 = private unnamed_addr constant <{ ptr, [16 x i8] }> <{ ptr @alloc_ff50501e7a901934424b8b44623674d8, [16 x i8] c"H\00\00\00\00\00\00\00\A8\00\00\00\1A\00\00\00" }>, align 8
@alloc_d1084648e479974e70c9329824bf76f9 = private unnamed_addr constant [9 x i8] c"mid > len", align 1
@alloc_716ff0773fff869d3b6edfdef8f974a4 = private unnamed_addr constant <{ ptr, [8 x i8] }> <{ ptr @alloc_d1084648e479974e70c9329824bf76f9, [8 x i8] c"\09\00\00\00\00\00\00\00" }>, align 8
@alloc_28e8bfce2f502e2839659238e2d75650 = private unnamed_addr constant <{ ptr, [16 x i8] }> <{ ptr @alloc_ff50501e7a901934424b8b44623674d8, [16 x i8] c"H\00\00\00\00\00\00\00\B1\00\00\00\16\00\00\00" }>, align 8
@alloc_282eaea2415ef6023d6335b074276a9d = private unnamed_addr constant <{ ptr, [16 x i8] }> <{ ptr @alloc_0acc99ed7acd97f9883bf55d79fc5c36, [16 x i8] c"M\00\00\00\00\00\00\00\8E\08\00\00 \00\00\00" }>, align 8
@alloc_6a67276667a84cca95967678678554ae = private unnamed_addr constant [77 x i8] c"/rustc/ed61e7d7e242494fb7057f2657300d9e77bb4fcb/library/alloc/src/vec/mod.rs\00", align 1
@alloc_822bf81a612e8707a41a59723a141cc2 = private unnamed_addr constant <{ ptr, [16 x i8] }> <{ ptr @alloc_6a67276667a84cca95967678678554ae, [16 x i8] c"L\00\00\00\00\00\00\00\DD\07\00\00\09\00\00\00" }>, align 8
@alloc_57d70e9d94c65ecfc15225d29a5ed72b = private unnamed_addr constant [198 x i8] c"unsafe precondition(s) violated: Vec::set_len requires that new_len <= capacity()\0A\0AThis indicates a bug in the program. This Undefined Behavior check is optional, and cannot be relied on for safety.", align 1
@alloc_0bb072f6bb71c4bd21707d329b9e1a76 = private unnamed_addr constant <{ ptr, [16 x i8] }> <{ ptr @alloc_9c482f2f4ee4370f43752c111033314e, [16 x i8] c"P\00\00\00\00\00\00\00\10\01\00\00\1B\00\00\00" }>, align 8
@alloc_ac369f2232bd57fdddb453c2856ef8b3 = private unnamed_addr constant [76 x i8] c"/rustc/ed61e7d7e242494fb7057f2657300d9e77bb4fcb/library/core/src/ptr/mod.rs\00", align 1
@alloc_169670570c6aefa19571556d51448ed5 = private unnamed_addr constant <{ ptr, [16 x i8] }> <{ ptr @alloc_ac369f2232bd57fdddb453c2856ef8b3, [16 x i8] c"K\00\00\00\00\00\00\00\BC\02\00\00\09\00\00\00" }>, align 8
@alloc_67bf4cc6f1aad37b58697e334e5718c3 = private unnamed_addr constant <{ ptr, [16 x i8] }> <{ ptr @alloc_9c482f2f4ee4370f43752c111033314e, [16 x i8] c"P\00\00\00\00\00\00\00\89\05\00\00\12\00\00\00" }>, align 8
@alloc_5f378fd5a257d89e00619214d281d6a7 = private unnamed_addr constant [81 x i8] c"/rustc/ed61e7d7e242494fb7057f2657300d9e77bb4fcb/library/alloc/src/raw_vec/mod.rs\00", align 1
@alloc_5f2c7963340061933fc603b2939c38ce = private unnamed_addr constant <{ ptr, [16 x i8] }> <{ ptr @alloc_5f378fd5a257d89e00619214d281d6a7, [16 x i8] c"P\00\00\00\00\00\00\00\14\02\00\00\1E\00\00\00" }>, align 8
@anon.343ad20a3284b1f9e404afc411eb8ab2.10 = private unnamed_addr constant <{ [8 x i8], [8 x i8] }> <{ [8 x i8] c"\01\00\00\00\00\00\00\80", [8 x i8] undef }>, align 8
@alloc_1cbc7dfc5071413bc32bb8beee2b4303 = private unnamed_addr constant <{ ptr, [16 x i8] }> <{ ptr @alloc_5f378fd5a257d89e00619214d281d6a7, [16 x i8] c"P\00\00\00\00\00\00\00*\02\00\00\11\00\00\00" }>, align 8
@alloc_37d2e53432a03a1f90b3e7253015eaf9 = private unnamed_addr constant [4 x i8] c"None", align 1
@vtable.5 = private unnamed_addr constant <{ [24 x i8], ptr }> <{ [24 x i8] c"\00\00\00\00\00\00\00\00\08\00\00\00\00\00\00\00\08\00\00\00\00\00\00\00", ptr @"_ZN42_$LT$$RF$T$u20$as$u20$core..fmt..Debug$GT$3fmt17ha730e1cfa81b7cdfE" }>, align 8
@alloc_9535bf4c204f3eb9b19ec2c83e446e52 = private unnamed_addr constant [4 x i8] c"Some", align 1
@alloc_59ba7b9f7211443cd55a366616eef46a = private unnamed_addr constant [5 x i8] c"Empty", align 1
@alloc_00315c78e51d29fe6b3102a4c1ecf6ef = private unnamed_addr constant [12 x i8] c"InvalidDigit", align 1
@alloc_bd3a3f3879e0d5f64554753e977f58d4 = private unnamed_addr constant [11 x i8] c"PosOverflow", align 1
@alloc_0964bb2a4870637395c77a018495bd5c = private unnamed_addr constant [11 x i8] c"NegOverflow", align 1
@alloc_6566120a3a17f930e960a0863fcbd591 = private unnamed_addr constant [4 x i8] c"Zero", align 1
@vtable.6 = private unnamed_addr constant <{ [24 x i8], ptr }> <{ [24 x i8] c"\00\00\00\00\00\00\00\00\08\00\00\00\00\00\00\00\08\00\00\00\00\00\00\00", ptr @"_ZN42_$LT$$RF$T$u20$as$u20$core..fmt..Debug$GT$3fmt17h4626a8bdd0ce2342E" }>, align 8
@alloc_f62df14955f7d78bca139b0a7668683d = private unnamed_addr constant [13 x i8] c"ParseIntError", align 1
@alloc_a5d866b1768ad3f826bccdb004a1a8ae = private unnamed_addr constant [4 x i8] c"kind", align 1
@vtable.7 = private unnamed_addr constant <{ [24 x i8], ptr }> <{ [24 x i8] c"\00\00\00\00\00\00\00\00\08\00\00\00\00\00\00\00\08\00\00\00\00\00\00\00", ptr @"_ZN42_$LT$$RF$T$u20$as$u20$core..fmt..Debug$GT$3fmt17hc8d447ae4b0bed77E" }>, align 8
@alloc_5cb263f26a5d50117adfcc5c7225745e = private unnamed_addr constant [15 x i8] c"TryFromIntError", align 1
@alloc_5a8fdd84b3281310cbf6b74bb6bf0065 = private unnamed_addr constant [218 x i8] c"unsafe precondition(s) violated: slice::get_unchecked_mut requires that the index is within the slice\0A\0AThis indicates a bug in the program. This Undefined Behavior check is optional, and cannot be relied on for safety.", align 1
@alloc_52b6f13404978566cf8f17d895c6a989 = private unnamed_addr constant <{ ptr, [16 x i8] }> <{ ptr @alloc_57a97f4c431b3c93ee236177789aa348, [16 x i8] c"O\00\00\00\00\00\00\00\CE\01\00\007\00\00\00" }>, align 8
@alloc_9e16e1742bd2d84c3af9e7d76da5e69b = private unnamed_addr constant [75 x i8] c"/rustc/ed61e7d7e242494fb7057f2657300d9e77bb4fcb/library/alloc/src/slice.rs\00", align 1
@alloc_668b38c97e04786c40586fbd485e60b1 = private unnamed_addr constant <{ ptr, [16 x i8] }> <{ ptr @alloc_9e16e1742bd2d84c3af9e7d76da5e69b, [16 x i8] c"J\00\00\00\00\00\00\00\BD\01\00\00\1D\00\00\00" }>, align 8
@alloc_459c873e0fb396c029aded28c7cc54f4 = private unnamed_addr constant <{ ptr, [16 x i8] }> <{ ptr @alloc_dae296fac431ff5a15ce24bf627d1494, [16 x i8] c"N\00\00\00\00\00\00\00{\07\00\00%\00\00\00" }>, align 8
@alloc_8e7ff8086bbaaba871cffb521de2a782 = private unnamed_addr constant <{ ptr, [16 x i8] }> <{ ptr @alloc_0acc99ed7acd97f9883bf55d79fc5c36, [16 x i8] c"M\00\00\00\00\00\00\00g\08\00\00 \00\00\00" }>, align 8
@alloc_7954f15e40e6338cd432a46200165040 = private unnamed_addr constant [78 x i8] c"/rustc/ed61e7d7e242494fb7057f2657300d9e77bb4fcb/library/std/src/ffi/os_str.rs\00", align 1
@alloc_f346ce65593f41755f7074ba54ec87ab = private unnamed_addr constant <{ ptr, [16 x i8] }> <{ ptr @alloc_7954f15e40e6338cd432a46200165040, [16 x i8] c"M\00\00\00\00\00\00\00\A3\02\00\00\0E\00\00\00" }>, align 8

; <core::str::iter::CharIndices as core::iter::traits::double_ended::DoubleEndedIterator>::next_back
; Function Attrs: inlinehint nonlazybind uwtable
define internal { i64, i32 } @"_ZN102_$LT$core..str..iter..CharIndices$u20$as$u20$core..iter..traits..double_ended..DoubleEndedIterator$GT$9next_back17h76e3bd467a52c44bE"(ptr noalias noundef align 8 dereferenceable(24) %self) unnamed_addr #0 {
start:
  %f3 = alloca [8 x i8], align 8
  %f = alloca [8 x i8], align 8
  %self2 = alloca [8 x i8], align 4
  %_5 = alloca [8 x i8], align 8
  %_4 = alloca [8 x i8], align 8
  %self1 = alloca [4 x i8], align 4
  %_0 = alloca [16 x i8], align 8
  call void @llvm.lifetime.start.p0(i64 4, ptr %self1)
  call void @llvm.lifetime.start.p0(i64 8, ptr %self2)
; call core::str::validations::next_code_point_reverse
  %0 = call { i32, i32 } @_ZN4core3str11validations23next_code_point_reverse17hd7329e4408d3317cE(ptr noalias noundef align 8 dereferenceable(16) %self)
  %1 = extractvalue { i32, i32 } %0, 0
  %2 = extractvalue { i32, i32 } %0, 1
  store i32 %1, ptr %self2, align 4
  %3 = getelementptr inbounds i8, ptr %self2, i64 4
  store i32 %2, ptr %3, align 4
  %4 = load i32, ptr %self2, align 4, !range !4, !noundef !5
  %5 = getelementptr inbounds i8, ptr %self2, i64 4
  %6 = load i32, ptr %5, align 4
  %_8 = zext i32 %4 to i64
  %7 = trunc nuw i64 %_8 to i1
  br i1 %7, label %bb4, label %bb3

bb4:                                              ; preds = %start
  %8 = getelementptr inbounds i8, ptr %self2, i64 4
  %x = load i32, ptr %8, align 4, !noundef !5
  br label %bb6

bb3:                                              ; preds = %start
  store i32 1114112, ptr %self1, align 4
  call void @llvm.lifetime.end.p0(i64 8, ptr %self2)
  call void @llvm.lifetime.start.p0(i64 8, ptr %f)
  call void @llvm.lifetime.start.p0(i64 8, ptr %f3)
  %9 = getelementptr inbounds i8, ptr %self, i64 16
  store ptr %9, ptr %_4, align 8
  store ptr %self, ptr %_5, align 8
  %10 = load ptr, ptr %_4, align 8, !nonnull !5, !align !6, !noundef !5
  store ptr %10, ptr %f, align 8
  %11 = load ptr, ptr %_5, align 8, !nonnull !5, !align !6, !noundef !5
  store ptr %11, ptr %f3, align 8
  %12 = load i64, ptr @anon.343ad20a3284b1f9e404afc411eb8ab2.0, align 8
  %13 = load i32, ptr getelementptr inbounds (i8, ptr @anon.343ad20a3284b1f9e404afc411eb8ab2.0, i64 8), align 8, !range !7, !noundef !5
  store i64 %12, ptr %_0, align 8
  %14 = getelementptr inbounds i8, ptr %_0, i64 8
  store i32 %13, ptr %14, align 8
  br label %bb7

bb7:                                              ; preds = %bb6, %bb3
  call void @llvm.lifetime.end.p0(i64 8, ptr %f)
  call void @llvm.lifetime.end.p0(i64 8, ptr %f3)
  call void @llvm.lifetime.end.p0(i64 4, ptr %self1)
  %15 = load i64, ptr %_0, align 8
  %16 = getelementptr inbounds i8, ptr %_0, i64 8
  %17 = load i32, ptr %16, align 8, !range !7, !noundef !5
  %18 = insertvalue { i64, i32 } poison, i64 %15, 0
  %19 = insertvalue { i64, i32 } %18, i32 %17, 1
  ret { i64, i32 } %19

bb6:                                              ; preds = %bb4
  %20 = icmp ule i32 %x, 1114111
  call void @llvm.assume(i1 %20)
  store i32 %x, ptr %self1, align 4
  call void @llvm.lifetime.end.p0(i64 8, ptr %self2)
  call void @llvm.lifetime.start.p0(i64 8, ptr %f)
  call void @llvm.lifetime.start.p0(i64 8, ptr %f3)
  %21 = getelementptr inbounds i8, ptr %self, i64 16
  store ptr %21, ptr %_4, align 8
  store ptr %self, ptr %_5, align 8
  %22 = load ptr, ptr %_4, align 8, !nonnull !5, !align !6, !noundef !5
  store ptr %22, ptr %f, align 8
  %23 = load ptr, ptr %_5, align 8, !nonnull !5, !align !6, !noundef !5
  store ptr %23, ptr %f3, align 8
  %x4 = load i32, ptr %self1, align 4, !range !8, !noundef !5
  %_24 = load ptr, ptr %_4, align 8, !nonnull !5, !align !6, !noundef !5
  %_25 = load ptr, ptr %_5, align 8, !nonnull !5, !align !6, !noundef !5
  %24 = load ptr, ptr %_4, align 8, !nonnull !5, !align !6, !noundef !5
  %_16 = load i64, ptr %24, align 8, !noundef !5
  %self5 = load ptr, ptr %_5, align 8, !nonnull !5, !align !6, !noundef !5
  %25 = load ptr, ptr %_5, align 8, !nonnull !5, !align !6, !noundef !5
  %26 = getelementptr inbounds i8, ptr %25, i64 8
  %_22 = load ptr, ptr %26, align 8, !noundef !5
  %27 = icmp ne ptr %_22, null
  call void @llvm.assume(i1 %27)
  %28 = load ptr, ptr %_5, align 8, !nonnull !5, !align !6, !noundef !5
  %_23 = load ptr, ptr %28, align 8, !nonnull !5, !noundef !5
; call core::ptr::non_null::NonNull<T>::offset_from_unsigned
  %_17 = call noundef i64 @"_ZN4core3ptr8non_null16NonNull$LT$T$GT$20offset_from_unsigned17hda55e35a0e370e32E"(ptr noundef nonnull %_22, ptr noundef nonnull %_23)
  %index = add i64 %_16, %_17
  store i64 %index, ptr %_0, align 8
  %29 = getelementptr inbounds i8, ptr %_0, i64 8
  store i32 %x4, ptr %29, align 8
  br label %bb7

bb2:                                              ; No predecessors!
  unreachable

bb5:                                              ; No predecessors!
  unreachable
}

; <core::str::pattern::MultiCharEqSearcher<C> as core::str::pattern::ReverseSearcher>::next_back
; Function Attrs: inlinehint nonlazybind uwtable
define internal void @"_ZN104_$LT$core..str..pattern..MultiCharEqSearcher$LT$C$GT$$u20$as$u20$core..str..pattern..ReverseSearcher$GT$9next_back17h665718c335dbb368E"(ptr dead_on_unwind noalias noundef writable sret([24 x i8]) align 8 captures(address) dereferenceable(24) %_0, ptr noalias noundef align 8 dereferenceable(40) %self) unnamed_addr #0 {
start:
  %_5 = alloca [16 x i8], align 8
  %s = getelementptr inbounds i8, ptr %self, i64 16
  %0 = getelementptr inbounds i8, ptr %s, i64 8
  %_19 = load ptr, ptr %0, align 8, !noundef !5
  %1 = icmp ne ptr %_19, null
  call void @llvm.assume(i1 %1)
  %_20 = load ptr, ptr %s, align 8, !nonnull !5, !noundef !5
; call core::ptr::non_null::NonNull<T>::offset_from_unsigned
  %pre_len = call noundef i64 @"_ZN4core3ptr8non_null16NonNull$LT$T$GT$20offset_from_unsigned17hda55e35a0e370e32E"(ptr noundef nonnull %_19, ptr noundef nonnull %_20)
  call void @llvm.lifetime.start.p0(i64 16, ptr %_5)
; call <core::str::iter::CharIndices as core::iter::traits::double_ended::DoubleEndedIterator>::next_back
  %2 = call { i64, i32 } @"_ZN102_$LT$core..str..iter..CharIndices$u20$as$u20$core..iter..traits..double_ended..DoubleEndedIterator$GT$9next_back17h76e3bd467a52c44bE"(ptr noalias noundef align 8 dereferenceable(24) %s)
  %3 = extractvalue { i64, i32 } %2, 0
  %4 = extractvalue { i64, i32 } %2, 1
  store i64 %3, ptr %_5, align 8
  %5 = getelementptr inbounds i8, ptr %_5, i64 8
  store i32 %4, ptr %5, align 8
  %6 = load i64, ptr %_5, align 8
  %7 = getelementptr inbounds i8, ptr %_5, i64 8
  %8 = load i32, ptr %7, align 8, !range !7, !noundef !5
  %9 = icmp eq i32 %8, 1114112
  %_6 = select i1 %9, i64 0, i64 1
  %10 = trunc nuw i64 %_6 to i1
  br i1 %10, label %bb2, label %bb6

bb2:                                              ; preds = %start
  %i = load i64, ptr %_5, align 8, !noundef !5
  %11 = getelementptr inbounds i8, ptr %_5, i64 8
  %c = load i32, ptr %11, align 8, !range !8, !noundef !5
  %12 = getelementptr inbounds i8, ptr %s, i64 8
  %_24 = load ptr, ptr %12, align 8, !noundef !5
  %13 = icmp ne ptr %_24, null
  call void @llvm.assume(i1 %13)
  %_25 = load ptr, ptr %s, align 8, !nonnull !5, !noundef !5
; call core::ptr::non_null::NonNull<T>::offset_from_unsigned
  %len = call noundef i64 @"_ZN4core3ptr8non_null16NonNull$LT$T$GT$20offset_from_unsigned17hda55e35a0e370e32E"(ptr noundef nonnull %_24, ptr noundef nonnull %_25)
  %char_len = sub i64 %pre_len, %len
  %_13 = getelementptr inbounds i8, ptr %self, i64 40
; call <F as core::str::pattern::MultiCharEq>::matches
  %_12 = call noundef zeroext i1 @"_ZN53_$LT$F$u20$as$u20$core..str..pattern..MultiCharEq$GT$7matches17ha1abd7f16e030179E"(ptr noalias noundef nonnull align 1 %_13, i32 noundef %c)
  br i1 %_12, label %bb4, label %bb5

bb6:                                              ; preds = %start
  call void @llvm.lifetime.end.p0(i64 16, ptr %_5)
  store i64 2, ptr %_0, align 8
  br label %bb8

bb5:                                              ; preds = %bb2
  %_15 = add i64 %i, %char_len
  %14 = getelementptr inbounds i8, ptr %_0, i64 8
  store i64 %i, ptr %14, align 8
  %15 = getelementptr inbounds i8, ptr %_0, i64 16
  store i64 %_15, ptr %15, align 8
  store i64 1, ptr %_0, align 8
  br label %bb7

bb4:                                              ; preds = %bb2
  %_14 = add i64 %i, %char_len
  %16 = getelementptr inbounds i8, ptr %_0, i64 8
  store i64 %i, ptr %16, align 8
  %17 = getelementptr inbounds i8, ptr %_0, i64 16
  store i64 %_14, ptr %17, align 8
  store i64 0, ptr %_0, align 8
  br label %bb7

bb7:                                              ; preds = %bb4, %bb5
  call void @llvm.lifetime.end.p0(i64 16, ptr %_5)
  br label %bb8

bb8:                                              ; preds = %bb6, %bb7
  ret void

bb11:                                             ; No predecessors!
  unreachable
}

; <std::ffi::os_str::OsString as core::ops::index::Index<core::ops::range::RangeFull>>::index
; Function Attrs: inlinehint nonlazybind uwtable
define internal { ptr, i64 } @"_ZN105_$LT$std..ffi..os_str..OsString$u20$as$u20$core..ops..index..Index$LT$core..ops..range..RangeFull$GT$$GT$5index17h5e81d442aa529d4eE"(ptr noalias noundef readonly align 8 captures(address, read_provenance) dereferenceable(24) %self, ptr noalias noundef readonly align 8 captures(address, read_provenance) dereferenceable(24) %0) unnamed_addr #0 {
start:
  %1 = getelementptr inbounds i8, ptr %self, i64 8
  %_9 = load ptr, ptr %1, align 8, !nonnull !5, !noundef !5
  %2 = icmp ne ptr %_9, null
  call void @llvm.assume(i1 %2)
  %3 = getelementptr inbounds i8, ptr %self, i64 16
  %len = load i64, ptr %3, align 8, !noundef !5
  br label %bb3

bb3:                                              ; preds = %start
  %4 = insertvalue { ptr, i64 } poison, ptr %_9, 0
  %5 = insertvalue { ptr, i64 } %4, i64 %len, 1
  ret { ptr, i64 } %5

bb1:                                              ; No predecessors!
  unreachable

bb2:                                              ; No predecessors!
  unreachable
}

; <core::ops::range::Range<usize> as core::slice::index::SliceIndex<[T]>>::get_unchecked_mut::precondition_check
; Function Attrs: inlinehint nounwind nonlazybind uwtable
define internal void @"_ZN106_$LT$core..ops..range..Range$LT$usize$GT$$u20$as$u20$core..slice..index..SliceIndex$LT$$u5b$T$u5d$$GT$$GT$17get_unchecked_mut18precondition_check17h69b7f08e8523d100E"(i64 noundef %start1, i64 noundef %end, i64 noundef %len, ptr noalias noundef readonly align 8 captures(address, read_provenance) dereferenceable(24) %0) unnamed_addr #1 {
start:
  %_9 = alloca [16 x i8], align 8
  %_7 = alloca [48 x i8], align 8
  %_4 = icmp uge i64 %end, %start1
  %1 = call i1 @llvm.expect.i1(i1 %_4, i1 true)
  br i1 %1, label %bb1, label %bb3

bb3:                                              ; preds = %bb1, %start
  call void @llvm.lifetime.start.p0(i64 48, ptr %_7)
  call void @llvm.lifetime.start.p0(i64 16, ptr %_9)
  %2 = getelementptr inbounds nuw { ptr, i64 }, ptr %_9, i64 0
  store ptr @alloc_18d73aa062d524e9620b9e3b55bd9eb1, ptr %2, align 8
  %3 = getelementptr inbounds i8, ptr %2, i64 8
  store i64 218, ptr %3, align 8
  store ptr %_9, ptr %_7, align 8
  %4 = getelementptr inbounds i8, ptr %_7, i64 8
  store i64 1, ptr %4, align 8
  %5 = load ptr, ptr @anon.343ad20a3284b1f9e404afc411eb8ab2.1, align 8, !align !6, !noundef !5
  %6 = load i64, ptr getelementptr inbounds (i8, ptr @anon.343ad20a3284b1f9e404afc411eb8ab2.1, i64 8), align 8
  %7 = getelementptr inbounds i8, ptr %_7, i64 32
  store ptr %5, ptr %7, align 8
  %8 = getelementptr inbounds i8, ptr %7, i64 8
  store i64 %6, ptr %8, align 8
  %9 = getelementptr inbounds i8, ptr %_7, i64 16
  store ptr inttoptr (i64 8 to ptr), ptr %9, align 8
  %10 = getelementptr inbounds i8, ptr %9, i64 8
  store i64 0, ptr %10, align 8
; call core::panicking::panic_nounwind_fmt
  call void @_ZN4core9panicking18panic_nounwind_fmt17h622822847ebd61beE(ptr noalias noundef readonly align 8 captures(address) dereferenceable(48) %_7, i1 noundef zeroext false, ptr noalias noundef readonly align 8 captures(address, read_provenance) dereferenceable(24) %0) #27
  unreachable

bb1:                                              ; preds = %start
  %_5 = icmp ule i64 %end, %len
  %11 = call i1 @llvm.expect.i1(i1 %_5, i1 true)
  br i1 %11, label %bb2, label %bb3

bb2:                                              ; preds = %bb1
  ret void
}

; <core::slice::iter::Iter<T> as core::iter::traits::double_ended::DoubleEndedIterator>::next_back
; Function Attrs: inlinehint nonlazybind uwtable
define internal noundef align 1 dereferenceable_or_null(1) ptr @"_ZN106_$LT$core..slice..iter..Iter$LT$T$GT$$u20$as$u20$core..iter..traits..double_ended..DoubleEndedIterator$GT$9next_back17he2fb26b7dfce8a6cE"(ptr noalias noundef align 8 dereferenceable(16) %self) unnamed_addr #0 {
start:
  %_21 = alloca [8 x i8], align 8
  %_14 = alloca [8 x i8], align 8
  %end = alloca [8 x i8], align 8
  %_2 = alloca [1 x i8], align 1
  %_0 = alloca [8 x i8], align 8
  call void @llvm.lifetime.start.p0(i64 1, ptr %_2)
  br label %bb2

bb2:                                              ; preds = %start
  %0 = getelementptr inbounds i8, ptr %self, i64 8
  %_6 = load ptr, ptr %0, align 8, !noundef !5
  store ptr %_6, ptr %end, align 8
  %_11 = load ptr, ptr %self, align 8, !nonnull !5, !noundef !5
  %1 = icmp ne ptr %_11, null
  call void @llvm.assume(i1 %1)
  %_12 = load ptr, ptr %end, align 8, !nonnull !5, !noundef !5
  %2 = icmp ne ptr %_12, null
  call void @llvm.assume(i1 %2)
  %3 = icmp eq ptr %_11, %_12
  %4 = zext i1 %3 to i8
  store i8 %4, ptr %_2, align 1
  br label %bb3

bb3:                                              ; preds = %bb2
  %5 = load i8, ptr %_2, align 1, !range !9, !noundef !5
  %6 = trunc nuw i8 %5 to i1
  br i1 %6, label %bb4, label %bb5

bb5:                                              ; preds = %bb3
  call void @llvm.lifetime.start.p0(i64 8, ptr %_14)
  br label %bb9

bb4:                                              ; preds = %bb3
  store ptr null, ptr %_0, align 8
  br label %bb6

bb9:                                              ; preds = %bb5
  %self1 = getelementptr inbounds i8, ptr %self, i64 8
  call void @llvm.lifetime.start.p0(i64 8, ptr %_21)
  %self2 = load ptr, ptr %self1, align 8, !nonnull !5, !noundef !5
  br label %bb12

bb12:                                             ; preds = %bb9
  br label %bb14

bb14:                                             ; preds = %bb12
  %7 = icmp ne ptr %self2, null
  call void @llvm.assume(i1 %7)
  %_25 = getelementptr inbounds i8, ptr %self2, i64 -1
  store ptr %_25, ptr %_21, align 8
  br label %bb10

bb10:                                             ; preds = %bb14
  %8 = load ptr, ptr %_21, align 8, !nonnull !5, !noundef !5
  store ptr %8, ptr %self1, align 8
  call void @llvm.lifetime.end.p0(i64 8, ptr %_21)
  %9 = load ptr, ptr %self1, align 8, !nonnull !5, !noundef !5
  store ptr %9, ptr %_14, align 8
  br label %bb7

bb7:                                              ; preds = %bb10
  %_28 = load ptr, ptr %_14, align 8, !nonnull !5, !noundef !5
  %10 = icmp ne ptr %_28, null
  call void @llvm.assume(i1 %10)
  call void @llvm.lifetime.end.p0(i64 8, ptr %_14)
  store ptr %_28, ptr %_0, align 8
  br label %bb6

bb6:                                              ; preds = %bb4, %bb7
  call void @llvm.lifetime.end.p0(i64 1, ptr %_2)
  %11 = load ptr, ptr %_0, align 8, !align !10, !noundef !5
  ret ptr %11

bb1:                                              ; No predecessors!
  unreachable

bb8:                                              ; No predecessors!
  unreachable

bb11:                                             ; No predecessors!
  unreachable

bb13:                                             ; No predecessors!
  unreachable
}

; <core::str::pattern::CharPredicateSearcher<F> as core::str::pattern::ReverseSearcher>::next_reject_back
; Function Attrs: inlinehint nonlazybind uwtable
define internal void @"_ZN106_$LT$core..str..pattern..CharPredicateSearcher$LT$F$GT$$u20$as$u20$core..str..pattern..ReverseSearcher$GT$16next_reject_back17hf034bb4fbd4b0b99E"(ptr dead_on_unwind noalias noundef writable sret([24 x i8]) align 8 captures(address) dereferenceable(24) %_0, ptr noalias noundef align 8 dereferenceable(40) %self) unnamed_addr #0 {
start:
; call core::str::pattern::ReverseSearcher::next_reject_back
  call void @_ZN4core3str7pattern15ReverseSearcher16next_reject_back17ha1f1630e1f2c04efE(ptr noalias noundef sret([24 x i8]) align 8 captures(address) dereferenceable(24) %_0, ptr noalias noundef align 8 dereferenceable(40) %self)
  ret void
}

; <alloc::collections::btree::map::BTreeMap<K,V,A> as core::iter::traits::collect::IntoIterator>::into_iter
; Function Attrs: nonlazybind uwtable
define internal void @"_ZN119_$LT$alloc..collections..btree..map..BTreeMap$LT$K$C$V$C$A$GT$$u20$as$u20$core..iter..traits..collect..IntoIterator$GT$9into_iter17hc84a6b81f0859a18E"(ptr dead_on_unwind noalias noundef writable sret([72 x i8]) align 8 captures(address) dereferenceable(72) %_0, ptr dead_on_return noalias noundef align 8 captures(address) dereferenceable(24) %self) unnamed_addr #2 {
start:
  %_20 = alloca [32 x i8], align 8
  %_19 = alloca [24 x i8], align 8
  %_18 = alloca [32 x i8], align 8
  %_14 = alloca [64 x i8], align 8
  %full_range = alloca [64 x i8], align 8
  %_3 = alloca [16 x i8], align 8
  %me = alloca [24 x i8], align 8
  call void @llvm.lifetime.start.p0(i64 24, ptr %me)
  call void @llvm.memcpy.p0.p0.i64(ptr align 8 %me, ptr align 8 %self, i64 24, i1 false)
  call void @llvm.lifetime.start.p0(i64 16, ptr %_3)
  %0 = load ptr, ptr %me, align 8, !noundef !5
  %1 = getelementptr inbounds i8, ptr %me, i64 8
  %2 = load i64, ptr %1, align 8
  store ptr %0, ptr %_3, align 8
  %3 = getelementptr inbounds i8, ptr %_3, i64 8
  store i64 %2, ptr %3, align 8
  %4 = load ptr, ptr @anon.343ad20a3284b1f9e404afc411eb8ab2.1, align 8, !noundef !5
  %5 = load i64, ptr getelementptr inbounds (i8, ptr @anon.343ad20a3284b1f9e404afc411eb8ab2.1, i64 8), align 8
  store ptr %4, ptr %me, align 8
  %6 = getelementptr inbounds i8, ptr %me, i64 8
  store i64 %5, ptr %6, align 8
  %7 = load ptr, ptr %_3, align 8, !noundef !5
  %8 = getelementptr inbounds i8, ptr %_3, i64 8
  %9 = load i64, ptr %8, align 8
  %10 = ptrtoint ptr %7 to i64
  %11 = icmp eq i64 %10, 0
  %_6 = select i1 %11, i64 0, i64 1
  %12 = trunc nuw i64 %_6 to i1
  br i1 %12, label %bb1, label %bb2

bb1:                                              ; preds = %start
  %13 = getelementptr inbounds i8, ptr %_3, i64 8
  %root = load i64, ptr %13, align 8, !noundef !5
  %root1 = load ptr, ptr %_3, align 8, !nonnull !5, !noundef !5
  %14 = getelementptr inbounds i8, ptr %_19, i64 8
  store ptr %root1, ptr %14, align 8
  %15 = getelementptr inbounds i8, ptr %14, i64 8
  store i64 %root, ptr %15, align 8
  store ptr null, ptr %_19, align 8
  %16 = getelementptr inbounds i8, ptr %_18, i64 8
  call void @llvm.memcpy.p0.p0.i64(ptr align 8 %16, ptr align 8 %_19, i64 24, i1 false)
  store i64 1, ptr %_18, align 8
  call void @llvm.memcpy.p0.p0.i64(ptr align 8 %full_range, ptr align 8 %_18, i64 32, i1 false)
  %17 = getelementptr inbounds i8, ptr %full_range, i64 32
  call void @llvm.memcpy.p0.p0.i64(ptr align 8 %17, ptr align 8 %_18, i64 32, i1 false)
  %18 = getelementptr inbounds i8, ptr %me, i64 16
  %_9 = load i64, ptr %18, align 8, !noundef !5
  %slot = getelementptr inbounds i8, ptr %me, i64 24
  call void @llvm.memcpy.p0.p0.i64(ptr align 8 %_0, ptr align 8 %full_range, i64 64, i1 false)
  %19 = getelementptr inbounds i8, ptr %_0, i64 64
  store i64 %_9, ptr %19, align 8
  call void @llvm.lifetime.end.p0(i64 16, ptr %_3)
  br label %bb3

bb2:                                              ; preds = %start
  call void @llvm.lifetime.end.p0(i64 16, ptr %_3)
  call void @llvm.lifetime.start.p0(i64 64, ptr %_14)
  call void @llvm.lifetime.start.p0(i64 32, ptr %_20)
  store i64 0, ptr %_20, align 8
  call void @llvm.memcpy.p0.p0.i64(ptr align 8 %_14, ptr align 8 %_20, i64 32, i1 false)
  %20 = getelementptr inbounds i8, ptr %_14, i64 32
  call void @llvm.memcpy.p0.p0.i64(ptr align 8 %20, ptr align 8 %_20, i64 32, i1 false)
  call void @llvm.lifetime.end.p0(i64 32, ptr %_20)
  %slot2 = getelementptr inbounds i8, ptr %me, i64 24
  call void @llvm.memcpy.p0.p0.i64(ptr align 8 %_0, ptr align 8 %_14, i64 64, i1 false)
  %21 = getelementptr inbounds i8, ptr %_0, i64 64
  store i64 0, ptr %21, align 8
  call void @llvm.lifetime.end.p0(i64 64, ptr %_14)
  br label %bb3

bb3:                                              ; preds = %bb2, %bb1
  call void @llvm.lifetime.end.p0(i64 24, ptr %me)
  ret void

bb4:                                              ; No predecessors!
  unreachable
}

; <alloc::vec::Vec<T,A> as alloc::vec::spec_extend::SpecExtend<&T,core::slice::iter::Iter<T>>>::spec_extend
; Function Attrs: nonlazybind uwtable
define internal void @"_ZN132_$LT$alloc..vec..Vec$LT$T$C$A$GT$$u20$as$u20$alloc..vec..spec_extend..SpecExtend$LT$$RF$T$C$core..slice..iter..Iter$LT$T$GT$$GT$$GT$11spec_extend17hff69623ee57d857fE"(ptr noalias noundef align 8 dereferenceable(24) %self, ptr noundef nonnull %0, ptr noundef %1, ptr noalias noundef readonly align 8 captures(address, read_provenance) dereferenceable(24) %2) unnamed_addr #2 {
start:
  %len = alloca [8 x i8], align 8
  %iterator = alloca [16 x i8], align 8
  store ptr %0, ptr %iterator, align 8
  %3 = getelementptr inbounds i8, ptr %iterator, i64 8
  store ptr %1, ptr %3, align 8
  %self1 = load ptr, ptr %iterator, align 8, !nonnull !5, !noundef !5
  %4 = icmp ne ptr %self1, null
  call void @llvm.assume(i1 %4)
  call void @llvm.lifetime.start.p0(i64 8, ptr %len)
  br label %bb3

bb3:                                              ; preds = %start
  %5 = getelementptr inbounds i8, ptr %iterator, i64 8
  %_11 = load ptr, ptr %5, align 8, !noundef !5
  %6 = icmp ne ptr %_11, null
  call void @llvm.assume(i1 %6)
; call core::ptr::non_null::NonNull<T>::offset_from_unsigned
  %7 = call noundef i64 @"_ZN4core3ptr8non_null16NonNull$LT$T$GT$20offset_from_unsigned17hda55e35a0e370e32E"(ptr noundef nonnull %_11, ptr noundef nonnull %self1)
  store i64 %7, ptr %len, align 8
  br label %bb4

bb4:                                              ; preds = %bb3
  br label %bb7

bb7:                                              ; preds = %bb4
  %slice.1 = load i64, ptr %len, align 8, !noundef !5
  call void @llvm.lifetime.end.p0(i64 8, ptr %len)
; call alloc::vec::Vec<T,A>::append_elements
  call void @"_ZN5alloc3vec16Vec$LT$T$C$A$GT$15append_elements17h794d77869c529e58E"(ptr noalias noundef align 8 dereferenceable(24) %self, ptr noundef %self1, i64 noundef %slice.1, ptr noalias noundef readonly align 8 captures(address, read_provenance) dereferenceable(24) %2)
  ret void

bb2:                                              ; No predecessors!
  unreachable

bb5:                                              ; No predecessors!
  unreachable

bb6:                                              ; No predecessors!
  unreachable
}

; <core::option::Option<T> as core::ops::try_trait::FromResidual<core::option::Option<core::convert::Infallible>>>::from_residual
; Function Attrs: inlinehint nonlazybind uwtable
define internal noundef i64 @"_ZN145_$LT$core..option..Option$LT$T$GT$$u20$as$u20$core..ops..try_trait..FromResidual$LT$core..option..Option$LT$core..convert..Infallible$GT$$GT$$GT$13from_residual17h599a5e1ddaa159c8E"() unnamed_addr #0 {
start:
  ret i64 0
}

; <core::option::Option<T> as core::ops::try_trait::FromResidual<core::option::Option<core::convert::Infallible>>>::from_residual
; Function Attrs: inlinehint nonlazybind uwtable
define internal { i64, i64 } @"_ZN145_$LT$core..option..Option$LT$T$GT$$u20$as$u20$core..ops..try_trait..FromResidual$LT$core..option..Option$LT$core..convert..Infallible$GT$$GT$$GT$13from_residual17h7e388f3a69d2f396E"() unnamed_addr #0 {
start:
  ret { i64, i64 } { i64 0, i64 undef }
}

; <<alloc::collections::btree::map::IntoIter<K,V,A> as core::ops::drop::Drop>::drop::DropGuard<K,V,A> as core::ops::drop::Drop>::drop
; Function Attrs: nonlazybind uwtable
define internal void @"_ZN174_$LT$$LT$alloc..collections..btree..map..IntoIter$LT$K$C$V$C$A$GT$$u20$as$u20$core..ops..drop..Drop$GT$..drop..DropGuard$LT$K$C$V$C$A$GT$$u20$as$u20$core..ops..drop..Drop$GT$4drop17h379a366b8185ce01E"(ptr noalias noundef align 8 dereferenceable(8) %self) unnamed_addr #2 {
start:
  %kv = alloca [24 x i8], align 8
  %_2 = alloca [24 x i8], align 8
  br label %bb1

bb1:                                              ; preds = %bb3, %start
  call void @llvm.lifetime.start.p0(i64 24, ptr %_2)
  %_6 = load ptr, ptr %self, align 8, !nonnull !5, !align !6, !noundef !5
; call alloc::collections::btree::map::IntoIter<K,V,A>::dying_next
  call void @"_ZN5alloc11collections5btree3map25IntoIter$LT$K$C$V$C$A$GT$10dying_next17h5f1f75818cb99ba0E"(ptr noalias noundef sret([24 x i8]) align 8 captures(address) dereferenceable(24) %_2, ptr noalias noundef align 8 dereferenceable(72) %_6)
  %0 = load ptr, ptr %_2, align 8, !noundef !5
  %1 = ptrtoint ptr %0 to i64
  %2 = icmp eq i64 %1, 0
  %_3 = select i1 %2, i64 0, i64 1
  %3 = trunc nuw i64 %_3 to i1
  br i1 %3, label %bb3, label %bb5

bb3:                                              ; preds = %bb1
  call void @llvm.memcpy.p0.p0.i64(ptr align 8 %kv, ptr align 8 %_2, i64 24, i1 false)
; call alloc::collections::btree::node::Handle<alloc::collections::btree::node::NodeRef<alloc::collections::btree::node::marker::Dying,K,V,NodeType>,alloc::collections::btree::node::marker::KV>::drop_key_val
  call void @"_ZN5alloc11collections5btree4node173Handle$LT$alloc..collections..btree..node..NodeRef$LT$alloc..collections..btree..node..marker..Dying$C$K$C$V$C$NodeType$GT$$C$alloc..collections..btree..node..marker..KV$GT$12drop_key_val17h6a1bdf356ff5e763E"(ptr noalias noundef align 8 captures(address) dereferenceable(24) %kv)
  call void @llvm.lifetime.end.p0(i64 24, ptr %_2)
  br label %bb1

bb5:                                              ; preds = %bb1
  call void @llvm.lifetime.end.p0(i64 24, ptr %_2)
  ret void

bb6:                                              ; No predecessors!
  unreachable
}

; build_script_build::which_freebsd
; Function Attrs: nonlazybind uwtable
define internal { i32, i32 } @_ZN18build_script_build13which_freebsd17h9ab97bdbc6dd8edbE() unnamed_addr #2 personality ptr @rust_eh_personality {
start:
  %0 = alloca [16 x i8], align 8
  %_46 = alloca [24 x i8], align 8
  %_44 = alloca [8 x i8], align 8
  %_43 = alloca [24 x i8], align 8
  %_38 = alloca [56 x i8], align 8
  %_36 = alloca [8 x i8], align 8
  %_35 = alloca [56 x i8], align 8
  %_33 = alloca [1 x i8], align 1
  %s = alloca [8 x i8], align 8
  %val1 = alloca [24 x i8], align 8
  %_12 = alloca [24 x i8], align 8
  %_11 = alloca [40 x i8], align 8
  %_10 = alloca [24 x i8], align 8
  %_9 = alloca [24 x i8], align 8
  %stdout = alloca [24 x i8], align 8
  %val = alloca [56 x i8], align 8
  %_6 = alloca [200 x i8], align 8
  %_4 = alloca [56 x i8], align 8
  %_3 = alloca [56 x i8], align 8
  %_2 = alloca [56 x i8], align 8
  %output = alloca [56 x i8], align 8
  %_0 = alloca [8 x i8], align 4
  call void @llvm.lifetime.start.p0(i64 56, ptr %output)
  call void @llvm.lifetime.start.p0(i64 56, ptr %_2)
  call void @llvm.lifetime.start.p0(i64 56, ptr %_3)
  call void @llvm.lifetime.start.p0(i64 56, ptr %_4)
  call void @llvm.lifetime.start.p0(i64 200, ptr %_6)
; call std::process::Command::new
  call void @_ZN3std7process7Command3new17h1f6f225ad344e284E(ptr noalias noundef sret([200 x i8]) align 8 captures(address) dereferenceable(200) %_6, ptr noalias noundef nonnull readonly align 1 captures(address, read_provenance) @alloc_71264e62a593ae064235a5eb90a16b4a, i64 noundef 15)
; invoke std::process::Command::output
  invoke void @_ZN3std7process7Command6output17h43c2bcdedd19a7a1E(ptr noalias noundef sret([56 x i8]) align 8 captures(address) dereferenceable(56) %_4, ptr noalias noundef align 8 dereferenceable(200) %_6)
          to label %bb2 unwind label %cleanup

bb24:                                             ; preds = %cleanup
; invoke core::ptr::drop_in_place<std::process::Command>
  invoke void @"_ZN4core3ptr42drop_in_place$LT$std..process..Command$GT$17h3a0f51a54b3bc2a3E"(ptr noalias noundef align 8 dereferenceable(200) %_6) #28
          to label %bb25 unwind label %terminate

cleanup:                                          ; preds = %bb53, %bb36, %start
  %1 = landingpad { ptr, i32 }
          cleanup
  %2 = extractvalue { ptr, i32 } %1, 0
  %3 = extractvalue { ptr, i32 } %1, 1
  call void @llvm.lifetime.start.p0(i64 16, ptr %0)
  store ptr %2, ptr %0, align 8
  %4 = getelementptr inbounds i8, ptr %0, i64 8
  store i32 %3, ptr %4, align 8
  br label %bb24

bb2:                                              ; preds = %start
  call void @llvm.lifetime.start.p0(i64 56, ptr %_35)
  call void @llvm.lifetime.start.p0(i64 8, ptr %_36)
  %5 = load i64, ptr %_4, align 8, !range !11, !noundef !5
  %6 = icmp eq i64 %5, -9223372036854775808
  %_34 = select i1 %6, i64 1, i64 0
  %7 = trunc nuw i64 %_34 to i1
  br i1 %7, label %bb33, label %bb34

bb33:                                             ; preds = %bb2
  store i64 -9223372036854775808, ptr %_3, align 8
  %8 = load i64, ptr %_4, align 8, !range !11, !noundef !5
  %9 = icmp eq i64 %8, -9223372036854775808
  %10 = select i1 %9, i64 1, i64 0
  store i64 %10, ptr %_36, align 8
  %11 = load i64, ptr %_36, align 8, !noundef !5
  %12 = trunc nuw i64 %11 to i1
  br i1 %12, label %bb53, label %bb35

bb34:                                             ; preds = %bb2
  call void @llvm.memcpy.p0.p0.i64(ptr align 8 %_35, ptr align 8 %_4, i64 56, i1 false)
  call void @llvm.memcpy.p0.p0.i64(ptr align 8 %_3, ptr align 8 %_35, i64 56, i1 false)
  %13 = load i64, ptr %_4, align 8, !range !11, !noundef !5
  %14 = icmp eq i64 %13, -9223372036854775808
  %15 = select i1 %14, i64 1, i64 0
  store i64 %15, ptr %_36, align 8
  %16 = load i64, ptr %_36, align 8, !noundef !5
  %17 = trunc nuw i64 %16 to i1
  br i1 %17, label %bb36, label %bb35

bb36:                                             ; preds = %bb34
; invoke core::ptr::drop_in_place<core::result::Result<std::process::Output,std::io::error::Error>>
  invoke void @"_ZN4core3ptr93drop_in_place$LT$core..result..Result$LT$std..process..Output$C$std..io..error..Error$GT$$GT$17hbcc5e18900bc5f28E"(ptr noalias noundef align 8 dereferenceable(56) %_4)
          to label %bb55 unwind label %cleanup

bb35:                                             ; preds = %bb33, %bb34
  call void @llvm.lifetime.end.p0(i64 8, ptr %_36)
  call void @llvm.lifetime.end.p0(i64 56, ptr %_35)
  call void @llvm.lifetime.end.p0(i64 56, ptr %_4)
  call void @llvm.lifetime.start.p0(i64 56, ptr %_38)
  %18 = load i64, ptr %_3, align 8, !range !11, !noundef !5
  %19 = icmp eq i64 %18, -9223372036854775808
  %_37 = select i1 %19, i64 0, i64 1
  %20 = trunc nuw i64 %_37 to i1
  br i1 %20, label %bb38, label %bb37

bb55:                                             ; preds = %bb36
  call void @llvm.lifetime.end.p0(i64 8, ptr %_36)
  call void @llvm.lifetime.end.p0(i64 56, ptr %_35)
  call void @llvm.lifetime.end.p0(i64 56, ptr %_4)
  call void @llvm.lifetime.start.p0(i64 56, ptr %_38)
  br label %bb38

bb38:                                             ; preds = %bb35, %bb55
  call void @llvm.memcpy.p0.p0.i64(ptr align 8 %_38, ptr align 8 %_3, i64 56, i1 false)
  call void @llvm.memcpy.p0.p0.i64(ptr align 8 %_2, ptr align 8 %_38, i64 56, i1 false)
  call void @llvm.lifetime.end.p0(i64 56, ptr %_38)
  call void @llvm.lifetime.end.p0(i64 56, ptr %_3)
  call void @llvm.lifetime.start.p0(i64 56, ptr %val)
  call void @llvm.memcpy.p0.p0.i64(ptr align 8 %val, ptr align 8 %_2, i64 56, i1 false)
  store i8 1, ptr %_33, align 1
  call void @llvm.memcpy.p0.p0.i64(ptr align 8 %output, ptr align 8 %val, i64 56, i1 false)
  call void @llvm.lifetime.end.p0(i64 56, ptr %val)
; invoke core::ptr::drop_in_place<std::process::Command>
  invoke void @"_ZN4core3ptr42drop_in_place$LT$std..process..Command$GT$17h3a0f51a54b3bc2a3E"(ptr noalias noundef align 8 dereferenceable(200) %_6)
          to label %bb4 unwind label %cleanup2

bb53:                                             ; preds = %bb33
; invoke core::ptr::drop_in_place<core::result::Result<std::process::Output,std::io::error::Error>>
  invoke void @"_ZN4core3ptr93drop_in_place$LT$core..result..Result$LT$std..process..Output$C$std..io..error..Error$GT$$GT$17hbcc5e18900bc5f28E"(ptr noalias noundef align 8 dereferenceable(56) %_4)
          to label %bb54 unwind label %cleanup

bb37:                                             ; preds = %bb54, %bb35
  call void @llvm.lifetime.end.p0(i64 56, ptr %_38)
  call void @llvm.lifetime.end.p0(i64 56, ptr %_3)
  %21 = load i32, ptr @anon.343ad20a3284b1f9e404afc411eb8ab2.2, align 4, !range !4, !noundef !5
  %22 = load i32, ptr getelementptr inbounds (i8, ptr @anon.343ad20a3284b1f9e404afc411eb8ab2.2, i64 4), align 4
  store i32 %21, ptr %_0, align 4
  %23 = getelementptr inbounds i8, ptr %_0, i64 4
  store i32 %22, ptr %23, align 4
; call core::ptr::drop_in_place<std::process::Command>
  call void @"_ZN4core3ptr42drop_in_place$LT$std..process..Command$GT$17h3a0f51a54b3bc2a3E"(ptr noalias noundef align 8 dereferenceable(200) %_6)
  call void @llvm.lifetime.end.p0(i64 200, ptr %_6)
  call void @llvm.lifetime.end.p0(i64 56, ptr %_2)
  br label %bb21

bb32:                                             ; preds = %bb23, %cleanup2
  %24 = load i8, ptr %_33, align 1, !range !9, !noundef !5
  %25 = trunc nuw i8 %24 to i1
  br i1 %25, label %bb31, label %bb30

cleanup2:                                         ; preds = %bb56, %bb18, %bb44, %bb39, %bb38
  %26 = landingpad { ptr, i32 }
          cleanup
  %27 = extractvalue { ptr, i32 } %26, 0
  %28 = extractvalue { ptr, i32 } %26, 1
  call void @llvm.lifetime.start.p0(i64 16, ptr %0)
  store ptr %27, ptr %0, align 8
  %29 = getelementptr inbounds i8, ptr %0, i64 8
  store i32 %28, ptr %29, align 8
  br label %bb32

bb4:                                              ; preds = %bb38
  call void @llvm.lifetime.end.p0(i64 200, ptr %_6)
  call void @llvm.lifetime.end.p0(i64 56, ptr %_2)
  %30 = getelementptr inbounds i8, ptr %output, i64 48
  %_39 = load i32, ptr %30, align 8, !noundef !5
  %31 = icmp eq i32 %_39, 0
  %_41 = select i1 %31, i64 0, i64 1
  %32 = trunc nuw i64 %_41 to i1
  br i1 %32, label %bb40, label %bb39

bb40:                                             ; preds = %bb4
  %33 = load i32, ptr @anon.343ad20a3284b1f9e404afc411eb8ab2.2, align 4, !range !4, !noundef !5
  %34 = load i32, ptr getelementptr inbounds (i8, ptr @anon.343ad20a3284b1f9e404afc411eb8ab2.2, i64 4), align 4
  store i32 %33, ptr %_0, align 4
  %35 = getelementptr inbounds i8, ptr %_0, i64 4
  store i32 %34, ptr %35, align 4
  br label %bb29

bb39:                                             ; preds = %bb4
  call void @llvm.lifetime.start.p0(i64 24, ptr %stdout)
  call void @llvm.lifetime.start.p0(i64 24, ptr %_9)
  call void @llvm.lifetime.start.p0(i64 24, ptr %_10)
  call void @llvm.lifetime.start.p0(i64 40, ptr %_11)
  call void @llvm.lifetime.start.p0(i64 24, ptr %_12)
  store i8 0, ptr %_33, align 1
  call void @llvm.memcpy.p0.p0.i64(ptr align 8 %_12, ptr align 8 %output, i64 24, i1 false)
; invoke alloc::string::String::from_utf8
  invoke void @_ZN5alloc6string6String9from_utf817h5068d2e87c18bec7E(ptr noalias noundef sret([40 x i8]) align 8 captures(address) dereferenceable(40) %_11, ptr noalias noundef align 8 captures(address) dereferenceable(24) %_12)
          to label %bb5 unwind label %cleanup2

bb5:                                              ; preds = %bb39
  call void @llvm.lifetime.end.p0(i64 24, ptr %_12)
  call void @llvm.lifetime.start.p0(i64 24, ptr %_43)
  call void @llvm.lifetime.start.p0(i64 8, ptr %_44)
  %36 = load i64, ptr %_11, align 8, !range !11, !noundef !5
  %37 = icmp eq i64 %36, -9223372036854775808
  %_42 = select i1 %37, i64 0, i64 1
  %38 = trunc nuw i64 %_42 to i1
  br i1 %38, label %bb41, label %bb42

bb41:                                             ; preds = %bb5
  store i64 -9223372036854775808, ptr %_10, align 8
  %39 = load i64, ptr %_11, align 8, !range !11, !noundef !5
  %40 = icmp eq i64 %39, -9223372036854775808
  %41 = select i1 %40, i64 0, i64 1
  store i64 %41, ptr %_44, align 8
  %42 = load i64, ptr %_44, align 8, !noundef !5
  %43 = trunc nuw i64 %42 to i1
  br i1 %43, label %bb56, label %bb43

bb42:                                             ; preds = %bb5
  %44 = getelementptr inbounds i8, ptr %_11, i64 8
  call void @llvm.memcpy.p0.p0.i64(ptr align 8 %_43, ptr align 8 %44, i64 24, i1 false)
  call void @llvm.memcpy.p0.p0.i64(ptr align 8 %_10, ptr align 8 %_43, i64 24, i1 false)
  %45 = load i64, ptr %_11, align 8, !range !11, !noundef !5
  %46 = icmp eq i64 %45, -9223372036854775808
  %47 = select i1 %46, i64 0, i64 1
  store i64 %47, ptr %_44, align 8
  %48 = load i64, ptr %_44, align 8, !noundef !5
  %49 = trunc nuw i64 %48 to i1
  br i1 %49, label %bb44, label %bb43

bb44:                                             ; preds = %bb42
; invoke core::ptr::drop_in_place<core::result::Result<alloc::string::String,alloc::string::FromUtf8Error>>
  invoke void @"_ZN4core3ptr101drop_in_place$LT$core..result..Result$LT$alloc..string..String$C$alloc..string..FromUtf8Error$GT$$GT$17heb0f0650077c42fcE"(ptr noalias noundef align 8 dereferenceable(40) %_11)
          to label %bb58 unwind label %cleanup2

bb43:                                             ; preds = %bb41, %bb42
  call void @llvm.lifetime.end.p0(i64 8, ptr %_44)
  call void @llvm.lifetime.end.p0(i64 24, ptr %_43)
  call void @llvm.lifetime.end.p0(i64 40, ptr %_11)
  call void @llvm.lifetime.start.p0(i64 24, ptr %_46)
  %50 = load i64, ptr %_10, align 8, !range !11, !noundef !5
  %51 = icmp eq i64 %50, -9223372036854775808
  %_45 = select i1 %51, i64 0, i64 1
  %52 = trunc nuw i64 %_45 to i1
  br i1 %52, label %bb46, label %bb45

bb58:                                             ; preds = %bb44
  call void @llvm.lifetime.end.p0(i64 8, ptr %_44)
  call void @llvm.lifetime.end.p0(i64 24, ptr %_43)
  call void @llvm.lifetime.end.p0(i64 40, ptr %_11)
  call void @llvm.lifetime.start.p0(i64 24, ptr %_46)
  br label %bb46

bb46:                                             ; preds = %bb43, %bb58
  call void @llvm.memcpy.p0.p0.i64(ptr align 8 %_46, ptr align 8 %_10, i64 24, i1 false)
  call void @llvm.memcpy.p0.p0.i64(ptr align 8 %_9, ptr align 8 %_46, i64 24, i1 false)
  call void @llvm.lifetime.end.p0(i64 24, ptr %_46)
  call void @llvm.lifetime.end.p0(i64 24, ptr %_10)
  call void @llvm.lifetime.start.p0(i64 24, ptr %val1)
  call void @llvm.memcpy.p0.p0.i64(ptr align 8 %val1, ptr align 8 %_9, i64 24, i1 false)
  call void @llvm.memcpy.p0.p0.i64(ptr align 8 %stdout, ptr align 8 %val1, i64 24, i1 false)
  call void @llvm.lifetime.end.p0(i64 24, ptr %val1)
  call void @llvm.lifetime.end.p0(i64 24, ptr %_9)
  store ptr %stdout, ptr %s, align 8
  %53 = getelementptr inbounds i8, ptr %stdout, i64 8
  %_50 = load ptr, ptr %53, align 8, !nonnull !5, !noundef !5
  %54 = icmp ne ptr %_50, null
  call void @llvm.assume(i1 %54)
  %55 = getelementptr inbounds i8, ptr %stdout, i64 16
  %_49 = load i64, ptr %55, align 8, !noundef !5
; invoke core::slice::<impl [T]>::starts_with
  %_16 = invoke noundef zeroext i1 @"_ZN4core5slice29_$LT$impl$u20$$u5b$T$u5d$$GT$11starts_with17h34e32d45ec9f2302E"(ptr noalias noundef nonnull readonly align 1 captures(address, read_provenance) %_50, i64 noundef %_49, ptr noalias noundef nonnull readonly align 1 captures(address, read_provenance) @alloc_e9aa3e56236bea0534a07b33b08bbbe6, i64 noundef 2)
          to label %bb47 unwind label %cleanup3

bb56:                                             ; preds = %bb41
; invoke core::ptr::drop_in_place<core::result::Result<alloc::string::String,alloc::string::FromUtf8Error>>
  invoke void @"_ZN4core3ptr101drop_in_place$LT$core..result..Result$LT$alloc..string..String$C$alloc..string..FromUtf8Error$GT$$GT$17heb0f0650077c42fcE"(ptr noalias noundef align 8 dereferenceable(40) %_11)
          to label %bb57 unwind label %cleanup2

bb45:                                             ; preds = %bb57, %bb43
  call void @llvm.lifetime.end.p0(i64 24, ptr %_46)
  call void @llvm.lifetime.end.p0(i64 24, ptr %_10)
  %56 = load i32, ptr @anon.343ad20a3284b1f9e404afc411eb8ab2.2, align 4, !range !4, !noundef !5
  %57 = load i32, ptr getelementptr inbounds (i8, ptr @anon.343ad20a3284b1f9e404afc411eb8ab2.2, i64 4), align 4
  store i32 %56, ptr %_0, align 4
  %58 = getelementptr inbounds i8, ptr %_0, i64 4
  store i32 %57, ptr %58, align 4
  call void @llvm.lifetime.end.p0(i64 24, ptr %_9)
  call void @llvm.lifetime.end.p0(i64 24, ptr %stdout)
  %59 = load i8, ptr %_33, align 1, !range !9, !noundef !5
  %60 = trunc nuw i8 %59 to i1
  br i1 %60, label %bb29, label %bb28

bb23:                                             ; preds = %cleanup3
; invoke core::ptr::drop_in_place<alloc::string::String>
  invoke void @"_ZN4core3ptr42drop_in_place$LT$alloc..string..String$GT$17h8ae59710cce54b6aE"(ptr noalias noundef align 8 dereferenceable(24) %stdout) #28
          to label %bb32 unwind label %terminate

cleanup3:                                         ; preds = %bb15, %bb13, %bb11, %bb9, %bb7, %bb46
  %61 = landingpad { ptr, i32 }
          cleanup
  %62 = extractvalue { ptr, i32 } %61, 0
  %63 = extractvalue { ptr, i32 } %61, 1
  call void @llvm.lifetime.start.p0(i64 16, ptr %0)
  store ptr %62, ptr %0, align 8
  %64 = getelementptr inbounds i8, ptr %0, i64 8
  store i32 %63, ptr %64, align 8
  br label %bb23

bb47:                                             ; preds = %bb46
  br i1 %_16, label %bb6, label %bb7

bb7:                                              ; preds = %bb47
  %65 = getelementptr inbounds i8, ptr %stdout, i64 8
  %_57 = load ptr, ptr %65, align 8, !nonnull !5, !noundef !5
  %66 = icmp ne ptr %_57, null
  call void @llvm.assume(i1 %66)
  %67 = getelementptr inbounds i8, ptr %stdout, i64 16
  %_56 = load i64, ptr %67, align 8, !noundef !5
; invoke core::slice::<impl [T]>::starts_with
  %_19 = invoke noundef zeroext i1 @"_ZN4core5slice29_$LT$impl$u20$$u5b$T$u5d$$GT$11starts_with17h34e32d45ec9f2302E"(ptr noalias noundef nonnull readonly align 1 captures(address, read_provenance) %_57, i64 noundef %_56, ptr noalias noundef nonnull readonly align 1 captures(address, read_provenance) @alloc_ae52c2733f312a4a903aef7e6436cb13, i64 noundef 2)
          to label %bb48 unwind label %cleanup3

bb6:                                              ; preds = %bb47
  %68 = load i32, ptr @anon.343ad20a3284b1f9e404afc411eb8ab2.8, align 4, !range !4, !noundef !5
  %69 = load i32, ptr getelementptr inbounds (i8, ptr @anon.343ad20a3284b1f9e404afc411eb8ab2.8, i64 4), align 4
  store i32 %68, ptr %_0, align 4
  %70 = getelementptr inbounds i8, ptr %_0, i64 4
  store i32 %69, ptr %70, align 4
  br label %bb18

bb48:                                             ; preds = %bb7
  br i1 %_19, label %bb8, label %bb9

bb9:                                              ; preds = %bb48
  %71 = getelementptr inbounds i8, ptr %stdout, i64 8
  %_64 = load ptr, ptr %71, align 8, !nonnull !5, !noundef !5
  %72 = icmp ne ptr %_64, null
  call void @llvm.assume(i1 %72)
  %73 = getelementptr inbounds i8, ptr %stdout, i64 16
  %_63 = load i64, ptr %73, align 8, !noundef !5
; invoke core::slice::<impl [T]>::starts_with
  %_22 = invoke noundef zeroext i1 @"_ZN4core5slice29_$LT$impl$u20$$u5b$T$u5d$$GT$11starts_with17h34e32d45ec9f2302E"(ptr noalias noundef nonnull readonly align 1 captures(address, read_provenance) %_64, i64 noundef %_63, ptr noalias noundef nonnull readonly align 1 captures(address, read_provenance) @alloc_3b059e5eb8e06e7498f909e7a08cef57, i64 noundef 2)
          to label %bb49 unwind label %cleanup3

bb8:                                              ; preds = %bb48
  %74 = load i32, ptr @anon.343ad20a3284b1f9e404afc411eb8ab2.7, align 4, !range !4, !noundef !5
  %75 = load i32, ptr getelementptr inbounds (i8, ptr @anon.343ad20a3284b1f9e404afc411eb8ab2.7, i64 4), align 4
  store i32 %74, ptr %_0, align 4
  %76 = getelementptr inbounds i8, ptr %_0, i64 4
  store i32 %75, ptr %76, align 4
  br label %bb18

bb49:                                             ; preds = %bb9
  br i1 %_22, label %bb10, label %bb11

bb11:                                             ; preds = %bb49
  %77 = getelementptr inbounds i8, ptr %stdout, i64 8
  %_71 = load ptr, ptr %77, align 8, !nonnull !5, !noundef !5
  %78 = icmp ne ptr %_71, null
  call void @llvm.assume(i1 %78)
  %79 = getelementptr inbounds i8, ptr %stdout, i64 16
  %_70 = load i64, ptr %79, align 8, !noundef !5
; invoke core::slice::<impl [T]>::starts_with
  %_25 = invoke noundef zeroext i1 @"_ZN4core5slice29_$LT$impl$u20$$u5b$T$u5d$$GT$11starts_with17h34e32d45ec9f2302E"(ptr noalias noundef nonnull readonly align 1 captures(address, read_provenance) %_71, i64 noundef %_70, ptr noalias noundef nonnull readonly align 1 captures(address, read_provenance) @alloc_d57d03743ee0b3cf85ca6cc66dce7f4d, i64 noundef 2)
          to label %bb50 unwind label %cleanup3

bb10:                                             ; preds = %bb49
  %80 = load i32, ptr @anon.343ad20a3284b1f9e404afc411eb8ab2.6, align 4, !range !4, !noundef !5
  %81 = load i32, ptr getelementptr inbounds (i8, ptr @anon.343ad20a3284b1f9e404afc411eb8ab2.6, i64 4), align 4
  store i32 %80, ptr %_0, align 4
  %82 = getelementptr inbounds i8, ptr %_0, i64 4
  store i32 %81, ptr %82, align 4
  br label %bb18

bb50:                                             ; preds = %bb11
  br i1 %_25, label %bb12, label %bb13

bb13:                                             ; preds = %bb50
  %83 = getelementptr inbounds i8, ptr %stdout, i64 8
  %_78 = load ptr, ptr %83, align 8, !nonnull !5, !noundef !5
  %84 = icmp ne ptr %_78, null
  call void @llvm.assume(i1 %84)
  %85 = getelementptr inbounds i8, ptr %stdout, i64 16
  %_77 = load i64, ptr %85, align 8, !noundef !5
; invoke core::slice::<impl [T]>::starts_with
  %_28 = invoke noundef zeroext i1 @"_ZN4core5slice29_$LT$impl$u20$$u5b$T$u5d$$GT$11starts_with17h34e32d45ec9f2302E"(ptr noalias noundef nonnull readonly align 1 captures(address, read_provenance) %_78, i64 noundef %_77, ptr noalias noundef nonnull readonly align 1 captures(address, read_provenance) @alloc_e33ac00bdbd8c0cbb04273e924bd654c, i64 noundef 2)
          to label %bb51 unwind label %cleanup3

bb12:                                             ; preds = %bb50
  %86 = load i32, ptr @anon.343ad20a3284b1f9e404afc411eb8ab2.5, align 4, !range !4, !noundef !5
  %87 = load i32, ptr getelementptr inbounds (i8, ptr @anon.343ad20a3284b1f9e404afc411eb8ab2.5, i64 4), align 4
  store i32 %86, ptr %_0, align 4
  %88 = getelementptr inbounds i8, ptr %_0, i64 4
  store i32 %87, ptr %88, align 4
  br label %bb18

bb51:                                             ; preds = %bb13
  br i1 %_28, label %bb14, label %bb15

bb15:                                             ; preds = %bb51
  %89 = getelementptr inbounds i8, ptr %stdout, i64 8
  %_85 = load ptr, ptr %89, align 8, !nonnull !5, !noundef !5
  %90 = icmp ne ptr %_85, null
  call void @llvm.assume(i1 %90)
  %91 = getelementptr inbounds i8, ptr %stdout, i64 16
  %_84 = load i64, ptr %91, align 8, !noundef !5
; invoke core::slice::<impl [T]>::starts_with
  %_31 = invoke noundef zeroext i1 @"_ZN4core5slice29_$LT$impl$u20$$u5b$T$u5d$$GT$11starts_with17h34e32d45ec9f2302E"(ptr noalias noundef nonnull readonly align 1 captures(address, read_provenance) %_85, i64 noundef %_84, ptr noalias noundef nonnull readonly align 1 captures(address, read_provenance) @alloc_27f411dcc9955beae922af37f2bb21f7, i64 noundef 2)
          to label %bb52 unwind label %cleanup3

bb14:                                             ; preds = %bb51
  %92 = load i32, ptr @anon.343ad20a3284b1f9e404afc411eb8ab2.4, align 4, !range !4, !noundef !5
  %93 = load i32, ptr getelementptr inbounds (i8, ptr @anon.343ad20a3284b1f9e404afc411eb8ab2.4, i64 4), align 4
  store i32 %92, ptr %_0, align 4
  %94 = getelementptr inbounds i8, ptr %_0, i64 4
  store i32 %93, ptr %94, align 4
  br label %bb18

bb52:                                             ; preds = %bb15
  br i1 %_31, label %bb16, label %bb17

bb17:                                             ; preds = %bb52
  %95 = load i32, ptr @anon.343ad20a3284b1f9e404afc411eb8ab2.2, align 4, !range !4, !noundef !5
  %96 = load i32, ptr getelementptr inbounds (i8, ptr @anon.343ad20a3284b1f9e404afc411eb8ab2.2, i64 4), align 4
  store i32 %95, ptr %_0, align 4
  %97 = getelementptr inbounds i8, ptr %_0, i64 4
  store i32 %96, ptr %97, align 4
  br label %bb18

bb16:                                             ; preds = %bb52
  %98 = load i32, ptr @anon.343ad20a3284b1f9e404afc411eb8ab2.3, align 4, !range !4, !noundef !5
  %99 = load i32, ptr getelementptr inbounds (i8, ptr @anon.343ad20a3284b1f9e404afc411eb8ab2.3, i64 4), align 4
  store i32 %98, ptr %_0, align 4
  %100 = getelementptr inbounds i8, ptr %_0, i64 4
  store i32 %99, ptr %100, align 4
  br label %bb18

bb18:                                             ; preds = %bb6, %bb8, %bb10, %bb12, %bb14, %bb16, %bb17
; invoke core::ptr::drop_in_place<alloc::string::String>
  invoke void @"_ZN4core3ptr42drop_in_place$LT$alloc..string..String$GT$17h8ae59710cce54b6aE"(ptr noalias noundef align 8 dereferenceable(24) %stdout)
          to label %bb19 unwind label %cleanup2

bb19:                                             ; preds = %bb18
  call void @llvm.lifetime.end.p0(i64 24, ptr %stdout)
  %101 = getelementptr inbounds i8, ptr %output, i64 24
; call core::ptr::drop_in_place<alloc::vec::Vec<u8>>
  call void @"_ZN4core3ptr46drop_in_place$LT$alloc..vec..Vec$LT$u8$GT$$GT$17hcf90c8bc2ab7ef0dE"(ptr noalias noundef align 8 dereferenceable(24) %101)
  call void @llvm.lifetime.end.p0(i64 56, ptr %output)
  br label %bb22

bb22:                                             ; preds = %bb21, %bb19
  %102 = load i32, ptr %_0, align 4, !range !4, !noundef !5
  %103 = getelementptr inbounds i8, ptr %_0, i64 4
  %104 = load i32, ptr %103, align 4
  %105 = insertvalue { i32, i32 } poison, i32 %102, 0
  %106 = insertvalue { i32, i32 } %105, i32 %104, 1
  ret { i32, i32 } %106

terminate:                                        ; preds = %bb24, %bb30, %bb31, %bb27, %bb23
  %107 = landingpad { ptr, i32 }
          filter [0 x ptr] zeroinitializer
; call core::panicking::panic_in_cleanup
  call void @_ZN4core9panicking16panic_in_cleanup17h5eff40bcc4481d72E() #29
  unreachable

bb57:                                             ; preds = %bb56
  call void @llvm.lifetime.end.p0(i64 8, ptr %_44)
  call void @llvm.lifetime.end.p0(i64 24, ptr %_43)
  call void @llvm.lifetime.end.p0(i64 40, ptr %_11)
  call void @llvm.lifetime.start.p0(i64 24, ptr %_46)
  br label %bb45

bb28:                                             ; preds = %bb29, %bb45
  %108 = getelementptr inbounds i8, ptr %output, i64 24
; call core::ptr::drop_in_place<alloc::vec::Vec<u8>>
  call void @"_ZN4core3ptr46drop_in_place$LT$alloc..vec..Vec$LT$u8$GT$$GT$17hcf90c8bc2ab7ef0dE"(ptr noalias noundef align 8 dereferenceable(24) %108)
  br label %bb21

bb29:                                             ; preds = %bb40, %bb45
; invoke core::ptr::drop_in_place<alloc::vec::Vec<u8>>
  invoke void @"_ZN4core3ptr46drop_in_place$LT$alloc..vec..Vec$LT$u8$GT$$GT$17hcf90c8bc2ab7ef0dE"(ptr noalias noundef align 8 dereferenceable(24) %output)
          to label %bb28 unwind label %cleanup4

bb27:                                             ; preds = %cleanup4
  %109 = getelementptr inbounds i8, ptr %output, i64 24
; invoke core::ptr::drop_in_place<alloc::vec::Vec<u8>>
  invoke void @"_ZN4core3ptr46drop_in_place$LT$alloc..vec..Vec$LT$u8$GT$$GT$17hcf90c8bc2ab7ef0dE"(ptr noalias noundef align 8 dereferenceable(24) %109) #28
          to label %bb25 unwind label %terminate

cleanup4:                                         ; preds = %bb29
  %110 = landingpad { ptr, i32 }
          cleanup
  %111 = extractvalue { ptr, i32 } %110, 0
  %112 = extractvalue { ptr, i32 } %110, 1
  call void @llvm.lifetime.start.p0(i64 16, ptr %0)
  store ptr %111, ptr %0, align 8
  %113 = getelementptr inbounds i8, ptr %0, i64 8
  store i32 %112, ptr %113, align 8
  br label %bb27

bb21:                                             ; preds = %bb37, %bb28
  call void @llvm.lifetime.end.p0(i64 56, ptr %output)
  br label %bb22

bb25:                                             ; preds = %bb24, %bb30, %bb27
  %114 = load ptr, ptr %0, align 8, !noundef !5
  %115 = getelementptr inbounds i8, ptr %0, i64 8
  %116 = load i32, ptr %115, align 8, !noundef !5
  call void @llvm.lifetime.end.p0(i64 16, ptr %0)
  %117 = insertvalue { ptr, i32 } poison, ptr %114, 0
  %118 = insertvalue { ptr, i32 } %117, i32 %116, 1
  resume { ptr, i32 } %118

bb30:                                             ; preds = %bb31, %bb32
  %119 = getelementptr inbounds i8, ptr %output, i64 24
; invoke core::ptr::drop_in_place<alloc::vec::Vec<u8>>
  invoke void @"_ZN4core3ptr46drop_in_place$LT$alloc..vec..Vec$LT$u8$GT$$GT$17hcf90c8bc2ab7ef0dE"(ptr noalias noundef align 8 dereferenceable(24) %119) #28
          to label %bb25 unwind label %terminate

bb31:                                             ; preds = %bb32
; invoke core::ptr::drop_in_place<alloc::vec::Vec<u8>>
  invoke void @"_ZN4core3ptr46drop_in_place$LT$alloc..vec..Vec$LT$u8$GT$$GT$17hcf90c8bc2ab7ef0dE"(ptr noalias noundef align 8 dereferenceable(24) %output) #28
          to label %bb30 unwind label %terminate

bb54:                                             ; preds = %bb53
  call void @llvm.lifetime.end.p0(i64 8, ptr %_36)
  call void @llvm.lifetime.end.p0(i64 56, ptr %_35)
  call void @llvm.lifetime.end.p0(i64 56, ptr %_4)
  call void @llvm.lifetime.start.p0(i64 56, ptr %_38)
  br label %bb37

bb3:                                              ; No predecessors!
  unreachable
}

; build_script_build::emcc_version_code
; Function Attrs: nonlazybind uwtable
define internal { i64, i64 } @_ZN18build_script_build17emcc_version_code17hc9cf8d7e87820b3bE() unnamed_addr #2 personality ptr @rust_eh_personality {
start:
  %0 = alloca [8 x i8], align 8
  %1 = alloca [16 x i8], align 8
  %_80 = alloca [16 x i8], align 8
  %_72 = alloca [16 x i8], align 8
  %_64 = alloca [16 x i8], align 8
  %_60 = alloca [8 x i8], align 4
  %_59 = alloca [48 x i8], align 8
  %_57 = alloca [48 x i8], align 8
  %_55 = alloca [72 x i8], align 8
  %_49 = alloca [24 x i8], align 8
  %_47 = alloca [8 x i8], align 8
  %_46 = alloca [24 x i8], align 8
  %_41 = alloca [56 x i8], align 8
  %_39 = alloca [8 x i8], align 8
  %_38 = alloca [56 x i8], align 8
  %_36 = alloca [1 x i8], align 1
  %_28 = alloca [16 x i8], align 8
  %_27 = alloca [16 x i8], align 8
  %patch = alloca [8 x i8], align 8
  %_25 = alloca [16 x i8], align 8
  %_24 = alloca [16 x i8], align 8
  %minor = alloca [8 x i8], align 8
  %_22 = alloca [16 x i8], align 8
  %_21 = alloca [16 x i8], align 8
  %major = alloca [8 x i8], align 8
  %_19 = alloca [8 x i8], align 4
  %pieces = alloca [72 x i8], align 8
  %val1 = alloca [24 x i8], align 8
  %_14 = alloca [24 x i8], align 8
  %_13 = alloca [40 x i8], align 8
  %_12 = alloca [24 x i8], align 8
  %_11 = alloca [24 x i8], align 8
  %version = alloca [24 x i8], align 8
  %val = alloca [56 x i8], align 8
  %_8 = alloca [200 x i8], align 8
  %_5 = alloca [56 x i8], align 8
  %_4 = alloca [56 x i8], align 8
  %_3 = alloca [56 x i8], align 8
  %output = alloca [56 x i8], align 8
  %_0 = alloca [16 x i8], align 8
  call void @llvm.lifetime.start.p0(i64 56, ptr %output)
  call void @llvm.lifetime.start.p0(i64 56, ptr %_3)
  call void @llvm.lifetime.start.p0(i64 56, ptr %_4)
  call void @llvm.lifetime.start.p0(i64 56, ptr %_5)
  call void @llvm.lifetime.start.p0(i64 200, ptr %_8)
; call std::process::Command::new
  call void @_ZN3std7process7Command3new17h1f6f225ad344e284E(ptr noalias noundef sret([200 x i8]) align 8 captures(address) dereferenceable(200) %_8, ptr noalias noundef nonnull readonly align 1 captures(address, read_provenance) @alloc_e7b0dd178336291b9ad3b8b25bc77cb0, i64 noundef 4)
; invoke std::process::Command::arg
  %_6 = invoke noundef align 8 dereferenceable(200) ptr @_ZN3std7process7Command3arg17hdb3f97a3b0059374E(ptr noalias noundef align 8 dereferenceable(200) %_8, ptr noalias noundef nonnull readonly align 1 captures(address, read_provenance) @alloc_53695a5ce3568835c4a92269d444b5c9, i64 noundef 12)
          to label %bb2 unwind label %cleanup

bb12:                                             ; preds = %cleanup
; invoke core::ptr::drop_in_place<std::process::Command>
  invoke void @"_ZN4core3ptr42drop_in_place$LT$std..process..Command$GT$17h3a0f51a54b3bc2a3E"(ptr noalias noundef align 8 dereferenceable(200) %_8) #28
          to label %bb13 unwind label %terminate

cleanup:                                          ; preds = %bb61, %bb24, %bb2, %start
  %2 = landingpad { ptr, i32 }
          cleanup
  %3 = extractvalue { ptr, i32 } %2, 0
  %4 = extractvalue { ptr, i32 } %2, 1
  call void @llvm.lifetime.start.p0(i64 16, ptr %1)
  store ptr %3, ptr %1, align 8
  %5 = getelementptr inbounds i8, ptr %1, i64 8
  store i32 %4, ptr %5, align 8
  br label %bb12

bb2:                                              ; preds = %start
; invoke std::process::Command::output
  invoke void @_ZN3std7process7Command6output17h43c2bcdedd19a7a1E(ptr noalias noundef sret([56 x i8]) align 8 captures(address) dereferenceable(56) %_5, ptr noalias noundef align 8 dereferenceable(200) %_6)
          to label %bb3 unwind label %cleanup

bb3:                                              ; preds = %bb2
  call void @llvm.lifetime.start.p0(i64 56, ptr %_38)
  call void @llvm.lifetime.start.p0(i64 8, ptr %_39)
  %6 = load i64, ptr %_5, align 8, !range !11, !noundef !5
  %7 = icmp eq i64 %6, -9223372036854775808
  %_37 = select i1 %7, i64 1, i64 0
  %8 = trunc nuw i64 %_37 to i1
  br i1 %8, label %bb21, label %bb22

bb21:                                             ; preds = %bb3
  store i64 -9223372036854775808, ptr %_4, align 8
  %9 = load i64, ptr %_5, align 8, !range !11, !noundef !5
  %10 = icmp eq i64 %9, -9223372036854775808
  %11 = select i1 %10, i64 1, i64 0
  store i64 %11, ptr %_39, align 8
  %12 = load i64, ptr %_39, align 8, !noundef !5
  %13 = trunc nuw i64 %12 to i1
  br i1 %13, label %bb61, label %bb23

bb22:                                             ; preds = %bb3
  call void @llvm.memcpy.p0.p0.i64(ptr align 8 %_38, ptr align 8 %_5, i64 56, i1 false)
  call void @llvm.memcpy.p0.p0.i64(ptr align 8 %_4, ptr align 8 %_38, i64 56, i1 false)
  %14 = load i64, ptr %_5, align 8, !range !11, !noundef !5
  %15 = icmp eq i64 %14, -9223372036854775808
  %16 = select i1 %15, i64 1, i64 0
  store i64 %16, ptr %_39, align 8
  %17 = load i64, ptr %_39, align 8, !noundef !5
  %18 = trunc nuw i64 %17 to i1
  br i1 %18, label %bb24, label %bb23

bb24:                                             ; preds = %bb22
; invoke core::ptr::drop_in_place<core::result::Result<std::process::Output,std::io::error::Error>>
  invoke void @"_ZN4core3ptr93drop_in_place$LT$core..result..Result$LT$std..process..Output$C$std..io..error..Error$GT$$GT$17hbcc5e18900bc5f28E"(ptr noalias noundef align 8 dereferenceable(56) %_5)
          to label %bb63 unwind label %cleanup

bb23:                                             ; preds = %bb21, %bb22
  call void @llvm.lifetime.end.p0(i64 8, ptr %_39)
  call void @llvm.lifetime.end.p0(i64 56, ptr %_38)
  call void @llvm.lifetime.end.p0(i64 56, ptr %_5)
  call void @llvm.lifetime.start.p0(i64 56, ptr %_41)
  %19 = load i64, ptr %_4, align 8, !range !11, !noundef !5
  %20 = icmp eq i64 %19, -9223372036854775808
  %_40 = select i1 %20, i64 0, i64 1
  %21 = trunc nuw i64 %_40 to i1
  br i1 %21, label %bb26, label %bb25

bb63:                                             ; preds = %bb24
  call void @llvm.lifetime.end.p0(i64 8, ptr %_39)
  call void @llvm.lifetime.end.p0(i64 56, ptr %_38)
  call void @llvm.lifetime.end.p0(i64 56, ptr %_5)
  call void @llvm.lifetime.start.p0(i64 56, ptr %_41)
  br label %bb26

bb26:                                             ; preds = %bb23, %bb63
  call void @llvm.memcpy.p0.p0.i64(ptr align 8 %_41, ptr align 8 %_4, i64 56, i1 false)
  call void @llvm.memcpy.p0.p0.i64(ptr align 8 %_3, ptr align 8 %_41, i64 56, i1 false)
  call void @llvm.lifetime.end.p0(i64 56, ptr %_41)
  call void @llvm.lifetime.end.p0(i64 56, ptr %_4)
  call void @llvm.lifetime.start.p0(i64 56, ptr %val)
  call void @llvm.memcpy.p0.p0.i64(ptr align 8 %val, ptr align 8 %_3, i64 56, i1 false)
  store i8 1, ptr %_36, align 1
  call void @llvm.memcpy.p0.p0.i64(ptr align 8 %output, ptr align 8 %val, i64 56, i1 false)
  call void @llvm.lifetime.end.p0(i64 56, ptr %val)
; invoke core::ptr::drop_in_place<std::process::Command>
  invoke void @"_ZN4core3ptr42drop_in_place$LT$std..process..Command$GT$17h3a0f51a54b3bc2a3E"(ptr noalias noundef align 8 dereferenceable(200) %_8)
          to label %bb5 unwind label %cleanup2

bb61:                                             ; preds = %bb21
; invoke core::ptr::drop_in_place<core::result::Result<std::process::Output,std::io::error::Error>>
  invoke void @"_ZN4core3ptr93drop_in_place$LT$core..result..Result$LT$std..process..Output$C$std..io..error..Error$GT$$GT$17hbcc5e18900bc5f28E"(ptr noalias noundef align 8 dereferenceable(56) %_5)
          to label %bb62 unwind label %cleanup

bb25:                                             ; preds = %bb62, %bb23
  call void @llvm.lifetime.end.p0(i64 56, ptr %_41)
  call void @llvm.lifetime.end.p0(i64 56, ptr %_4)
  %22 = load i64, ptr @anon.343ad20a3284b1f9e404afc411eb8ab2.1, align 8, !range !12, !noundef !5
  %23 = load i64, ptr getelementptr inbounds (i8, ptr @anon.343ad20a3284b1f9e404afc411eb8ab2.1, i64 8), align 8
  store i64 %22, ptr %_0, align 8
  %24 = getelementptr inbounds i8, ptr %_0, i64 8
  store i64 %23, ptr %24, align 8
; call core::ptr::drop_in_place<std::process::Command>
  call void @"_ZN4core3ptr42drop_in_place$LT$std..process..Command$GT$17h3a0f51a54b3bc2a3E"(ptr noalias noundef align 8 dereferenceable(200) %_8)
  call void @llvm.lifetime.end.p0(i64 200, ptr %_8)
  call void @llvm.lifetime.end.p0(i64 56, ptr %_3)
  br label %bb9

bb20:                                             ; preds = %bb11, %cleanup2
  %25 = load i8, ptr %_36, align 1, !range !9, !noundef !5
  %26 = trunc nuw i8 %25 to i1
  br i1 %26, label %bb19, label %bb18

cleanup2:                                         ; preds = %bb64, %bb59, %bb32, %bb27, %bb26
  %27 = landingpad { ptr, i32 }
          cleanup
  %28 = extractvalue { ptr, i32 } %27, 0
  %29 = extractvalue { ptr, i32 } %27, 1
  call void @llvm.lifetime.start.p0(i64 16, ptr %1)
  store ptr %28, ptr %1, align 8
  %30 = getelementptr inbounds i8, ptr %1, i64 8
  store i32 %29, ptr %30, align 8
  br label %bb20

bb5:                                              ; preds = %bb26
  call void @llvm.lifetime.end.p0(i64 200, ptr %_8)
  call void @llvm.lifetime.end.p0(i64 56, ptr %_3)
  %31 = getelementptr inbounds i8, ptr %output, i64 48
  %_42 = load i32, ptr %31, align 8, !noundef !5
  %32 = icmp eq i32 %_42, 0
  %_44 = select i1 %32, i64 0, i64 1
  %33 = trunc nuw i64 %_44 to i1
  br i1 %33, label %bb28, label %bb27

bb28:                                             ; preds = %bb5
  %34 = load i64, ptr @anon.343ad20a3284b1f9e404afc411eb8ab2.1, align 8, !range !12, !noundef !5
  %35 = load i64, ptr getelementptr inbounds (i8, ptr @anon.343ad20a3284b1f9e404afc411eb8ab2.1, i64 8), align 8
  store i64 %34, ptr %_0, align 8
  %36 = getelementptr inbounds i8, ptr %_0, i64 8
  store i64 %35, ptr %36, align 8
  br label %bb17

bb27:                                             ; preds = %bb5
  call void @llvm.lifetime.start.p0(i64 24, ptr %version)
  call void @llvm.lifetime.start.p0(i64 24, ptr %_11)
  call void @llvm.lifetime.start.p0(i64 24, ptr %_12)
  call void @llvm.lifetime.start.p0(i64 40, ptr %_13)
  call void @llvm.lifetime.start.p0(i64 24, ptr %_14)
  store i8 0, ptr %_36, align 1
  call void @llvm.memcpy.p0.p0.i64(ptr align 8 %_14, ptr align 8 %output, i64 24, i1 false)
; invoke alloc::string::String::from_utf8
  invoke void @_ZN5alloc6string6String9from_utf817h5068d2e87c18bec7E(ptr noalias noundef sret([40 x i8]) align 8 captures(address) dereferenceable(40) %_13, ptr noalias noundef align 8 captures(address) dereferenceable(24) %_14)
          to label %bb6 unwind label %cleanup2

bb6:                                              ; preds = %bb27
  call void @llvm.lifetime.end.p0(i64 24, ptr %_14)
  call void @llvm.lifetime.start.p0(i64 24, ptr %_46)
  call void @llvm.lifetime.start.p0(i64 8, ptr %_47)
  %37 = load i64, ptr %_13, align 8, !range !11, !noundef !5
  %38 = icmp eq i64 %37, -9223372036854775808
  %_45 = select i1 %38, i64 0, i64 1
  %39 = trunc nuw i64 %_45 to i1
  br i1 %39, label %bb29, label %bb30

bb29:                                             ; preds = %bb6
  store i64 -9223372036854775808, ptr %_12, align 8
  %40 = load i64, ptr %_13, align 8, !range !11, !noundef !5
  %41 = icmp eq i64 %40, -9223372036854775808
  %42 = select i1 %41, i64 0, i64 1
  store i64 %42, ptr %_47, align 8
  %43 = load i64, ptr %_47, align 8, !noundef !5
  %44 = trunc nuw i64 %43 to i1
  br i1 %44, label %bb64, label %bb31

bb30:                                             ; preds = %bb6
  %45 = getelementptr inbounds i8, ptr %_13, i64 8
  call void @llvm.memcpy.p0.p0.i64(ptr align 8 %_46, ptr align 8 %45, i64 24, i1 false)
  call void @llvm.memcpy.p0.p0.i64(ptr align 8 %_12, ptr align 8 %_46, i64 24, i1 false)
  %46 = load i64, ptr %_13, align 8, !range !11, !noundef !5
  %47 = icmp eq i64 %46, -9223372036854775808
  %48 = select i1 %47, i64 0, i64 1
  store i64 %48, ptr %_47, align 8
  %49 = load i64, ptr %_47, align 8, !noundef !5
  %50 = trunc nuw i64 %49 to i1
  br i1 %50, label %bb32, label %bb31

bb32:                                             ; preds = %bb30
; invoke core::ptr::drop_in_place<core::result::Result<alloc::string::String,alloc::string::FromUtf8Error>>
  invoke void @"_ZN4core3ptr101drop_in_place$LT$core..result..Result$LT$alloc..string..String$C$alloc..string..FromUtf8Error$GT$$GT$17heb0f0650077c42fcE"(ptr noalias noundef align 8 dereferenceable(40) %_13)
          to label %bb66 unwind label %cleanup2

bb31:                                             ; preds = %bb29, %bb30
  call void @llvm.lifetime.end.p0(i64 8, ptr %_47)
  call void @llvm.lifetime.end.p0(i64 24, ptr %_46)
  call void @llvm.lifetime.end.p0(i64 40, ptr %_13)
  call void @llvm.lifetime.start.p0(i64 24, ptr %_49)
  %51 = load i64, ptr %_12, align 8, !range !11, !noundef !5
  %52 = icmp eq i64 %51, -9223372036854775808
  %_48 = select i1 %52, i64 0, i64 1
  %53 = trunc nuw i64 %_48 to i1
  br i1 %53, label %bb34, label %bb33

bb66:                                             ; preds = %bb32
  call void @llvm.lifetime.end.p0(i64 8, ptr %_47)
  call void @llvm.lifetime.end.p0(i64 24, ptr %_46)
  call void @llvm.lifetime.end.p0(i64 40, ptr %_13)
  call void @llvm.lifetime.start.p0(i64 24, ptr %_49)
  br label %bb34

bb34:                                             ; preds = %bb31, %bb66
  call void @llvm.memcpy.p0.p0.i64(ptr align 8 %_49, ptr align 8 %_12, i64 24, i1 false)
  call void @llvm.memcpy.p0.p0.i64(ptr align 8 %_11, ptr align 8 %_49, i64 24, i1 false)
  call void @llvm.lifetime.end.p0(i64 24, ptr %_49)
  call void @llvm.lifetime.end.p0(i64 24, ptr %_12)
  call void @llvm.lifetime.start.p0(i64 24, ptr %val1)
  call void @llvm.memcpy.p0.p0.i64(ptr align 8 %val1, ptr align 8 %_11, i64 24, i1 false)
  call void @llvm.memcpy.p0.p0.i64(ptr align 8 %version, ptr align 8 %val1, i64 24, i1 false)
  call void @llvm.lifetime.end.p0(i64 24, ptr %val1)
  call void @llvm.lifetime.end.p0(i64 24, ptr %_11)
  call void @llvm.lifetime.start.p0(i64 72, ptr %pieces)
  %54 = getelementptr inbounds i8, ptr %version, i64 8
  %_53 = load ptr, ptr %54, align 8, !nonnull !5, !noundef !5
  %55 = icmp ne ptr %_53, null
  call void @llvm.assume(i1 %55)
  %56 = getelementptr inbounds i8, ptr %version, i64 16
  %_52 = load i64, ptr %56, align 8, !noundef !5
; invoke core::str::<impl str>::trim_matches
  %57 = invoke { ptr, i64 } @"_ZN4core3str21_$LT$impl$u20$str$GT$12trim_matches17h952200448a259589E"(ptr noalias noundef nonnull readonly align 1 captures(address, read_provenance) %_53, i64 noundef %_52)
          to label %bb35 unwind label %cleanup3

bb64:                                             ; preds = %bb29
; invoke core::ptr::drop_in_place<core::result::Result<alloc::string::String,alloc::string::FromUtf8Error>>
  invoke void @"_ZN4core3ptr101drop_in_place$LT$core..result..Result$LT$alloc..string..String$C$alloc..string..FromUtf8Error$GT$$GT$17heb0f0650077c42fcE"(ptr noalias noundef align 8 dereferenceable(40) %_13)
          to label %bb65 unwind label %cleanup2

bb33:                                             ; preds = %bb65, %bb31
  call void @llvm.lifetime.end.p0(i64 24, ptr %_49)
  call void @llvm.lifetime.end.p0(i64 24, ptr %_12)
  %58 = load i64, ptr @anon.343ad20a3284b1f9e404afc411eb8ab2.1, align 8, !range !12, !noundef !5
  %59 = load i64, ptr getelementptr inbounds (i8, ptr @anon.343ad20a3284b1f9e404afc411eb8ab2.1, i64 8), align 8
  store i64 %58, ptr %_0, align 8
  %60 = getelementptr inbounds i8, ptr %_0, i64 8
  store i64 %59, ptr %60, align 8
  call void @llvm.lifetime.end.p0(i64 24, ptr %_11)
  call void @llvm.lifetime.end.p0(i64 24, ptr %version)
  %61 = load i8, ptr %_36, align 1, !range !9, !noundef !5
  %62 = trunc nuw i8 %61 to i1
  br i1 %62, label %bb17, label %bb16

bb11:                                             ; preds = %cleanup3
; invoke core::ptr::drop_in_place<alloc::string::String>
  invoke void @"_ZN4core3ptr42drop_in_place$LT$alloc..string..String$GT$17h8ae59710cce54b6aE"(ptr noalias noundef align 8 dereferenceable(24) %version) #28
          to label %bb20 unwind label %terminate

cleanup3:                                         ; preds = %bb55, %bb51, %bb47, %bb43, %bb39, %bb36, %bb35, %bb34
  %63 = landingpad { ptr, i32 }
          cleanup
  %64 = extractvalue { ptr, i32 } %63, 0
  %65 = extractvalue { ptr, i32 } %63, 1
  call void @llvm.lifetime.start.p0(i64 16, ptr %1)
  store ptr %64, ptr %1, align 8
  %66 = getelementptr inbounds i8, ptr %1, i64 8
  store i32 %65, ptr %66, align 8
  br label %bb11

bb35:                                             ; preds = %bb34
  %_17.0 = extractvalue { ptr, i64 } %57, 0
  %_17.1 = extractvalue { ptr, i64 } %57, 1
  call void @llvm.lifetime.start.p0(i64 8, ptr %_19)
  %67 = getelementptr inbounds nuw i32, ptr %_19, i64 0
  store i32 46, ptr %67, align 4
  %68 = getelementptr inbounds nuw i32, ptr %_19, i64 1
  store i32 45, ptr %68, align 4
  call void @llvm.lifetime.start.p0(i64 72, ptr %_55)
  call void @llvm.lifetime.start.p0(i64 48, ptr %_57)
  call void @llvm.lifetime.start.p0(i64 48, ptr %_59)
  call void @llvm.lifetime.start.p0(i64 8, ptr %_60)
  call void @llvm.memcpy.p0.p0.i64(ptr align 4 %_60, ptr align 4 %_19, i64 8, i1 false)
  call void @llvm.lifetime.start.p0(i64 8, ptr %0)
  call void @llvm.memcpy.p0.p0.i64(ptr align 8 %0, ptr align 4 %_60, i64 8, i1 false)
  %69 = load i64, ptr %0, align 8
  call void @llvm.lifetime.end.p0(i64 8, ptr %0)
; invoke <core::str::pattern::MultiCharEqPattern<C> as core::str::pattern::Pattern>::into_searcher
  invoke void @"_ZN95_$LT$core..str..pattern..MultiCharEqPattern$LT$C$GT$$u20$as$u20$core..str..pattern..Pattern$GT$13into_searcher17h8d800b7aaaf77108E"(ptr noalias noundef sret([48 x i8]) align 8 captures(address) dereferenceable(48) %_59, i64 %69, ptr noalias noundef nonnull readonly align 1 captures(address, read_provenance) %_17.0, i64 noundef %_17.1)
          to label %bb36 unwind label %cleanup3

bb36:                                             ; preds = %bb35
  call void @llvm.lifetime.end.p0(i64 8, ptr %_60)
  call void @llvm.memcpy.p0.p0.i64(ptr align 8 %_57, ptr align 8 %_59, i64 48, i1 false)
  call void @llvm.lifetime.end.p0(i64 48, ptr %_59)
  %70 = getelementptr inbounds i8, ptr %_55, i64 48
  store i64 0, ptr %70, align 8
  %71 = getelementptr inbounds i8, ptr %_55, i64 56
  store i64 %_17.1, ptr %71, align 8
  call void @llvm.memcpy.p0.p0.i64(ptr align 8 %_55, ptr align 8 %_57, i64 48, i1 false)
  %72 = getelementptr inbounds i8, ptr %_55, i64 64
  store i8 1, ptr %72, align 8
  %73 = getelementptr inbounds i8, ptr %_55, i64 65
  store i8 0, ptr %73, align 1
  call void @llvm.lifetime.end.p0(i64 48, ptr %_57)
  call void @llvm.memcpy.p0.p0.i64(ptr align 8 %pieces, ptr align 8 %_55, i64 72, i1 false)
  call void @llvm.lifetime.end.p0(i64 72, ptr %_55)
  call void @llvm.lifetime.end.p0(i64 8, ptr %_19)
  call void @llvm.lifetime.start.p0(i64 8, ptr %major)
  call void @llvm.lifetime.start.p0(i64 16, ptr %_21)
  call void @llvm.lifetime.start.p0(i64 16, ptr %_22)
; invoke core::str::iter::SplitInternal<P>::next
  %74 = invoke { ptr, i64 } @"_ZN4core3str4iter22SplitInternal$LT$P$GT$4next17he96a9c943a4acf56E"(ptr noalias noundef align 8 dereferenceable(72) %pieces)
          to label %bb37 unwind label %cleanup3

bb37:                                             ; preds = %bb36
  %75 = extractvalue { ptr, i64 } %74, 0
  %76 = extractvalue { ptr, i64 } %74, 1
  store ptr %75, ptr %_22, align 8
  %77 = getelementptr inbounds i8, ptr %_22, i64 8
  store i64 %76, ptr %77, align 8
  %78 = load ptr, ptr %_22, align 8, !align !10, !noundef !5
  %79 = getelementptr inbounds i8, ptr %_22, i64 8
  %80 = load i64, ptr %79, align 8
  %81 = ptrtoint ptr %78 to i64
  %82 = icmp eq i64 %81, 0
  %_62 = select i1 %82, i64 0, i64 1
  %83 = trunc nuw i64 %_62 to i1
  br i1 %83, label %bb39, label %bb38

bb39:                                             ; preds = %bb37
  %_63.0 = load ptr, ptr %_22, align 8, !nonnull !5, !align !10, !noundef !5
  %84 = getelementptr inbounds i8, ptr %_22, i64 8
  %_63.1 = load i64, ptr %84, align 8, !noundef !5
  call void @llvm.lifetime.start.p0(i64 16, ptr %_64)
; invoke core::num::<impl u64>::from_ascii_radix
  invoke void @"_ZN4core3num21_$LT$impl$u20$u64$GT$16from_ascii_radix17h72ad40eebc575d6aE"(ptr noalias noundef sret([16 x i8]) align 8 captures(address) dereferenceable(16) %_64, ptr noalias noundef nonnull readonly align 1 captures(address, read_provenance) %_63.0, i64 noundef %_63.1, i32 noundef 10)
          to label %bb40 unwind label %cleanup3

bb38:                                             ; preds = %bb37
  call void @llvm.lifetime.end.p0(i64 16, ptr %_22)
  br label %bb44

bb44:                                             ; preds = %bb41, %bb38
  store i64 0, ptr %major, align 8
  br label %bb43

bb40:                                             ; preds = %bb39
  %85 = load i8, ptr %_64, align 8, !range !9, !noundef !5
  %86 = trunc nuw i8 %85 to i1
  %_66 = zext i1 %86 to i64
  %87 = trunc nuw i64 %_66 to i1
  br i1 %87, label %bb41, label %bb42

bb41:                                             ; preds = %bb40
  call void @llvm.lifetime.end.p0(i64 16, ptr %_64)
  call void @llvm.lifetime.end.p0(i64 16, ptr %_22)
  br label %bb44

bb42:                                             ; preds = %bb40
  %88 = getelementptr inbounds i8, ptr %_64, i64 8
  %_67 = load i64, ptr %88, align 8, !noundef !5
  %89 = getelementptr inbounds i8, ptr %_21, i64 8
  store i64 %_67, ptr %89, align 8
  store i64 1, ptr %_21, align 8
  call void @llvm.lifetime.end.p0(i64 16, ptr %_64)
  call void @llvm.lifetime.end.p0(i64 16, ptr %_22)
  %90 = getelementptr inbounds i8, ptr %_21, i64 8
  %_68 = load i64, ptr %90, align 8, !noundef !5
  store i64 %_68, ptr %major, align 8
  br label %bb43

bb43:                                             ; preds = %bb44, %bb42
  call void @llvm.lifetime.end.p0(i64 16, ptr %_21)
  call void @llvm.lifetime.start.p0(i64 8, ptr %minor)
  call void @llvm.lifetime.start.p0(i64 16, ptr %_24)
  call void @llvm.lifetime.start.p0(i64 16, ptr %_25)
; invoke core::str::iter::SplitInternal<P>::next
  %91 = invoke { ptr, i64 } @"_ZN4core3str4iter22SplitInternal$LT$P$GT$4next17he96a9c943a4acf56E"(ptr noalias noundef align 8 dereferenceable(72) %pieces)
          to label %bb45 unwind label %cleanup3

bb45:                                             ; preds = %bb43
  %92 = extractvalue { ptr, i64 } %91, 0
  %93 = extractvalue { ptr, i64 } %91, 1
  store ptr %92, ptr %_25, align 8
  %94 = getelementptr inbounds i8, ptr %_25, i64 8
  store i64 %93, ptr %94, align 8
  %95 = load ptr, ptr %_25, align 8, !align !10, !noundef !5
  %96 = getelementptr inbounds i8, ptr %_25, i64 8
  %97 = load i64, ptr %96, align 8
  %98 = ptrtoint ptr %95 to i64
  %99 = icmp eq i64 %98, 0
  %_70 = select i1 %99, i64 0, i64 1
  %100 = trunc nuw i64 %_70 to i1
  br i1 %100, label %bb47, label %bb46

bb47:                                             ; preds = %bb45
  %_71.0 = load ptr, ptr %_25, align 8, !nonnull !5, !align !10, !noundef !5
  %101 = getelementptr inbounds i8, ptr %_25, i64 8
  %_71.1 = load i64, ptr %101, align 8, !noundef !5
  call void @llvm.lifetime.start.p0(i64 16, ptr %_72)
; invoke core::num::<impl u64>::from_ascii_radix
  invoke void @"_ZN4core3num21_$LT$impl$u20$u64$GT$16from_ascii_radix17h72ad40eebc575d6aE"(ptr noalias noundef sret([16 x i8]) align 8 captures(address) dereferenceable(16) %_72, ptr noalias noundef nonnull readonly align 1 captures(address, read_provenance) %_71.0, i64 noundef %_71.1, i32 noundef 10)
          to label %bb48 unwind label %cleanup3

bb46:                                             ; preds = %bb45
  call void @llvm.lifetime.end.p0(i64 16, ptr %_25)
  br label %bb52

bb52:                                             ; preds = %bb49, %bb46
  store i64 0, ptr %minor, align 8
  br label %bb51

bb48:                                             ; preds = %bb47
  %102 = load i8, ptr %_72, align 8, !range !9, !noundef !5
  %103 = trunc nuw i8 %102 to i1
  %_74 = zext i1 %103 to i64
  %104 = trunc nuw i64 %_74 to i1
  br i1 %104, label %bb49, label %bb50

bb49:                                             ; preds = %bb48
  call void @llvm.lifetime.end.p0(i64 16, ptr %_72)
  call void @llvm.lifetime.end.p0(i64 16, ptr %_25)
  br label %bb52

bb50:                                             ; preds = %bb48
  %105 = getelementptr inbounds i8, ptr %_72, i64 8
  %_75 = load i64, ptr %105, align 8, !noundef !5
  %106 = getelementptr inbounds i8, ptr %_24, i64 8
  store i64 %_75, ptr %106, align 8
  store i64 1, ptr %_24, align 8
  call void @llvm.lifetime.end.p0(i64 16, ptr %_72)
  call void @llvm.lifetime.end.p0(i64 16, ptr %_25)
  %107 = getelementptr inbounds i8, ptr %_24, i64 8
  %_76 = load i64, ptr %107, align 8, !noundef !5
  store i64 %_76, ptr %minor, align 8
  br label %bb51

bb51:                                             ; preds = %bb52, %bb50
  call void @llvm.lifetime.end.p0(i64 16, ptr %_24)
  call void @llvm.lifetime.start.p0(i64 8, ptr %patch)
  call void @llvm.lifetime.start.p0(i64 16, ptr %_27)
  call void @llvm.lifetime.start.p0(i64 16, ptr %_28)
; invoke core::str::iter::SplitInternal<P>::next
  %108 = invoke { ptr, i64 } @"_ZN4core3str4iter22SplitInternal$LT$P$GT$4next17he96a9c943a4acf56E"(ptr noalias noundef align 8 dereferenceable(72) %pieces)
          to label %bb53 unwind label %cleanup3

bb53:                                             ; preds = %bb51
  %109 = extractvalue { ptr, i64 } %108, 0
  %110 = extractvalue { ptr, i64 } %108, 1
  store ptr %109, ptr %_28, align 8
  %111 = getelementptr inbounds i8, ptr %_28, i64 8
  store i64 %110, ptr %111, align 8
  %112 = load ptr, ptr %_28, align 8, !align !10, !noundef !5
  %113 = getelementptr inbounds i8, ptr %_28, i64 8
  %114 = load i64, ptr %113, align 8
  %115 = ptrtoint ptr %112 to i64
  %116 = icmp eq i64 %115, 0
  %_78 = select i1 %116, i64 0, i64 1
  %117 = trunc nuw i64 %_78 to i1
  br i1 %117, label %bb55, label %bb54

bb55:                                             ; preds = %bb53
  %_79.0 = load ptr, ptr %_28, align 8, !nonnull !5, !align !10, !noundef !5
  %118 = getelementptr inbounds i8, ptr %_28, i64 8
  %_79.1 = load i64, ptr %118, align 8, !noundef !5
  call void @llvm.lifetime.start.p0(i64 16, ptr %_80)
; invoke core::num::<impl u64>::from_ascii_radix
  invoke void @"_ZN4core3num21_$LT$impl$u20$u64$GT$16from_ascii_radix17h72ad40eebc575d6aE"(ptr noalias noundef sret([16 x i8]) align 8 captures(address) dereferenceable(16) %_80, ptr noalias noundef nonnull readonly align 1 captures(address, read_provenance) %_79.0, i64 noundef %_79.1, i32 noundef 10)
          to label %bb56 unwind label %cleanup3

bb54:                                             ; preds = %bb53
  call void @llvm.lifetime.end.p0(i64 16, ptr %_28)
  br label %bb60

bb60:                                             ; preds = %bb57, %bb54
  store i64 0, ptr %patch, align 8
  br label %bb59

bb56:                                             ; preds = %bb55
  %119 = load i8, ptr %_80, align 8, !range !9, !noundef !5
  %120 = trunc nuw i8 %119 to i1
  %_82 = zext i1 %120 to i64
  %121 = trunc nuw i64 %_82 to i1
  br i1 %121, label %bb57, label %bb58

bb57:                                             ; preds = %bb56
  call void @llvm.lifetime.end.p0(i64 16, ptr %_80)
  call void @llvm.lifetime.end.p0(i64 16, ptr %_28)
  br label %bb60

bb58:                                             ; preds = %bb56
  %122 = getelementptr inbounds i8, ptr %_80, i64 8
  %_83 = load i64, ptr %122, align 8, !noundef !5
  %123 = getelementptr inbounds i8, ptr %_27, i64 8
  store i64 %_83, ptr %123, align 8
  store i64 1, ptr %_27, align 8
  call void @llvm.lifetime.end.p0(i64 16, ptr %_80)
  call void @llvm.lifetime.end.p0(i64 16, ptr %_28)
  %124 = getelementptr inbounds i8, ptr %_27, i64 8
  %_84 = load i64, ptr %124, align 8, !noundef !5
  store i64 %_84, ptr %patch, align 8
  br label %bb59

bb59:                                             ; preds = %bb60, %bb58
  call void @llvm.lifetime.end.p0(i64 16, ptr %_27)
  %_32 = load i64, ptr %major, align 8, !noundef !5
  %_31 = mul i64 %_32, 10000
  %_34 = load i64, ptr %minor, align 8, !noundef !5
  %_33 = mul i64 %_34, 100
  %_30 = add i64 %_31, %_33
  %_35 = load i64, ptr %patch, align 8, !noundef !5
  %_29 = add i64 %_30, %_35
  %125 = getelementptr inbounds i8, ptr %_0, i64 8
  store i64 %_29, ptr %125, align 8
  store i64 1, ptr %_0, align 8
  call void @llvm.lifetime.end.p0(i64 8, ptr %patch)
  call void @llvm.lifetime.end.p0(i64 8, ptr %minor)
  call void @llvm.lifetime.end.p0(i64 8, ptr %major)
  call void @llvm.lifetime.end.p0(i64 72, ptr %pieces)
; invoke core::ptr::drop_in_place<alloc::string::String>
  invoke void @"_ZN4core3ptr42drop_in_place$LT$alloc..string..String$GT$17h8ae59710cce54b6aE"(ptr noalias noundef align 8 dereferenceable(24) %version)
          to label %bb7 unwind label %cleanup2

bb7:                                              ; preds = %bb59
  call void @llvm.lifetime.end.p0(i64 24, ptr %version)
  %126 = getelementptr inbounds i8, ptr %output, i64 24
; call core::ptr::drop_in_place<alloc::vec::Vec<u8>>
  call void @"_ZN4core3ptr46drop_in_place$LT$alloc..vec..Vec$LT$u8$GT$$GT$17hcf90c8bc2ab7ef0dE"(ptr noalias noundef align 8 dereferenceable(24) %126)
  call void @llvm.lifetime.end.p0(i64 56, ptr %output)
  br label %bb10

bb10:                                             ; preds = %bb9, %bb7
  %127 = load i64, ptr %_0, align 8, !range !12, !noundef !5
  %128 = getelementptr inbounds i8, ptr %_0, i64 8
  %129 = load i64, ptr %128, align 8
  %130 = insertvalue { i64, i64 } poison, i64 %127, 0
  %131 = insertvalue { i64, i64 } %130, i64 %129, 1
  ret { i64, i64 } %131

terminate:                                        ; preds = %bb12, %bb18, %bb19, %bb15, %bb11
  %132 = landingpad { ptr, i32 }
          filter [0 x ptr] zeroinitializer
; call core::panicking::panic_in_cleanup
  call void @_ZN4core9panicking16panic_in_cleanup17h5eff40bcc4481d72E() #29
  unreachable

bb65:                                             ; preds = %bb64
  call void @llvm.lifetime.end.p0(i64 8, ptr %_47)
  call void @llvm.lifetime.end.p0(i64 24, ptr %_46)
  call void @llvm.lifetime.end.p0(i64 40, ptr %_13)
  call void @llvm.lifetime.start.p0(i64 24, ptr %_49)
  br label %bb33

bb16:                                             ; preds = %bb17, %bb33
  %133 = getelementptr inbounds i8, ptr %output, i64 24
; call core::ptr::drop_in_place<alloc::vec::Vec<u8>>
  call void @"_ZN4core3ptr46drop_in_place$LT$alloc..vec..Vec$LT$u8$GT$$GT$17hcf90c8bc2ab7ef0dE"(ptr noalias noundef align 8 dereferenceable(24) %133)
  br label %bb9

bb17:                                             ; preds = %bb28, %bb33
; invoke core::ptr::drop_in_place<alloc::vec::Vec<u8>>
  invoke void @"_ZN4core3ptr46drop_in_place$LT$alloc..vec..Vec$LT$u8$GT$$GT$17hcf90c8bc2ab7ef0dE"(ptr noalias noundef align 8 dereferenceable(24) %output)
          to label %bb16 unwind label %cleanup4

bb15:                                             ; preds = %cleanup4
  %134 = getelementptr inbounds i8, ptr %output, i64 24
; invoke core::ptr::drop_in_place<alloc::vec::Vec<u8>>
  invoke void @"_ZN4core3ptr46drop_in_place$LT$alloc..vec..Vec$LT$u8$GT$$GT$17hcf90c8bc2ab7ef0dE"(ptr noalias noundef align 8 dereferenceable(24) %134) #28
          to label %bb13 unwind label %terminate

cleanup4:                                         ; preds = %bb17
  %135 = landingpad { ptr, i32 }
          cleanup
  %136 = extractvalue { ptr, i32 } %135, 0
  %137 = extractvalue { ptr, i32 } %135, 1
  call void @llvm.lifetime.start.p0(i64 16, ptr %1)
  store ptr %136, ptr %1, align 8
  %138 = getelementptr inbounds i8, ptr %1, i64 8
  store i32 %137, ptr %138, align 8
  br label %bb15

bb9:                                              ; preds = %bb25, %bb16
  call void @llvm.lifetime.end.p0(i64 56, ptr %output)
  br label %bb10

bb13:                                             ; preds = %bb12, %bb18, %bb15
  %139 = load ptr, ptr %1, align 8, !noundef !5
  %140 = getelementptr inbounds i8, ptr %1, i64 8
  %141 = load i32, ptr %140, align 8, !noundef !5
  call void @llvm.lifetime.end.p0(i64 16, ptr %1)
  %142 = insertvalue { ptr, i32 } poison, ptr %139, 0
  %143 = insertvalue { ptr, i32 } %142, i32 %141, 1
  resume { ptr, i32 } %143

bb18:                                             ; preds = %bb19, %bb20
  %144 = getelementptr inbounds i8, ptr %output, i64 24
; invoke core::ptr::drop_in_place<alloc::vec::Vec<u8>>
  invoke void @"_ZN4core3ptr46drop_in_place$LT$alloc..vec..Vec$LT$u8$GT$$GT$17hcf90c8bc2ab7ef0dE"(ptr noalias noundef align 8 dereferenceable(24) %144) #28
          to label %bb13 unwind label %terminate

bb19:                                             ; preds = %bb20
; invoke core::ptr::drop_in_place<alloc::vec::Vec<u8>>
  invoke void @"_ZN4core3ptr46drop_in_place$LT$alloc..vec..Vec$LT$u8$GT$$GT$17hcf90c8bc2ab7ef0dE"(ptr noalias noundef align 8 dereferenceable(24) %output) #28
          to label %bb18 unwind label %terminate

bb62:                                             ; preds = %bb61
  call void @llvm.lifetime.end.p0(i64 8, ptr %_39)
  call void @llvm.lifetime.end.p0(i64 56, ptr %_38)
  call void @llvm.lifetime.end.p0(i64 56, ptr %_5)
  call void @llvm.lifetime.start.p0(i64 56, ptr %_41)
  br label %bb25

bb4:                                              ; No predecessors!
  unreachable
}

; build_script_build::rustc_version_cmd
; Function Attrs: nonlazybind uwtable
define internal void @_ZN18build_script_build17rustc_version_cmd17h3da41ae8739f7574E(ptr dead_on_unwind noalias noundef writable sret([56 x i8]) align 8 captures(address) dereferenceable(56) %_0, i1 noundef zeroext %is_clippy_driver) unnamed_addr #2 personality ptr @rust_eh_personality {
start:
  %0 = alloca [16 x i8], align 8
  %_53 = alloca [16 x i8], align 8
  %_32 = alloca [8 x i8], align 8
  %_31 = alloca [1 x i8], align 1
  %_30 = alloca [1 x i8], align 1
  %_27 = alloca [24 x i8], align 8
  %_26 = alloca [16 x i8], align 8
  %args = alloca [16 x i8], align 8
  %_24 = alloca [48 x i8], align 8
  %_21 = alloca [56 x i8], align 8
  %output = alloca [56 x i8], align 8
  %_17 = alloca [24 x i8], align 8
  %_14 = alloca [24 x i8], align 8
  %cmd2 = alloca [200 x i8], align 8
  %wrapper1 = alloca [24 x i8], align 8
  %_9 = alloca [24 x i8], align 8
  %wrapper = alloca [8 x i8], align 8
  %_5 = alloca [24 x i8], align 8
  %cmd = alloca [200 x i8], align 8
  %_3 = alloca [24 x i8], align 8
  %rustc = alloca [24 x i8], align 8
  call void @llvm.lifetime.start.p0(i64 24, ptr %rustc)
  call void @llvm.lifetime.start.p0(i64 24, ptr %_3)
; call std::env::var_os
  call void @_ZN3std3env6var_os17ha27f1bf65704a8d9E(ptr noalias noundef sret([24 x i8]) align 8 captures(address) dereferenceable(24) %_3, ptr noalias noundef nonnull readonly align 1 captures(address, read_provenance) @alloc_806c1ac911172019779ceab530bc1f0e, i64 noundef 5)
  %1 = load i64, ptr %_3, align 8, !range !11, !noundef !5
  %2 = icmp eq i64 %1, -9223372036854775808
  %_34 = select i1 %2, i64 0, i64 1
  %3 = trunc nuw i64 %_34 to i1
  %4 = call i1 @llvm.expect.i1(i1 %3, i1 true)
  br i1 %4, label %bb35, label %bb34

bb35:                                             ; preds = %start
  call void @llvm.memcpy.p0.p0.i64(ptr align 8 %rustc, ptr align 8 %_3, i64 24, i1 false)
  store i8 1, ptr %_31, align 1
  call void @llvm.lifetime.end.p0(i64 24, ptr %_3)
  call void @llvm.lifetime.start.p0(i64 200, ptr %cmd)
  call void @llvm.lifetime.start.p0(i64 24, ptr %_5)
; invoke std::env::var_os
  invoke void @_ZN3std3env6var_os17ha27f1bf65704a8d9E(ptr noalias noundef sret([24 x i8]) align 8 captures(address) dereferenceable(24) %_5, ptr noalias noundef nonnull readonly align 1 captures(address, read_provenance) @alloc_f36ce88bd5d4a921175f5521f484b675, i64 noundef 13)
          to label %bb2 unwind label %cleanup

bb34:                                             ; preds = %start
; call core::option::expect_failed
  call void @_ZN4core6option13expect_failed17h1729d0bd73171c50E(ptr noalias noundef nonnull readonly align 1 captures(address, read_provenance) @alloc_57e2a3f3daa80a9da338a6fbc7fe2a99, i64 noundef 46, ptr noalias noundef readonly align 8 captures(address, read_provenance) dereferenceable(24) @alloc_f6fa39700da9355fe3d26b2329968545) #30
  unreachable

bb33:                                             ; preds = %bb30, %bb29, %bb31, %bb22, %cleanup
  %5 = load i8, ptr %_31, align 1, !range !9, !noundef !5
  %6 = trunc nuw i8 %5 to i1
  br i1 %6, label %bb32, label %bb24

cleanup:                                          ; preds = %bb36, %bb35
  %7 = landingpad { ptr, i32 }
          cleanup
  %8 = extractvalue { ptr, i32 } %7, 0
  %9 = extractvalue { ptr, i32 } %7, 1
  call void @llvm.lifetime.start.p0(i64 16, ptr %0)
  store ptr %8, ptr %0, align 8
  %10 = getelementptr inbounds i8, ptr %0, i64 8
  store i32 %9, ptr %10, align 8
  br label %bb33

bb2:                                              ; preds = %bb35
  store i8 1, ptr %_30, align 1
  %11 = load i64, ptr %_5, align 8, !range !11, !noundef !5
  %12 = icmp eq i64 %11, -9223372036854775808
  %_6 = select i1 %12, i64 0, i64 1
  %13 = trunc nuw i64 %_6 to i1
  br i1 %13, label %bb5, label %bb4

bb5:                                              ; preds = %bb2
  call void @llvm.lifetime.start.p0(i64 8, ptr %wrapper)
  store ptr %_5, ptr %wrapper, align 8
  %14 = getelementptr inbounds i8, ptr %_5, i64 8
  %_40 = load ptr, ptr %14, align 8, !nonnull !5, !noundef !5
  %15 = icmp ne ptr %_40, null
  call void @llvm.assume(i1 %15)
  %16 = getelementptr inbounds i8, ptr %_5, i64 16
  %_39 = load i64, ptr %16, align 8, !noundef !5
  %17 = icmp eq i64 %_39, 0
  br i1 %17, label %bb6, label %bb7

bb4:                                              ; preds = %bb2
  call void @llvm.lifetime.start.p0(i64 24, ptr %_17)
  store i8 0, ptr %_31, align 1
  call void @llvm.memcpy.p0.p0.i64(ptr align 8 %_17, ptr align 8 %rustc, i64 24, i1 false)
; invoke std::process::Command::new
  invoke void @_ZN3std7process7Command3new17h511d0bcee9d86266E(ptr noalias noundef sret([200 x i8]) align 8 captures(address) dereferenceable(200) %cmd, ptr noalias noundef align 8 captures(address) dereferenceable(24) %_17)
          to label %bb14 unwind label %cleanup3

bb31:                                             ; preds = %bb23, %cleanup3
  %18 = load i64, ptr %_5, align 8, !range !11, !noundef !5
  %19 = icmp eq i64 %18, -9223372036854775808
  %_33 = select i1 %19, i64 0, i64 1
  %20 = icmp eq i64 %_33, 1
  br i1 %20, label %bb29, label %bb33

cleanup3:                                         ; preds = %bb7, %bb6, %bb4
  %21 = landingpad { ptr, i32 }
          cleanup
  %22 = extractvalue { ptr, i32 } %21, 0
  %23 = extractvalue { ptr, i32 } %21, 1
  call void @llvm.lifetime.start.p0(i64 16, ptr %0)
  store ptr %22, ptr %0, align 8
  %24 = getelementptr inbounds i8, ptr %0, i64 8
  store i32 %23, ptr %24, align 8
  br label %bb31

bb14:                                             ; preds = %bb4
  call void @llvm.lifetime.end.p0(i64 24, ptr %_17)
  %25 = load i64, ptr %_5, align 8, !range !11, !noundef !5
  %26 = icmp eq i64 %25, -9223372036854775808
  %27 = select i1 %26, i64 0, i64 1
  store i64 %27, ptr %_32, align 8
  %28 = load i64, ptr %_32, align 8, !noundef !5
  %29 = trunc nuw i64 %28 to i1
  br i1 %29, label %bb27, label %bb25

bb27:                                             ; preds = %bb26, %bb14
; invoke core::ptr::drop_in_place<std::ffi::os_str::OsString>
  invoke void @"_ZN4core3ptr47drop_in_place$LT$std..ffi..os_str..OsString$GT$17hdff64c461789de5dE"(ptr noalias noundef align 8 dereferenceable(24) %_5)
          to label %bb25 unwind label %cleanup5

bb25:                                             ; preds = %bb27, %bb26, %bb28, %bb14
  call void @llvm.lifetime.end.p0(i64 24, ptr %_5)
; invoke std::process::Command::arg
  %_18 = invoke noundef align 8 dereferenceable(200) ptr @_ZN3std7process7Command3arg17hdb3f97a3b0059374E(ptr noalias noundef align 8 dereferenceable(200) %cmd, ptr noalias noundef nonnull readonly align 1 captures(address, read_provenance) @alloc_a887f9858119cc7413062dc002c4d9ab, i64 noundef 9)
          to label %bb15 unwind label %cleanup5

bb6:                                              ; preds = %bb5
  call void @llvm.lifetime.start.p0(i64 24, ptr %_9)
  store i8 0, ptr %_31, align 1
  call void @llvm.memcpy.p0.p0.i64(ptr align 8 %_9, ptr align 8 %rustc, i64 24, i1 false)
; invoke std::process::Command::new
  invoke void @_ZN3std7process7Command3new17h511d0bcee9d86266E(ptr noalias noundef sret([200 x i8]) align 8 captures(address) dereferenceable(200) %cmd, ptr noalias noundef align 8 captures(address) dereferenceable(24) %_9)
          to label %bb8 unwind label %cleanup3

bb7:                                              ; preds = %bb5
  call void @llvm.lifetime.end.p0(i64 8, ptr %wrapper)
  store i8 0, ptr %_30, align 1
  call void @llvm.memcpy.p0.p0.i64(ptr align 8 %wrapper1, ptr align 8 %_5, i64 24, i1 false)
  call void @llvm.lifetime.start.p0(i64 200, ptr %cmd2)
; invoke std::process::Command::new
  invoke void @_ZN3std7process7Command3new17h511d0bcee9d86266E(ptr noalias noundef sret([200 x i8]) align 8 captures(address) dereferenceable(200) %cmd2, ptr noalias noundef align 8 captures(address) dereferenceable(24) %wrapper1)
          to label %bb9 unwind label %cleanup3

bb8:                                              ; preds = %bb6
  call void @llvm.lifetime.end.p0(i64 24, ptr %_9)
  call void @llvm.lifetime.end.p0(i64 8, ptr %wrapper)
  br label %bb28

bb28:                                             ; preds = %bb13, %bb8
  %30 = load i64, ptr %_5, align 8, !range !11, !noundef !5
  %31 = icmp eq i64 %30, -9223372036854775808
  %32 = select i1 %31, i64 0, i64 1
  store i64 %32, ptr %_32, align 8
  %33 = load i64, ptr %_32, align 8, !noundef !5
  %34 = trunc nuw i64 %33 to i1
  br i1 %34, label %bb26, label %bb25

bb9:                                              ; preds = %bb7
  call void @llvm.lifetime.start.p0(i64 24, ptr %_14)
  store i8 0, ptr %_31, align 1
  call void @llvm.memcpy.p0.p0.i64(ptr align 8 %_14, ptr align 8 %rustc, i64 24, i1 false)
; invoke std::process::Command::arg
  %_12 = invoke noundef align 8 dereferenceable(200) ptr @_ZN3std7process7Command3arg17h82a0f3137abd8dc3E(ptr noalias noundef align 8 dereferenceable(200) %cmd2, ptr noalias noundef align 8 captures(address) dereferenceable(24) %_14)
          to label %bb10 unwind label %cleanup4

bb23:                                             ; preds = %cleanup4
; invoke core::ptr::drop_in_place<std::process::Command>
  invoke void @"_ZN4core3ptr42drop_in_place$LT$std..process..Command$GT$17h3a0f51a54b3bc2a3E"(ptr noalias noundef align 8 dereferenceable(200) %cmd2) #28
          to label %bb31 unwind label %terminate

cleanup4:                                         ; preds = %bb11, %bb9
  %35 = landingpad { ptr, i32 }
          cleanup
  %36 = extractvalue { ptr, i32 } %35, 0
  %37 = extractvalue { ptr, i32 } %35, 1
  call void @llvm.lifetime.start.p0(i64 16, ptr %0)
  store ptr %36, ptr %0, align 8
  %38 = getelementptr inbounds i8, ptr %0, i64 8
  store i32 %37, ptr %38, align 8
  br label %bb23

bb10:                                             ; preds = %bb9
  call void @llvm.lifetime.end.p0(i64 24, ptr %_14)
  br i1 %is_clippy_driver, label %bb11, label %bb13

bb13:                                             ; preds = %bb12, %bb10
  call void @llvm.memcpy.p0.p0.i64(ptr align 8 %cmd, ptr align 8 %cmd2, i64 200, i1 false)
  call void @llvm.lifetime.end.p0(i64 200, ptr %cmd2)
  br label %bb28

bb11:                                             ; preds = %bb10
; invoke std::process::Command::arg
  %_15 = invoke noundef align 8 dereferenceable(200) ptr @_ZN3std7process7Command3arg17hdb3f97a3b0059374E(ptr noalias noundef align 8 dereferenceable(200) %cmd2, ptr noalias noundef nonnull readonly align 1 captures(address, read_provenance) @alloc_0a95b2846250f640f3e914bc2bbe7701, i64 noundef 7)
          to label %bb12 unwind label %cleanup4

bb12:                                             ; preds = %bb11
  br label %bb13

bb26:                                             ; preds = %bb28
  %39 = load i8, ptr %_30, align 1, !range !9, !noundef !5
  %40 = trunc nuw i8 %39 to i1
  br i1 %40, label %bb27, label %bb25

bb22:                                             ; preds = %bb21, %cleanup5
; invoke core::ptr::drop_in_place<std::process::Command>
  invoke void @"_ZN4core3ptr42drop_in_place$LT$std..process..Command$GT$17h3a0f51a54b3bc2a3E"(ptr noalias noundef align 8 dereferenceable(200) %cmd) #28
          to label %bb33 unwind label %terminate

cleanup5:                                         ; preds = %bb16, %bb15, %bb25, %bb27
  %41 = landingpad { ptr, i32 }
          cleanup
  %42 = extractvalue { ptr, i32 } %41, 0
  %43 = extractvalue { ptr, i32 } %41, 1
  call void @llvm.lifetime.start.p0(i64 16, ptr %0)
  store ptr %42, ptr %0, align 8
  %44 = getelementptr inbounds i8, ptr %0, i64 8
  store i32 %43, ptr %44, align 8
  br label %bb22

bb15:                                             ; preds = %bb25
  call void @llvm.lifetime.start.p0(i64 56, ptr %output)
  call void @llvm.lifetime.start.p0(i64 56, ptr %_21)
; invoke std::process::Command::output
  invoke void @_ZN3std7process7Command6output17h43c2bcdedd19a7a1E(ptr noalias noundef sret([56 x i8]) align 8 captures(address) dereferenceable(56) %_21, ptr noalias noundef align 8 dereferenceable(200) %cmd)
          to label %bb16 unwind label %cleanup5

bb16:                                             ; preds = %bb15
; invoke core::result::Result<T,E>::expect
  invoke void @"_ZN4core6result19Result$LT$T$C$E$GT$6expect17hc66696b3a434bd39E"(ptr noalias noundef sret([56 x i8]) align 8 captures(address) dereferenceable(56) %output, ptr noalias noundef align 8 captures(address) dereferenceable(56) %_21, ptr noalias noundef nonnull readonly align 1 captures(address, read_provenance) @alloc_c33e5af42b9b9e21f43a4fcb9c0ba190, i64 noundef 27, ptr noalias noundef readonly align 8 captures(address, read_provenance) dereferenceable(24) @alloc_4dab0acc13c3809bd0058c5188be5d6f)
          to label %bb17 unwind label %cleanup5

bb17:                                             ; preds = %bb16
  call void @llvm.lifetime.end.p0(i64 56, ptr %_21)
  %45 = getelementptr inbounds i8, ptr %output, i64 48
  %_46 = load i32, ptr %45, align 8, !noundef !5
  %46 = icmp eq i32 %_46, 0
  %_48 = select i1 %46, i64 0, i64 1
  %47 = trunc nuw i64 %_48 to i1
  br i1 %47, label %bb37, label %bb36

bb37:                                             ; preds = %bb17
  call void @llvm.lifetime.start.p0(i64 48, ptr %_24)
  call void @llvm.lifetime.start.p0(i64 16, ptr %args)
  call void @llvm.lifetime.start.p0(i64 16, ptr %_26)
  call void @llvm.lifetime.start.p0(i64 24, ptr %_27)
  %48 = getelementptr inbounds i8, ptr %output, i64 24
  %49 = getelementptr inbounds i8, ptr %48, i64 8
  %_51 = load ptr, ptr %49, align 8, !nonnull !5, !noundef !5
  %50 = icmp ne ptr %_51, null
  call void @llvm.assume(i1 %50)
  %51 = getelementptr inbounds i8, ptr %output, i64 24
  %52 = getelementptr inbounds i8, ptr %51, i64 16
  %_50 = load i64, ptr %52, align 8, !noundef !5
; invoke alloc::string::String::from_utf8_lossy
  invoke void @_ZN5alloc6string6String15from_utf8_lossy17h21794fcc38759ff3E(ptr noalias noundef sret([24 x i8]) align 8 captures(address) dereferenceable(24) %_27, ptr noalias noundef nonnull readonly align 1 captures(address, read_provenance) %_51, i64 noundef %_50)
          to label %bb18 unwind label %cleanup6

bb36:                                             ; preds = %bb17
  call void @llvm.memcpy.p0.p0.i64(ptr align 8 %_0, ptr align 8 %output, i64 56, i1 false)
  call void @llvm.lifetime.end.p0(i64 56, ptr %output)
; invoke core::ptr::drop_in_place<std::process::Command>
  invoke void @"_ZN4core3ptr42drop_in_place$LT$std..process..Command$GT$17h3a0f51a54b3bc2a3E"(ptr noalias noundef align 8 dereferenceable(200) %cmd)
          to label %bb19 unwind label %cleanup

bb19:                                             ; preds = %bb36
  call void @llvm.lifetime.end.p0(i64 200, ptr %cmd)
  call void @llvm.lifetime.end.p0(i64 24, ptr %rustc)
  ret void

bb21:                                             ; preds = %bb20, %cleanup6
; invoke core::ptr::drop_in_place<std::process::Output>
  invoke void @"_ZN4core3ptr41drop_in_place$LT$std..process..Output$GT$17hf3f745f59bbe2061E"(ptr noalias noundef align 8 dereferenceable(56) %output) #28
          to label %bb22 unwind label %terminate

cleanup6:                                         ; preds = %bb37
  %53 = landingpad { ptr, i32 }
          cleanup
  %54 = extractvalue { ptr, i32 } %53, 0
  %55 = extractvalue { ptr, i32 } %53, 1
  call void @llvm.lifetime.start.p0(i64 16, ptr %0)
  store ptr %54, ptr %0, align 8
  %56 = getelementptr inbounds i8, ptr %0, i64 8
  store i32 %55, ptr %56, align 8
  br label %bb21

bb18:                                             ; preds = %bb37
  call void @llvm.lifetime.start.p0(i64 16, ptr %_53)
  %57 = icmp ne ptr %_27, null
  call void @llvm.assume(i1 %57)
  store ptr %_27, ptr %_53, align 8
  %58 = getelementptr inbounds i8, ptr %_53, i64 8
  store ptr @"_ZN66_$LT$alloc..borrow..Cow$LT$B$GT$$u20$as$u20$core..fmt..Display$GT$3fmt17haad56451be1d275fE", ptr %58, align 8
  call void @llvm.memcpy.p0.p0.i64(ptr align 8 %_26, ptr align 8 %_53, i64 16, i1 false)
  call void @llvm.lifetime.end.p0(i64 16, ptr %_53)
  %59 = getelementptr inbounds nuw %"core::fmt::rt::Argument<'_>", ptr %args, i64 0
  call void @llvm.memcpy.p0.p0.i64(ptr align 8 %59, ptr align 8 %_26, i64 16, i1 false)
  call void @llvm.lifetime.end.p0(i64 16, ptr %_26)
  store ptr @alloc_eaaa6a8512dd326c4c1db6475452d7d6, ptr %_24, align 8
  %60 = getelementptr inbounds i8, ptr %_24, i64 8
  store i64 1, ptr %60, align 8
  %61 = load ptr, ptr @anon.343ad20a3284b1f9e404afc411eb8ab2.1, align 8, !align !6, !noundef !5
  %62 = load i64, ptr getelementptr inbounds (i8, ptr @anon.343ad20a3284b1f9e404afc411eb8ab2.1, i64 8), align 8
  %63 = getelementptr inbounds i8, ptr %_24, i64 32
  store ptr %61, ptr %63, align 8
  %64 = getelementptr inbounds i8, ptr %63, i64 8
  store i64 %62, ptr %64, align 8
  %65 = getelementptr inbounds i8, ptr %_24, i64 16
  store ptr %args, ptr %65, align 8
  %66 = getelementptr inbounds i8, ptr %65, i64 8
  store i64 1, ptr %66, align 8
; invoke core::panicking::panic_fmt
  invoke void @_ZN4core9panicking9panic_fmt17h92c8e5abe71dd8d1E(ptr noalias noundef readonly align 8 captures(address) dereferenceable(48) %_24, ptr noalias noundef readonly align 8 captures(address, read_provenance) dereferenceable(24) @alloc_25fabaa1939c4a56ea98ffbe8d7baf71) #30
          to label %unreachable unwind label %cleanup7

bb20:                                             ; preds = %cleanup7
; invoke core::ptr::drop_in_place<alloc::borrow::Cow<str>>
  invoke void @"_ZN4core3ptr50drop_in_place$LT$alloc..borrow..Cow$LT$str$GT$$GT$17h81224cd51ae2ea91E"(ptr noalias noundef align 8 dereferenceable(24) %_27) #28
          to label %bb21 unwind label %terminate

cleanup7:                                         ; preds = %bb18
  %67 = landingpad { ptr, i32 }
          cleanup
  %68 = extractvalue { ptr, i32 } %67, 0
  %69 = extractvalue { ptr, i32 } %67, 1
  call void @llvm.lifetime.start.p0(i64 16, ptr %0)
  store ptr %68, ptr %0, align 8
  %70 = getelementptr inbounds i8, ptr %0, i64 8
  store i32 %69, ptr %70, align 8
  br label %bb20

unreachable:                                      ; preds = %bb18
  unreachable

terminate:                                        ; preds = %bb32, %bb30, %bb23, %bb22, %bb21, %bb20
  %71 = landingpad { ptr, i32 }
          filter [0 x ptr] zeroinitializer
; call core::panicking::panic_in_cleanup
  call void @_ZN4core9panicking16panic_in_cleanup17h5eff40bcc4481d72E() #29
  unreachable

bb29:                                             ; preds = %bb31
  %72 = load i8, ptr %_30, align 1, !range !9, !noundef !5
  %73 = trunc nuw i8 %72 to i1
  br i1 %73, label %bb30, label %bb33

bb30:                                             ; preds = %bb29
; invoke core::ptr::drop_in_place<std::ffi::os_str::OsString>
  invoke void @"_ZN4core3ptr47drop_in_place$LT$std..ffi..os_str..OsString$GT$17hdff64c461789de5dE"(ptr noalias noundef align 8 dereferenceable(24) %_5) #28
          to label %bb33 unwind label %terminate

bb24:                                             ; preds = %bb32, %bb33
  %74 = load ptr, ptr %0, align 8, !noundef !5
  %75 = getelementptr inbounds i8, ptr %0, i64 8
  %76 = load i32, ptr %75, align 8, !noundef !5
  call void @llvm.lifetime.end.p0(i64 16, ptr %0)
  %77 = insertvalue { ptr, i32 } poison, ptr %74, 0
  %78 = insertvalue { ptr, i32 } %77, i32 %76, 1
  resume { ptr, i32 } %78

bb32:                                             ; preds = %bb33
; invoke core::ptr::drop_in_place<std::ffi::os_str::OsString>
  invoke void @"_ZN4core3ptr47drop_in_place$LT$std..ffi..os_str..OsString$GT$17hdff64c461789de5dE"(ptr noalias noundef align 8 dereferenceable(24) %rustc) #28
          to label %bb24 unwind label %terminate

bb3:                                              ; No predecessors!
  unreachable
}

; build_script_build::rustc_minor_nightly
; Function Attrs: nonlazybind uwtable
define internal { i32, i1 } @_ZN18build_script_build19rustc_minor_nightly17haeb4d1d71303e23dE() unnamed_addr #2 personality ptr @rust_eh_personality {
start:
  %0 = alloca [8 x i8], align 8
  %1 = alloca [4 x i8], align 4
  %2 = alloca [8 x i8], align 8
  %3 = alloca [16 x i8], align 8
  %_97 = alloca [8 x i8], align 8
  %_94 = alloca [8 x i8], align 8
  %_93 = alloca [1 x i8], align 1
  %_91 = alloca [48 x i8], align 8
  %_89 = alloca [72 x i8], align 8
  %_67 = alloca [48 x i8], align 8
  %_65 = alloca [72 x i8], align 8
  %_45 = alloca [48 x i8], align 8
  %_41 = alloca [48 x i8], align 8
  %_37 = alloca [8 x i8], align 4
  %_36 = alloca [8 x i8], align 4
  %_33 = alloca [48 x i8], align 8
  %_29 = alloca [16 x i8], align 8
  %_28 = alloca [72 x i8], align 8
  %nightly_raw = alloca [16 x i8], align 8
  %minor = alloca [16 x i8], align 8
  %_24 = alloca [48 x i8], align 8
  %_23 = alloca [48 x i8], align 8
  %_20 = alloca [16 x i8], align 8
  %pieces = alloca [72 x i8], align 8
  %_17 = alloca [48 x i8], align 8
  %_12 = alloca [24 x i8], align 8
  %_11 = alloca [16 x i8], align 8
  %_10 = alloca [56 x i8], align 8
  %_9 = alloca [48 x i8], align 8
  %_4 = alloca [24 x i8], align 8
  %_3 = alloca [16 x i8], align 8
  %output = alloca [56 x i8], align 8
  call void @llvm.lifetime.start.p0(i64 56, ptr %output)
; call build_script_build::rustc_version_cmd
  call void @_ZN18build_script_build17rustc_version_cmd17h3da41ae8739f7574E(ptr noalias noundef sret([56 x i8]) align 8 captures(address) dereferenceable(56) %output, i1 noundef zeroext false)
  call void @llvm.lifetime.start.p0(i64 16, ptr %_3)
  call void @llvm.lifetime.start.p0(i64 24, ptr %_4)
  %4 = getelementptr inbounds i8, ptr %output, i64 8
  %_49 = load ptr, ptr %4, align 8, !nonnull !5, !noundef !5
  %5 = icmp ne ptr %_49, null
  call void @llvm.assume(i1 %5)
  %6 = getelementptr inbounds i8, ptr %output, i64 16
  %_48 = load i64, ptr %6, align 8, !noundef !5
; invoke core::str::converts::from_utf8
  invoke void @_ZN4core3str8converts9from_utf817h61448895180b8340E(ptr noalias noundef sret([24 x i8]) align 8 captures(address) dereferenceable(24) %_4, ptr noalias noundef nonnull readonly align 1 captures(address, read_provenance) %_49, i64 noundef %_48)
          to label %bb2 unwind label %cleanup

bb25:                                             ; preds = %bb9, %cleanup
; invoke core::ptr::drop_in_place<std::process::Output>
  invoke void @"_ZN4core3ptr41drop_in_place$LT$std..process..Output$GT$17hf3f745f59bbe2061E"(ptr noalias noundef align 8 dereferenceable(56) %output) #28
          to label %bb26 unwind label %terminate

cleanup:                                          ; preds = %bb16, %bb22, %bb21, %bb20, %bb45, %bb50, %bb44, %bb18, %bb17, %bb42, %bb15, %bb34, %bb14, %bb13, %bb11, %bb6, %bb5, %bb4, %start
  %7 = landingpad { ptr, i32 }
          cleanup
  %8 = extractvalue { ptr, i32 } %7, 0
  %9 = extractvalue { ptr, i32 } %7, 1
  call void @llvm.lifetime.start.p0(i64 16, ptr %3)
  store ptr %8, ptr %3, align 8
  %10 = getelementptr inbounds i8, ptr %3, i64 8
  store i32 %9, ptr %10, align 8
  br label %bb25

bb2:                                              ; preds = %start
  %_51 = load i64, ptr %_4, align 8, !range !12, !noundef !5
  %11 = trunc nuw i64 %_51 to i1
  br i1 %11, label %bb27, label %bb28

bb27:                                             ; preds = %bb2
  %12 = load ptr, ptr @anon.343ad20a3284b1f9e404afc411eb8ab2.1, align 8, !align !10, !noundef !5
  %13 = load i64, ptr getelementptr inbounds (i8, ptr @anon.343ad20a3284b1f9e404afc411eb8ab2.1, i64 8), align 8
  store ptr %12, ptr %_3, align 8
  %14 = getelementptr inbounds i8, ptr %_3, i64 8
  store i64 %13, ptr %14, align 8
  br label %bb29

bb28:                                             ; preds = %bb2
  %15 = getelementptr inbounds i8, ptr %_4, i64 8
  %_52.0 = load ptr, ptr %15, align 8, !nonnull !5, !align !10, !noundef !5
  %16 = getelementptr inbounds i8, ptr %15, i64 8
  %_52.1 = load i64, ptr %16, align 8, !noundef !5
  store ptr %_52.0, ptr %_3, align 8
  %17 = getelementptr inbounds i8, ptr %_3, i64 8
  store i64 %_52.1, ptr %17, align 8
  br label %bb29

bb29:                                             ; preds = %bb27, %bb28
  call void @llvm.lifetime.end.p0(i64 24, ptr %_4)
  %18 = load ptr, ptr %_3, align 8, !align !10, !noundef !5
  %19 = getelementptr inbounds i8, ptr %_3, i64 8
  %20 = load i64, ptr %19, align 8
  %21 = ptrtoint ptr %18 to i64
  %22 = icmp eq i64 %21, 0
  %_6 = select i1 %22, i64 0, i64 1
  %23 = trunc nuw i64 %_6 to i1
  %24 = call i1 @llvm.expect.i1(i1 %23, i1 true)
  br i1 %24, label %bb5, label %bb4

bb5:                                              ; preds = %bb29
  %e.0 = load ptr, ptr %_3, align 8, !nonnull !5, !align !10, !noundef !5
  %25 = getelementptr inbounds i8, ptr %_3, i64 8
  %e.1 = load i64, ptr %25, align 8, !noundef !5
; invoke core::slice::<impl [T]>::starts_with
  %_2 = invoke noundef zeroext i1 @"_ZN4core5slice29_$LT$impl$u20$$u5b$T$u5d$$GT$11starts_with17h34e32d45ec9f2302E"(ptr noalias noundef nonnull readonly align 1 captures(address, read_provenance) %e.0, i64 noundef %e.1, ptr noalias noundef nonnull readonly align 1 captures(address, read_provenance) @alloc_55e278c996565db65fe0fb6e7409cbbb, i64 noundef 6)
          to label %bb30 unwind label %cleanup

bb4:                                              ; preds = %bb29
  call void @llvm.lifetime.start.p0(i64 48, ptr %_9)
  store ptr @alloc_2848618747d5f5b989fc716426f82563, ptr %_9, align 8
  %26 = getelementptr inbounds i8, ptr %_9, i64 8
  store i64 1, ptr %26, align 8
  %27 = load ptr, ptr @anon.343ad20a3284b1f9e404afc411eb8ab2.1, align 8, !align !6, !noundef !5
  %28 = load i64, ptr getelementptr inbounds (i8, ptr @anon.343ad20a3284b1f9e404afc411eb8ab2.1, i64 8), align 8
  %29 = getelementptr inbounds i8, ptr %_9, i64 32
  store ptr %27, ptr %29, align 8
  %30 = getelementptr inbounds i8, ptr %29, i64 8
  store i64 %28, ptr %30, align 8
  %31 = getelementptr inbounds i8, ptr %_9, i64 16
  store ptr inttoptr (i64 8 to ptr), ptr %31, align 8
  %32 = getelementptr inbounds i8, ptr %31, i64 8
  store i64 0, ptr %32, align 8
; invoke core::panicking::panic_fmt
  invoke void @_ZN4core9panicking9panic_fmt17h92c8e5abe71dd8d1E(ptr noalias noundef readonly align 8 captures(address) dereferenceable(48) %_9, ptr noalias noundef readonly align 8 captures(address, read_provenance) dereferenceable(24) @alloc_d461cecc2e8426e8e429daa636d5f45b) #30
          to label %unreachable unwind label %cleanup

unreachable:                                      ; preds = %bb16, %bb22, %bb20, %bb17, %bb13, %bb4
  unreachable

bb30:                                             ; preds = %bb5
  br i1 %_2, label %bb6, label %bb10

bb10:                                             ; preds = %bb30
  call void @llvm.lifetime.end.p0(i64 16, ptr %_3)
  br label %bb11

bb6:                                              ; preds = %bb30
  call void @llvm.lifetime.end.p0(i64 16, ptr %_3)
  call void @llvm.lifetime.start.p0(i64 56, ptr %_10)
; invoke build_script_build::rustc_version_cmd
  invoke void @_ZN18build_script_build17rustc_version_cmd17h3da41ae8739f7574E(ptr noalias noundef sret([56 x i8]) align 8 captures(address) dereferenceable(56) %_10, i1 noundef zeroext true)
          to label %bb7 unwind label %cleanup

bb11:                                             ; preds = %bb8, %bb10
  call void @llvm.lifetime.start.p0(i64 16, ptr %_11)
  call void @llvm.lifetime.start.p0(i64 24, ptr %_12)
  %33 = getelementptr inbounds i8, ptr %output, i64 8
  %_59 = load ptr, ptr %33, align 8, !nonnull !5, !noundef !5
  %34 = icmp ne ptr %_59, null
  call void @llvm.assume(i1 %34)
  %35 = getelementptr inbounds i8, ptr %output, i64 16
  %_58 = load i64, ptr %35, align 8, !noundef !5
; invoke core::str::converts::from_utf8
  invoke void @_ZN4core3str8converts9from_utf817h61448895180b8340E(ptr noalias noundef sret([24 x i8]) align 8 captures(address) dereferenceable(24) %_12, ptr noalias noundef nonnull readonly align 1 captures(address, read_provenance) %_59, i64 noundef %_58)
          to label %bb12 unwind label %cleanup

bb7:                                              ; preds = %bb6
; invoke core::ptr::drop_in_place<std::process::Output>
  invoke void @"_ZN4core3ptr41drop_in_place$LT$std..process..Output$GT$17hf3f745f59bbe2061E"(ptr noalias noundef align 8 dereferenceable(56) %output)
          to label %bb8 unwind label %cleanup1

bb9:                                              ; preds = %cleanup1
  call void @llvm.memcpy.p0.p0.i64(ptr align 8 %output, ptr align 8 %_10, i64 56, i1 false)
  br label %bb25

cleanup1:                                         ; preds = %bb7
  %36 = landingpad { ptr, i32 }
          cleanup
  %37 = extractvalue { ptr, i32 } %36, 0
  %38 = extractvalue { ptr, i32 } %36, 1
  call void @llvm.lifetime.start.p0(i64 16, ptr %3)
  store ptr %37, ptr %3, align 8
  %39 = getelementptr inbounds i8, ptr %3, i64 8
  store i32 %38, ptr %39, align 8
  br label %bb9

bb8:                                              ; preds = %bb7
  call void @llvm.memcpy.p0.p0.i64(ptr align 8 %output, ptr align 8 %_10, i64 56, i1 false)
  call void @llvm.lifetime.end.p0(i64 56, ptr %_10)
  br label %bb11

bb12:                                             ; preds = %bb11
  %_61 = load i64, ptr %_12, align 8, !range !12, !noundef !5
  %40 = trunc nuw i64 %_61 to i1
  br i1 %40, label %bb31, label %bb32

bb31:                                             ; preds = %bb12
  %41 = load ptr, ptr @anon.343ad20a3284b1f9e404afc411eb8ab2.1, align 8, !align !10, !noundef !5
  %42 = load i64, ptr getelementptr inbounds (i8, ptr @anon.343ad20a3284b1f9e404afc411eb8ab2.1, i64 8), align 8
  store ptr %41, ptr %_11, align 8
  %43 = getelementptr inbounds i8, ptr %_11, i64 8
  store i64 %42, ptr %43, align 8
  br label %bb33

bb32:                                             ; preds = %bb12
  %44 = getelementptr inbounds i8, ptr %_12, i64 8
  %_62.0 = load ptr, ptr %44, align 8, !nonnull !5, !align !10, !noundef !5
  %45 = getelementptr inbounds i8, ptr %44, i64 8
  %_62.1 = load i64, ptr %45, align 8, !noundef !5
  store ptr %_62.0, ptr %_11, align 8
  %46 = getelementptr inbounds i8, ptr %_11, i64 8
  store i64 %_62.1, ptr %46, align 8
  br label %bb33

bb33:                                             ; preds = %bb31, %bb32
  call void @llvm.lifetime.end.p0(i64 24, ptr %_12)
  %47 = load ptr, ptr %_11, align 8, !align !10, !noundef !5
  %48 = getelementptr inbounds i8, ptr %_11, i64 8
  %49 = load i64, ptr %48, align 8
  %50 = ptrtoint ptr %47 to i64
  %51 = icmp eq i64 %50, 0
  %_14 = select i1 %51, i64 0, i64 1
  %52 = trunc nuw i64 %_14 to i1
  %53 = call i1 @llvm.expect.i1(i1 %52, i1 true)
  br i1 %53, label %bb14, label %bb13

bb14:                                             ; preds = %bb33
  %version.0 = load ptr, ptr %_11, align 8, !nonnull !5, !align !10, !noundef !5
  %54 = getelementptr inbounds i8, ptr %_11, i64 8
  %version.1 = load i64, ptr %54, align 8, !noundef !5
  call void @llvm.lifetime.end.p0(i64 16, ptr %_11)
  call void @llvm.lifetime.start.p0(i64 72, ptr %pieces)
  call void @llvm.lifetime.start.p0(i64 72, ptr %_65)
  call void @llvm.lifetime.start.p0(i64 48, ptr %_67)
; invoke <char as core::str::pattern::Pattern>::into_searcher
  invoke void @"_ZN52_$LT$char$u20$as$u20$core..str..pattern..Pattern$GT$13into_searcher17haf8f4f1176b15fecE"(ptr noalias noundef sret([48 x i8]) align 8 captures(address) dereferenceable(48) %_67, i32 noundef 46, ptr noalias noundef nonnull readonly align 1 captures(address, read_provenance) %version.0, i64 noundef %version.1)
          to label %bb34 unwind label %cleanup

bb13:                                             ; preds = %bb33
  call void @llvm.lifetime.start.p0(i64 48, ptr %_17)
  store ptr @alloc_2848618747d5f5b989fc716426f82563, ptr %_17, align 8
  %55 = getelementptr inbounds i8, ptr %_17, i64 8
  store i64 1, ptr %55, align 8
  %56 = load ptr, ptr @anon.343ad20a3284b1f9e404afc411eb8ab2.1, align 8, !align !6, !noundef !5
  %57 = load i64, ptr getelementptr inbounds (i8, ptr @anon.343ad20a3284b1f9e404afc411eb8ab2.1, i64 8), align 8
  %58 = getelementptr inbounds i8, ptr %_17, i64 32
  store ptr %56, ptr %58, align 8
  %59 = getelementptr inbounds i8, ptr %58, i64 8
  store i64 %57, ptr %59, align 8
  %60 = getelementptr inbounds i8, ptr %_17, i64 16
  store ptr inttoptr (i64 8 to ptr), ptr %60, align 8
  %61 = getelementptr inbounds i8, ptr %60, i64 8
  store i64 0, ptr %61, align 8
; invoke core::panicking::panic_fmt
  invoke void @_ZN4core9panicking9panic_fmt17h92c8e5abe71dd8d1E(ptr noalias noundef readonly align 8 captures(address) dereferenceable(48) %_17, ptr noalias noundef readonly align 8 captures(address, read_provenance) dereferenceable(24) @alloc_a66157e2319119986804caae1b60bf57) #30
          to label %unreachable unwind label %cleanup

bb34:                                             ; preds = %bb14
  store i64 0, ptr %_65, align 8
  %62 = getelementptr inbounds i8, ptr %_65, i64 8
  store i64 %version.1, ptr %62, align 8
  %63 = getelementptr inbounds i8, ptr %_65, i64 16
  call void @llvm.memcpy.p0.p0.i64(ptr align 8 %63, ptr align 8 %_67, i64 48, i1 false)
  %64 = getelementptr inbounds i8, ptr %_65, i64 64
  store i8 1, ptr %64, align 8
  %65 = getelementptr inbounds i8, ptr %_65, i64 65
  store i8 0, ptr %65, align 1
  call void @llvm.lifetime.end.p0(i64 48, ptr %_67)
  call void @llvm.memcpy.p0.p0.i64(ptr align 8 %pieces, ptr align 8 %_65, i64 72, i1 false)
  call void @llvm.lifetime.end.p0(i64 72, ptr %_65)
; invoke core::str::iter::SplitInternal<P>::next
  %66 = invoke { ptr, i64 } @"_ZN4core3str4iter22SplitInternal$LT$P$GT$4next17hf76d6ea82f8b9673E"(ptr noalias noundef align 8 dereferenceable(72) %pieces)
          to label %bb35 unwind label %cleanup

bb35:                                             ; preds = %bb34
  %67 = extractvalue { ptr, i64 } %66, 0
  %68 = extractvalue { ptr, i64 } %66, 1
  store ptr %67, ptr %_20, align 8
  %69 = getelementptr inbounds i8, ptr %_20, i64 8
  store i64 %68, ptr %69, align 8
  %70 = load ptr, ptr %_20, align 8, !align !10, !noundef !5
  %71 = getelementptr inbounds i8, ptr %_20, i64 8
  %72 = load i64, ptr %71, align 8
  %73 = ptrtoint ptr %70 to i64
  %74 = icmp eq i64 %73, 0
  %_70 = select i1 %74, i64 0, i64 1
  %75 = trunc nuw i64 %_70 to i1
  %76 = call i1 @llvm.expect.i1(i1 %75, i1 true)
  br i1 %76, label %bb37, label %bb36

bb37:                                             ; preds = %bb35
  %_71.0 = load ptr, ptr %_20, align 8, !nonnull !5, !align !10, !noundef !5
  %77 = getelementptr inbounds i8, ptr %_20, i64 8
  %_71.1 = load i64, ptr %77, align 8, !noundef !5
  %_72.0 = load ptr, ptr @alloc_99ffb679049157f8e234fe49e0609c15, align 8, !nonnull !5, !align !10, !noundef !5
  %_72.1 = load i64, ptr getelementptr inbounds (i8, ptr @alloc_99ffb679049157f8e234fe49e0609c15, i64 8), align 8, !noundef !5
  %78 = icmp eq i64 %_71.1, 7
  %79 = call i1 @llvm.expect.i1(i1 %78, i1 true)
  br i1 %79, label %bb39, label %bb38

bb36:                                             ; preds = %bb35
  br label %bb16

bb16:                                             ; preds = %bb38, %bb39, %bb36
  call void @llvm.lifetime.start.p0(i64 48, ptr %_23)
  call void @llvm.lifetime.start.p0(i64 48, ptr %_24)
  store ptr @alloc_2848618747d5f5b989fc716426f82563, ptr %_24, align 8
  %80 = getelementptr inbounds i8, ptr %_24, i64 8
  store i64 1, ptr %80, align 8
  %81 = load ptr, ptr @anon.343ad20a3284b1f9e404afc411eb8ab2.1, align 8, !align !6, !noundef !5
  %82 = load i64, ptr getelementptr inbounds (i8, ptr @anon.343ad20a3284b1f9e404afc411eb8ab2.1, i64 8), align 8
  %83 = getelementptr inbounds i8, ptr %_24, i64 32
  store ptr %81, ptr %83, align 8
  %84 = getelementptr inbounds i8, ptr %83, i64 8
  store i64 %82, ptr %84, align 8
  %85 = getelementptr inbounds i8, ptr %_24, i64 16
  store ptr inttoptr (i64 8 to ptr), ptr %85, align 8
  %86 = getelementptr inbounds i8, ptr %85, i64 8
  store i64 0, ptr %86, align 8
  call void @llvm.memcpy.p0.p0.i64(ptr align 8 %_23, ptr align 8 %_24, i64 48, i1 false)
  call void @llvm.lifetime.end.p0(i64 48, ptr %_24)
; invoke core::panicking::assert_failed
  invoke void @_ZN4core9panicking13assert_failed17h2654f74fd9178049E(i8 noundef 0, ptr noalias noundef readonly align 8 captures(address, read_provenance) dereferenceable(16) %_20, ptr noalias noundef readonly align 8 captures(address, read_provenance) dereferenceable(16) @alloc_99ffb679049157f8e234fe49e0609c15, ptr noalias noundef align 8 captures(address) dereferenceable(48) %_23, ptr noalias noundef readonly align 8 captures(address, read_provenance) dereferenceable(24) @alloc_0b7c7af09b9642a0ab94df2bde785bf1) #30
          to label %unreachable unwind label %cleanup

bb39:                                             ; preds = %bb37
  call void @llvm.lifetime.start.p0(i64 8, ptr %2)
  %87 = mul nuw nsw i64 %_71.1, 1
  store i64 %87, ptr %2, align 8
  %_76 = load i64, ptr %2, align 8, !noundef !5
  call void @llvm.lifetime.end.p0(i64 8, ptr %2)
  call void @llvm.lifetime.start.p0(i64 4, ptr %1)
  %88 = call i32 @memcmp(ptr %_71.0, ptr %_72.0, i64 %_76)
  store i32 %88, ptr %1, align 4
  %_77 = load i32, ptr %1, align 4, !noundef !5
  call void @llvm.lifetime.end.p0(i64 4, ptr %1)
  %_21 = icmp eq i32 %_77, 0
  %89 = call i1 @llvm.expect.i1(i1 %_21, i1 true)
  br i1 %89, label %bb15, label %bb16

bb38:                                             ; preds = %bb37
  br label %bb16

bb15:                                             ; preds = %bb39
  call void @llvm.lifetime.start.p0(i64 16, ptr %minor)
; invoke core::str::iter::SplitInternal<P>::next
  %90 = invoke { ptr, i64 } @"_ZN4core3str4iter22SplitInternal$LT$P$GT$4next17hf76d6ea82f8b9673E"(ptr noalias noundef align 8 dereferenceable(72) %pieces)
          to label %bb42 unwind label %cleanup

bb42:                                             ; preds = %bb15
  %91 = extractvalue { ptr, i64 } %90, 0
  %92 = extractvalue { ptr, i64 } %90, 1
  store ptr %91, ptr %minor, align 8
  %93 = getelementptr inbounds i8, ptr %minor, i64 8
  store i64 %92, ptr %93, align 8
  call void @llvm.lifetime.start.p0(i64 16, ptr %nightly_raw)
  call void @llvm.lifetime.start.p0(i64 72, ptr %_28)
  call void @llvm.lifetime.start.p0(i64 16, ptr %_29)
; invoke core::str::iter::SplitInternal<P>::next
  %94 = invoke { ptr, i64 } @"_ZN4core3str4iter22SplitInternal$LT$P$GT$4next17hf76d6ea82f8b9673E"(ptr noalias noundef align 8 dereferenceable(72) %pieces)
          to label %bb43 unwind label %cleanup

bb43:                                             ; preds = %bb42
  %95 = extractvalue { ptr, i64 } %94, 0
  %96 = extractvalue { ptr, i64 } %94, 1
  store ptr %95, ptr %_29, align 8
  %97 = getelementptr inbounds i8, ptr %_29, i64 8
  store i64 %96, ptr %97, align 8
  %98 = load ptr, ptr %_29, align 8, !align !10, !noundef !5
  %99 = getelementptr inbounds i8, ptr %_29, i64 8
  %100 = load i64, ptr %99, align 8
  %101 = ptrtoint ptr %98 to i64
  %102 = icmp eq i64 %101, 0
  %_30 = select i1 %102, i64 0, i64 1
  %103 = trunc nuw i64 %_30 to i1
  %104 = call i1 @llvm.expect.i1(i1 %103, i1 true)
  br i1 %104, label %bb18, label %bb17

bb18:                                             ; preds = %bb43
  %e.02 = load ptr, ptr %_29, align 8, !nonnull !5, !align !10, !noundef !5
  %105 = getelementptr inbounds i8, ptr %_29, i64 8
  %e.13 = load i64, ptr %105, align 8, !noundef !5
  call void @llvm.lifetime.start.p0(i64 72, ptr %_89)
  call void @llvm.lifetime.start.p0(i64 48, ptr %_91)
; invoke <char as core::str::pattern::Pattern>::into_searcher
  invoke void @"_ZN52_$LT$char$u20$as$u20$core..str..pattern..Pattern$GT$13into_searcher17haf8f4f1176b15fecE"(ptr noalias noundef sret([48 x i8]) align 8 captures(address) dereferenceable(48) %_91, i32 noundef 45, ptr noalias noundef nonnull readonly align 1 captures(address, read_provenance) %e.02, i64 noundef %e.13)
          to label %bb44 unwind label %cleanup

bb17:                                             ; preds = %bb43
  call void @llvm.lifetime.start.p0(i64 48, ptr %_33)
  store ptr @alloc_2848618747d5f5b989fc716426f82563, ptr %_33, align 8
  %106 = getelementptr inbounds i8, ptr %_33, i64 8
  store i64 1, ptr %106, align 8
  %107 = load ptr, ptr @anon.343ad20a3284b1f9e404afc411eb8ab2.1, align 8, !align !6, !noundef !5
  %108 = load i64, ptr getelementptr inbounds (i8, ptr @anon.343ad20a3284b1f9e404afc411eb8ab2.1, i64 8), align 8
  %109 = getelementptr inbounds i8, ptr %_33, i64 32
  store ptr %107, ptr %109, align 8
  %110 = getelementptr inbounds i8, ptr %109, i64 8
  store i64 %108, ptr %110, align 8
  %111 = getelementptr inbounds i8, ptr %_33, i64 16
  store ptr inttoptr (i64 8 to ptr), ptr %111, align 8
  %112 = getelementptr inbounds i8, ptr %111, i64 8
  store i64 0, ptr %112, align 8
; invoke core::panicking::panic_fmt
  invoke void @_ZN4core9panicking9panic_fmt17h92c8e5abe71dd8d1E(ptr noalias noundef readonly align 8 captures(address) dereferenceable(48) %_33, ptr noalias noundef readonly align 8 captures(address, read_provenance) dereferenceable(24) @alloc_335bcae3bfec2725b3f4e9b28b5dbc8e) #30
          to label %unreachable unwind label %cleanup

bb44:                                             ; preds = %bb18
  store i64 0, ptr %_89, align 8
  %113 = getelementptr inbounds i8, ptr %_89, i64 8
  store i64 %e.13, ptr %113, align 8
  %114 = getelementptr inbounds i8, ptr %_89, i64 16
  call void @llvm.memcpy.p0.p0.i64(ptr align 8 %114, ptr align 8 %_91, i64 48, i1 false)
  %115 = getelementptr inbounds i8, ptr %_89, i64 64
  store i8 1, ptr %115, align 8
  %116 = getelementptr inbounds i8, ptr %_89, i64 65
  store i8 0, ptr %116, align 1
  call void @llvm.lifetime.end.p0(i64 48, ptr %_91)
  call void @llvm.memcpy.p0.p0.i64(ptr align 8 %_28, ptr align 8 %_89, i64 72, i1 false)
  call void @llvm.lifetime.end.p0(i64 72, ptr %_89)
  call void @llvm.lifetime.start.p0(i64 1, ptr %_93)
  call void @llvm.lifetime.start.p0(i64 8, ptr %_94)
  call void @llvm.lifetime.start.p0(i64 8, ptr %_97)
; invoke core::iter::traits::iterator::Iterator::try_fold
  %117 = invoke noundef i64 @_ZN4core4iter6traits8iterator8Iterator8try_fold17hf1277848009f01b1E(ptr noalias noundef align 8 dereferenceable(72) %_28, i64 noundef 1)
          to label %bb51 unwind label %cleanup

bb51:                                             ; preds = %bb44
  store i64 %117, ptr %_97, align 8
  %118 = load i64, ptr %_97, align 8, !noundef !5
  %119 = icmp eq i64 %118, 0
  %_98 = select i1 %119, i64 0, i64 1
  %120 = trunc nuw i64 %_98 to i1
  br i1 %120, label %bb52, label %bb53

bb52:                                             ; preds = %bb51
  %_99 = load i64, ptr %_97, align 8, !range !13, !noundef !5
  store i64 %_99, ptr %_94, align 8
  br label %bb54

bb53:                                             ; preds = %bb51
  store i64 0, ptr %_94, align 8
  br label %bb54

bb54:                                             ; preds = %bb52, %bb53
  call void @llvm.lifetime.end.p0(i64 8, ptr %_97)
  %121 = load i64, ptr %_94, align 8, !noundef !5
  %122 = icmp eq i64 %121, 0
  %_95 = select i1 %122, i64 0, i64 1
  %123 = trunc nuw i64 %_95 to i1
  br i1 %123, label %bb46, label %bb47

bb46:                                             ; preds = %bb54
  store i8 0, ptr %_93, align 1
  br label %bb48

bb47:                                             ; preds = %bb54
  store i8 1, ptr %_93, align 1
  br label %bb48

bb48:                                             ; preds = %bb46, %bb47
  call void @llvm.lifetime.end.p0(i64 8, ptr %_94)
  %124 = load i8, ptr %_93, align 1, !range !9, !noundef !5
  %125 = trunc nuw i8 %124 to i1
  %_96 = zext i1 %125 to i64
  %126 = trunc nuw i64 %_96 to i1
  br i1 %126, label %bb50, label %bb49

bb50:                                             ; preds = %bb48
  call void @llvm.lifetime.end.p0(i64 1, ptr %_93)
; invoke core::str::iter::SplitInternal<P>::next
  %127 = invoke { ptr, i64 } @"_ZN4core3str4iter22SplitInternal$LT$P$GT$4next17hf76d6ea82f8b9673E"(ptr noalias noundef align 8 dereferenceable(72) %_28)
          to label %bb55 unwind label %cleanup

bb49:                                             ; preds = %bb48
  call void @llvm.lifetime.end.p0(i64 1, ptr %_93)
  %128 = load ptr, ptr @anon.343ad20a3284b1f9e404afc411eb8ab2.1, align 8, !align !10, !noundef !5
  %129 = load i64, ptr getelementptr inbounds (i8, ptr @anon.343ad20a3284b1f9e404afc411eb8ab2.1, i64 8), align 8
  store ptr %128, ptr %nightly_raw, align 8
  %130 = getelementptr inbounds i8, ptr %nightly_raw, i64 8
  store i64 %129, ptr %130, align 8
  br label %bb45

bb45:                                             ; preds = %bb55, %bb49
  call void @llvm.lifetime.end.p0(i64 16, ptr %_29)
  call void @llvm.lifetime.end.p0(i64 72, ptr %_28)
  %_35.0 = load ptr, ptr %nightly_raw, align 8, !align !10, !noundef !5
  %131 = getelementptr inbounds i8, ptr %nightly_raw, i64 8
  %_35.1 = load i64, ptr %131, align 8
; invoke core::option::Option<T>::map_or
  %nightly = invoke noundef zeroext i1 @"_ZN4core6option15Option$LT$T$GT$6map_or17h5c7bcf85bac24b67E"(ptr noalias noundef readonly align 1 captures(address, read_provenance) %_35.0, i64 %_35.1, i1 noundef zeroext false)
          to label %bb19 unwind label %cleanup

bb55:                                             ; preds = %bb50
  %132 = extractvalue { ptr, i64 } %127, 0
  %133 = extractvalue { ptr, i64 } %127, 1
  store ptr %132, ptr %nightly_raw, align 8
  %134 = getelementptr inbounds i8, ptr %nightly_raw, i64 8
  store i64 %133, ptr %134, align 8
  br label %bb45

bb19:                                             ; preds = %bb45
  call void @llvm.lifetime.start.p0(i64 8, ptr %_36)
  call void @llvm.lifetime.start.p0(i64 8, ptr %_37)
  %135 = load ptr, ptr %minor, align 8, !align !10, !noundef !5
  %136 = getelementptr inbounds i8, ptr %minor, i64 8
  %137 = load i64, ptr %136, align 8
  %138 = ptrtoint ptr %135 to i64
  %139 = icmp eq i64 %138, 0
  %_38 = select i1 %139, i64 0, i64 1
  %140 = trunc nuw i64 %_38 to i1
  %141 = call i1 @llvm.expect.i1(i1 %140, i1 true)
  br i1 %141, label %bb21, label %bb20

bb21:                                             ; preds = %bb19
  %e.04 = load ptr, ptr %minor, align 8, !nonnull !5, !align !10, !noundef !5
  %142 = getelementptr inbounds i8, ptr %minor, i64 8
  %e.15 = load i64, ptr %142, align 8, !noundef !5
; invoke core::num::<impl u32>::from_ascii_radix
  %143 = invoke i64 @"_ZN4core3num21_$LT$impl$u20$u32$GT$16from_ascii_radix17h43ac169ab2bbf894E"(ptr noalias noundef nonnull readonly align 1 captures(address, read_provenance) %e.04, i64 noundef %e.15, i32 noundef 10)
          to label %bb56 unwind label %cleanup

bb20:                                             ; preds = %bb19
  call void @llvm.lifetime.start.p0(i64 48, ptr %_41)
  store ptr @alloc_2848618747d5f5b989fc716426f82563, ptr %_41, align 8
  %144 = getelementptr inbounds i8, ptr %_41, i64 8
  store i64 1, ptr %144, align 8
  %145 = load ptr, ptr @anon.343ad20a3284b1f9e404afc411eb8ab2.1, align 8, !align !6, !noundef !5
  %146 = load i64, ptr getelementptr inbounds (i8, ptr @anon.343ad20a3284b1f9e404afc411eb8ab2.1, i64 8), align 8
  %147 = getelementptr inbounds i8, ptr %_41, i64 32
  store ptr %145, ptr %147, align 8
  %148 = getelementptr inbounds i8, ptr %147, i64 8
  store i64 %146, ptr %148, align 8
  %149 = getelementptr inbounds i8, ptr %_41, i64 16
  store ptr inttoptr (i64 8 to ptr), ptr %149, align 8
  %150 = getelementptr inbounds i8, ptr %149, i64 8
  store i64 0, ptr %150, align 8
; invoke core::panicking::panic_fmt
  invoke void @_ZN4core9panicking9panic_fmt17h92c8e5abe71dd8d1E(ptr noalias noundef readonly align 8 captures(address) dereferenceable(48) %_41, ptr noalias noundef readonly align 8 captures(address, read_provenance) dereferenceable(24) @alloc_ec6b2810244466f4e289af2683cdcb6e) #30
          to label %unreachable unwind label %cleanup

bb56:                                             ; preds = %bb21
  call void @llvm.lifetime.start.p0(i64 8, ptr %0)
  store i64 %143, ptr %0, align 8
  call void @llvm.memcpy.p0.p0.i64(ptr align 4 %_37, ptr align 8 %0, i64 8, i1 false)
  call void @llvm.lifetime.end.p0(i64 8, ptr %0)
  %151 = load i8, ptr %_37, align 4, !range !9, !noundef !5
  %152 = trunc nuw i8 %151 to i1
  %_104 = zext i1 %152 to i64
  %153 = trunc nuw i64 %_104 to i1
  br i1 %153, label %bb57, label %bb58

bb57:                                             ; preds = %bb56
  %154 = load i32, ptr @anon.343ad20a3284b1f9e404afc411eb8ab2.2, align 4, !range !4, !noundef !5
  %155 = load i32, ptr getelementptr inbounds (i8, ptr @anon.343ad20a3284b1f9e404afc411eb8ab2.2, i64 4), align 4
  store i32 %154, ptr %_36, align 4
  %156 = getelementptr inbounds i8, ptr %_36, i64 4
  store i32 %155, ptr %156, align 4
  br label %bb59

bb58:                                             ; preds = %bb56
  %157 = getelementptr inbounds i8, ptr %_37, i64 4
  %_105 = load i32, ptr %157, align 4, !noundef !5
  %158 = getelementptr inbounds i8, ptr %_36, i64 4
  store i32 %_105, ptr %158, align 4
  store i32 1, ptr %_36, align 4
  br label %bb59

bb59:                                             ; preds = %bb57, %bb58
  call void @llvm.lifetime.end.p0(i64 8, ptr %_37)
  %159 = load i32, ptr %_36, align 4, !range !4, !noundef !5
  %160 = getelementptr inbounds i8, ptr %_36, i64 4
  %161 = load i32, ptr %160, align 4
  %_42 = zext i32 %159 to i64
  %162 = trunc nuw i64 %_42 to i1
  %163 = call i1 @llvm.expect.i1(i1 %162, i1 true)
  br i1 %163, label %bb23, label %bb22

bb23:                                             ; preds = %bb59
  %164 = getelementptr inbounds i8, ptr %_36, i64 4
  %minor6 = load i32, ptr %164, align 4, !noundef !5
  call void @llvm.lifetime.end.p0(i64 8, ptr %_36)
  call void @llvm.lifetime.end.p0(i64 16, ptr %nightly_raw)
  call void @llvm.lifetime.end.p0(i64 16, ptr %minor)
  call void @llvm.lifetime.end.p0(i64 72, ptr %pieces)
; call core::ptr::drop_in_place<std::process::Output>
  call void @"_ZN4core3ptr41drop_in_place$LT$std..process..Output$GT$17hf3f745f59bbe2061E"(ptr noalias noundef align 8 dereferenceable(56) %output)
  call void @llvm.lifetime.end.p0(i64 56, ptr %output)
  %165 = insertvalue { i32, i1 } poison, i32 %minor6, 0
  %166 = insertvalue { i32, i1 } %165, i1 %nightly, 1
  ret { i32, i1 } %166

bb22:                                             ; preds = %bb59
  call void @llvm.lifetime.start.p0(i64 48, ptr %_45)
  store ptr @alloc_2848618747d5f5b989fc716426f82563, ptr %_45, align 8
  %167 = getelementptr inbounds i8, ptr %_45, i64 8
  store i64 1, ptr %167, align 8
  %168 = load ptr, ptr @anon.343ad20a3284b1f9e404afc411eb8ab2.1, align 8, !align !6, !noundef !5
  %169 = load i64, ptr getelementptr inbounds (i8, ptr @anon.343ad20a3284b1f9e404afc411eb8ab2.1, i64 8), align 8
  %170 = getelementptr inbounds i8, ptr %_45, i64 32
  store ptr %168, ptr %170, align 8
  %171 = getelementptr inbounds i8, ptr %170, i64 8
  store i64 %169, ptr %171, align 8
  %172 = getelementptr inbounds i8, ptr %_45, i64 16
  store ptr inttoptr (i64 8 to ptr), ptr %172, align 8
  %173 = getelementptr inbounds i8, ptr %172, i64 8
  store i64 0, ptr %173, align 8
; invoke core::panicking::panic_fmt
  invoke void @_ZN4core9panicking9panic_fmt17h92c8e5abe71dd8d1E(ptr noalias noundef readonly align 8 captures(address) dereferenceable(48) %_45, ptr noalias noundef readonly align 8 captures(address, read_provenance) dereferenceable(24) @alloc_29f40842bcdc552c82e0e8a30dce6972) #30
          to label %unreachable unwind label %cleanup

bb3:                                              ; No predecessors!
  unreachable

terminate:                                        ; preds = %bb25
  %174 = landingpad { ptr, i32 }
          filter [0 x ptr] zeroinitializer
; call core::panicking::panic_in_cleanup
  call void @_ZN4core9panicking16panic_in_cleanup17h5eff40bcc4481d72E() #29
  unreachable

bb26:                                             ; preds = %bb25
  %175 = load ptr, ptr %3, align 8, !noundef !5
  %176 = getelementptr inbounds i8, ptr %3, i64 8
  %177 = load i32, ptr %176, align 8, !noundef !5
  call void @llvm.lifetime.end.p0(i64 16, ptr %3)
  %178 = insertvalue { ptr, i32 } poison, ptr %175, 0
  %179 = insertvalue { ptr, i32 } %178, i32 %177, 1
  resume { ptr, i32 } %179
}

; build_script_build::rustc_minor_nightly::{{closure}}
; Function Attrs: inlinehint nonlazybind uwtable
define internal noundef zeroext i1 @"_ZN18build_script_build19rustc_minor_nightly28_$u7b$$u7b$closure$u7d$$u7d$17h062732438f83ce7fE"(ptr noalias noundef nonnull readonly align 1 captures(address, read_provenance) %raw.0, i64 noundef %raw.1) unnamed_addr #0 {
start:
  %_0 = alloca [1 x i8], align 1
; call core::slice::<impl [T]>::starts_with
  %_3 = call noundef zeroext i1 @"_ZN4core5slice29_$LT$impl$u20$$u5b$T$u5d$$GT$11starts_with17h34e32d45ec9f2302E"(ptr noalias noundef nonnull readonly align 1 captures(address, read_provenance) %raw.0, i64 noundef %raw.1, ptr noalias noundef nonnull readonly align 1 captures(address, read_provenance) @alloc_12dcbe319bdb437b2d068742d0ee3321, i64 noundef 3)
  br i1 %_3, label %bb1, label %bb2

bb2:                                              ; preds = %start
; call core::slice::<impl [T]>::starts_with
  %0 = call noundef zeroext i1 @"_ZN4core5slice29_$LT$impl$u20$$u5b$T$u5d$$GT$11starts_with17h34e32d45ec9f2302E"(ptr noalias noundef nonnull readonly align 1 captures(address, read_provenance) %raw.0, i64 noundef %raw.1, ptr noalias noundef nonnull readonly align 1 captures(address, read_provenance) @alloc_22ec252afd5f5781ca8ee9b115d4a0d6, i64 noundef 7)
  %1 = zext i1 %0 to i8
  store i8 %1, ptr %_0, align 1
  br label %bb3

bb1:                                              ; preds = %start
  store i8 1, ptr %_0, align 1
  br label %bb3

bb3:                                              ; preds = %bb1, %bb2
  %2 = load i8, ptr %_0, align 1, !range !9, !noundef !5
  %3 = trunc nuw i8 %2 to i1
  ret i1 %3
}

; build_script_build::main
; Function Attrs: nonlazybind uwtable
define hidden void @_ZN18build_script_build4main17hc48bb2386f426399E() unnamed_addr #2 personality ptr @rust_eh_personality {
start:
  %0 = alloca [8 x i8], align 8
  %1 = alloca [8 x i8], align 8
  %2 = alloca [16 x i8], align 8
  %iter6 = alloca [8 x i8], align 8
  %iter = alloca [8 x i8], align 8
  %_344 = alloca [24 x i8], align 8
  %_343 = alloca [24 x i8], align 8
  %_330 = alloca [16 x i8], align 8
  %_324 = alloca [16 x i8], align 8
  %_316 = alloca [16 x i8], align 8
  %_310 = alloca [16 x i8], align 8
  %_308 = alloca [24 x i8], align 8
  %_290 = alloca [16 x i8], align 8
  %_282 = alloca [16 x i8], align 8
  %_246 = alloca [16 x i8], align 8
  %_232 = alloca [16 x i8], align 8
  %_223 = alloca [24 x i8], align 8
  %_201 = alloca [16 x i8], align 8
  %_181 = alloca [1 x i8], align 1
  %_180 = alloca [1 x i8], align 1
  %_176 = alloca [16 x i8], align 8
  %_175 = alloca [16 x i8], align 8
  %args5 = alloca [32 x i8], align 8
  %_171 = alloca [48 x i8], align 8
  %_168 = alloca [16 x i8], align 8
  %_167 = alloca [16 x i8], align 8
  %args4 = alloca [32 x i8], align 8
  %_163 = alloca [48 x i8], align 8
  %values = alloca [24 x i8], align 8
  %name = alloca [16 x i8], align 8
  %_156 = alloca [8 x i8], align 8
  %_154 = alloca [16 x i8], align 8
  %args3 = alloca [16 x i8], align 8
  %_152 = alloca [48 x i8], align 8
  %_149 = alloca [16 x i8], align 8
  %args2 = alloca [16 x i8], align 8
  %_147 = alloca [48 x i8], align 8
  %cfg = alloca [8 x i8], align 8
  %_142 = alloca [8 x i8], align 8
  %_131 = alloca [48 x i8], align 8
  %_125 = alloca [48 x i8], align 8
  %_123 = alloca [16 x i8], align 8
  %_118 = alloca [16 x i8], align 8
  %valid_bits = alloca [32 x i8], align 8
  %_112 = alloca [48 x i8], align 8
  %_110 = alloca [24 x i8], align 8
  %_108 = alloca [24 x i8], align 8
  %fb = alloca [24 x i8], align 8
  %_103 = alloca [48 x i8], align 8
  %_100 = alloca [24 x i8], align 8
  %_99 = alloca [24 x i8], align 8
  %tb1 = alloca [24 x i8], align 8
  %_94 = alloca [24 x i8], align 8
  %_92 = alloca [24 x i8], align 8
  %tb = alloca [24 x i8], align 8
  %_87 = alloca [24 x i8], align 8
  %_85 = alloca [24 x i8], align 8
  %_84 = alloca [48 x i8], align 8
  %_79 = alloca [32 x i8], align 8
  %_78 = alloca [32 x i8], align 8
  %_77 = alloca [64 x i8], align 8
  %filebits = alloca [24 x i8], align 8
  %timebits = alloca [24 x i8], align 8
  %defaultbits = alloca [24 x i8], align 8
  %_63 = alloca [48 x i8], align 8
  %_61 = alloca [48 x i8], align 8
  %_58 = alloca [48 x i8], align 8
  %_56 = alloca [32 x i8], align 8
  %_49 = alloca [48 x i8], align 8
  %_47 = alloca [32 x i8], align 8
  %_41 = alloca [16 x i8], align 8
  %_39 = alloca [48 x i8], align 8
  %_32 = alloca [8 x i8], align 4
  %_30 = alloca [16 x i8], align 8
  %args = alloca [16 x i8], align 8
  %_28 = alloca [48 x i8], align 8
  %_25 = alloca [8 x i8], align 4
  %vers = alloca [4 x i8], align 4
  %version = alloca [24 x i8], align 8
  %_21 = alloca [32 x i8], align 8
  %which_freebsd = alloca [4 x i8], align 4
  %_19 = alloca [48 x i8], align 8
  %_17 = alloca [32 x i8], align 8
  %target_arch = alloca [24 x i8], align 8
  %_15 = alloca [32 x i8], align 8
  %target_ptr_width = alloca [24 x i8], align 8
  %_13 = alloca [32 x i8], align 8
  %target_os = alloca [24 x i8], align 8
  %_11 = alloca [32 x i8], align 8
  %target_env = alloca [24 x i8], align 8
  %_9 = alloca [32 x i8], align 8
  %_7 = alloca [32 x i8], align 8
  %_2 = alloca [48 x i8], align 8
  call void @llvm.lifetime.start.p0(i64 48, ptr %_2)
  store ptr @alloc_fdac1ac0812313ab4c58def2ba9a1bba, ptr %_2, align 8
  %3 = getelementptr inbounds i8, ptr %_2, i64 8
  store i64 1, ptr %3, align 8
  %4 = load ptr, ptr @anon.343ad20a3284b1f9e404afc411eb8ab2.1, align 8, !align !6, !noundef !5
  %5 = load i64, ptr getelementptr inbounds (i8, ptr @anon.343ad20a3284b1f9e404afc411eb8ab2.1, i64 8), align 8
  %6 = getelementptr inbounds i8, ptr %_2, i64 32
  store ptr %4, ptr %6, align 8
  %7 = getelementptr inbounds i8, ptr %6, i64 8
  store i64 %5, ptr %7, align 8
  %8 = getelementptr inbounds i8, ptr %_2, i64 16
  store ptr inttoptr (i64 8 to ptr), ptr %8, align 8
  %9 = getelementptr inbounds i8, ptr %8, i64 8
  store i64 0, ptr %9, align 8
; call std::io::stdio::_print
  call void @_ZN3std2io5stdio6_print17h361a6d98ea723aceE(ptr noalias noundef align 8 captures(address) dereferenceable(48) %_2)
  call void @llvm.lifetime.end.p0(i64 48, ptr %_2)
; call build_script_build::rustc_minor_nightly
  %10 = call { i32, i1 } @_ZN18build_script_build19rustc_minor_nightly17haeb4d1d71303e23dE()
  %_5.0 = extractvalue { i32, i1 } %10, 0
  %_5.1 = extractvalue { i32, i1 } %10, 1
  call void @llvm.lifetime.start.p0(i64 32, ptr %_7)
; call std::env::var
  call void @_ZN3std3env3var17hfde4175462da9ef7E(ptr noalias noundef sret([32 x i8]) align 8 captures(address) dereferenceable(32) %_7, ptr noalias noundef nonnull readonly align 1 captures(address, read_provenance) @alloc_509e3f14595a72dfc2af0a28f5824017, i64 noundef 30)
  %_191 = load i64, ptr %_7, align 8, !range !12, !noundef !5
  %rustc_dep_of_std = icmp eq i64 %_191, 0
; call core::ptr::drop_in_place<core::result::Result<alloc::string::String,std::env::VarError>>
  call void @"_ZN4core3ptr91drop_in_place$LT$core..result..Result$LT$alloc..string..String$C$std..env..VarError$GT$$GT$17h78f4bba1be4653fcE"(ptr noalias noundef align 8 dereferenceable(32) %_7)
  call void @llvm.lifetime.end.p0(i64 32, ptr %_7)
  call void @llvm.lifetime.start.p0(i64 32, ptr %_9)
; call std::env::var
  call void @_ZN3std3env3var17hfde4175462da9ef7E(ptr noalias noundef sret([32 x i8]) align 8 captures(address) dereferenceable(32) %_9, ptr noalias noundef nonnull readonly align 1 captures(address, read_provenance) @alloc_f73607afcba5e721c2712249402644b6, i64 noundef 7)
  %_192 = load i64, ptr %_9, align 8, !range !12, !noundef !5
  %libc_ci = icmp eq i64 %_192, 0
; call core::ptr::drop_in_place<core::result::Result<alloc::string::String,std::env::VarError>>
  call void @"_ZN4core3ptr91drop_in_place$LT$core..result..Result$LT$alloc..string..String$C$std..env..VarError$GT$$GT$17h78f4bba1be4653fcE"(ptr noalias noundef align 8 dereferenceable(32) %_9)
  call void @llvm.lifetime.end.p0(i64 32, ptr %_9)
  call void @llvm.lifetime.start.p0(i64 24, ptr %target_env)
  call void @llvm.lifetime.start.p0(i64 32, ptr %_11)
; call std::env::var
  call void @_ZN3std3env3var17hfde4175462da9ef7E(ptr noalias noundef sret([32 x i8]) align 8 captures(address) dereferenceable(32) %_11, ptr noalias noundef nonnull readonly align 1 captures(address, read_provenance) @alloc_1e1fc66c1706c6c7501acca2ae8010f4, i64 noundef 20)
; call core::result::Result<T,E>::unwrap_or_default
  call void @"_ZN4core6result19Result$LT$T$C$E$GT$17unwrap_or_default17h337793256777a82eE"(ptr noalias noundef sret([24 x i8]) align 8 captures(address) dereferenceable(24) %target_env, ptr noalias noundef align 8 captures(address) dereferenceable(32) %_11)
  call void @llvm.lifetime.end.p0(i64 32, ptr %_11)
  call void @llvm.lifetime.start.p0(i64 24, ptr %target_os)
  call void @llvm.lifetime.start.p0(i64 32, ptr %_13)
; invoke std::env::var
  invoke void @_ZN3std3env3var17hfde4175462da9ef7E(ptr noalias noundef sret([32 x i8]) align 8 captures(address) dereferenceable(32) %_13, ptr noalias noundef nonnull readonly align 1 captures(address, read_provenance) @alloc_aa4687de82972c6f88dd4ebd068e3b63, i64 noundef 19)
          to label %bb9 unwind label %cleanup

bb170:                                            ; preds = %bb169, %cleanup
; invoke core::ptr::drop_in_place<alloc::string::String>
  invoke void @"_ZN4core3ptr42drop_in_place$LT$alloc..string..String$GT$17h8ae59710cce54b6aE"(ptr noalias noundef align 8 dereferenceable(24) %target_env) #28
          to label %bb171 unwind label %terminate

cleanup:                                          ; preds = %bb153, %bb9, %start
  %11 = landingpad { ptr, i32 }
          cleanup
  %12 = extractvalue { ptr, i32 } %11, 0
  %13 = extractvalue { ptr, i32 } %11, 1
  call void @llvm.lifetime.start.p0(i64 16, ptr %2)
  store ptr %12, ptr %2, align 8
  %14 = getelementptr inbounds i8, ptr %2, i64 8
  store i32 %13, ptr %14, align 8
  br label %bb170

bb9:                                              ; preds = %start
; invoke core::result::Result<T,E>::unwrap_or_default
  invoke void @"_ZN4core6result19Result$LT$T$C$E$GT$17unwrap_or_default17h337793256777a82eE"(ptr noalias noundef sret([24 x i8]) align 8 captures(address) dereferenceable(24) %target_os, ptr noalias noundef align 8 captures(address) dereferenceable(32) %_13)
          to label %bb10 unwind label %cleanup

bb10:                                             ; preds = %bb9
  call void @llvm.lifetime.end.p0(i64 32, ptr %_13)
  call void @llvm.lifetime.start.p0(i64 24, ptr %target_ptr_width)
  call void @llvm.lifetime.start.p0(i64 32, ptr %_15)
; invoke std::env::var
  invoke void @_ZN3std3env3var17hfde4175462da9ef7E(ptr noalias noundef sret([32 x i8]) align 8 captures(address) dereferenceable(32) %_15, ptr noalias noundef nonnull readonly align 1 captures(address, read_provenance) @alloc_6508c675143a2a16e0690055cd395724, i64 noundef 30)
          to label %bb11 unwind label %cleanup7

bb169:                                            ; preds = %bb168, %cleanup7
; invoke core::ptr::drop_in_place<alloc::string::String>
  invoke void @"_ZN4core3ptr42drop_in_place$LT$alloc..string..String$GT$17h8ae59710cce54b6aE"(ptr noalias noundef align 8 dereferenceable(24) %target_os) #28
          to label %bb170 unwind label %terminate

cleanup7:                                         ; preds = %bb152, %bb11, %bb10
  %15 = landingpad { ptr, i32 }
          cleanup
  %16 = extractvalue { ptr, i32 } %15, 0
  %17 = extractvalue { ptr, i32 } %15, 1
  call void @llvm.lifetime.start.p0(i64 16, ptr %2)
  store ptr %16, ptr %2, align 8
  %18 = getelementptr inbounds i8, ptr %2, i64 8
  store i32 %17, ptr %18, align 8
  br label %bb169

bb11:                                             ; preds = %bb10
; invoke core::result::Result<T,E>::unwrap_or_default
  invoke void @"_ZN4core6result19Result$LT$T$C$E$GT$17unwrap_or_default17h337793256777a82eE"(ptr noalias noundef sret([24 x i8]) align 8 captures(address) dereferenceable(24) %target_ptr_width, ptr noalias noundef align 8 captures(address) dereferenceable(32) %_15)
          to label %bb12 unwind label %cleanup7

bb12:                                             ; preds = %bb11
  call void @llvm.lifetime.end.p0(i64 32, ptr %_15)
  call void @llvm.lifetime.start.p0(i64 24, ptr %target_arch)
  call void @llvm.lifetime.start.p0(i64 32, ptr %_17)
; invoke std::env::var
  invoke void @_ZN3std3env3var17hfde4175462da9ef7E(ptr noalias noundef sret([32 x i8]) align 8 captures(address) dereferenceable(32) %_17, ptr noalias noundef nonnull readonly align 1 captures(address, read_provenance) @alloc_0d3bcf6fb685f000bc18304ea76cbac4, i64 noundef 21)
          to label %bb13 unwind label %cleanup8

bb168:                                            ; preds = %bb167, %cleanup8
; invoke core::ptr::drop_in_place<alloc::string::String>
  invoke void @"_ZN4core3ptr42drop_in_place$LT$alloc..string..String$GT$17h8ae59710cce54b6aE"(ptr noalias noundef align 8 dereferenceable(24) %target_ptr_width) #28
          to label %bb169 unwind label %terminate

cleanup8:                                         ; preds = %bb151, %bb13, %bb12
  %19 = landingpad { ptr, i32 }
          cleanup
  %20 = extractvalue { ptr, i32 } %19, 0
  %21 = extractvalue { ptr, i32 } %19, 1
  call void @llvm.lifetime.start.p0(i64 16, ptr %2)
  store ptr %20, ptr %2, align 8
  %22 = getelementptr inbounds i8, ptr %2, i64 8
  store i32 %21, ptr %22, align 8
  br label %bb168

bb13:                                             ; preds = %bb12
; invoke core::result::Result<T,E>::unwrap_or_default
  invoke void @"_ZN4core6result19Result$LT$T$C$E$GT$17unwrap_or_default17h337793256777a82eE"(ptr noalias noundef sret([24 x i8]) align 8 captures(address) dereferenceable(24) %target_arch, ptr noalias noundef align 8 captures(address) dereferenceable(32) %_17)
          to label %bb14 unwind label %cleanup8

bb14:                                             ; preds = %bb13
  call void @llvm.lifetime.end.p0(i64 32, ptr %_17)
  call void @llvm.lifetime.start.p0(i64 48, ptr %_19)
  store ptr @alloc_ae235dc40c5194048e5c6a461e5f636a, ptr %_19, align 8
  %23 = getelementptr inbounds i8, ptr %_19, i64 8
  store i64 1, ptr %23, align 8
  %24 = load ptr, ptr @anon.343ad20a3284b1f9e404afc411eb8ab2.1, align 8, !align !6, !noundef !5
  %25 = load i64, ptr getelementptr inbounds (i8, ptr @anon.343ad20a3284b1f9e404afc411eb8ab2.1, i64 8), align 8
  %26 = getelementptr inbounds i8, ptr %_19, i64 32
  store ptr %24, ptr %26, align 8
  %27 = getelementptr inbounds i8, ptr %26, i64 8
  store i64 %25, ptr %27, align 8
  %28 = getelementptr inbounds i8, ptr %_19, i64 16
  store ptr inttoptr (i64 8 to ptr), ptr %28, align 8
  %29 = getelementptr inbounds i8, ptr %28, i64 8
  store i64 0, ptr %29, align 8
; invoke std::io::stdio::_print
  invoke void @_ZN3std2io5stdio6_print17h361a6d98ea723aceE(ptr noalias noundef align 8 captures(address) dereferenceable(48) %_19)
          to label %bb15 unwind label %cleanup9

bb167:                                            ; preds = %bb189, %bb190, %bb165, %bb156, %cleanup9
; invoke core::ptr::drop_in_place<alloc::string::String>
  invoke void @"_ZN4core3ptr42drop_in_place$LT$alloc..string..String$GT$17h8ae59710cce54b6aE"(ptr noalias noundef align 8 dereferenceable(24) %target_arch) #28
          to label %bb168 unwind label %terminate

cleanup9:                                         ; preds = %bb31, %bb137, %bb139, %bb149, %bb143, %bb131, %bb129, %bb121, %bb68, %bb66, %bb64, %bb62, %bb60, %bb58, %bb57, %bb56, %bb55, %bb53, %bb52, %bb51, %bb49, %bb46, %bb43, %bb41, %bb40, %bb39, %bb36, %bb33, %bb25, %bb26, %bb27, %bb28, %bb29, %bb30, %bb173, %bb15, %bb14
  %30 = landingpad { ptr, i32 }
          cleanup
  %31 = extractvalue { ptr, i32 } %30, 0
  %32 = extractvalue { ptr, i32 } %30, 1
  call void @llvm.lifetime.start.p0(i64 16, ptr %2)
  store ptr %31, ptr %2, align 8
  %33 = getelementptr inbounds i8, ptr %2, i64 8
  store i32 %32, ptr %33, align 8
  br label %bb167

bb15:                                             ; preds = %bb14
  call void @llvm.lifetime.end.p0(i64 48, ptr %_19)
  call void @llvm.lifetime.start.p0(i64 4, ptr %which_freebsd)
  call void @llvm.lifetime.start.p0(i64 32, ptr %_21)
; invoke std::env::var
  invoke void @_ZN3std3env3var17hfde4175462da9ef7E(ptr noalias noundef sret([32 x i8]) align 8 captures(address) dereferenceable(32) %_21, ptr noalias noundef nonnull readonly align 1 captures(address, read_provenance) @alloc_aaa658f8720b91022cfd120b3be84301, i64 noundef 34)
          to label %bb16 unwind label %cleanup9

bb16:                                             ; preds = %bb15
  %_22 = load i64, ptr %_21, align 8, !range !12, !noundef !5
  %34 = trunc nuw i64 %_22 to i1
  br i1 %34, label %bb20, label %bb17

bb20:                                             ; preds = %bb16
  br i1 %libc_ci, label %bb22, label %bb24

bb17:                                             ; preds = %bb16
  call void @llvm.lifetime.start.p0(i64 24, ptr %version)
  %35 = getelementptr inbounds i8, ptr %_21, i64 8
  call void @llvm.memcpy.p0.p0.i64(ptr align 8 %version, ptr align 8 %35, i64 24, i1 false)
  call void @llvm.lifetime.start.p0(i64 4, ptr %vers)
  call void @llvm.lifetime.start.p0(i64 8, ptr %_25)
  %36 = getelementptr inbounds i8, ptr %version, i64 8
  %_198 = load ptr, ptr %36, align 8, !nonnull !5, !noundef !5
  %37 = icmp ne ptr %_198, null
  call void @llvm.assume(i1 %37)
  %38 = getelementptr inbounds i8, ptr %version, i64 16
  %_197 = load i64, ptr %38, align 8, !noundef !5
; invoke core::num::<impl i32>::from_ascii_radix
  %39 = invoke i64 @"_ZN4core3num21_$LT$impl$u20$i32$GT$16from_ascii_radix17hcbc7a36f56bd7621E"(ptr noalias noundef nonnull readonly align 1 captures(address, read_provenance) %_198, i64 noundef %_197, i32 noundef 10)
          to label %bb191 unwind label %cleanup10

bb166:                                            ; preds = %cleanup10
; invoke core::ptr::drop_in_place<alloc::string::String>
  invoke void @"_ZN4core3ptr42drop_in_place$LT$alloc..string..String$GT$17h8ae59710cce54b6aE"(ptr noalias noundef align 8 dereferenceable(24) %version) #28
          to label %bb190 unwind label %terminate

cleanup10:                                        ; preds = %bb18, %bb191, %bb17
  %40 = landingpad { ptr, i32 }
          cleanup
  %41 = extractvalue { ptr, i32 } %40, 0
  %42 = extractvalue { ptr, i32 } %40, 1
  call void @llvm.lifetime.start.p0(i64 16, ptr %2)
  store ptr %41, ptr %2, align 8
  %43 = getelementptr inbounds i8, ptr %2, i64 8
  store i32 %42, ptr %43, align 8
  br label %bb166

bb191:                                            ; preds = %bb17
  call void @llvm.lifetime.start.p0(i64 8, ptr %1)
  store i64 %39, ptr %1, align 8
  call void @llvm.memcpy.p0.p0.i64(ptr align 4 %_25, ptr align 8 %1, i64 8, i1 false)
  call void @llvm.lifetime.end.p0(i64 8, ptr %1)
  call void @llvm.lifetime.start.p0(i64 8, ptr %0)
  call void @llvm.memcpy.p0.p0.i64(ptr align 8 %0, ptr align 4 %_25, i64 8, i1 false)
  %44 = load i64, ptr %0, align 8
  call void @llvm.lifetime.end.p0(i64 8, ptr %0)
; invoke core::result::Result<T,E>::unwrap
  %45 = invoke noundef i32 @"_ZN4core6result19Result$LT$T$C$E$GT$6unwrap17h6efd11cd938ae7adE"(i64 %44, ptr noalias noundef readonly align 8 captures(address, read_provenance) dereferenceable(24) @alloc_fe220fddf802791bb38c187922a73152)
          to label %bb18 unwind label %cleanup10

bb18:                                             ; preds = %bb191
  store i32 %45, ptr %vers, align 4
  call void @llvm.lifetime.end.p0(i64 8, ptr %_25)
  call void @llvm.lifetime.start.p0(i64 48, ptr %_28)
  call void @llvm.lifetime.start.p0(i64 16, ptr %args)
  call void @llvm.lifetime.start.p0(i64 16, ptr %_30)
  call void @llvm.lifetime.start.p0(i64 16, ptr %_201)
  %46 = icmp ne ptr %vers, null
  call void @llvm.assume(i1 %46)
  store ptr %vers, ptr %_201, align 8
  %47 = getelementptr inbounds i8, ptr %_201, i64 8
  store ptr @"_ZN4core3fmt3num3imp52_$LT$impl$u20$core..fmt..Display$u20$for$u20$i32$GT$3fmt17h1d34aa19ad65fef9E", ptr %47, align 8
  call void @llvm.memcpy.p0.p0.i64(ptr align 8 %_30, ptr align 8 %_201, i64 16, i1 false)
  call void @llvm.lifetime.end.p0(i64 16, ptr %_201)
  %48 = getelementptr inbounds nuw %"core::fmt::rt::Argument<'_>", ptr %args, i64 0
  call void @llvm.memcpy.p0.p0.i64(ptr align 8 %48, ptr align 8 %_30, i64 16, i1 false)
  call void @llvm.lifetime.end.p0(i64 16, ptr %_30)
  store ptr @alloc_c4bae09779ac9aed94716fcb76996c27, ptr %_28, align 8
  %49 = getelementptr inbounds i8, ptr %_28, i64 8
  store i64 2, ptr %49, align 8
  %50 = load ptr, ptr @anon.343ad20a3284b1f9e404afc411eb8ab2.1, align 8, !align !6, !noundef !5
  %51 = load i64, ptr getelementptr inbounds (i8, ptr @anon.343ad20a3284b1f9e404afc411eb8ab2.1, i64 8), align 8
  %52 = getelementptr inbounds i8, ptr %_28, i64 32
  store ptr %50, ptr %52, align 8
  %53 = getelementptr inbounds i8, ptr %52, i64 8
  store i64 %51, ptr %53, align 8
  %54 = getelementptr inbounds i8, ptr %_28, i64 16
  store ptr %args, ptr %54, align 8
  %55 = getelementptr inbounds i8, ptr %54, i64 8
  store i64 1, ptr %55, align 8
; invoke std::io::stdio::_print
  invoke void @_ZN3std2io5stdio6_print17h361a6d98ea723aceE(ptr noalias noundef align 8 captures(address) dereferenceable(48) %_28)
          to label %bb19 unwind label %cleanup10

bb19:                                             ; preds = %bb18
  call void @llvm.lifetime.end.p0(i64 48, ptr %_28)
  call void @llvm.lifetime.end.p0(i64 16, ptr %args)
  %56 = load i32, ptr %vers, align 4, !noundef !5
  store i32 %56, ptr %which_freebsd, align 4
  call void @llvm.lifetime.end.p0(i64 4, ptr %vers)
; invoke core::ptr::drop_in_place<alloc::string::String>
  invoke void @"_ZN4core3ptr42drop_in_place$LT$alloc..string..String$GT$17h8ae59710cce54b6aE"(ptr noalias noundef align 8 dereferenceable(24) %version)
          to label %bb21 unwind label %cleanup11

bb190:                                            ; preds = %bb166, %cleanup11
  %_188 = load i64, ptr %_21, align 8, !range !12, !noundef !5
  %57 = icmp eq i64 %_188, 0
  br i1 %57, label %bb167, label %bb189

cleanup11:                                        ; preds = %bb22, %bb19
  %58 = landingpad { ptr, i32 }
          cleanup
  %59 = extractvalue { ptr, i32 } %58, 0
  %60 = extractvalue { ptr, i32 } %58, 1
  call void @llvm.lifetime.start.p0(i64 16, ptr %2)
  store ptr %59, ptr %2, align 8
  %61 = getelementptr inbounds i8, ptr %2, i64 8
  store i32 %60, ptr %61, align 8
  br label %bb190

bb21:                                             ; preds = %bb19
  call void @llvm.lifetime.end.p0(i64 24, ptr %version)
  br label %bb174

bb174:                                            ; preds = %bb192, %bb24, %bb21
  %_182 = load i64, ptr %_21, align 8, !range !12, !noundef !5
  %62 = trunc nuw i64 %_182 to i1
  br i1 %62, label %bb173, label %bb172

terminate:                                        ; preds = %bb170, %bb169, %bb168, %bb167, %bb189, %bb165, %bb164, %bb184, %bb183, %bb187, %bb186, %bb163, %bb158, %bb157, %bb176, %bb156, %bb159, %bb162, %bb161, %bb160, %bb166
  %63 = landingpad { ptr, i32 }
          filter [0 x ptr] zeroinitializer
; call core::panicking::panic_in_cleanup
  call void @_ZN4core9panicking16panic_in_cleanup17h5eff40bcc4481d72E() #29
  unreachable

bb24:                                             ; preds = %bb20
  store i32 12, ptr %which_freebsd, align 4
  br label %bb174

bb22:                                             ; preds = %bb20
  call void @llvm.lifetime.start.p0(i64 8, ptr %_32)
; invoke build_script_build::which_freebsd
  %64 = invoke { i32, i32 } @_ZN18build_script_build13which_freebsd17h9ab97bdbc6dd8edbE()
          to label %bb23 unwind label %cleanup11

bb23:                                             ; preds = %bb22
  %65 = extractvalue { i32, i32 } %64, 0
  %66 = extractvalue { i32, i32 } %64, 1
  store i32 %65, ptr %_32, align 4
  %67 = getelementptr inbounds i8, ptr %_32, i64 4
  store i32 %66, ptr %67, align 4
  %68 = load i32, ptr %_32, align 4, !range !4, !noundef !5
  %69 = getelementptr inbounds i8, ptr %_32, i64 4
  %70 = load i32, ptr %69, align 4
  %_209 = zext i32 %68 to i64
  %71 = trunc nuw i64 %_209 to i1
  br i1 %71, label %bb194, label %bb193

bb194:                                            ; preds = %bb23
  %72 = getelementptr inbounds i8, ptr %_32, i64 4
  %_210 = load i32, ptr %72, align 4, !noundef !5
  store i32 %_210, ptr %which_freebsd, align 4
  br label %bb192

bb193:                                            ; preds = %bb23
  store i32 12, ptr %which_freebsd, align 4
  br label %bb192

bb192:                                            ; preds = %bb194, %bb193
  call void @llvm.lifetime.end.p0(i64 8, ptr %_32)
  br label %bb174

bb173:                                            ; preds = %bb174
; invoke core::ptr::drop_in_place<core::result::Result<alloc::string::String,std::env::VarError>>
  invoke void @"_ZN4core3ptr91drop_in_place$LT$core..result..Result$LT$alloc..string..String$C$std..env..VarError$GT$$GT$17h78f4bba1be4653fcE"(ptr noalias noundef align 8 dereferenceable(32) %_21)
          to label %bb172 unwind label %cleanup9

bb172:                                            ; preds = %bb173, %bb174
  call void @llvm.lifetime.end.p0(i64 32, ptr %_21)
  %_37 = load i32, ptr %which_freebsd, align 4, !noundef !5
  %_36 = icmp slt i32 %_37, 10
  %73 = call i1 @llvm.expect.i1(i1 %_36, i1 false)
  br i1 %73, label %bb31, label %bb32

bb32:                                             ; preds = %bb172
  %74 = load i32, ptr %which_freebsd, align 4, !noundef !5
  switch i32 %74, label %bb25 [
    i32 10, label %bb30
    i32 11, label %bb29
    i32 12, label %bb28
    i32 13, label %bb27
    i32 14, label %bb26
  ]

bb31:                                             ; preds = %bb172
  %x = load i32, ptr %which_freebsd, align 4, !noundef !5
  call void @llvm.lifetime.start.p0(i64 48, ptr %_39)
  store ptr @alloc_68b6386ed3fe5f2ebb3af46f7e41ef22, ptr %_39, align 8
  %75 = getelementptr inbounds i8, ptr %_39, i64 8
  store i64 1, ptr %75, align 8
  %76 = load ptr, ptr @anon.343ad20a3284b1f9e404afc411eb8ab2.1, align 8, !align !6, !noundef !5
  %77 = load i64, ptr getelementptr inbounds (i8, ptr @anon.343ad20a3284b1f9e404afc411eb8ab2.1, i64 8), align 8
  %78 = getelementptr inbounds i8, ptr %_39, i64 32
  store ptr %76, ptr %78, align 8
  %79 = getelementptr inbounds i8, ptr %78, i64 8
  store i64 %77, ptr %79, align 8
  %80 = getelementptr inbounds i8, ptr %_39, i64 16
  store ptr inttoptr (i64 8 to ptr), ptr %80, align 8
  %81 = getelementptr inbounds i8, ptr %80, i64 8
  store i64 0, ptr %81, align 8
; invoke core::panicking::panic_fmt
  invoke void @_ZN4core9panicking9panic_fmt17h92c8e5abe71dd8d1E(ptr noalias noundef readonly align 8 captures(address) dereferenceable(48) %_39, ptr noalias noundef readonly align 8 captures(address, read_provenance) dereferenceable(24) @alloc_3d7e4e4dcba1e346fc2023d7740b9453) #30
          to label %unreachable unwind label %cleanup9

bb25:                                             ; preds = %bb32
; invoke build_script_build::set_cfg
  invoke void @_ZN18build_script_build7set_cfg17h0c5291184563595cE(ptr noalias noundef nonnull readonly align 1 captures(address, read_provenance) @alloc_c8539d7d8992b0450a5874fa781e9124, i64 noundef 9)
          to label %bb205 unwind label %cleanup9

bb30:                                             ; preds = %bb32
; invoke build_script_build::set_cfg
  invoke void @_ZN18build_script_build7set_cfg17h0c5291184563595cE(ptr noalias noundef nonnull readonly align 1 captures(address, read_provenance) @alloc_7267420313fdc34f79da1c04bfca7409, i64 noundef 9)
          to label %bb210 unwind label %cleanup9

bb29:                                             ; preds = %bb32
; invoke build_script_build::set_cfg
  invoke void @_ZN18build_script_build7set_cfg17h0c5291184563595cE(ptr noalias noundef nonnull readonly align 1 captures(address, read_provenance) @alloc_5581ed16f5c58ecd3f36713b9b396029, i64 noundef 9)
          to label %bb209 unwind label %cleanup9

bb28:                                             ; preds = %bb32
; invoke build_script_build::set_cfg
  invoke void @_ZN18build_script_build7set_cfg17h0c5291184563595cE(ptr noalias noundef nonnull readonly align 1 captures(address, read_provenance) @alloc_55f07188386ace482603892e4768112d, i64 noundef 9)
          to label %bb208 unwind label %cleanup9

bb27:                                             ; preds = %bb32
; invoke build_script_build::set_cfg
  invoke void @_ZN18build_script_build7set_cfg17h0c5291184563595cE(ptr noalias noundef nonnull readonly align 1 captures(address, read_provenance) @alloc_028f45a065ad7442c332be763445b925, i64 noundef 9)
          to label %bb207 unwind label %cleanup9

bb26:                                             ; preds = %bb32
; invoke build_script_build::set_cfg
  invoke void @_ZN18build_script_build7set_cfg17h0c5291184563595cE(ptr noalias noundef nonnull readonly align 1 captures(address, read_provenance) @alloc_358590eecf303ad391259af81e368788, i64 noundef 9)
          to label %bb206 unwind label %cleanup9

bb210:                                            ; preds = %bb30
  br label %bb33

bb33:                                             ; preds = %bb205, %bb206, %bb207, %bb208, %bb209, %bb210
  call void @llvm.lifetime.start.p0(i64 16, ptr %_41)
; invoke build_script_build::emcc_version_code
  %82 = invoke { i64, i64 } @_ZN18build_script_build17emcc_version_code17hc9cf8d7e87820b3bE()
          to label %bb34 unwind label %cleanup9

bb209:                                            ; preds = %bb29
  br label %bb33

bb208:                                            ; preds = %bb28
  br label %bb33

bb207:                                            ; preds = %bb27
  br label %bb33

bb206:                                            ; preds = %bb26
  br label %bb33

bb205:                                            ; preds = %bb25
  br label %bb33

bb34:                                             ; preds = %bb33
  %83 = extractvalue { i64, i64 } %82, 0
  %84 = extractvalue { i64, i64 } %82, 1
  store i64 %83, ptr %_41, align 8
  %85 = getelementptr inbounds i8, ptr %_41, i64 8
  store i64 %84, ptr %85, align 8
  %_42 = load i64, ptr %_41, align 8, !range !12, !noundef !5
  %86 = getelementptr inbounds i8, ptr %_41, i64 8
  %87 = load i64, ptr %86, align 8
  %88 = trunc nuw i64 %_42 to i1
  br i1 %88, label %bb35, label %bb39

bb35:                                             ; preds = %bb34
  %v = getelementptr inbounds i8, ptr %_41, i64 8
  %89 = getelementptr inbounds i8, ptr %_41, i64 8
  %v12 = load i64, ptr %89, align 8, !noundef !5
  %_44 = icmp ult i64 %v12, 30142
  br i1 %_44, label %bb36, label %bb37

bb39:                                             ; preds = %bb38, %bb37, %bb34
  call void @llvm.lifetime.end.p0(i64 16, ptr %_41)
  call void @llvm.lifetime.start.p0(i64 32, ptr %_47)
; invoke std::env::var
  invoke void @_ZN3std3env3var17hfde4175462da9ef7E(ptr noalias noundef sret([32 x i8]) align 8 captures(address) dereferenceable(32) %_47, ptr noalias noundef nonnull readonly align 1 captures(address, read_provenance) @alloc_154439d6e8351f7172ea58cb90d2dd09, i64 noundef 30)
          to label %bb40 unwind label %cleanup9

bb37:                                             ; preds = %bb35
  br label %bb39

bb36:                                             ; preds = %bb35
; invoke build_script_build::set_cfg
  invoke void @_ZN18build_script_build7set_cfg17h0c5291184563595cE(ptr noalias noundef nonnull readonly align 1 captures(address, read_provenance) @alloc_ccedf80c3ce4e46e2ff8efee35ec798b, i64 noundef 23)
          to label %bb38 unwind label %cleanup9

bb38:                                             ; preds = %bb36
  br label %bb39

bb40:                                             ; preds = %bb39
  %_213 = load i64, ptr %_47, align 8, !range !12, !noundef !5
  %musl_v1_2_3 = icmp eq i64 %_213, 0
; invoke core::ptr::drop_in_place<core::result::Result<alloc::string::String,std::env::VarError>>
  invoke void @"_ZN4core3ptr91drop_in_place$LT$core..result..Result$LT$alloc..string..String$C$std..env..VarError$GT$$GT$17h78f4bba1be4653fcE"(ptr noalias noundef align 8 dereferenceable(32) %_47)
          to label %bb41 unwind label %cleanup9

bb41:                                             ; preds = %bb40
  call void @llvm.lifetime.end.p0(i64 32, ptr %_47)
  call void @llvm.lifetime.start.p0(i64 48, ptr %_49)
  store ptr @alloc_de032bcda44f9efaaa6149d836e94807, ptr %_49, align 8
  %90 = getelementptr inbounds i8, ptr %_49, i64 8
  store i64 1, ptr %90, align 8
  %91 = load ptr, ptr @anon.343ad20a3284b1f9e404afc411eb8ab2.1, align 8, !align !6, !noundef !5
  %92 = load i64, ptr getelementptr inbounds (i8, ptr @anon.343ad20a3284b1f9e404afc411eb8ab2.1, i64 8), align 8
  %93 = getelementptr inbounds i8, ptr %_49, i64 32
  store ptr %91, ptr %93, align 8
  %94 = getelementptr inbounds i8, ptr %93, i64 8
  store i64 %92, ptr %94, align 8
  %95 = getelementptr inbounds i8, ptr %_49, i64 16
  store ptr inttoptr (i64 8 to ptr), ptr %95, align 8
  %96 = getelementptr inbounds i8, ptr %95, i64 8
  store i64 0, ptr %96, align 8
; invoke std::io::stdio::_print
  invoke void @_ZN3std2io5stdio6_print17h361a6d98ea723aceE(ptr noalias noundef align 8 captures(address) dereferenceable(48) %_49)
          to label %bb42 unwind label %cleanup9

bb42:                                             ; preds = %bb41
  call void @llvm.lifetime.end.p0(i64 48, ptr %_49)
  br i1 %musl_v1_2_3, label %bb49, label %bb43

bb43:                                             ; preds = %bb42
; invoke <alloc::string::String as core::cmp::PartialEq<&str>>::eq
  %_50 = invoke noundef zeroext i1 @"_ZN77_$LT$alloc..string..String$u20$as$u20$core..cmp..PartialEq$LT$$RF$str$GT$$GT$2eq17h5e5f3ec0c5cf38a3E"(ptr noalias noundef readonly align 8 captures(address, read_provenance) dereferenceable(24) %target_arch, ptr noalias noundef readonly align 8 captures(address, read_provenance) dereferenceable(16) @alloc_2e7bbecbcec02399e86576d60c771361)
          to label %bb44 unwind label %cleanup9

bb49:                                             ; preds = %bb45, %bb48, %bb42
; invoke build_script_build::set_cfg
  invoke void @_ZN18build_script_build7set_cfg17h0c5291184563595cE(ptr noalias noundef nonnull readonly align 1 captures(address, read_provenance) @alloc_513019cde2cbfb4427cb8f1afc437e08, i64 noundef 11)
          to label %bb211 unwind label %cleanup9

bb44:                                             ; preds = %bb43
  br i1 %_50, label %bb45, label %bb46

bb46:                                             ; preds = %bb44
; invoke <alloc::string::String as core::cmp::PartialEq<&str>>::eq
  %_52 = invoke noundef zeroext i1 @"_ZN77_$LT$alloc..string..String$u20$as$u20$core..cmp..PartialEq$LT$$RF$str$GT$$GT$2eq17h5e5f3ec0c5cf38a3E"(ptr noalias noundef readonly align 8 captures(address, read_provenance) dereferenceable(24) %target_env, ptr noalias noundef readonly align 8 captures(address, read_provenance) dereferenceable(16) @alloc_2fc69c39833a4bd5454cc9c70a124b17)
          to label %bb47 unwind label %cleanup9

bb45:                                             ; preds = %bb44
  br label %bb49

bb47:                                             ; preds = %bb46
  br i1 %_52, label %bb48, label %bb50

bb50:                                             ; preds = %bb47
  br label %bb51

bb48:                                             ; preds = %bb47
  br label %bb49

bb51:                                             ; preds = %bb211, %bb50
  call void @llvm.lifetime.start.p0(i64 32, ptr %_56)
; invoke std::env::var
  invoke void @_ZN3std3env3var17hfde4175462da9ef7E(ptr noalias noundef sret([32 x i8]) align 8 captures(address) dereferenceable(32) %_56, ptr noalias noundef nonnull readonly align 1 captures(address, read_provenance) @alloc_508b13eade4b92efdda744da70d08ff7, i64 noundef 36)
          to label %bb52 unwind label %cleanup9

bb211:                                            ; preds = %bb49
  br label %bb51

bb52:                                             ; preds = %bb51
  %_216 = load i64, ptr %_56, align 8, !range !12, !noundef !5
  %linux_time_bits64 = icmp eq i64 %_216, 0
; invoke core::ptr::drop_in_place<core::result::Result<alloc::string::String,std::env::VarError>>
  invoke void @"_ZN4core3ptr91drop_in_place$LT$core..result..Result$LT$alloc..string..String$C$std..env..VarError$GT$$GT$17h78f4bba1be4653fcE"(ptr noalias noundef align 8 dereferenceable(32) %_56)
          to label %bb53 unwind label %cleanup9

bb53:                                             ; preds = %bb52
  call void @llvm.lifetime.end.p0(i64 32, ptr %_56)
  call void @llvm.lifetime.start.p0(i64 48, ptr %_58)
  store ptr @alloc_323e8ab0e9acd916394341a473149dae, ptr %_58, align 8
  %97 = getelementptr inbounds i8, ptr %_58, i64 8
  store i64 1, ptr %97, align 8
  %98 = load ptr, ptr @anon.343ad20a3284b1f9e404afc411eb8ab2.1, align 8, !align !6, !noundef !5
  %99 = load i64, ptr getelementptr inbounds (i8, ptr @anon.343ad20a3284b1f9e404afc411eb8ab2.1, i64 8), align 8
  %100 = getelementptr inbounds i8, ptr %_58, i64 32
  store ptr %98, ptr %100, align 8
  %101 = getelementptr inbounds i8, ptr %100, i64 8
  store i64 %99, ptr %101, align 8
  %102 = getelementptr inbounds i8, ptr %_58, i64 16
  store ptr inttoptr (i64 8 to ptr), ptr %102, align 8
  %103 = getelementptr inbounds i8, ptr %102, i64 8
  store i64 0, ptr %103, align 8
; invoke std::io::stdio::_print
  invoke void @_ZN3std2io5stdio6_print17h361a6d98ea723aceE(ptr noalias noundef align 8 captures(address) dereferenceable(48) %_58)
          to label %bb54 unwind label %cleanup9

bb54:                                             ; preds = %bb53
  call void @llvm.lifetime.end.p0(i64 48, ptr %_58)
  br i1 %linux_time_bits64, label %bb55, label %bb56

bb56:                                             ; preds = %bb212, %bb54
  call void @llvm.lifetime.start.p0(i64 48, ptr %_61)
  store ptr @alloc_3a3a03545a4e0af4f2b5dca77f9d3333, ptr %_61, align 8
  %104 = getelementptr inbounds i8, ptr %_61, i64 8
  store i64 1, ptr %104, align 8
  %105 = load ptr, ptr @anon.343ad20a3284b1f9e404afc411eb8ab2.1, align 8, !align !6, !noundef !5
  %106 = load i64, ptr getelementptr inbounds (i8, ptr @anon.343ad20a3284b1f9e404afc411eb8ab2.1, i64 8), align 8
  %107 = getelementptr inbounds i8, ptr %_61, i64 32
  store ptr %105, ptr %107, align 8
  %108 = getelementptr inbounds i8, ptr %107, i64 8
  store i64 %106, ptr %108, align 8
  %109 = getelementptr inbounds i8, ptr %_61, i64 16
  store ptr inttoptr (i64 8 to ptr), ptr %109, align 8
  %110 = getelementptr inbounds i8, ptr %109, i64 8
  store i64 0, ptr %110, align 8
; invoke std::io::stdio::_print
  invoke void @_ZN3std2io5stdio6_print17h361a6d98ea723aceE(ptr noalias noundef align 8 captures(address) dereferenceable(48) %_61)
          to label %bb57 unwind label %cleanup9

bb55:                                             ; preds = %bb54
; invoke build_script_build::set_cfg
  invoke void @_ZN18build_script_build7set_cfg17h0c5291184563595cE(ptr noalias noundef nonnull readonly align 1 captures(address, read_provenance) @alloc_681b6f9e783332c8e0b8ad7b08df1498, i64 noundef 17)
          to label %bb212 unwind label %cleanup9

bb212:                                            ; preds = %bb55
  br label %bb56

bb57:                                             ; preds = %bb56
  call void @llvm.lifetime.end.p0(i64 48, ptr %_61)
  call void @llvm.lifetime.start.p0(i64 48, ptr %_63)
  store ptr @alloc_2590e465fd8679325d8cc5472f9eb653, ptr %_63, align 8
  %111 = getelementptr inbounds i8, ptr %_63, i64 8
  store i64 1, ptr %111, align 8
  %112 = load ptr, ptr @anon.343ad20a3284b1f9e404afc411eb8ab2.1, align 8, !align !6, !noundef !5
  %113 = load i64, ptr getelementptr inbounds (i8, ptr @anon.343ad20a3284b1f9e404afc411eb8ab2.1, i64 8), align 8
  %114 = getelementptr inbounds i8, ptr %_63, i64 32
  store ptr %112, ptr %114, align 8
  %115 = getelementptr inbounds i8, ptr %114, i64 8
  store i64 %113, ptr %115, align 8
  %116 = getelementptr inbounds i8, ptr %_63, i64 16
  store ptr inttoptr (i64 8 to ptr), ptr %116, align 8
  %117 = getelementptr inbounds i8, ptr %116, i64 8
  store i64 0, ptr %117, align 8
; invoke std::io::stdio::_print
  invoke void @_ZN3std2io5stdio6_print17h361a6d98ea723aceE(ptr noalias noundef align 8 captures(address) dereferenceable(48) %_63)
          to label %bb58 unwind label %cleanup9

bb58:                                             ; preds = %bb57
  call void @llvm.lifetime.end.p0(i64 48, ptr %_63)
; invoke <alloc::string::String as core::cmp::PartialEq<&str>>::eq
  %_64 = invoke noundef zeroext i1 @"_ZN77_$LT$alloc..string..String$u20$as$u20$core..cmp..PartialEq$LT$$RF$str$GT$$GT$2eq17h5e5f3ec0c5cf38a3E"(ptr noalias noundef readonly align 8 captures(address, read_provenance) dereferenceable(24) %target_env, ptr noalias noundef readonly align 8 captures(address, read_provenance) dereferenceable(16) @alloc_c553423d1176b2f1ae75e882f9dbcffb)
          to label %bb59 unwind label %cleanup9

bb59:                                             ; preds = %bb58
  br i1 %_64, label %bb60, label %bb127

bb127:                                            ; preds = %bb59
  br label %bb128

bb60:                                             ; preds = %bb59
; invoke <alloc::string::String as core::cmp::PartialEq<&str>>::eq
  %_66 = invoke noundef zeroext i1 @"_ZN77_$LT$alloc..string..String$u20$as$u20$core..cmp..PartialEq$LT$$RF$str$GT$$GT$2eq17h5e5f3ec0c5cf38a3E"(ptr noalias noundef readonly align 8 captures(address, read_provenance) dereferenceable(24) %target_os, ptr noalias noundef readonly align 8 captures(address, read_provenance) dereferenceable(16) @alloc_598b9846894745729b1c526f09869566)
          to label %bb61 unwind label %cleanup9

bb128:                                            ; preds = %bb122, %bb123, %bb124, %bb125, %bb126, %bb127
  br i1 %libc_ci, label %bb129, label %bb130

bb61:                                             ; preds = %bb60
  br i1 %_66, label %bb62, label %bb126

bb126:                                            ; preds = %bb61
  br label %bb128

bb62:                                             ; preds = %bb61
; invoke <alloc::string::String as core::cmp::PartialEq<&str>>::eq
  %_68 = invoke noundef zeroext i1 @"_ZN77_$LT$alloc..string..String$u20$as$u20$core..cmp..PartialEq$LT$$RF$str$GT$$GT$2eq17h5e5f3ec0c5cf38a3E"(ptr noalias noundef readonly align 8 captures(address, read_provenance) dereferenceable(24) %target_ptr_width, ptr noalias noundef readonly align 8 captures(address, read_provenance) dereferenceable(16) @alloc_bcc69fbd0a6d2ba0f3134856b57b2f75)
          to label %bb63 unwind label %cleanup9

bb63:                                             ; preds = %bb62
  br i1 %_68, label %bb64, label %bb125

bb125:                                            ; preds = %bb63
  br label %bb128

bb64:                                             ; preds = %bb63
; invoke <alloc::string::String as core::cmp::PartialEq<&str>>::ne
  %_70 = invoke noundef zeroext i1 @"_ZN77_$LT$alloc..string..String$u20$as$u20$core..cmp..PartialEq$LT$$RF$str$GT$$GT$2ne17h8684ca7ecac9e543E"(ptr noalias noundef readonly align 8 captures(address, read_provenance) dereferenceable(24) %target_arch, ptr noalias noundef readonly align 8 captures(address, read_provenance) dereferenceable(16) @alloc_b8b0095006d4bfb8a0793b9f484fbe6e)
          to label %bb65 unwind label %cleanup9

bb65:                                             ; preds = %bb64
  br i1 %_70, label %bb66, label %bb124

bb124:                                            ; preds = %bb65
  br label %bb128

bb66:                                             ; preds = %bb65
; invoke <alloc::string::String as core::cmp::PartialEq<&str>>::ne
  %_72 = invoke noundef zeroext i1 @"_ZN77_$LT$alloc..string..String$u20$as$u20$core..cmp..PartialEq$LT$$RF$str$GT$$GT$2ne17h8684ca7ecac9e543E"(ptr noalias noundef readonly align 8 captures(address, read_provenance) dereferenceable(24) %target_arch, ptr noalias noundef readonly align 8 captures(address, read_provenance) dereferenceable(16) @alloc_c152a840973ba04895d1feffaffa964c)
          to label %bb67 unwind label %cleanup9

bb67:                                             ; preds = %bb66
  br i1 %_72, label %bb68, label %bb123

bb123:                                            ; preds = %bb67
  br label %bb128

bb68:                                             ; preds = %bb67
  call void @llvm.lifetime.start.p0(i64 24, ptr %defaultbits)
  call void @llvm.lifetime.start.p0(i64 24, ptr %_223)
; invoke <T as alloc::slice::<impl [T]>::to_vec_in::ConvertVec>::to_vec
  invoke void @"_ZN87_$LT$T$u20$as$u20$alloc..slice..$LT$impl$u20$$u5b$T$u5d$$GT$..to_vec_in..ConvertVec$GT$6to_vec17hd0953478ffe39c8eE"(ptr noalias noundef sret([24 x i8]) align 8 captures(address) dereferenceable(24) %_223, ptr noalias noundef nonnull readonly align 1 captures(address, read_provenance) @alloc_8e020aace2b3cf2c6b8375c8868270b7, i64 noundef 2)
          to label %bb195 unwind label %cleanup9

bb195:                                            ; preds = %bb68
  call void @llvm.memcpy.p0.p0.i64(ptr align 8 %defaultbits, ptr align 8 %_223, i64 24, i1 false)
  call void @llvm.lifetime.end.p0(i64 24, ptr %_223)
  call void @llvm.lifetime.start.p0(i64 24, ptr %_343)
  call void @llvm.lifetime.start.p0(i64 24, ptr %_344)
  call void @llvm.lifetime.start.p0(i64 64, ptr %_77)
  call void @llvm.lifetime.start.p0(i64 32, ptr %_78)
; invoke std::env::var
  invoke void @_ZN3std3env3var17hfde4175462da9ef7E(ptr noalias noundef sret([32 x i8]) align 8 captures(address) dereferenceable(32) %_78, ptr noalias noundef nonnull readonly align 1 captures(address, read_provenance) @alloc_a81a2677393ac2707db2f683d48ac6b7, i64 noundef 32)
          to label %bb69 unwind label %cleanup13

bb165:                                            ; preds = %bb164, %bb184, %bb183, %bb182, %bb158, %cleanup13
; invoke core::ptr::drop_in_place<alloc::string::String>
  invoke void @"_ZN4core3ptr42drop_in_place$LT$alloc..string..String$GT$17h8ae59710cce54b6aE"(ptr noalias noundef align 8 dereferenceable(24) %defaultbits) #28
          to label %bb167 unwind label %terminate

cleanup13:                                        ; preds = %bb120, %bb195
  %118 = landingpad { ptr, i32 }
          cleanup
  %119 = extractvalue { ptr, i32 } %118, 0
  %120 = extractvalue { ptr, i32 } %118, 1
  call void @llvm.lifetime.start.p0(i64 16, ptr %2)
  store ptr %119, ptr %2, align 8
  %121 = getelementptr inbounds i8, ptr %2, i64 8
  store i32 %120, ptr %121, align 8
  br label %bb165

bb69:                                             ; preds = %bb195
  call void @llvm.lifetime.start.p0(i64 32, ptr %_79)
; invoke std::env::var
  invoke void @_ZN3std3env3var17hfde4175462da9ef7E(ptr noalias noundef sret([32 x i8]) align 8 captures(address) dereferenceable(32) %_79, ptr noalias noundef nonnull readonly align 1 captures(address, read_provenance) @alloc_9329be348e7e4f3c8cc453f36256cbfd, i64 noundef 39)
          to label %bb70 unwind label %cleanup14

bb164:                                            ; preds = %cleanup14
; invoke core::ptr::drop_in_place<core::result::Result<alloc::string::String,std::env::VarError>>
  invoke void @"_ZN4core3ptr91drop_in_place$LT$core..result..Result$LT$alloc..string..String$C$std..env..VarError$GT$$GT$17h78f4bba1be4653fcE"(ptr noalias noundef align 8 dereferenceable(32) %_78) #28
          to label %bb165 unwind label %terminate

cleanup14:                                        ; preds = %bb69
  %122 = landingpad { ptr, i32 }
          cleanup
  %123 = extractvalue { ptr, i32 } %122, 0
  %124 = extractvalue { ptr, i32 } %122, 1
  call void @llvm.lifetime.start.p0(i64 16, ptr %2)
  store ptr %123, ptr %2, align 8
  %125 = getelementptr inbounds i8, ptr %2, i64 8
  store i32 %124, ptr %125, align 8
  br label %bb164

bb70:                                             ; preds = %bb69
  store i8 1, ptr %_180, align 1
  store i8 1, ptr %_181, align 1
  call void @llvm.memcpy.p0.p0.i64(ptr align 8 %_77, ptr align 8 %_78, i64 32, i1 false)
  %126 = getelementptr inbounds i8, ptr %_77, i64 32
  call void @llvm.memcpy.p0.p0.i64(ptr align 8 %126, ptr align 8 %_79, i64 32, i1 false)
  call void @llvm.lifetime.end.p0(i64 32, ptr %_79)
  call void @llvm.lifetime.end.p0(i64 32, ptr %_78)
  %_82 = load i64, ptr %_77, align 8, !range !12, !noundef !5
  %127 = trunc nuw i64 %_82 to i1
  br i1 %127, label %bb73, label %bb72

bb73:                                             ; preds = %bb70
  %128 = getelementptr inbounds i8, ptr %_77, i64 32
  %_81 = load i64, ptr %128, align 8, !range !12, !noundef !5
  %129 = trunc nuw i64 %_81 to i1
  br i1 %129, label %bb76, label %bb74

bb72:                                             ; preds = %bb70
  %130 = getelementptr inbounds i8, ptr %_77, i64 32
  %_80 = load i64, ptr %130, align 8, !range !12, !noundef !5
  %131 = trunc nuw i64 %_80 to i1
  %132 = call i1 @llvm.expect.i1(i1 %131, i1 true)
  br i1 %132, label %bb75, label %bb77

bb75:                                             ; preds = %bb72
  %tb16 = getelementptr inbounds i8, ptr %_77, i64 8
; invoke <alloc::string::String as core::cmp::PartialEq<&str>>::eq
  %_91 = invoke noundef zeroext i1 @"_ZN77_$LT$alloc..string..String$u20$as$u20$core..cmp..PartialEq$LT$$RF$str$GT$$GT$2eq17h5e5f3ec0c5cf38a3E"(ptr noalias noundef readonly align 8 captures(address, read_provenance) dereferenceable(24) %tb16, ptr noalias noundef readonly align 8 captures(address, read_provenance) dereferenceable(16) @alloc_c41425a8a17a4e6719c34e05978ea17c)
          to label %bb80 unwind label %cleanup15

bb77:                                             ; preds = %bb72
  call void @llvm.lifetime.start.p0(i64 48, ptr %_84)
  store ptr @alloc_1e5d5e1506a6d0672f1b7c2d26c988da, ptr %_84, align 8
  %133 = getelementptr inbounds i8, ptr %_84, i64 8
  store i64 1, ptr %133, align 8
  %134 = load ptr, ptr @anon.343ad20a3284b1f9e404afc411eb8ab2.1, align 8, !align !6, !noundef !5
  %135 = load i64, ptr getelementptr inbounds (i8, ptr @anon.343ad20a3284b1f9e404afc411eb8ab2.1, i64 8), align 8
  %136 = getelementptr inbounds i8, ptr %_84, i64 32
  store ptr %134, ptr %136, align 8
  %137 = getelementptr inbounds i8, ptr %136, i64 8
  store i64 %135, ptr %137, align 8
  %138 = getelementptr inbounds i8, ptr %_84, i64 16
  store ptr inttoptr (i64 8 to ptr), ptr %138, align 8
  %139 = getelementptr inbounds i8, ptr %138, i64 8
  store i64 0, ptr %139, align 8
; invoke core::panicking::panic_fmt
  invoke void @_ZN4core9panicking9panic_fmt17h92c8e5abe71dd8d1E(ptr noalias noundef readonly align 8 captures(address) dereferenceable(48) %_84, ptr noalias noundef readonly align 8 captures(address, read_provenance) dereferenceable(24) @alloc_45da099cbd03f68de47e4007758fde25) #30
          to label %unreachable unwind label %cleanup15

bb188:                                            ; preds = %bb163, %bb159, %bb162, %bb160, %cleanup15
  %_187 = load i64, ptr %_77, align 8, !range !12, !noundef !5
  %140 = icmp eq i64 %_187, 0
  br i1 %140, label %bb185, label %bb187

cleanup15:                                        ; preds = %bb76, %bb96, %bb92, %bb74, %bb84, %bb88, %bb82, %bb75, %bb77
  %141 = landingpad { ptr, i32 }
          cleanup
  %142 = extractvalue { ptr, i32 } %141, 0
  %143 = extractvalue { ptr, i32 } %141, 1
  call void @llvm.lifetime.start.p0(i64 16, ptr %2)
  store ptr %142, ptr %2, align 8
  %144 = getelementptr inbounds i8, ptr %2, i64 8
  store i32 %143, ptr %144, align 8
  br label %bb188

unreachable:                                      ; preds = %bb31, %bb107, %bb103, %bb96, %bb88, %bb77
  unreachable

bb80:                                             ; preds = %bb75
  br i1 %_91, label %bb81, label %bb82

bb82:                                             ; preds = %bb80
  %tb17 = getelementptr inbounds i8, ptr %_77, i64 8
; invoke <alloc::string::String as core::cmp::PartialEq<&str>>::eq
  %_98 = invoke noundef zeroext i1 @"_ZN77_$LT$alloc..string..String$u20$as$u20$core..cmp..PartialEq$LT$$RF$str$GT$$GT$2eq17h5e5f3ec0c5cf38a3E"(ptr noalias noundef readonly align 8 captures(address, read_provenance) dereferenceable(24) %tb17, ptr noalias noundef readonly align 8 captures(address, read_provenance) dereferenceable(16) @alloc_bcc69fbd0a6d2ba0f3134856b57b2f75)
          to label %bb86 unwind label %cleanup15

bb81:                                             ; preds = %bb80
  call void @llvm.lifetime.start.p0(i64 24, ptr %tb)
  store i8 0, ptr %_181, align 1
  %145 = getelementptr inbounds i8, ptr %_77, i64 8
  call void @llvm.memcpy.p0.p0.i64(ptr align 8 %tb, ptr align 8 %145, i64 24, i1 false)
  call void @llvm.lifetime.start.p0(i64 24, ptr %_92)
; invoke <alloc::string::String as core::clone::Clone>::clone
  invoke void @"_ZN60_$LT$alloc..string..String$u20$as$u20$core..clone..Clone$GT$5clone17h123bb51dd192bfa5E"(ptr noalias noundef sret([24 x i8]) align 8 captures(address) dereferenceable(24) %_92, ptr noalias noundef readonly align 8 captures(address, read_provenance) dereferenceable(24) %tb, ptr noalias noundef readonly align 8 captures(address, read_provenance) dereferenceable(24) @alloc_8b86f5f151cac6306c671e1a6908f56e)
          to label %bb83 unwind label %cleanup19

bb86:                                             ; preds = %bb82
  %146 = call i1 @llvm.expect.i1(i1 %_98, i1 true)
  br i1 %146, label %bb87, label %bb88

bb88:                                             ; preds = %bb86
  call void @llvm.lifetime.start.p0(i64 48, ptr %_103)
  store ptr @alloc_7b93f54da8b469491d82f6de1015c303, ptr %_103, align 8
  %147 = getelementptr inbounds i8, ptr %_103, i64 8
  store i64 1, ptr %147, align 8
  %148 = load ptr, ptr @anon.343ad20a3284b1f9e404afc411eb8ab2.1, align 8, !align !6, !noundef !5
  %149 = load i64, ptr getelementptr inbounds (i8, ptr @anon.343ad20a3284b1f9e404afc411eb8ab2.1, i64 8), align 8
  %150 = getelementptr inbounds i8, ptr %_103, i64 32
  store ptr %148, ptr %150, align 8
  %151 = getelementptr inbounds i8, ptr %150, i64 8
  store i64 %149, ptr %151, align 8
  %152 = getelementptr inbounds i8, ptr %_103, i64 16
  store ptr inttoptr (i64 8 to ptr), ptr %152, align 8
  %153 = getelementptr inbounds i8, ptr %152, i64 8
  store i64 0, ptr %153, align 8
; invoke core::panicking::panic_fmt
  invoke void @_ZN4core9panicking9panic_fmt17h92c8e5abe71dd8d1E(ptr noalias noundef readonly align 8 captures(address) dereferenceable(48) %_103, ptr noalias noundef readonly align 8 captures(address, read_provenance) dereferenceable(24) @alloc_7468bdcbac5c19804444edd63e87f464) #30
          to label %unreachable unwind label %cleanup15

bb87:                                             ; preds = %bb86
  call void @llvm.lifetime.start.p0(i64 24, ptr %tb1)
  store i8 0, ptr %_181, align 1
  %154 = getelementptr inbounds i8, ptr %_77, i64 8
  call void @llvm.memcpy.p0.p0.i64(ptr align 8 %tb1, ptr align 8 %154, i64 24, i1 false)
  call void @llvm.lifetime.start.p0(i64 24, ptr %_99)
  call void @llvm.memcpy.p0.p0.i64(ptr align 8 %_99, ptr align 8 %tb1, i64 24, i1 false)
  call void @llvm.lifetime.start.p0(i64 24, ptr %_100)
; invoke <alloc::string::String as core::clone::Clone>::clone
  invoke void @"_ZN60_$LT$alloc..string..String$u20$as$u20$core..clone..Clone$GT$5clone17h123bb51dd192bfa5E"(ptr noalias noundef sret([24 x i8]) align 8 captures(address) dereferenceable(24) %_100, ptr noalias noundef readonly align 8 captures(address, read_provenance) dereferenceable(24) %defaultbits, ptr noalias noundef readonly align 8 captures(address, read_provenance) dereferenceable(24) @alloc_003e4cf3b9a525842e7d31687b18dba7)
          to label %bb89 unwind label %cleanup18

bb160:                                            ; preds = %cleanup18
; invoke core::ptr::drop_in_place<alloc::string::String>
  invoke void @"_ZN4core3ptr42drop_in_place$LT$alloc..string..String$GT$17h8ae59710cce54b6aE"(ptr noalias noundef align 8 dereferenceable(24) %_99) #28
          to label %bb188 unwind label %terminate

cleanup18:                                        ; preds = %bb87
  %155 = landingpad { ptr, i32 }
          cleanup
  %156 = extractvalue { ptr, i32 } %155, 0
  %157 = extractvalue { ptr, i32 } %155, 1
  call void @llvm.lifetime.start.p0(i64 16, ptr %2)
  store ptr %156, ptr %2, align 8
  %158 = getelementptr inbounds i8, ptr %2, i64 8
  store i32 %157, ptr %158, align 8
  br label %bb160

bb89:                                             ; preds = %bb87
  call void @llvm.memcpy.p0.p0.i64(ptr align 8 %_343, ptr align 8 %_99, i64 24, i1 false)
  call void @llvm.memcpy.p0.p0.i64(ptr align 8 %_344, ptr align 8 %_100, i64 24, i1 false)
  call void @llvm.lifetime.end.p0(i64 24, ptr %_100)
  call void @llvm.lifetime.end.p0(i64 24, ptr %_99)
  call void @llvm.lifetime.end.p0(i64 24, ptr %tb1)
  br label %bb98

bb98:                                             ; preds = %bb79, %bb97, %bb85, %bb89
  call void @llvm.lifetime.start.p0(i64 24, ptr %timebits)
  call void @llvm.memcpy.p0.p0.i64(ptr align 8 %timebits, ptr align 8 %_343, i64 24, i1 false)
  call void @llvm.lifetime.start.p0(i64 24, ptr %filebits)
  call void @llvm.memcpy.p0.p0.i64(ptr align 8 %filebits, ptr align 8 %_344, i64 24, i1 false)
  %_185 = load i64, ptr %_77, align 8, !range !12, !noundef !5
