; ModuleID = 'find_msvc_tools.926d57c611ac9a33-cgu.0'
source_filename = "find_msvc_tools.926d57c611ac9a33-cgu.0"
target datalayout = "e-m:e-p270:32:32-p271:32:32-p272:64:64-i64:64-i128:128-f80:128-n8:16:32:64-S128"
target triple = "x86_64-unknown-linux-gnu"

%"core::fmt::rt::Argument<'_>" = type { %"core::fmt::rt::ArgumentType<'_>" }
%"core::fmt::rt::ArgumentType<'_>" = type { ptr, [1 x i64] }
%"std::ffi::os_str::OsString" = type { %"std::sys::os_str::bytes::Buf" }
%"std::sys::os_str::bytes::Buf" = type { %"alloc::vec::Vec<u8>" }
%"alloc::vec::Vec<u8>" = type { %"alloc::raw_vec::RawVec<u8>", i64 }
%"alloc::raw_vec::RawVec<u8>" = type { %"alloc::raw_vec::RawVecInner", %"core::marker::PhantomData<u8>" }
%"alloc::raw_vec::RawVecInner" = type { i64, ptr, %"alloc::alloc::Global" }
%"alloc::alloc::Global" = type {}
%"core::marker::PhantomData<u8>" = type {}
%"alloc::boxed::Box<dyn core::ops::function::FnMut() -> core::result::Result<(), std::io::error::Error> + core::marker::Send + core::marker::Sync>" = type { %"core::ptr::unique::Unique<dyn core::ops::function::FnMut() -> core::result::Result<(), std::io::error::Error> + core::marker::Send + core::marker::Sync>", %"alloc::alloc::Global" }
%"core::ptr::unique::Unique<dyn core::ops::function::FnMut() -> core::result::Result<(), std::io::error::Error> + core::marker::Send + core::marker::Sync>" = type { %"core::ptr::non_null::NonNull<dyn core::ops::function::FnMut() -> core::result::Result<(), std::io::error::Error> + core::marker::Send + core::marker::Sync>", %"core::marker::PhantomData<dyn core::ops::function::FnMut() -> core::result::Result<(), std::io::error::Error> + core::marker::Send + core::marker::Sync>" }
%"core::ptr::non_null::NonNull<dyn core::ops::function::FnMut() -> core::result::Result<(), std::io::error::Error> + core::marker::Send + core::marker::Sync>" = type { { ptr, ptr } }
%"core::marker::PhantomData<dyn core::ops::function::FnMut() -> core::result::Result<(), std::io::error::Error> + core::marker::Send + core::marker::Sync>" = type {}
%"core::mem::maybe_uninit::MaybeUninit<std::ffi::os_str::OsString>" = type { [3 x i64] }
%"core::mem::maybe_uninit::MaybeUninit<core::option::Option<std::ffi::os_str::OsString>>" = type { [3 x i64] }

@alloc_7e0cd81f9dcb179626435c932d0b5a52 = private unnamed_addr constant [214 x i8] c"unsafe precondition(s) violated: slice::get_unchecked requires that the range is within the slice\0A\0AThis indicates a bug in the program. This Undefined Behavior check is optional, and cannot be relied on for safety.", align 1
@anon.44dec03a02d03ef7c616543621cbcdfc.0 = private unnamed_addr constant <{ [8 x i8], [8 x i8] }> <{ [8 x i8] zeroinitializer, [8 x i8] undef }>, align 8
@alloc_643f7782d991ad79bd79ba2d2c668a4c = private unnamed_addr constant [3 x i8] c"x64", align 1
@alloc_97ea9fc425ea3c7752d1c5ba5dd6dd88 = private unnamed_addr constant [6 x i8] c"x86_64", align 1
@alloc_902cf81a6d418c2063e2efdd4bdd7c78 = private unnamed_addr constant [5 x i8] c"arm64", align 1
@alloc_708437d7a9a3b1bed2b2fbb27ca99947 = private unnamed_addr constant [7 x i8] c"aarch64", align 1
@alloc_77091ef4013986fd40216f126dabc12f = private unnamed_addr constant [7 x i8] c"arm64ec", align 1
@alloc_de5ab4e2afa2804d1a733c1ad824af99 = private unnamed_addr constant [3 x i8] c"x86", align 1
@alloc_673aaa5b29fe2e169c9bc7d4a86cb0c3 = private unnamed_addr constant [4 x i8] c"i686", align 1
@alloc_e4250c89692f9a3aef523af36427f57d = private unnamed_addr constant [4 x i8] c"i586", align 1
@alloc_d9036dbef1cc78d0c3562113c2babf56 = private unnamed_addr constant [3 x i8] c"arm", align 1
@alloc_f33c6662c87959700862e0731dde2345 = private unnamed_addr constant [8 x i8] c"thumbv7a", align 1
@alloc_913d07a29c91f086277fcece161be651 = private unnamed_addr constant [19 x i8] c"VisualStudioVersion", align 1
@alloc_6e8c0189a2064b9421361048da0c9eb2 = private unnamed_addr constant [4 x i8] c"17.0", align 1
@alloc_352ccd7f6cbe7b0d708d9f781a94edee = private unnamed_addr constant [4 x i8] c"16.0", align 1
@alloc_b1b5f2a9301a343417d4aa2a7431dd7d = private unnamed_addr constant [4 x i8] c"15.0", align 1
@alloc_492b7b15921808c7cb3444ea46807112 = private unnamed_addr constant [4 x i8] c"14.0", align 1
@alloc_4c3d6d2ec03009af02deebbaf76c0028 = private unnamed_addr constant [47 x i8] c"\0A\0Aunsupported or unknown VisualStudio version: ", align 1
@alloc_8b5c4133abb6585d2de207c4e8b536f3 = private unnamed_addr constant [107 x i8] c"\0Aif another version is installed consider running the appropriate vcvars script before building this crate\0A", align 1
@alloc_0210f9a7de6109ab616e82ff8f9cb79b = private unnamed_addr constant <{ ptr, [8 x i8], ptr, [8 x i8] }> <{ ptr @alloc_4c3d6d2ec03009af02deebbaf76c0028, [8 x i8] c"/\00\00\00\00\00\00\00", ptr @alloc_8b5c4133abb6585d2de207c4e8b536f3, [8 x i8] c"k\00\00\00\00\00\00\00" }>, align 8
@alloc_7c9b26184241b4a5a6cf41b356f60cd3 = private unnamed_addr constant [158 x i8] c"\0A\0Acouldn't determine visual studio generator\0Aif VisualStudio is installed, however, consider running the appropriate vcvars script before building this crate\0A", align 1
@alloc_4156e959589ba4dd32a5f8e9e8794e02 = private unnamed_addr constant [7 x i8] c"msbuild", align 1
@alloc_30e48f5bc9536fc9c0ff564a2ed46279 = private unnamed_addr constant [6 x i8] c"devenv", align 1
@alloc_b02cb0441008eafb9892df4255d9f1a7 = private unnamed_addr constant [5 x i8] c"clang", align 1
@alloc_9a68dd18f0911526c199eebcfa8367d8 = private unnamed_addr constant [4 x i8] c"lldb", align 1
@alloc_527b1a6f3ab2db7d4c95d2e85f6dc8f4 = private unnamed_addr constant [4 x i8] c"llvm", align 1
@alloc_7852d5fba8844429e6d5c8b75ea78b9b = private unnamed_addr constant [2 x i8] c"ld", align 1
@alloc_cc5f7aea2b49bddfd6e88357165846f3 = private unnamed_addr constant [3 x i8] c"lld", align 1
@alloc_89d037fa1ee119cb7e39623192568988 = private unnamed_addr constant <{ ptr, [8 x i8], ptr, [8 x i8], ptr, [8 x i8], ptr, [8 x i8], ptr, [8 x i8] }> <{ ptr @alloc_b02cb0441008eafb9892df4255d9f1a7, [8 x i8] c"\05\00\00\00\00\00\00\00", ptr @alloc_9a68dd18f0911526c199eebcfa8367d8, [8 x i8] c"\04\00\00\00\00\00\00\00", ptr @alloc_527b1a6f3ab2db7d4c95d2e85f6dc8f4, [8 x i8] c"\04\00\00\00\00\00\00\00", ptr @alloc_7852d5fba8844429e6d5c8b75ea78b9b, [8 x i8] c"\02\00\00\00\00\00\00\00", ptr @alloc_cc5f7aea2b49bddfd6e88357165846f3, [8 x i8] c"\03\00\00\00\00\00\00\00" }>, align 8
@alloc_e9e59c41b8e8baa47c3e0178e02133e6 = private unnamed_addr constant [12 x i8] c"VCINSTALLDIR", align 1
@alloc_89bf16989cceee19c050ad04893a585c = private unnamed_addr constant [12 x i8] c"VSINSTALLDIR", align 1
@alloc_0961b107d08cfdc5d889c0427a765b76 = private unnamed_addr constant [4 x i8] c"PATH", align 1
@alloc_3bb2650aa074fcfb8c10a9c40791bfbc = private unnamed_addr constant [1 x i8] c"-", align 1
@alloc_0b31f4562230d243936ff2637ae71e88 = private unnamed_addr constant [4 x i8] c"msvc", align 1
@vtable.0 = private unnamed_addr constant <{ [24 x i8], ptr }> <{ [24 x i8] c"\00\00\00\00\00\00\00\00\00\00\00\00\00\00\00\00\01\00\00\00\00\00\00\00", ptr @"_ZN100_$LT$find_msvc_tools..find_tools..StdEnvGetter$u20$as$u20$find_msvc_tools..find_tools..EnvGetter$GT$7get_env17hca9836a8c7778107E" }>, align 8
@alloc_902d0502498a7867f18a1b093eb45298 = private unnamed_addr constant [91 x i8] c"/rustc/ed61e7d7e242494fb7057f2657300d9e77bb4fcb/library/std/src/io/error/repr_bitpacked.rs\00", align 1
@alloc_c46812334728ce009f8cea92fbb7a3bb = private unnamed_addr constant <{ ptr, [16 x i8] }> <{ ptr @alloc_902d0502498a7867f18a1b093eb45298, [16 x i8] c"Z\00\00\00\00\00\00\00\11\01\00\00\1A\00\00\00" }>, align 8
@alloc_a500d906b91607583596fa15e63c2ada = private unnamed_addr constant [40 x i8] c"internal error: entered unreachable code", align 1
@alloc_df38229897fa3f90ed81b968e38fcae7 = private unnamed_addr constant <{ ptr, [16 x i8] }> <{ ptr @alloc_902d0502498a7867f18a1b093eb45298, [16 x i8] c"Z\00\00\00\00\00\00\00\22\01\00\00\0D\00\00\00" }>, align 8
@alloc_ec595fc0e82ef92fc59bd74f68296eae = private unnamed_addr constant [73 x i8] c"assertion failed: 0 < pointee_size && pointee_size <= isize::MAX as usize", align 1
@alloc_9c482f2f4ee4370f43752c111033314e = private unnamed_addr constant [81 x i8] c"/rustc/ed61e7d7e242494fb7057f2657300d9e77bb4fcb/library/core/src/ptr/non_null.rs\00", align 1
@alloc_f8be598209e2f834cf2d2b9cc4a8e7e5 = private unnamed_addr constant <{ ptr, [16 x i8] }> <{ ptr @alloc_9c482f2f4ee4370f43752c111033314e, [16 x i8] c"P\00\00\00\00\00\00\00\B9\03\00\00 \00\00\00" }>, align 8
@anon.44dec03a02d03ef7c616543621cbcdfc.1 = private unnamed_addr constant <{ [4 x i8], [4 x i8] }> <{ [4 x i8] zeroinitializer, [4 x i8] undef }>, align 4
@alloc_d11c91003c30fc64cdedefcfd2d1727f = private unnamed_addr constant [84 x i8] c"/rustc/ed61e7d7e242494fb7057f2657300d9e77bb4fcb/library/core/src/str/validations.rs\00", align 1
@alloc_529b6025d83b9ebb0e57fdfa1395d046 = private unnamed_addr constant <{ ptr, [16 x i8] }> <{ ptr @alloc_d11c91003c30fc64cdedefcfd2d1727f, [16 x i8] c"S\00\00\00\00\00\00\000\00\00\00$\00\00\00" }>, align 8
@alloc_7f873a0e7c47e0ef63cb2a1c0771ddcd = private unnamed_addr constant <{ ptr, [16 x i8] }> <{ ptr @alloc_d11c91003c30fc64cdedefcfd2d1727f, [16 x i8] c"S\00\00\00\00\00\00\007\00\00\00(\00\00\00" }>, align 8
@alloc_5b1ece176c586484ef2b256193cf7173 = private unnamed_addr constant <{ ptr, [16 x i8] }> <{ ptr @alloc_d11c91003c30fc64cdedefcfd2d1727f, [16 x i8] c"S\00\00\00\00\00\00\00?\00\00\00,\00\00\00" }>, align 8
@alloc_da81e3c7958ab06d0f9576e7e66cbc9e = private unnamed_addr constant [79 x i8] c"/rustc/ed61e7d7e242494fb7057f2657300d9e77bb4fcb/library/core/src/str/traits.rs\00", align 1
@alloc_ba1030f58f7719f97a855b28bc067914 = private unnamed_addr constant <{ ptr, [16 x i8] }> <{ ptr @alloc_da81e3c7958ab06d0f9576e7e66cbc9e, [16 x i8] c"N\00\00\00\00\00\00\00\19\02\00\00$\00\00\00" }>, align 8
@alloc_91f2a00ff2cd9cdc4bb205a66832e2bb = private unnamed_addr constant [219 x i8] c"unsafe precondition(s) violated: str::get_unchecked requires that the range is within the string slice\0A\0AThis indicates a bug in the program. This Undefined Behavior check is optional, and cannot be relied on for safety.", align 1
@alloc_3366e88ddaea6e8becd9852c131ee4f3 = private unnamed_addr constant [76 x i8] c"/rustc/ed61e7d7e242494fb7057f2657300d9e77bb4fcb/library/core/src/str/mod.rs\00", align 1
@alloc_3cecc93e943b1f17af7b3e060654fd82 = private unnamed_addr constant <{ ptr, [16 x i8] }> <{ ptr @alloc_3366e88ddaea6e8becd9852c131ee4f3, [16 x i8] c"K\00\00\00\00\00\00\00~\01\00\00\0D\00\00\00" }>, align 8
@alloc_57a97f4c431b3c93ee236177789aa348 = private unnamed_addr constant [80 x i8] c"/rustc/ed61e7d7e242494fb7057f2657300d9e77bb4fcb/library/core/src/str/pattern.rs\00", align 1
@alloc_3e638587cca450173d704013fbbae2eb = private unnamed_addr constant <{ ptr, [16 x i8] }> <{ ptr @alloc_57a97f4c431b3c93ee236177789aa348, [16 x i8] c"O\00\00\00\00\00\00\00\07\07\00\00\17\00\00\00" }>, align 8
@alloc_598a0bdcb79cbf8ce86f17344ef343d0 = private unnamed_addr constant <{ ptr, [16 x i8] }> <{ ptr @alloc_57a97f4c431b3c93ee236177789aa348, [16 x i8] c"O\00\00\00\00\00\00\00!\07\00\00,\00\00\00" }>, align 8
@alloc_dc325f2d336646bde5ec627a150d8e30 = private unnamed_addr constant <{ ptr, [16 x i8] }> <{ ptr @alloc_57a97f4c431b3c93ee236177789aa348, [16 x i8] c"O\00\00\00\00\00\00\00$\07\00\00!\00\00\00" }>, align 8
@alloc_67375c35f07c5eb50a53dbe235307eb3 = private unnamed_addr constant <{ ptr, [16 x i8] }> <{ ptr @alloc_57a97f4c431b3c93ee236177789aa348, [16 x i8] c"O\00\00\00\00\00\00\00[\07\00\00\18\00\00\00" }>, align 8
@alloc_efecd23b6ce3e79d33e5b5722f8f4d59 = private unnamed_addr constant <{ ptr, [16 x i8] }> <{ ptr @alloc_57a97f4c431b3c93ee236177789aa348, [16 x i8] c"O\00\00\00\00\00\00\00X\07\00\00\0D\00\00\00" }>, align 8
@alloc_d0b5540d38aa67683bd942cb6db4a43b = private unnamed_addr constant [28 x i8] c"window size must be non-zero", align 1
@alloc_e1a339478a596cc5120834bce60a94d8 = private unnamed_addr constant <{ ptr, [16 x i8] }> <{ ptr @alloc_57a97f4c431b3c93ee236177789aa348, [16 x i8] c"O\00\00\00\00\00\00\00\1D\07\00\00\1E\00\00\00" }>, align 8
@alloc_8821998f047ca62cad40e6bc4e4d87c4 = private unnamed_addr constant [1 x i8] c"\01", align 1
@alloc_df246d0d16be0102fde5a8e55f47c19d = private unnamed_addr constant <{ ptr, [16 x i8] }> <{ ptr @alloc_57a97f4c431b3c93ee236177789aa348, [16 x i8] c"O\00\00\00\00\00\00\00C\07\00\00L\00\00\00" }>, align 8
@alloc_acbfeeab9b70e3dbc5878803522ff899 = private unnamed_addr constant <{ ptr, [16 x i8] }> <{ ptr @alloc_57a97f4c431b3c93ee236177789aa348, [16 x i8] c"O\00\00\00\00\00\00\00F\07\00\00Q\00\00\00" }>, align 8
@alloc_05c355ed4d7867e5402bdf09959a1983 = private unnamed_addr constant <{ ptr, [16 x i8] }> <{ ptr @alloc_57a97f4c431b3c93ee236177789aa348, [16 x i8] c"O\00\00\00\00\00\00\00\12\07\00\00I\00\00\00" }>, align 8
@alloc_2811ee32ff0b32916334a4a657e1975b = private unnamed_addr constant [80 x i8] c"/rustc/ed61e7d7e242494fb7057f2657300d9e77bb4fcb/library/core/src/slice/index.rs\00", align 1
@alloc_369b24fe4b72237c3939260bf4f6e6b3 = private unnamed_addr constant <{ ptr, [16 x i8] }> <{ ptr @alloc_2811ee32ff0b32916334a4a657e1975b, [16 x i8] c"O\00\00\00\00\00\00\00\01\02\00\00 \00\00\00" }>, align 8
@alloc_66c15cda2b49891d300645f0412ac441 = private unnamed_addr constant <{ ptr, [16 x i8] }> <{ ptr @alloc_57a97f4c431b3c93ee236177789aa348, [16 x i8] c"O\00\00\00\00\00\00\00\E5\05\00\00\14\00\00\00" }>, align 8
@alloc_807149a173b61fad5efc0eb920393b4a = private unnamed_addr constant <{ ptr, [16 x i8] }> <{ ptr @alloc_57a97f4c431b3c93ee236177789aa348, [16 x i8] c"O\00\00\00\00\00\00\00\E5\05\00\00!\00\00\00" }>, align 8
@alloc_068a312601633a547d84755a50efc93e = private unnamed_addr constant <{ ptr, [16 x i8] }> <{ ptr @alloc_57a97f4c431b3c93ee236177789aa348, [16 x i8] c"O\00\00\00\00\00\00\00\D9\05\00\00\14\00\00\00" }>, align 8
@alloc_c083906da6339b76bba143ba390a927c = private unnamed_addr constant <{ ptr, [16 x i8] }> <{ ptr @alloc_57a97f4c431b3c93ee236177789aa348, [16 x i8] c"O\00\00\00\00\00\00\00\D9\05\00\00!\00\00\00" }>, align 8
@alloc_04030effc0fc8988c72cec4633125bf8 = private unnamed_addr constant <{ ptr, [16 x i8] }> <{ ptr @alloc_57a97f4c431b3c93ee236177789aa348, [16 x i8] c"O\00\00\00\00\00\00\00\B9\07\00\00(\00\00\00" }>, align 8
@alloc_60d8538862ecea07b6c14871a3e9bb5d = private unnamed_addr constant <{ ptr, [16 x i8] }> <{ ptr @alloc_57a97f4c431b3c93ee236177789aa348, [16 x i8] c"O\00\00\00\00\00\00\00\BA\07\00\00(\00\00\00" }>, align 8
@alloc_ee4d082446c4e6fbc0fb8a4065680898 = private unnamed_addr constant <{ ptr, [16 x i8] }> <{ ptr @alloc_57a97f4c431b3c93ee236177789aa348, [16 x i8] c"O\00\00\00\00\00\00\00\B1\07\00\00)\00\00\00" }>, align 8
@alloc_a75eddc79d502e921d26f786f4694438 = private unnamed_addr constant <{ ptr, [16 x i8] }> <{ ptr @alloc_57a97f4c431b3c93ee236177789aa348, [16 x i8] c"O\00\00\00\00\00\00\00\B2\07\00\00)\00\00\00" }>, align 8
@alloc_75fb06c2453febd814e73f5f2e72ae38 = private unnamed_addr constant [199 x i8] c"unsafe precondition(s) violated: hint::unreachable_unchecked must never be reached\0A\0AThis indicates a bug in the program. This Undefined Behavior check is optional, and cannot be relied on for safety.", align 1
@alloc_1be5ea12ba708d9a11b6e93a7d387a75 = private unnamed_addr constant [281 x i8] c"unsafe precondition(s) violated: Layout::from_size_align_unchecked requires that align is a power of 2 and the rounded-up allocation size does not exceed isize::MAX\0A\0AThis indicates a bug in the program. This Undefined Behavior check is optional, and cannot be relied on for safety.", align 1
@alloc_2ef43ee3c40dc3dac4839bf6ed126cca = private unnamed_addr constant [81 x i8] c"/rustc/ed61e7d7e242494fb7057f2657300d9e77bb4fcb/library/core/src/slice/memchr.rs\00", align 1
@alloc_abc0a28ca3b1362e4c20e4b15c85a683 = private unnamed_addr constant <{ ptr, [16 x i8] }> <{ ptr @alloc_2ef43ee3c40dc3dac4839bf6ed126cca, [16 x i8] c"P\00\00\00\00\00\00\00(\00\00\00\0C\00\00\00" }>, align 8
@alloc_25c9a7d96a1ace8e95cc241aa50d294d = private unnamed_addr constant <{ ptr, [16 x i8] }> <{ ptr @alloc_57a97f4c431b3c93ee236177789aa348, [16 x i8] c"O\00\00\00\00\00\00\00\E4\03\00\00:\00\00\00" }>, align 8
@alloc_f10fc29c8be86212c56366c4370bac98 = private unnamed_addr constant [92 x i8] c"/rustc/ed61e7d7e242494fb7057f2657300d9e77bb4fcb/library/alloc/src/collections/btree/node.rs\00", align 1
@alloc_ba25e373ca35912bbc2ec0447b0c2131 = private unnamed_addr constant <{ ptr, [16 x i8] }> <{ ptr @alloc_f10fc29c8be86212c56366c4370bac98, [16 x i8] c"[\00\00\00\00\00\00\00\B1\04\00\00!\00\00\00" }>, align 8
@alloc_90f1b71a1a64acc40295032110d555ce = private unnamed_addr constant [96 x i8] c"/rustc/ed61e7d7e242494fb7057f2657300d9e77bb4fcb/library/alloc/src/collections/btree/navigate.rs\00", align 1
@alloc_2a3d7116d2c19ef4e3e458825ea62d6c = private unnamed_addr constant <{ ptr, [16 x i8] }> <{ ptr @alloc_90f1b71a1a64acc40295032110d555ce, [16 x i8] c"_\00\00\00\00\00\00\00X\02\00\000\00\00\00" }>, align 8
@alloc_bffbad77b9a567f3980a3e0c2ea20be5 = private unnamed_addr constant <{ ptr, [16 x i8] }> <{ ptr @alloc_90f1b71a1a64acc40295032110d555ce, [16 x i8] c"_\00\00\00\00\00\00\00\E7\00\00\007\00\00\00" }>, align 8
@alloc_45e7f064ef554a475bda9d3f7c527dae = private unnamed_addr constant <{ ptr, [16 x i8] }> <{ ptr @alloc_90f1b71a1a64acc40295032110d555ce, [16 x i8] c"_\00\00\00\00\00\00\00\C6\00\00\00'\00\00\00" }>, align 8
@alloc_57d70e9d94c65ecfc15225d29a5ed72b = private unnamed_addr constant [198 x i8] c"unsafe precondition(s) violated: Vec::set_len requires that new_len <= capacity()\0A\0AThis indicates a bug in the program. This Undefined Behavior check is optional, and cannot be relied on for safety.", align 1
@alloc_5f378fd5a257d89e00619214d281d6a7 = private unnamed_addr constant [81 x i8] c"/rustc/ed61e7d7e242494fb7057f2657300d9e77bb4fcb/library/alloc/src/raw_vec/mod.rs\00", align 1
@alloc_5f2c7963340061933fc603b2939c38ce = private unnamed_addr constant <{ ptr, [16 x i8] }> <{ ptr @alloc_5f378fd5a257d89e00619214d281d6a7, [16 x i8] c"P\00\00\00\00\00\00\00\14\02\00\00\1E\00\00\00" }>, align 8
@alloc_5a8fdd84b3281310cbf6b74bb6bf0065 = private unnamed_addr constant [218 x i8] c"unsafe precondition(s) violated: slice::get_unchecked_mut requires that the index is within the slice\0A\0AThis indicates a bug in the program. This Undefined Behavior check is optional, and cannot be relied on for safety.", align 1
@alloc_00e16cb234296b637717d5c58c9d7cc5 = private unnamed_addr constant <{ ptr, [16 x i8] }> <{ ptr @alloc_57a97f4c431b3c93ee236177789aa348, [16 x i8] c"O\00\00\00\00\00\00\00i\04\00\00$\00\00\00" }>, align 8
@alloc_9e16e1742bd2d84c3af9e7d76da5e69b = private unnamed_addr constant [75 x i8] c"/rustc/ed61e7d7e242494fb7057f2657300d9e77bb4fcb/library/alloc/src/slice.rs\00", align 1
@alloc_668b38c97e04786c40586fbd485e60b1 = private unnamed_addr constant <{ ptr, [16 x i8] }> <{ ptr @alloc_9e16e1742bd2d84c3af9e7d76da5e69b, [16 x i8] c"J\00\00\00\00\00\00\00\BD\01\00\00\1D\00\00\00" }>, align 8
@alloc_6a67276667a84cca95967678678554ae = private unnamed_addr constant [77 x i8] c"/rustc/ed61e7d7e242494fb7057f2657300d9e77bb4fcb/library/alloc/src/vec/mod.rs\00", align 1
@alloc_822bf81a612e8707a41a59723a141cc2 = private unnamed_addr constant <{ ptr, [16 x i8] }> <{ ptr @alloc_6a67276667a84cca95967678678554ae, [16 x i8] c"L\00\00\00\00\00\00\00\DD\07\00\00\09\00\00\00" }>, align 8
@alloc_ce379fe123a99171bb120e786f824787 = private unnamed_addr constant [72 x i8] c"/rustc/ed61e7d7e242494fb7057f2657300d9e77bb4fcb/library/std/src/path.rs\00", align 1
@alloc_a5ce5334e7f47deba8d13ef733f31592 = private unnamed_addr constant <{ ptr, [16 x i8] }> <{ ptr @alloc_ce379fe123a99171bb120e786f824787, [16 x i8] c"G\00\00\00\00\00\00\00x\08\00\00\14\00\00\00" }>, align 8
@alloc_dae296fac431ff5a15ce24bf627d1494 = private unnamed_addr constant [79 x i8] c"/rustc/ed61e7d7e242494fb7057f2657300d9e77bb4fcb/library/core/src/slice/iter.rs\00", align 1
@alloc_f34fab76cc23721bd63281725f7abd00 = private unnamed_addr constant <{ ptr, [16 x i8] }> <{ ptr @alloc_dae296fac431ff5a15ce24bf627d1494, [16 x i8] c"N\00\00\00\00\00\00\00Q\05\00\00\1D\00\00\00" }>, align 8
@alloc_46396d370e0423a0301a6a5d9399b81a = private unnamed_addr constant <{ ptr, [16 x i8] }> <{ ptr @alloc_dae296fac431ff5a15ce24bf627d1494, [16 x i8] c"N\00\00\00\00\00\00\00P\05\00\00#\00\00\00" }>, align 8
@alloc_7954f15e40e6338cd432a46200165040 = private unnamed_addr constant [78 x i8] c"/rustc/ed61e7d7e242494fb7057f2657300d9e77bb4fcb/library/std/src/ffi/os_str.rs\00", align 1
@alloc_f346ce65593f41755f7074ba54ec87ab = private unnamed_addr constant <{ ptr, [16 x i8] }> <{ ptr @alloc_7954f15e40e6338cd432a46200165040, [16 x i8] c"M\00\00\00\00\00\00\00\A3\02\00\00\0E\00\00\00" }>, align 8

; <find_msvc_tools::find_tools::StdEnvGetter as find_msvc_tools::find_tools::EnvGetter>::get_env
; Function Attrs: nonlazybind uwtable
define void @"_ZN100_$LT$find_msvc_tools..find_tools..StdEnvGetter$u20$as$u20$find_msvc_tools..find_tools..EnvGetter$GT$7get_env17hca9836a8c7778107E"(ptr dead_on_unwind noalias noundef writable sret([24 x i8]) align 8 captures(address) dereferenceable(24) %_0, ptr noalias noundef nonnull readonly align 1 captures(address, read_provenance) %self, ptr noalias noundef nonnull readonly align 1 captures(address, read_provenance) %name.0, i64 noundef %name.1) unnamed_addr #0 {
start:
  %_6 = alloca [24 x i8], align 8
  %_5 = alloca [24 x i8], align 8
  %_3 = alloca [24 x i8], align 8
  call void @llvm.lifetime.start.p0(i64 24, ptr %_3)
; call std::env::var_os
  call void @_ZN3std3env6var_os17haa41b23c03287664E(ptr noalias noundef sret([24 x i8]) align 8 captures(address) dereferenceable(24) %_3, ptr noalias noundef nonnull readonly align 1 captures(address, read_provenance) %name.0, i64 noundef %name.1)
  %0 = load i64, ptr %_3, align 8, !range !3, !noundef !4
  %1 = icmp eq i64 %0, -9223372036854775808
  %_4 = select i1 %1, i64 0, i64 1
  %2 = trunc nuw i64 %_4 to i1
  br i1 %2, label %bb5, label %bb4

bb5:                                              ; preds = %start
  call void @llvm.memcpy.p0.p0.i64(ptr align 8 %_5, ptr align 8 %_3, i64 24, i1 false)
  call void @llvm.lifetime.start.p0(i64 24, ptr %_6)
  call void @llvm.memcpy.p0.p0.i64(ptr align 8 %_6, ptr align 8 %_5, i64 24, i1 false)
  call void @llvm.memcpy.p0.p0.i64(ptr align 8 %_0, ptr align 8 %_6, i64 24, i1 false)
  call void @llvm.lifetime.end.p0(i64 24, ptr %_6)
  br label %bb2

bb4:                                              ; preds = %start
  store i64 -9223372036854775807, ptr %_0, align 8
  br label %bb2

bb2:                                              ; preds = %bb5, %bb4
  call void @llvm.lifetime.end.p0(i64 24, ptr %_3)
  ret void

bb3:                                              ; No predecessors!
  unreachable
}

; <std::ffi::os_str::OsString as core::ops::index::Index<core::ops::range::RangeFull>>::index
; Function Attrs: inlinehint nonlazybind uwtable
define internal { ptr, i64 } @"_ZN105_$LT$std..ffi..os_str..OsString$u20$as$u20$core..ops..index..Index$LT$core..ops..range..RangeFull$GT$$GT$5index17h5e81d442aa529d4eE"(ptr noalias noundef readonly align 8 captures(address, read_provenance) dereferenceable(24) %self, ptr noalias noundef readonly align 8 captures(address, read_provenance) dereferenceable(24) %0) unnamed_addr #1 {
start:
  %1 = getelementptr inbounds i8, ptr %self, i64 8
  %_9 = load ptr, ptr %1, align 8, !nonnull !4, !noundef !4
  %2 = icmp ne ptr %_9, null
  call void @llvm.assume(i1 %2)
  %3 = getelementptr inbounds i8, ptr %self, i64 16
  %len = load i64, ptr %3, align 8, !noundef !4
  br label %bb3

bb3:                                              ; preds = %start
  %4 = insertvalue { ptr, i64 } poison, ptr %_9, 0
  %5 = insertvalue { ptr, i64 } %4, i64 %len, 1
  ret { ptr, i64 } %5

bb1:                                              ; No predecessors!
  unreachable

bb2:                                              ; No predecessors!
  unreachable
}

; <core::ops::range::Range<usize> as core::slice::index::SliceIndex<[T]>>::get_unchecked::precondition_check
; Function Attrs: inlinehint nounwind nonlazybind uwtable
define internal void @"_ZN106_$LT$core..ops..range..Range$LT$usize$GT$$u20$as$u20$core..slice..index..SliceIndex$LT$$u5b$T$u5d$$GT$$GT$13get_unchecked18precondition_check17hdb1281987bad80c2E"(i64 noundef %start1, i64 noundef %end, i64 noundef %len, ptr noalias noundef readonly align 8 captures(address, read_provenance) dereferenceable(24) %0) unnamed_addr #2 {
start:
  %_9 = alloca [16 x i8], align 8
  %_7 = alloca [48 x i8], align 8
  %_4 = icmp uge i64 %end, %start1
  %1 = call i1 @llvm.expect.i1(i1 %_4, i1 true)
  br i1 %1, label %bb1, label %bb3

bb3:                                              ; preds = %bb1, %start
  call void @llvm.lifetime.start.p0(i64 48, ptr %_7)
  call void @llvm.lifetime.start.p0(i64 16, ptr %_9)
  %2 = getelementptr inbounds nuw { ptr, i64 }, ptr %_9, i64 0
  store ptr @alloc_7e0cd81f9dcb179626435c932d0b5a52, ptr %2, align 8
  %3 = getelementptr inbounds i8, ptr %2, i64 8
  store i64 214, ptr %3, align 8
  store ptr %_9, ptr %_7, align 8
  %4 = getelementptr inbounds i8, ptr %_7, i64 8
  store i64 1, ptr %4, align 8
  %5 = load ptr, ptr @anon.44dec03a02d03ef7c616543621cbcdfc.0, align 8, !align !5, !noundef !4
  %6 = load i64, ptr getelementptr inbounds (i8, ptr @anon.44dec03a02d03ef7c616543621cbcdfc.0, i64 8), align 8
  %7 = getelementptr inbounds i8, ptr %_7, i64 32
  store ptr %5, ptr %7, align 8
  %8 = getelementptr inbounds i8, ptr %7, i64 8
  store i64 %6, ptr %8, align 8
  %9 = getelementptr inbounds i8, ptr %_7, i64 16
  store ptr inttoptr (i64 8 to ptr), ptr %9, align 8
  %10 = getelementptr inbounds i8, ptr %9, i64 8
  store i64 0, ptr %10, align 8
; call core::panicking::panic_nounwind_fmt
  call void @_ZN4core9panicking18panic_nounwind_fmt17h622822847ebd61beE(ptr noalias noundef readonly align 8 captures(address) dereferenceable(48) %_7, i1 noundef zeroext false, ptr noalias noundef readonly align 8 captures(address, read_provenance) dereferenceable(24) %0) #24
  unreachable

bb1:                                              ; preds = %start
  %_5 = icmp ule i64 %end, %len
  %11 = call i1 @llvm.expect.i1(i1 %_5, i1 true)
  br i1 %11, label %bb2, label %bb3

bb2:                                              ; preds = %bb1
  ret void
}

; <core::ops::range::RangeFrom<usize> as core::slice::index::SliceIndex<[T]>>::index
; Function Attrs: inlinehint nonlazybind uwtable
define internal { ptr, i64 } @"_ZN110_$LT$core..ops..range..RangeFrom$LT$usize$GT$$u20$as$u20$core..slice..index..SliceIndex$LT$$u5b$T$u5d$$GT$$GT$5index17hd3070f85ccd152a3E"(i64 noundef %self, ptr noalias noundef nonnull readonly align 1 captures(address, read_provenance) %slice.0, i64 noundef %slice.1, ptr noalias noundef readonly align 8 captures(address, read_provenance) dereferenceable(24) %0) unnamed_addr #1 {
start:
  %_3 = icmp ugt i64 %self, %slice.1
  %1 = call i1 @llvm.expect.i1(i1 %_3, i1 false)
  br i1 %1, label %bb1, label %bb2

bb2:                                              ; preds = %start
  br label %bb4

bb1:                                              ; preds = %start
; call core::slice::index::slice_index_fail
  call void @_ZN4core5slice5index16slice_index_fail17hfe436548ecebea33E(i64 noundef %self, i64 noundef %slice.1, i64 noundef %slice.1, ptr noalias noundef readonly align 8 captures(address, read_provenance) dereferenceable(24) %0) #25
  unreachable

bb4:                                              ; preds = %bb2
  %new_len = sub nuw i64 %slice.1, %self
  %_13 = getelementptr inbounds nuw i8, ptr %slice.0, i64 %self
  %2 = insertvalue { ptr, i64 } poison, ptr %_13, 0
  %3 = insertvalue { ptr, i64 } %2, i64 %new_len, 1
  ret { ptr, i64 } %3

bb3:                                              ; No predecessors!
  unreachable
}

; <core::iter::adapters::zip::Zip<A,B> as core::iter::adapters::zip::ZipImpl<A,B>>::new
; Function Attrs: nonlazybind uwtable
define internal void @"_ZN111_$LT$core..iter..adapters..zip..Zip$LT$A$C$B$GT$$u20$as$u20$core..iter..adapters..zip..ZipImpl$LT$A$C$B$GT$$GT$3new17h86c6711900ad883bE"(ptr dead_on_unwind noalias noundef writable sret([48 x i8]) align 8 captures(address) dereferenceable(48) %_0, ptr noundef nonnull %0, ptr noundef %1, ptr noundef nonnull %2, ptr noundef %3) unnamed_addr #0 personality ptr @rust_eh_personality {
start:
  %4 = alloca [16 x i8], align 8
  %b = alloca [16 x i8], align 8
  %a = alloca [16 x i8], align 8
  store ptr %0, ptr %a, align 8
  %5 = getelementptr inbounds i8, ptr %a, i64 8
  store ptr %1, ptr %5, align 8
  store ptr %2, ptr %b, align 8
  %6 = getelementptr inbounds i8, ptr %b, i64 8
  store ptr %3, ptr %6, align 8
; invoke core::iter::adapters::zip::TrustedRandomAccessNoCoerce::size
  %v1 = invoke noundef i64 @_ZN4core4iter8adapters3zip27TrustedRandomAccessNoCoerce4size17hc1bf337ec46ba0d1E(ptr noalias noundef readonly align 8 captures(address, read_provenance) dereferenceable(16) %a)
          to label %bb1 unwind label %cleanup

bb3:                                              ; preds = %cleanup
  %7 = load ptr, ptr %4, align 8, !noundef !4
  %8 = getelementptr inbounds i8, ptr %4, i64 8
  %9 = load i32, ptr %8, align 8, !noundef !4
  call void @llvm.lifetime.end.p0(i64 16, ptr %4)
  %10 = insertvalue { ptr, i32 } poison, ptr %7, 0
  %11 = insertvalue { ptr, i32 } %10, i32 %9, 1
  resume { ptr, i32 } %11

cleanup:                                          ; preds = %bb2, %bb1, %start
  %12 = landingpad { ptr, i32 }
          cleanup
  %13 = extractvalue { ptr, i32 } %12, 0
  %14 = extractvalue { ptr, i32 } %12, 1
  call void @llvm.lifetime.start.p0(i64 16, ptr %4)
  store ptr %13, ptr %4, align 8
  %15 = getelementptr inbounds i8, ptr %4, i64 8
  store i32 %14, ptr %15, align 8
  br label %bb3

bb1:                                              ; preds = %start
; invoke core::iter::adapters::zip::TrustedRandomAccessNoCoerce::size
  %v2 = invoke noundef i64 @_ZN4core4iter8adapters3zip27TrustedRandomAccessNoCoerce4size17hc1bf337ec46ba0d1E(ptr noalias noundef readonly align 8 captures(address, read_provenance) dereferenceable(16) %b)
          to label %bb2 unwind label %cleanup

bb2:                                              ; preds = %bb1
; invoke core::cmp::Ord::min
  %len = invoke noundef i64 @_ZN4core3cmp3Ord3min17h1f42a01c097db870E(i64 noundef %v1, i64 noundef %v2)
          to label %bb6 unwind label %cleanup

bb6:                                              ; preds = %bb2
  %_8.0 = load ptr, ptr %a, align 8, !nonnull !4, !noundef !4
  %16 = getelementptr inbounds i8, ptr %a, i64 8
  %_8.1 = load ptr, ptr %16, align 8, !noundef !4
  %_9.0 = load ptr, ptr %b, align 8, !nonnull !4, !noundef !4
  %17 = getelementptr inbounds i8, ptr %b, i64 8
  %_9.1 = load ptr, ptr %17, align 8, !noundef !4
  store ptr %_8.0, ptr %_0, align 8
  %18 = getelementptr inbounds i8, ptr %_0, i64 8
  store ptr %_8.1, ptr %18, align 8
  %19 = getelementptr inbounds i8, ptr %_0, i64 16
  store ptr %_9.0, ptr %19, align 8
  %20 = getelementptr inbounds i8, ptr %19, i64 8
  store ptr %_9.1, ptr %20, align 8
  %21 = getelementptr inbounds i8, ptr %_0, i64 32
  store i64 0, ptr %21, align 8
  %22 = getelementptr inbounds i8, ptr %_0, i64 40
  store i64 %len, ptr %22, align 8
  ret void
}

; <core::iter::adapters::zip::Zip<A,B> as core::iter::adapters::zip::ZipImpl<A,B>>::next
; Function Attrs: inlinehint nonlazybind uwtable
define internal { ptr, ptr } @"_ZN111_$LT$core..iter..adapters..zip..Zip$LT$A$C$B$GT$$u20$as$u20$core..iter..adapters..zip..ZipImpl$LT$A$C$B$GT$$GT$4next17h9a990b9beaabc737E"(ptr noalias noundef align 8 dereferenceable(48) %self) unnamed_addr #1 personality ptr @rust_eh_personality {
start:
  %0 = alloca [16 x i8], align 8
  %_0 = alloca [16 x i8], align 8
  %1 = getelementptr inbounds i8, ptr %self, i64 32
  %_3 = load i64, ptr %1, align 8, !noundef !4
  %2 = getelementptr inbounds i8, ptr %self, i64 40
  %_4 = load i64, ptr %2, align 8, !noundef !4
  %_2 = icmp ult i64 %_3, %_4
  br i1 %_2, label %bb1, label %bb4

bb4:                                              ; preds = %start
  store ptr null, ptr %_0, align 8
  br label %bb5

bb1:                                              ; preds = %start
  %3 = getelementptr inbounds i8, ptr %self, i64 32
  %i = load i64, ptr %3, align 8, !noundef !4
  %4 = getelementptr inbounds i8, ptr %self, i64 32
  %5 = getelementptr inbounds i8, ptr %self, i64 32
  %6 = load i64, ptr %5, align 8, !noundef !4
  %7 = add i64 %6, 1
  store i64 %7, ptr %4, align 8
; call <core::slice::iter::Iter<T> as core::iter::traits::iterator::Iterator>::__iterator_get_unchecked
  %_7 = call noundef align 1 dereferenceable(1) ptr @"_ZN91_$LT$core..slice..iter..Iter$LT$T$GT$$u20$as$u20$core..iter..traits..iterator..Iterator$GT$24__iterator_get_unchecked17h6b8bb0bcdb53f7a1E"(ptr noalias noundef align 8 dereferenceable(16) %self, i64 noundef %i)
  %_10 = getelementptr inbounds i8, ptr %self, i64 16
; invoke <core::slice::iter::Iter<T> as core::iter::traits::iterator::Iterator>::__iterator_get_unchecked
  %_9 = invoke noundef align 1 dereferenceable(1) ptr @"_ZN91_$LT$core..slice..iter..Iter$LT$T$GT$$u20$as$u20$core..iter..traits..iterator..Iterator$GT$24__iterator_get_unchecked17h6b8bb0bcdb53f7a1E"(ptr noalias noundef align 8 dereferenceable(16) %_10, i64 noundef %i)
          to label %bb3 unwind label %cleanup

bb5:                                              ; preds = %bb3, %bb4
  %8 = load ptr, ptr %_0, align 8, !align !6, !noundef !4
  %9 = getelementptr inbounds i8, ptr %_0, i64 8
  %10 = load ptr, ptr %9, align 8
  %11 = insertvalue { ptr, ptr } poison, ptr %8, 0
  %12 = insertvalue { ptr, ptr } %11, ptr %10, 1
  ret { ptr, ptr } %12

bb6:                                              ; preds = %cleanup
  %13 = load ptr, ptr %0, align 8, !noundef !4
  %14 = getelementptr inbounds i8, ptr %0, i64 8
  %15 = load i32, ptr %14, align 8, !noundef !4
  call void @llvm.lifetime.end.p0(i64 16, ptr %0)
  %16 = insertvalue { ptr, i32 } poison, ptr %13, 0
  %17 = insertvalue { ptr, i32 } %16, i32 %15, 1
  resume { ptr, i32 } %17

cleanup:                                          ; preds = %bb1
  %18 = landingpad { ptr, i32 }
          cleanup
  %19 = extractvalue { ptr, i32 } %18, 0
  %20 = extractvalue { ptr, i32 } %18, 1
  call void @llvm.lifetime.start.p0(i64 16, ptr %0)
  store ptr %19, ptr %0, align 8
  %21 = getelementptr inbounds i8, ptr %0, i64 8
  store i32 %20, ptr %21, align 8
  br label %bb6

bb3:                                              ; preds = %bb1
  store ptr %_7, ptr %_0, align 8
  %22 = getelementptr inbounds i8, ptr %_0, i64 8
  store ptr %_9, ptr %22, align 8
  br label %bb5
}

; <alloc::collections::btree::map::BTreeMap<K,V,A> as core::iter::traits::collect::IntoIterator>::into_iter
; Function Attrs: nonlazybind uwtable
define internal void @"_ZN119_$LT$alloc..collections..btree..map..BTreeMap$LT$K$C$V$C$A$GT$$u20$as$u20$core..iter..traits..collect..IntoIterator$GT$9into_iter17h96029145a076269dE"(ptr dead_on_unwind noalias noundef writable sret([72 x i8]) align 8 captures(address) dereferenceable(72) %_0, ptr dead_on_return noalias noundef align 8 captures(address) dereferenceable(24) %self) unnamed_addr #0 {
start:
  %_20 = alloca [32 x i8], align 8
  %_19 = alloca [24 x i8], align 8
  %_18 = alloca [32 x i8], align 8
  %_14 = alloca [64 x i8], align 8
  %full_range = alloca [64 x i8], align 8
  %_3 = alloca [16 x i8], align 8
  %me = alloca [24 x i8], align 8
  call void @llvm.lifetime.start.p0(i64 24, ptr %me)
  call void @llvm.memcpy.p0.p0.i64(ptr align 8 %me, ptr align 8 %self, i64 24, i1 false)
  call void @llvm.lifetime.start.p0(i64 16, ptr %_3)
  %0 = load ptr, ptr %me, align 8, !noundef !4
  %1 = getelementptr inbounds i8, ptr %me, i64 8
  %2 = load i64, ptr %1, align 8
  store ptr %0, ptr %_3, align 8
  %3 = getelementptr inbounds i8, ptr %_3, i64 8
  store i64 %2, ptr %3, align 8
  %4 = load ptr, ptr @anon.44dec03a02d03ef7c616543621cbcdfc.0, align 8, !noundef !4
  %5 = load i64, ptr getelementptr inbounds (i8, ptr @anon.44dec03a02d03ef7c616543621cbcdfc.0, i64 8), align 8
  store ptr %4, ptr %me, align 8
  %6 = getelementptr inbounds i8, ptr %me, i64 8
  store i64 %5, ptr %6, align 8
  %7 = load ptr, ptr %_3, align 8, !noundef !4
  %8 = getelementptr inbounds i8, ptr %_3, i64 8
  %9 = load i64, ptr %8, align 8
  %10 = ptrtoint ptr %7 to i64
  %11 = icmp eq i64 %10, 0
  %_6 = select i1 %11, i64 0, i64 1
  %12 = trunc nuw i64 %_6 to i1
  br i1 %12, label %bb1, label %bb2

bb1:                                              ; preds = %start
  %13 = getelementptr inbounds i8, ptr %_3, i64 8
  %root = load i64, ptr %13, align 8, !noundef !4
  %root1 = load ptr, ptr %_3, align 8, !nonnull !4, !noundef !4
  %14 = getelementptr inbounds i8, ptr %_19, i64 8
  store ptr %root1, ptr %14, align 8
  %15 = getelementptr inbounds i8, ptr %14, i64 8
  store i64 %root, ptr %15, align 8
  store ptr null, ptr %_19, align 8
  %16 = getelementptr inbounds i8, ptr %_18, i64 8
  call void @llvm.memcpy.p0.p0.i64(ptr align 8 %16, ptr align 8 %_19, i64 24, i1 false)
  store i64 1, ptr %_18, align 8
  call void @llvm.memcpy.p0.p0.i64(ptr align 8 %full_range, ptr align 8 %_18, i64 32, i1 false)
  %17 = getelementptr inbounds i8, ptr %full_range, i64 32
  call void @llvm.memcpy.p0.p0.i64(ptr align 8 %17, ptr align 8 %_18, i64 32, i1 false)
  %18 = getelementptr inbounds i8, ptr %me, i64 16
  %_9 = load i64, ptr %18, align 8, !noundef !4
  %slot = getelementptr inbounds i8, ptr %me, i64 24
  call void @llvm.memcpy.p0.p0.i64(ptr align 8 %_0, ptr align 8 %full_range, i64 64, i1 false)
  %19 = getelementptr inbounds i8, ptr %_0, i64 64
  store i64 %_9, ptr %19, align 8
  call void @llvm.lifetime.end.p0(i64 16, ptr %_3)
  br label %bb3

bb2:                                              ; preds = %start
  call void @llvm.lifetime.end.p0(i64 16, ptr %_3)
  call void @llvm.lifetime.start.p0(i64 64, ptr %_14)
  call void @llvm.lifetime.start.p0(i64 32, ptr %_20)
  store i64 0, ptr %_20, align 8
  call void @llvm.memcpy.p0.p0.i64(ptr align 8 %_14, ptr align 8 %_20, i64 32, i1 false)
  %20 = getelementptr inbounds i8, ptr %_14, i64 32
  call void @llvm.memcpy.p0.p0.i64(ptr align 8 %20, ptr align 8 %_20, i64 32, i1 false)
  call void @llvm.lifetime.end.p0(i64 32, ptr %_20)
  %slot2 = getelementptr inbounds i8, ptr %me, i64 24
  call void @llvm.memcpy.p0.p0.i64(ptr align 8 %_0, ptr align 8 %_14, i64 64, i1 false)
  %21 = getelementptr inbounds i8, ptr %_0, i64 64
  store i64 0, ptr %21, align 8
  call void @llvm.lifetime.end.p0(i64 64, ptr %_14)
  br label %bb3

bb3:                                              ; preds = %bb2, %bb1
  call void @llvm.lifetime.end.p0(i64 24, ptr %me)
  ret void

bb4:                                              ; No predecessors!
  unreachable
}

; find_msvc_tools::find_tools::<impl core::convert::From<find_msvc_tools::find_tools::Env> for std::path::PathBuf>::from
; Function Attrs: nonlazybind uwtable
define void @"_ZN15find_msvc_tools10find_tools108_$LT$impl$u20$core..convert..From$LT$find_msvc_tools..find_tools..Env$GT$$u20$for$u20$std..path..PathBuf$GT$4from17h2e176f550b74a068E"(ptr dead_on_unwind noalias noundef writable sret([24 x i8]) align 8 captures(address) dereferenceable(24) %_0, ptr dead_on_return noalias noundef readonly align 8 captures(address) dereferenceable(24) %env) unnamed_addr #0 personality ptr @rust_eh_personality {
start:
  %0 = alloca [16 x i8], align 8
  %_9 = alloca [24 x i8], align 8
  %_8 = alloca [24 x i8], align 8
  %_7 = alloca [24 x i8], align 8
  %os_str1 = alloca [16 x i8], align 8
  %os_str = alloca [24 x i8], align 8
  %1 = load i64, ptr %env, align 8, !range !3, !noundef !4
  %2 = icmp eq i64 %1, -9223372036854775808
  %_2 = select i1 %2, i64 1, i64 0
  %3 = trunc nuw i64 %_2 to i1
  br i1 %3, label %bb2, label %bb3

bb2:                                              ; preds = %start
  call void @llvm.lifetime.start.p0(i64 16, ptr %os_str1)
  %4 = getelementptr inbounds i8, ptr %env, i64 8
  %5 = load ptr, ptr %4, align 8, !nonnull !4, !noundef !4
  %6 = getelementptr inbounds i8, ptr %4, i64 8
  %7 = load i64, ptr %6, align 8, !noundef !4
  store ptr %5, ptr %os_str1, align 8
  %8 = getelementptr inbounds i8, ptr %os_str1, i64 8
  store i64 %7, ptr %8, align 8
  %_6.0 = load ptr, ptr %os_str1, align 8, !nonnull !4, !noundef !4
  %9 = getelementptr inbounds i8, ptr %os_str1, i64 8
  %_6.1 = load i64, ptr %9, align 8, !noundef !4
  %10 = icmp ne ptr %_6.0, null
  call void @llvm.assume(i1 %10)
  call void @llvm.lifetime.start.p0(i64 24, ptr %_7)
  call void @llvm.lifetime.start.p0(i64 24, ptr %_8)
  call void @llvm.lifetime.start.p0(i64 24, ptr %_9)
  %11 = mul nuw nsw i64 %_6.1, 1
  %12 = add i64 0, %11
  %13 = add i64 %12, 0
  %14 = and i64 %13, -1
  %15 = add i64 0, %14
  %16 = add i64 %15, 0
  %17 = and i64 %16, -1
  %_10.0 = getelementptr inbounds i8, ptr %_6.0, i64 16
; invoke <T as alloc::slice::<impl [T]>::to_vec_in::ConvertVec>::to_vec
  invoke void @"_ZN87_$LT$T$u20$as$u20$alloc..slice..$LT$impl$u20$$u5b$T$u5d$$GT$..to_vec_in..ConvertVec$GT$6to_vec17hca171c507f6ba10aE"(ptr noalias noundef sret([24 x i8]) align 8 captures(address) dereferenceable(24) %_9, ptr noalias noundef nonnull readonly align 1 captures(address, read_provenance) %_10.0, i64 noundef %_6.1)
          to label %bb8 unwind label %cleanup

bb3:                                              ; preds = %start
  call void @llvm.memcpy.p0.p0.i64(ptr align 8 %os_str, ptr align 8 %env, i64 24, i1 false)
  call void @llvm.memcpy.p0.p0.i64(ptr align 8 %_0, ptr align 8 %os_str, i64 24, i1 false)
  br label %bb6

bb6:                                              ; preds = %bb8, %bb3
  ret void

bb5:                                              ; preds = %cleanup
; invoke core::ptr::drop_in_place<alloc::sync::Arc<std::ffi::os_str::OsStr>>
  invoke void @"_ZN4core3ptr68drop_in_place$LT$alloc..sync..Arc$LT$std..ffi..os_str..OsStr$GT$$GT$17h4ee3a8e115d73d7aE"(ptr noalias noundef align 8 dereferenceable(16) %os_str1) #26
          to label %bb7 unwind label %terminate

cleanup:                                          ; preds = %bb2
  %18 = landingpad { ptr, i32 }
          cleanup
  %19 = extractvalue { ptr, i32 } %18, 0
  %20 = extractvalue { ptr, i32 } %18, 1
  call void @llvm.lifetime.start.p0(i64 16, ptr %0)
  store ptr %19, ptr %0, align 8
  %21 = getelementptr inbounds i8, ptr %0, i64 8
  store i32 %20, ptr %21, align 8
  br label %bb5

bb8:                                              ; preds = %bb2
  call void @llvm.memcpy.p0.p0.i64(ptr align 8 %_8, ptr align 8 %_9, i64 24, i1 false)
  call void @llvm.lifetime.end.p0(i64 24, ptr %_9)
  call void @llvm.memcpy.p0.p0.i64(ptr align 8 %_7, ptr align 8 %_8, i64 24, i1 false)
  call void @llvm.lifetime.end.p0(i64 24, ptr %_8)
  call void @llvm.memcpy.p0.p0.i64(ptr align 8 %_0, ptr align 8 %_7, i64 24, i1 false)
  call void @llvm.lifetime.end.p0(i64 24, ptr %_7)
; call core::ptr::drop_in_place<alloc::sync::Arc<std::ffi::os_str::OsStr>>
  call void @"_ZN4core3ptr68drop_in_place$LT$alloc..sync..Arc$LT$std..ffi..os_str..OsStr$GT$$GT$17h4ee3a8e115d73d7aE"(ptr noalias noundef align 8 dereferenceable(16) %os_str1)
  call void @llvm.lifetime.end.p0(i64 16, ptr %os_str1)
  br label %bb6

terminate:                                        ; preds = %bb5
  %22 = landingpad { ptr, i32 }
          filter [0 x ptr] zeroinitializer
; call core::panicking::panic_in_cleanup
  call void @_ZN4core9panicking16panic_in_cleanup17h5eff40bcc4481d72E() #27
  unreachable

bb7:                                              ; preds = %bb5
  %23 = load ptr, ptr %0, align 8, !noundef !4
  %24 = getelementptr inbounds i8, ptr %0, i64 8
  %25 = load i32, ptr %24, align 8, !noundef !4
  call void @llvm.lifetime.end.p0(i64 16, ptr %0)
  %26 = insertvalue { ptr, i32 } poison, ptr %23, 0
  %27 = insertvalue { ptr, i32 } %26, i32 %25, 1
  resume { ptr, i32 } %27

bb1:                                              ; No predecessors!
  unreachable
}

; find_msvc_tools::find_tools::TargetArch::new
; Function Attrs: nonlazybind uwtable
define internal noundef range(i8 0, 6) i8 @_ZN15find_msvc_tools10find_tools10TargetArch3new17h019f96dcdd27b76dE(ptr noalias noundef nonnull readonly align 1 captures(address, read_provenance) %arch.0, i64 noundef %arch.1) unnamed_addr #0 {
start:
  %0 = alloca [4 x i8], align 4
  %1 = alloca [8 x i8], align 8
  %2 = alloca [4 x i8], align 4
  %3 = alloca [8 x i8], align 8
  %4 = alloca [4 x i8], align 4
  %5 = alloca [8 x i8], align 8
  %6 = alloca [4 x i8], align 4
  %7 = alloca [8 x i8], align 8
  %8 = alloca [4 x i8], align 4
  %9 = alloca [8 x i8], align 8
  %10 = alloca [4 x i8], align 4
  %11 = alloca [8 x i8], align 8
  %12 = alloca [4 x i8], align 4
  %13 = alloca [8 x i8], align 8
  %14 = alloca [4 x i8], align 4
  %15 = alloca [8 x i8], align 8
  %16 = alloca [4 x i8], align 4
  %17 = alloca [8 x i8], align 8
  %18 = alloca [4 x i8], align 4
  %19 = alloca [8 x i8], align 8
  %_0 = alloca [1 x i8], align 1
  %_14 = icmp ne i64 %arch.1, 3
  br i1 %_14, label %bb17, label %bb18

bb18:                                             ; preds = %start
  call void @llvm.lifetime.start.p0(i64 8, ptr %19)
  %20 = mul nuw nsw i64 %arch.1, 1
  store i64 %20, ptr %19, align 8
  %_17 = load i64, ptr %19, align 8, !noundef !4
  call void @llvm.lifetime.end.p0(i64 8, ptr %19)
  call void @llvm.lifetime.start.p0(i64 4, ptr %18)
  %21 = call i32 @memcmp(ptr %arch.0, ptr @alloc_643f7782d991ad79bd79ba2d2c668a4c, i64 %_17)
  store i32 %21, ptr %18, align 4
  %_18 = load i32, ptr %18, align 4, !noundef !4
  call void @llvm.lifetime.end.p0(i64 4, ptr %18)
  %_11 = icmp eq i32 %_18, 0
  br i1 %_11, label %bb15, label %bb2

bb17:                                             ; preds = %start
  br label %bb2

bb2:                                              ; preds = %bb17, %bb18
  %_25 = icmp ne i64 %arch.1, 6
  br i1 %_25, label %bb21, label %bb22

bb15:                                             ; preds = %bb22, %bb18
  store i8 1, ptr %_0, align 1
  br label %bb16

bb22:                                             ; preds = %bb2
  call void @llvm.lifetime.start.p0(i64 8, ptr %17)
  %22 = mul nuw nsw i64 %arch.1, 1
  store i64 %22, ptr %17, align 8
  %_27 = load i64, ptr %17, align 8, !noundef !4
  call void @llvm.lifetime.end.p0(i64 8, ptr %17)
  call void @llvm.lifetime.start.p0(i64 4, ptr %16)
  %23 = call i32 @memcmp(ptr %arch.0, ptr @alloc_97ea9fc425ea3c7752d1c5ba5dd6dd88, i64 %_27)
  store i32 %23, ptr %16, align 4
  %_28 = load i32, ptr %16, align 4, !noundef !4
  call void @llvm.lifetime.end.p0(i64 4, ptr %16)
  %_10 = icmp eq i32 %_28, 0
  br i1 %_10, label %bb15, label %bb3

bb21:                                             ; preds = %bb2
  br label %bb3

bb3:                                              ; preds = %bb21, %bb22
  %_35 = icmp ne i64 %arch.1, 5
  br i1 %_35, label %bb25, label %bb26

bb16:                                             ; preds = %bb1, %bb12, %bb13, %bb6, %bb14, %bb15
  %24 = load i8, ptr %_0, align 1, !range !7, !noundef !4
  ret i8 %24

bb26:                                             ; preds = %bb3
  call void @llvm.lifetime.start.p0(i64 8, ptr %15)
  %25 = mul nuw nsw i64 %arch.1, 1
  store i64 %25, ptr %15, align 8
  %_37 = load i64, ptr %15, align 8, !noundef !4
  call void @llvm.lifetime.end.p0(i64 8, ptr %15)
  call void @llvm.lifetime.start.p0(i64 4, ptr %14)
  %26 = call i32 @memcmp(ptr %arch.0, ptr @alloc_902cf81a6d418c2063e2efdd4bdd7c78, i64 %_37)
  store i32 %26, ptr %14, align 4
  %_38 = load i32, ptr %14, align 4, !noundef !4
  call void @llvm.lifetime.end.p0(i64 4, ptr %14)
  %_9 = icmp eq i32 %_38, 0
  br i1 %_9, label %bb14, label %bb4

bb25:                                             ; preds = %bb3
  br label %bb4

bb4:                                              ; preds = %bb25, %bb26
  %_45 = icmp ne i64 %arch.1, 7
  br i1 %_45, label %bb29, label %bb30

bb14:                                             ; preds = %bb30, %bb26
  store i8 3, ptr %_0, align 1
  br label %bb16

bb30:                                             ; preds = %bb4
  call void @llvm.lifetime.start.p0(i64 8, ptr %13)
  %27 = mul nuw nsw i64 %arch.1, 1
  store i64 %27, ptr %13, align 8
  %_47 = load i64, ptr %13, align 8, !noundef !4
  call void @llvm.lifetime.end.p0(i64 8, ptr %13)
  call void @llvm.lifetime.start.p0(i64 4, ptr %12)
  %28 = call i32 @memcmp(ptr %arch.0, ptr @alloc_708437d7a9a3b1bed2b2fbb27ca99947, i64 %_47)
  store i32 %28, ptr %12, align 4
  %_48 = load i32, ptr %12, align 4, !noundef !4
  call void @llvm.lifetime.end.p0(i64 4, ptr %12)
  %_8 = icmp eq i32 %_48, 0
  br i1 %_8, label %bb14, label %bb5

bb29:                                             ; preds = %bb4
  br label %bb5

bb5:                                              ; preds = %bb29, %bb30
  %_55 = icmp ne i64 %arch.1, 7
  br i1 %_55, label %bb33, label %bb34

bb34:                                             ; preds = %bb5
  call void @llvm.lifetime.start.p0(i64 8, ptr %11)
  %29 = mul nuw nsw i64 %arch.1, 1
  store i64 %29, ptr %11, align 8
  %_57 = load i64, ptr %11, align 8, !noundef !4
  call void @llvm.lifetime.end.p0(i64 8, ptr %11)
  call void @llvm.lifetime.start.p0(i64 4, ptr %10)
  %30 = call i32 @memcmp(ptr %arch.0, ptr @alloc_77091ef4013986fd40216f126dabc12f, i64 %_57)
  store i32 %30, ptr %10, align 4
  %_58 = load i32, ptr %10, align 4, !noundef !4
  call void @llvm.lifetime.end.p0(i64 4, ptr %10)
  %_7 = icmp eq i32 %_58, 0
  br i1 %_7, label %bb6, label %bb7

bb33:                                             ; preds = %bb5
  br label %bb7

bb7:                                              ; preds = %bb33, %bb34
  %_65 = icmp ne i64 %arch.1, 3
  br i1 %_65, label %bb37, label %bb38

bb6:                                              ; preds = %bb34
  store i8 4, ptr %_0, align 1
  br label %bb16

bb38:                                             ; preds = %bb7
  call void @llvm.lifetime.start.p0(i64 8, ptr %9)
  %31 = mul nuw nsw i64 %arch.1, 1
  store i64 %31, ptr %9, align 8
  %_67 = load i64, ptr %9, align 8, !noundef !4
  call void @llvm.lifetime.end.p0(i64 8, ptr %9)
  call void @llvm.lifetime.start.p0(i64 4, ptr %8)
  %32 = call i32 @memcmp(ptr %arch.0, ptr @alloc_de5ab4e2afa2804d1a733c1ad824af99, i64 %_67)
  store i32 %32, ptr %8, align 4
  %_68 = load i32, ptr %8, align 4, !noundef !4
  call void @llvm.lifetime.end.p0(i64 4, ptr %8)
  %_6 = icmp eq i32 %_68, 0
  br i1 %_6, label %bb13, label %bb8

bb37:                                             ; preds = %bb7
  br label %bb8

bb8:                                              ; preds = %bb37, %bb38
  %_75 = icmp ne i64 %arch.1, 4
  br i1 %_75, label %bb41, label %bb42

bb13:                                             ; preds = %bb46, %bb42, %bb38
  store i8 0, ptr %_0, align 1
  br label %bb16

bb42:                                             ; preds = %bb8
  call void @llvm.lifetime.start.p0(i64 8, ptr %7)
  %33 = mul nuw nsw i64 %arch.1, 1
  store i64 %33, ptr %7, align 8
  %_77 = load i64, ptr %7, align 8, !noundef !4
  call void @llvm.lifetime.end.p0(i64 8, ptr %7)
  call void @llvm.lifetime.start.p0(i64 4, ptr %6)
  %34 = call i32 @memcmp(ptr %arch.0, ptr @alloc_673aaa5b29fe2e169c9bc7d4a86cb0c3, i64 %_77)
  store i32 %34, ptr %6, align 4
  %_78 = load i32, ptr %6, align 4, !noundef !4
  call void @llvm.lifetime.end.p0(i64 4, ptr %6)
  %_5 = icmp eq i32 %_78, 0
  br i1 %_5, label %bb13, label %bb9

bb41:                                             ; preds = %bb8
  br label %bb9

bb9:                                              ; preds = %bb41, %bb42
  %_85 = icmp ne i64 %arch.1, 4
  br i1 %_85, label %bb45, label %bb46

bb46:                                             ; preds = %bb9
  call void @llvm.lifetime.start.p0(i64 8, ptr %5)
  %35 = mul nuw nsw i64 %arch.1, 1
  store i64 %35, ptr %5, align 8
  %_87 = load i64, ptr %5, align 8, !noundef !4
  call void @llvm.lifetime.end.p0(i64 8, ptr %5)
  call void @llvm.lifetime.start.p0(i64 4, ptr %4)
  %36 = call i32 @memcmp(ptr %arch.0, ptr @alloc_e4250c89692f9a3aef523af36427f57d, i64 %_87)
  store i32 %36, ptr %4, align 4
  %_88 = load i32, ptr %4, align 4, !noundef !4
  call void @llvm.lifetime.end.p0(i64 4, ptr %4)
  %_4 = icmp eq i32 %_88, 0
  br i1 %_4, label %bb13, label %bb10

bb45:                                             ; preds = %bb9
  br label %bb10

bb10:                                             ; preds = %bb45, %bb46
  %_95 = icmp ne i64 %arch.1, 3
  br i1 %_95, label %bb49, label %bb50

bb50:                                             ; preds = %bb10
  call void @llvm.lifetime.start.p0(i64 8, ptr %3)
  %37 = mul nuw nsw i64 %arch.1, 1
  store i64 %37, ptr %3, align 8
  %_97 = load i64, ptr %3, align 8, !noundef !4
  call void @llvm.lifetime.end.p0(i64 8, ptr %3)
  call void @llvm.lifetime.start.p0(i64 4, ptr %2)
  %38 = call i32 @memcmp(ptr %arch.0, ptr @alloc_d9036dbef1cc78d0c3562113c2babf56, i64 %_97)
  store i32 %38, ptr %2, align 4
  %_98 = load i32, ptr %2, align 4, !noundef !4
  call void @llvm.lifetime.end.p0(i64 4, ptr %2)
  %_3 = icmp eq i32 %_98, 0
  br i1 %_3, label %bb12, label %bb11

bb49:                                             ; preds = %bb10
  br label %bb11

bb11:                                             ; preds = %bb49, %bb50
  %_105 = icmp ne i64 %arch.1, 8
  br i1 %_105, label %bb53, label %bb54

bb12:                                             ; preds = %bb54, %bb50
  store i8 2, ptr %_0, align 1
  br label %bb16

bb54:                                             ; preds = %bb11
  call void @llvm.lifetime.start.p0(i64 8, ptr %1)
  %39 = mul nuw nsw i64 %arch.1, 1
  store i64 %39, ptr %1, align 8
  %_107 = load i64, ptr %1, align 8, !noundef !4
  call void @llvm.lifetime.end.p0(i64 8, ptr %1)
  call void @llvm.lifetime.start.p0(i64 4, ptr %0)
  %40 = call i32 @memcmp(ptr %arch.0, ptr @alloc_f33c6662c87959700862e0731dde2345, i64 %_107)
  store i32 %40, ptr %0, align 4
  %_108 = load i32, ptr %0, align 4, !noundef !4
  call void @llvm.lifetime.end.p0(i64 4, ptr %0)
  %_2 = icmp eq i32 %_108, 0
  br i1 %_2, label %bb12, label %bb1

bb53:                                             ; preds = %bb11
  br label %bb1

bb1:                                              ; preds = %bb53, %bb54
  store i8 5, ptr %_0, align 1
  br label %bb16
}

; find_msvc_tools::find_tools::find_vs_version
; Function Attrs: nonlazybind uwtable
define void @_ZN15find_msvc_tools10find_tools15find_vs_version17h767acab0ab0617b1E(ptr dead_on_unwind noalias noundef writable sret([24 x i8]) align 8 captures(address) dereferenceable(24) %_0) unnamed_addr #0 personality ptr @rust_eh_personality {
start:
  %0 = alloca [16 x i8], align 8
  %1 = alloca [4 x i8], align 4
  %2 = alloca [8 x i8], align 8
  %3 = alloca [4 x i8], align 4
  %4 = alloca [8 x i8], align 8
  %5 = alloca [4 x i8], align 4
  %6 = alloca [8 x i8], align 8
  %7 = alloca [4 x i8], align 4
  %8 = alloca [8 x i8], align 8
  %_76 = alloca [24 x i8], align 8
  %_35 = alloca [16 x i8], align 8
  %_14 = alloca [24 x i8], align 8
  %_12 = alloca [16 x i8], align 8
  %args = alloca [16 x i8], align 8
  %_10 = alloca [48 x i8], align 8
  %_9 = alloca [24 x i8], align 8
  %_8 = alloca [16 x i8], align 8
  %version = alloca [24 x i8], align 8
  %_1 = alloca [32 x i8], align 8
  call void @llvm.lifetime.start.p0(i64 32, ptr %_1)
; call std::env::var
  call void @_ZN3std3env3var17h1ff4c608ea901502E(ptr noalias noundef sret([32 x i8]) align 8 captures(address) dereferenceable(32) %_1, ptr noalias noundef nonnull readonly align 1 captures(address, read_provenance) @alloc_913d07a29c91f086277fcece161be651, i64 noundef 19)
  %_2 = load i64, ptr %_1, align 8, !range !8, !noundef !4
  %9 = trunc nuw i64 %_2 to i1
  br i1 %9, label %bb13, label %bb2

bb13:                                             ; preds = %start
  call void @llvm.lifetime.start.p0(i64 24, ptr %_14)
  call void @llvm.lifetime.start.p0(i64 24, ptr %_76)
; invoke <T as alloc::slice::<impl [T]>::to_vec_in::ConvertVec>::to_vec
  invoke void @"_ZN87_$LT$T$u20$as$u20$alloc..slice..$LT$impl$u20$$u5b$T$u5d$$GT$..to_vec_in..ConvertVec$GT$6to_vec17hca171c507f6ba10aE"(ptr noalias noundef sret([24 x i8]) align 8 captures(address) dereferenceable(24) %_76, ptr noalias noundef nonnull readonly align 1 captures(address, read_provenance) @alloc_7c9b26184241b4a5a6cf41b356f60cd3, i64 noundef 158)
          to label %bb38 unwind label %cleanup1

bb2:                                              ; preds = %start
  call void @llvm.lifetime.start.p0(i64 24, ptr %version)
  %10 = getelementptr inbounds i8, ptr %_1, i64 8
  call void @llvm.memcpy.p0.p0.i64(ptr align 8 %version, ptr align 8 %10, i64 24, i1 false)
  %11 = getelementptr inbounds i8, ptr %version, i64 8
  %_21 = load ptr, ptr %11, align 8, !nonnull !4, !noundef !4
  %12 = icmp ne ptr %_21, null
  call void @llvm.assume(i1 %12)
  %13 = getelementptr inbounds i8, ptr %version, i64 16
  %_20 = load i64, ptr %13, align 8, !noundef !4
  %_25 = icmp ne i64 %_20, 4
  br i1 %_25, label %bb21, label %bb22

bb22:                                             ; preds = %bb2
  call void @llvm.lifetime.start.p0(i64 8, ptr %8)
  %14 = mul nuw nsw i64 %_20, 1
  store i64 %14, ptr %8, align 8
  %_28 = load i64, ptr %8, align 8, !noundef !4
  call void @llvm.lifetime.end.p0(i64 8, ptr %8)
  call void @llvm.lifetime.start.p0(i64 4, ptr %7)
  %15 = call i32 @memcmp(ptr %_21, ptr @alloc_6e8c0189a2064b9421361048da0c9eb2, i64 %_28)
  store i32 %15, ptr %7, align 4
  %_29 = load i32, ptr %7, align 4, !noundef !4
  call void @llvm.lifetime.end.p0(i64 4, ptr %7)
  %_7 = icmp eq i32 %_29, 0
  br i1 %_7, label %bb4, label %bb5

bb21:                                             ; preds = %bb2
  br label %bb5

bb5:                                              ; preds = %bb21, %bb22
  %_42 = icmp ne i64 %_20, 4
  br i1 %_42, label %bb25, label %bb26

bb4:                                              ; preds = %bb22
  %16 = getelementptr inbounds i8, ptr %_0, i64 8
  store i8 4, ptr %16, align 8
  store i64 -9223372036854775808, ptr %_0, align 8
  br label %bb11

bb11:                                             ; preds = %bb37, %bb10, %bb8, %bb6, %bb4
; invoke core::ptr::drop_in_place<alloc::string::String>
  invoke void @"_ZN4core3ptr42drop_in_place$LT$alloc..string..String$GT$17h335246f49205a784E"(ptr noalias noundef align 8 dereferenceable(24) %version)
          to label %bb12 unwind label %cleanup1

bb26:                                             ; preds = %bb5
  call void @llvm.lifetime.start.p0(i64 8, ptr %6)
  %17 = mul nuw nsw i64 %_20, 1
  store i64 %17, ptr %6, align 8
  %_44 = load i64, ptr %6, align 8, !noundef !4
  call void @llvm.lifetime.end.p0(i64 8, ptr %6)
  call void @llvm.lifetime.start.p0(i64 4, ptr %5)
  %18 = call i32 @memcmp(ptr %_21, ptr @alloc_352ccd7f6cbe7b0d708d9f781a94edee, i64 %_44)
  store i32 %18, ptr %5, align 4
  %_45 = load i32, ptr %5, align 4, !noundef !4
  call void @llvm.lifetime.end.p0(i64 4, ptr %5)
  %_6 = icmp eq i32 %_45, 0
  br i1 %_6, label %bb6, label %bb7

bb25:                                             ; preds = %bb5
  br label %bb7

bb7:                                              ; preds = %bb25, %bb26
  %_52 = icmp ne i64 %_20, 4
  br i1 %_52, label %bb29, label %bb30

bb6:                                              ; preds = %bb26
  %19 = getelementptr inbounds i8, ptr %_0, i64 8
  store i8 3, ptr %19, align 8
  store i64 -9223372036854775808, ptr %_0, align 8
  br label %bb11

bb30:                                             ; preds = %bb7
  call void @llvm.lifetime.start.p0(i64 8, ptr %4)
  %20 = mul nuw nsw i64 %_20, 1
  store i64 %20, ptr %4, align 8
  %_54 = load i64, ptr %4, align 8, !noundef !4
  call void @llvm.lifetime.end.p0(i64 8, ptr %4)
  call void @llvm.lifetime.start.p0(i64 4, ptr %3)
  %21 = call i32 @memcmp(ptr %_21, ptr @alloc_b1b5f2a9301a343417d4aa2a7431dd7d, i64 %_54)
  store i32 %21, ptr %3, align 4
  %_55 = load i32, ptr %3, align 4, !noundef !4
  call void @llvm.lifetime.end.p0(i64 4, ptr %3)
  %_5 = icmp eq i32 %_55, 0
  br i1 %_5, label %bb8, label %bb9

bb29:                                             ; preds = %bb7
  br label %bb9

bb9:                                              ; preds = %bb29, %bb30
  %_62 = icmp ne i64 %_20, 4
  br i1 %_62, label %bb33, label %bb34

bb8:                                              ; preds = %bb30
  %22 = getelementptr inbounds i8, ptr %_0, i64 8
  store i8 2, ptr %22, align 8
  store i64 -9223372036854775808, ptr %_0, align 8
  br label %bb11

bb34:                                             ; preds = %bb9
  call void @llvm.lifetime.start.p0(i64 8, ptr %2)
  %23 = mul nuw nsw i64 %_20, 1
  store i64 %23, ptr %2, align 8
  %_64 = load i64, ptr %2, align 8, !noundef !4
  call void @llvm.lifetime.end.p0(i64 8, ptr %2)
  call void @llvm.lifetime.start.p0(i64 4, ptr %1)
  %24 = call i32 @memcmp(ptr %_21, ptr @alloc_492b7b15921808c7cb3444ea46807112, i64 %_64)
  store i32 %24, ptr %1, align 4
  %_65 = load i32, ptr %1, align 4, !noundef !4
  call void @llvm.lifetime.end.p0(i64 4, ptr %1)
  %_4 = icmp eq i32 %_65, 0
  br i1 %_4, label %bb10, label %bb3

bb33:                                             ; preds = %bb9
  br label %bb3

bb3:                                              ; preds = %bb33, %bb34
  call void @llvm.lifetime.start.p0(i64 16, ptr %_8)
  store ptr %_21, ptr %_8, align 8
  %25 = getelementptr inbounds i8, ptr %_8, i64 8
  store i64 %_20, ptr %25, align 8
  call void @llvm.lifetime.start.p0(i64 48, ptr %_10)
  call void @llvm.lifetime.start.p0(i64 16, ptr %args)
  call void @llvm.lifetime.start.p0(i64 16, ptr %_12)
  call void @llvm.lifetime.start.p0(i64 16, ptr %_35)
  %26 = icmp ne ptr %_8, null
  call void @llvm.assume(i1 %26)
  store ptr %_8, ptr %_35, align 8
  %27 = getelementptr inbounds i8, ptr %_35, i64 8
  store ptr @"_ZN44_$LT$$RF$T$u20$as$u20$core..fmt..Display$GT$3fmt17hbc70c7de1b24d109E", ptr %27, align 8
  call void @llvm.memcpy.p0.p0.i64(ptr align 8 %_12, ptr align 8 %_35, i64 16, i1 false)
  call void @llvm.lifetime.end.p0(i64 16, ptr %_35)
  %28 = getelementptr inbounds nuw %"core::fmt::rt::Argument<'_>", ptr %args, i64 0
  call void @llvm.memcpy.p0.p0.i64(ptr align 8 %28, ptr align 8 %_12, i64 16, i1 false)
  call void @llvm.lifetime.end.p0(i64 16, ptr %_12)
  store ptr @alloc_0210f9a7de6109ab616e82ff8f9cb79b, ptr %_10, align 8
  %29 = getelementptr inbounds i8, ptr %_10, i64 8
  store i64 2, ptr %29, align 8
  %30 = load ptr, ptr @anon.44dec03a02d03ef7c616543621cbcdfc.0, align 8, !align !5, !noundef !4
  %31 = load i64, ptr getelementptr inbounds (i8, ptr @anon.44dec03a02d03ef7c616543621cbcdfc.0, i64 8), align 8
  %32 = getelementptr inbounds i8, ptr %_10, i64 32
  store ptr %30, ptr %32, align 8
  %33 = getelementptr inbounds i8, ptr %32, i64 8
  store i64 %31, ptr %33, align 8
  %34 = getelementptr inbounds i8, ptr %_10, i64 16
  store ptr %args, ptr %34, align 8
  %35 = getelementptr inbounds i8, ptr %34, i64 8
  store i64 1, ptr %35, align 8
  %_73.0 = load ptr, ptr @anon.44dec03a02d03ef7c616543621cbcdfc.0, align 8, !align !6, !noundef !4
  %_73.1 = load i64, ptr getelementptr inbounds (i8, ptr @anon.44dec03a02d03ef7c616543621cbcdfc.0, i64 8), align 8
; invoke core::option::Option<T>::map_or_else
  invoke void @"_ZN4core6option15Option$LT$T$GT$11map_or_else17h56e52d47b54b8880E"(ptr noalias noundef sret([24 x i8]) align 8 captures(address) dereferenceable(24) %_9, ptr noalias noundef readonly align 1 captures(address, read_provenance) %_73.0, i64 %_73.1, ptr noalias noundef readonly align 8 captures(address, read_provenance) dereferenceable(48) %_10)
          to label %bb37 unwind label %cleanup

bb10:                                             ; preds = %bb34
  %36 = getelementptr inbounds i8, ptr %_0, i64 8
  store i8 1, ptr %36, align 8
  store i64 -9223372036854775808, ptr %_0, align 8
  br label %bb11

bb14:                                             ; preds = %cleanup
; invoke core::ptr::drop_in_place<alloc::string::String>
  invoke void @"_ZN4core3ptr42drop_in_place$LT$alloc..string..String$GT$17h335246f49205a784E"(ptr noalias noundef align 8 dereferenceable(24) %version) #26
          to label %bb20 unwind label %terminate

cleanup:                                          ; preds = %bb3
  %37 = landingpad { ptr, i32 }
          cleanup
  %38 = extractvalue { ptr, i32 } %37, 0
  %39 = extractvalue { ptr, i32 } %37, 1
  call void @llvm.lifetime.start.p0(i64 16, ptr %0)
  store ptr %38, ptr %0, align 8
  %40 = getelementptr inbounds i8, ptr %0, i64 8
  store i32 %39, ptr %40, align 8
  br label %bb14

bb37:                                             ; preds = %bb3
  call void @llvm.lifetime.end.p0(i64 16, ptr %args)
  call void @llvm.lifetime.end.p0(i64 48, ptr %_10)
  call void @llvm.memcpy.p0.p0.i64(ptr align 8 %_0, ptr align 8 %_9, i64 24, i1 false)
  call void @llvm.lifetime.end.p0(i64 16, ptr %_8)
  br label %bb11

bb20:                                             ; preds = %bb14, %cleanup1
  %_16 = load i64, ptr %_1, align 8, !range !8, !noundef !4
  %41 = icmp eq i64 %_16, 0
  br i1 %41, label %bb15, label %bb19

cleanup1:                                         ; preds = %bb13, %bb11
  %42 = landingpad { ptr, i32 }
          cleanup
  %43 = extractvalue { ptr, i32 } %42, 0
  %44 = extractvalue { ptr, i32 } %42, 1
  call void @llvm.lifetime.start.p0(i64 16, ptr %0)
  store ptr %43, ptr %0, align 8
  %45 = getelementptr inbounds i8, ptr %0, i64 8
  store i32 %44, ptr %45, align 8
  br label %bb20

bb12:                                             ; preds = %bb11
  call void @llvm.lifetime.end.p0(i64 24, ptr %version)
  br label %bb18

bb18:                                             ; preds = %bb38, %bb12
  %_15 = load i64, ptr %_1, align 8, !range !8, !noundef !4
  %46 = trunc nuw i64 %_15 to i1
  br i1 %46, label %bb17, label %bb16

terminate:                                        ; preds = %bb19, %bb14
  %47 = landingpad { ptr, i32 }
          filter [0 x ptr] zeroinitializer
; call core::panicking::panic_in_cleanup
  call void @_ZN4core9panicking16panic_in_cleanup17h5eff40bcc4481d72E() #27
  unreachable

bb38:                                             ; preds = %bb13
  call void @llvm.memcpy.p0.p0.i64(ptr align 8 %_14, ptr align 8 %_76, i64 24, i1 false)
  call void @llvm.lifetime.end.p0(i64 24, ptr %_76)
  call void @llvm.memcpy.p0.p0.i64(ptr align 8 %_0, ptr align 8 %_14, i64 24, i1 false)
  call void @llvm.lifetime.end.p0(i64 24, ptr %_14)
  br label %bb18

bb17:                                             ; preds = %bb18
; call core::ptr::drop_in_place<core::result::Result<alloc::string::String,std::env::VarError>>
  call void @"_ZN4core3ptr91drop_in_place$LT$core..result..Result$LT$alloc..string..String$C$std..env..VarError$GT$$GT$17hfa65741ae3443dd8E"(ptr noalias noundef align 8 dereferenceable(32) %_1)
  br label %bb16

bb16:                                             ; preds = %bb17, %bb18
  call void @llvm.lifetime.end.p0(i64 32, ptr %_1)
  ret void

bb15:                                             ; preds = %bb19, %bb20
  %48 = load ptr, ptr %0, align 8, !noundef !4
  %49 = getelementptr inbounds i8, ptr %0, i64 8
  %50 = load i32, ptr %49, align 8, !noundef !4
  call void @llvm.lifetime.end.p0(i64 16, ptr %0)
  %51 = insertvalue { ptr, i32 } poison, ptr %48, 0
  %52 = insertvalue { ptr, i32 } %51, i32 %50, 1
  resume { ptr, i32 } %52

bb19:                                             ; preds = %bb20
; invoke core::ptr::drop_in_place<core::result::Result<alloc::string::String,std::env::VarError>>
  invoke void @"_ZN4core3ptr91drop_in_place$LT$core..result..Result$LT$alloc..string..String$C$std..env..VarError$GT$$GT$17hfa65741ae3443dd8E"(ptr noalias noundef align 8 dereferenceable(32) %_1) #26
          to label %bb15 unwind label %terminate

bb39:                                             ; No predecessors!
  unreachable
}

; find_msvc_tools::find_tools::find_tool_with_env
; Function Attrs: nonlazybind uwtable
define void @_ZN15find_msvc_tools10find_tools18find_tool_with_env17h36dc0c312c0bfc61E(ptr dead_on_unwind noalias noundef writable sret([56 x i8]) align 8 captures(address) dereferenceable(56) %_0, ptr noalias noundef nonnull readonly align 1 captures(address, read_provenance) %full_arch.0, i64 noundef %full_arch.1, ptr noalias noundef nonnull readonly align 1 captures(address, read_provenance) %0, i64 noundef %1, ptr noundef nonnull align 1 %2, ptr noalias noundef readonly align 8 captures(address, read_provenance) dereferenceable(32) %3) unnamed_addr #0 {
start:
  %_22 = alloca [24 x i8], align 8
  %_18 = alloca [24 x i8], align 8
  %_17 = alloca [56 x i8], align 8
  %_16 = alloca [56 x i8], align 8
  %_12 = alloca [16 x i8], align 8
  %_6 = alloca [1 x i8], align 1
  %_5 = alloca [1 x i8], align 1
  %target = alloca [1 x i8], align 1
  %env_getter = alloca [16 x i8], align 8
  %tool = alloca [16 x i8], align 8
  store ptr %0, ptr %tool, align 8
  %4 = getelementptr inbounds i8, ptr %tool, i64 8
  store i64 %1, ptr %4, align 8
  store ptr %2, ptr %env_getter, align 8
  %5 = getelementptr inbounds i8, ptr %env_getter, i64 8
  store ptr %3, ptr %5, align 8
  call void @llvm.lifetime.start.p0(i64 1, ptr %target)
  call void @llvm.lifetime.start.p0(i64 1, ptr %_5)
  call void @llvm.lifetime.start.p0(i64 1, ptr %_6)
; call find_msvc_tools::find_tools::TargetArch::new
  %6 = call noundef i8 @_ZN15find_msvc_tools10find_tools10TargetArch3new17h019f96dcdd27b76dE(ptr noalias noundef nonnull readonly align 1 captures(address, read_provenance) %full_arch.0, i64 noundef %full_arch.1)
  store i8 %6, ptr %_6, align 1
  %7 = load i8, ptr %_6, align 1, !range !7, !noundef !4
  %8 = icmp eq i8 %7, 5
  %_26 = select i1 %8, i64 0, i64 1
  %9 = trunc nuw i64 %_26 to i1
  br i1 %9, label %bb16, label %bb15

bb16:                                             ; preds = %start
  %_27 = load i8, ptr %_6, align 1, !range !9, !noundef !4
  store i8 %_27, ptr %_5, align 1
  call void @llvm.lifetime.end.p0(i64 1, ptr %_6)
  %val = load i8, ptr %_5, align 1, !range !9, !noundef !4
  store i8 %val, ptr %target, align 1
  call void @llvm.lifetime.end.p0(i64 1, ptr %_5)
  %10 = load ptr, ptr %tool, align 8, !nonnull !4, !align !6, !noundef !4
  %11 = getelementptr inbounds i8, ptr %tool, i64 8
  %12 = load i64, ptr %11, align 8, !noundef !4
; call <&str as core::str::pattern::Pattern>::is_contained_in
  %_8 = call noundef zeroext i1 @"_ZN55_$LT$$RF$str$u20$as$u20$core..str..pattern..Pattern$GT$15is_contained_in17hbec7160a0e3b1a28E"(ptr noalias noundef nonnull readonly align 1 captures(address, read_provenance) @alloc_4156e959589ba4dd32a5f8e9e8794e02, i64 noundef 7, ptr noalias noundef nonnull readonly align 1 captures(address, read_provenance) %10, i64 noundef %12)
  br i1 %_8, label %bb3, label %bb4

bb15:                                             ; preds = %start
  call void @llvm.lifetime.end.p0(i64 1, ptr %_6)
  store i64 -9223372036854775808, ptr %_0, align 8
  call void @llvm.lifetime.end.p0(i64 1, ptr %_5)
  br label %bb13

bb13:                                             ; preds = %bb3, %bb5, %bb8, %bb15
  call void @llvm.lifetime.end.p0(i64 1, ptr %target)
  br label %bb14

bb4:                                              ; preds = %bb16
  %13 = load ptr, ptr %tool, align 8, !nonnull !4, !align !6, !noundef !4
  %14 = getelementptr inbounds i8, ptr %tool, i64 8
  %15 = load i64, ptr %14, align 8, !noundef !4
; call <&str as core::str::pattern::Pattern>::is_contained_in
  %_9 = call noundef zeroext i1 @"_ZN55_$LT$$RF$str$u20$as$u20$core..str..pattern..Pattern$GT$15is_contained_in17hbec7160a0e3b1a28E"(ptr noalias noundef nonnull readonly align 1 captures(address, read_provenance) @alloc_30e48f5bc9536fc9c0ff564a2ed46279, i64 noundef 6, ptr noalias noundef nonnull readonly align 1 captures(address, read_provenance) %13, i64 noundef %15)
  br i1 %_9, label %bb5, label %bb6

bb3:                                              ; preds = %bb16
  store i64 -9223372036854775808, ptr %_0, align 8
  br label %bb13

bb6:                                              ; preds = %bb4
  call void @llvm.lifetime.start.p0(i64 16, ptr %_12)
  call void @llvm.assume(i1 true)
  store ptr @alloc_89d037fa1ee119cb7e39623192568988, ptr %_12, align 8
  %16 = getelementptr inbounds i8, ptr %_12, i64 8
  store ptr getelementptr inbounds nuw ({ ptr, i64 }, ptr @alloc_89d037fa1ee119cb7e39623192568988, i64 5), ptr %16, align 8
; call <core::slice::iter::Iter<T> as core::iter::traits::iterator::Iterator>::any
  %_10 = call noundef zeroext i1 @"_ZN91_$LT$core..slice..iter..Iter$LT$T$GT$$u20$as$u20$core..iter..traits..iterator..Iterator$GT$3any17h2d5c8e9bd2681bfcE"(ptr noalias noundef align 8 dereferenceable(16) %_12, ptr noalias noundef readonly align 8 captures(address, read_provenance) dereferenceable(16) %tool)
  br i1 %_10, label %bb8, label %bb9

bb5:                                              ; preds = %bb4
  store i64 -9223372036854775808, ptr %_0, align 8
  br label %bb13

bb9:                                              ; preds = %bb6
  call void @llvm.lifetime.end.p0(i64 16, ptr %_12)
  call void @llvm.lifetime.start.p0(i64 56, ptr %_16)
  call void @llvm.lifetime.start.p0(i64 56, ptr %_17)
  %17 = load ptr, ptr %tool, align 8, !nonnull !4, !align !6, !noundef !4
  %18 = getelementptr inbounds i8, ptr %tool, i64 8
  %19 = load i64, ptr %18, align 8, !noundef !4
  %20 = load ptr, ptr %env_getter, align 8, !nonnull !4, !align !6, !noundef !4
  %21 = getelementptr inbounds i8, ptr %env_getter, i64 8
  %22 = load ptr, ptr %21, align 8, !nonnull !4, !align !5, !noundef !4
; call find_msvc_tools::find_tools::impl_::find_msvc_environment
  call void @_ZN15find_msvc_tools10find_tools5impl_21find_msvc_environment17hb762f13c53fbda69E(ptr noalias noundef sret([56 x i8]) align 8 captures(address) dereferenceable(56) %_17, ptr noalias noundef nonnull readonly align 1 captures(address, read_provenance) %17, i64 noundef %19, i8 noundef %val, ptr noundef nonnull align 1 %20, ptr noalias noundef readonly align 8 captures(address, read_provenance) dereferenceable(32) %22)
  call void @llvm.lifetime.start.p0(i64 24, ptr %_18)
  store ptr %tool, ptr %_18, align 8
  %23 = getelementptr inbounds i8, ptr %_18, i64 8
  store ptr %target, ptr %23, align 8
  %24 = getelementptr inbounds i8, ptr %_18, i64 16
  store ptr %env_getter, ptr %24, align 8
; call core::option::Option<T>::or_else
  call void @"_ZN4core6option15Option$LT$T$GT$7or_else17hb8c9edf85b342d2cE"(ptr noalias noundef sret([56 x i8]) align 8 captures(address) dereferenceable(56) %_16, ptr noalias noundef align 8 captures(address) dereferenceable(56) %_17, ptr noalias noundef align 8 captures(address) dereferenceable(24) %_18)
  call void @llvm.lifetime.end.p0(i64 24, ptr %_18)
  call void @llvm.lifetime.end.p0(i64 56, ptr %_17)
  call void @llvm.lifetime.start.p0(i64 24, ptr %_22)
  store ptr %tool, ptr %_22, align 8
  %25 = getelementptr inbounds i8, ptr %_22, i64 8
  store ptr %target, ptr %25, align 8
  %26 = getelementptr inbounds i8, ptr %_22, i64 16
  store ptr %env_getter, ptr %26, align 8
; call core::option::Option<T>::or_else
  call void @"_ZN4core6option15Option$LT$T$GT$7or_else17h0c3ae0cafd9e219eE"(ptr noalias noundef sret([56 x i8]) align 8 captures(address) dereferenceable(56) %_0, ptr noalias noundef align 8 captures(address) dereferenceable(56) %_16, ptr noalias noundef align 8 captures(address) dereferenceable(24) %_22)
  call void @llvm.lifetime.end.p0(i64 24, ptr %_22)
  call void @llvm.lifetime.end.p0(i64 56, ptr %_16)
  call void @llvm.lifetime.end.p0(i64 1, ptr %target)
  br label %bb14

bb8:                                              ; preds = %bb6
  call void @llvm.lifetime.end.p0(i64 16, ptr %_12)
  store i64 -9223372036854775808, ptr %_0, align 8
  br label %bb13

bb14:                                             ; preds = %bb13, %bb9
  ret void

bb2:                                              ; No predecessors!
  unreachable
}

; find_msvc_tools::find_tools::find_tool_with_env::{{closure}}
; Function Attrs: inlinehint nonlazybind uwtable
define internal void @"_ZN15find_msvc_tools10find_tools18find_tool_with_env28_$u7b$$u7b$closure$u7d$$u7d$17h2794d242b15fe5caE"(ptr dead_on_unwind noalias noundef writable sret([56 x i8]) align 8 captures(address) dereferenceable(56) %_0, ptr dead_on_return noalias noundef readonly align 8 captures(address) dereferenceable(24) %_1) unnamed_addr #1 {
start:
  store i64 -9223372036854775808, ptr %_0, align 8
  ret void
}

; find_msvc_tools::find_tools::find_tool_with_env::{{closure}}
; Function Attrs: inlinehint nonlazybind uwtable
define internal void @"_ZN15find_msvc_tools10find_tools18find_tool_with_env28_$u7b$$u7b$closure$u7d$$u7d$17h8fcdfabdfb0bcb0bE"(ptr dead_on_unwind noalias noundef writable sret([56 x i8]) align 8 captures(address) dereferenceable(56) %_0, ptr dead_on_return noalias noundef readonly align 8 captures(address) dereferenceable(24) %_1) unnamed_addr #1 {
start:
  store i64 -9223372036854775808, ptr %_0, align 8
  ret void
}

; find_msvc_tools::find_tools::find_tool_with_env::{{closure}}
; Function Attrs: inlinehint nonlazybind uwtable
define internal noundef zeroext i1 @"_ZN15find_msvc_tools10find_tools18find_tool_with_env28_$u7b$$u7b$closure$u7d$$u7d$17he3663ebdfe963954E"(ptr noalias noundef align 8 dereferenceable(8) %_1, ptr noalias noundef readonly align 8 captures(address, read_provenance) dereferenceable(16) %_2) unnamed_addr #1 {
start:
  %t.0 = load ptr, ptr %_2, align 8, !nonnull !4, !align !6, !noundef !4
  %0 = getelementptr inbounds i8, ptr %_2, i64 8
  %t.1 = load i64, ptr %0, align 8, !noundef !4
  %_4 = load ptr, ptr %_1, align 8, !nonnull !4, !align !5, !noundef !4
  %_5.0 = load ptr, ptr %_4, align 8, !nonnull !4, !align !6, !noundef !4
  %1 = getelementptr inbounds i8, ptr %_4, i64 8
  %_5.1 = load i64, ptr %1, align 8, !noundef !4
; call <&str as core::str::pattern::Pattern>::is_contained_in
  %_0 = call noundef zeroext i1 @"_ZN55_$LT$$RF$str$u20$as$u20$core..str..pattern..Pattern$GT$15is_contained_in17hbec7160a0e3b1a28E"(ptr noalias noundef nonnull readonly align 1 captures(address, read_provenance) %t.0, i64 noundef %t.1, ptr noalias noundef nonnull readonly align 1 captures(address, read_provenance) %_5.0, i64 noundef %_5.1)
  ret i1 %_0
}

; find_msvc_tools::find_tools::find
; Function Attrs: nonlazybind uwtable
define void @_ZN15find_msvc_tools10find_tools4find17h601cab11c0f01548E(ptr dead_on_unwind noalias noundef writable sret([200 x i8]) align 8 captures(address) dereferenceable(200) %_0, ptr noalias noundef nonnull readonly align 1 captures(address, read_provenance) %arch_or_target.0, i64 noundef %arch_or_target.1, ptr noalias noundef nonnull readonly align 1 captures(address, read_provenance) %tool.0, i64 noundef %tool.1) unnamed_addr #0 {
start:
  %_7 = alloca [56 x i8], align 8
  %_6 = alloca [200 x i8], align 8
  %_5 = alloca [56 x i8], align 8
  %_3 = alloca [56 x i8], align 8
  call void @llvm.lifetime.start.p0(i64 56, ptr %_3)
; call find_msvc_tools::find_tools::find_tool
  call void @_ZN15find_msvc_tools10find_tools9find_tool17hd8e85edd24a905b9E(ptr noalias noundef sret([56 x i8]) align 8 captures(address) dereferenceable(56) %_3, ptr noalias noundef nonnull readonly align 1 captures(address, read_provenance) %arch_or_target.0, i64 noundef %arch_or_target.1, ptr noalias noundef nonnull readonly align 1 captures(address, read_provenance) %tool.0, i64 noundef %tool.1)
  call void @llvm.lifetime.start.p0(i64 56, ptr %_5)
  %0 = load i64, ptr %_3, align 8, !range !3, !noundef !4
  %1 = icmp eq i64 %0, -9223372036854775808
  %_4 = select i1 %1, i64 0, i64 1
  %2 = trunc nuw i64 %_4 to i1
  br i1 %2, label %bb5, label %bb4

bb5:                                              ; preds = %start
  call void @llvm.memcpy.p0.p0.i64(ptr align 8 %_5, ptr align 8 %_3, i64 56, i1 false)
  call void @llvm.lifetime.start.p0(i64 200, ptr %_6)
  call void @llvm.lifetime.start.p0(i64 56, ptr %_7)
  call void @llvm.memcpy.p0.p0.i64(ptr align 8 %_7, ptr align 8 %_5, i64 56, i1 false)
; call find_msvc_tools::find_tools::find::{{closure}}
  call void @"_ZN15find_msvc_tools10find_tools4find28_$u7b$$u7b$closure$u7d$$u7d$17h127966fc566dc391E"(ptr noalias noundef sret([200 x i8]) align 8 captures(address) dereferenceable(200) %_6, ptr noalias noundef align 8 captures(address) dereferenceable(56) %_7)
  call void @llvm.lifetime.end.p0(i64 56, ptr %_7)
  call void @llvm.memcpy.p0.p0.i64(ptr align 8 %_0, ptr align 8 %_6, i64 200, i1 false)
  call void @llvm.lifetime.end.p0(i64 200, ptr %_6)
  br label %bb2

bb4:                                              ; preds = %start
  store i64 -9223372036854775808, ptr %_0, align 8
  br label %bb2

bb2:                                              ; preds = %bb5, %bb4
  call void @llvm.lifetime.end.p0(i64 56, ptr %_5)
  call void @llvm.lifetime.end.p0(i64 56, ptr %_3)
  ret void

bb3:                                              ; No predecessors!
  unreachable
}

; find_msvc_tools::find_tools::find::{{closure}}
; Function Attrs: inlinehint nonlazybind uwtable
define internal void @"_ZN15find_msvc_tools10find_tools4find28_$u7b$$u7b$closure$u7d$$u7d$17h127966fc566dc391E"(ptr dead_on_unwind noalias noundef writable sret([200 x i8]) align 8 captures(address) dereferenceable(200) %_0, ptr dead_on_return noalias noundef align 8 captures(address) dereferenceable(56) %c) unnamed_addr #1 personality ptr @rust_eh_personality {
start:
  %0 = alloca [16 x i8], align 8
; invoke find_msvc_tools::tool::Tool::to_command
  invoke void @_ZN15find_msvc_tools4tool4Tool10to_command17h597423d1f29d0360E(ptr noalias noundef sret([200 x i8]) align 8 captures(address) dereferenceable(200) %_0, ptr noalias noundef readonly align 8 captures(address, read_provenance) dereferenceable(56) %c)
          to label %bb1 unwind label %cleanup

bb3:                                              ; preds = %cleanup
; invoke core::ptr::drop_in_place<find_msvc_tools::tool::Tool>
  invoke void @"_ZN4core3ptr48drop_in_place$LT$find_msvc_tools..tool..Tool$GT$17hf594379180d2b953E"(ptr noalias noundef align 8 dereferenceable(56) %c) #26
          to label %bb4 unwind label %terminate

cleanup:                                          ; preds = %start
  %1 = landingpad { ptr, i32 }
          cleanup
  %2 = extractvalue { ptr, i32 } %1, 0
  %3 = extractvalue { ptr, i32 } %1, 1
  call void @llvm.lifetime.start.p0(i64 16, ptr %0)
  store ptr %2, ptr %0, align 8
  %4 = getelementptr inbounds i8, ptr %0, i64 8
  store i32 %3, ptr %4, align 8
  br label %bb3

bb1:                                              ; preds = %start
; call core::ptr::drop_in_place<find_msvc_tools::tool::Tool>
  call void @"_ZN4core3ptr48drop_in_place$LT$find_msvc_tools..tool..Tool$GT$17hf594379180d2b953E"(ptr noalias noundef align 8 dereferenceable(56) %c)
  ret void

terminate:                                        ; preds = %bb3
  %5 = landingpad { ptr, i32 }
          filter [0 x ptr] zeroinitializer
; call core::panicking::panic_in_cleanup
  call void @_ZN4core9panicking16panic_in_cleanup17h5eff40bcc4481d72E() #27
  unreachable

bb4:                                              ; preds = %bb3
  %6 = load ptr, ptr %0, align 8, !noundef !4
  %7 = getelementptr inbounds i8, ptr %0, i64 8
  %8 = load i32, ptr %7, align 8, !noundef !4
  call void @llvm.lifetime.end.p0(i64 16, ptr %0)
  %9 = insertvalue { ptr, i32 } poison, ptr %6, 0
  %10 = insertvalue { ptr, i32 } %9, i32 %8, 1
  resume { ptr, i32 } %10
}

; find_msvc_tools::find_tools::impl_::find_msvc_environment
; Function Attrs: nonlazybind uwtable
define internal void @_ZN15find_msvc_tools10find_tools5impl_21find_msvc_environment17hb762f13c53fbda69E(ptr dead_on_unwind noalias noundef writable sret([56 x i8]) align 8 captures(address) dereferenceable(56) %_0, ptr noalias noundef nonnull readonly align 1 captures(address, read_provenance) %0, i64 noundef %1, i8 noundef range(i8 0, 5) %_target, ptr noundef nonnull align 1 %2, ptr noalias noundef readonly align 8 captures(address, read_provenance) dereferenceable(32) %3) unnamed_addr #0 personality ptr @rust_eh_personality {
start:
  %4 = alloca [16 x i8], align 8
  %_29 = alloca [16 x i8], align 8
  %_28 = alloca [24 x i8], align 8
  %_26 = alloca [24 x i8], align 8
  %_15 = alloca [56 x i8], align 8
  %_14 = alloca [56 x i8], align 8
  %get_tool = alloca [8 x i8], align 8
  %val1 = alloca [24 x i8], align 8
  %_10 = alloca [24 x i8], align 8
  %_9 = alloca [24 x i8], align 8
  %vs_install_dir = alloca [24 x i8], align 8
  %val = alloca [24 x i8], align 8
  %_6 = alloca [24 x i8], align 8
  %_5 = alloca [24 x i8], align 8
  %vc_install_dir = alloca [24 x i8], align 8
  %env_getter = alloca [16 x i8], align 8
  %tool = alloca [16 x i8], align 8
  store ptr %0, ptr %tool, align 8
  %5 = getelementptr inbounds i8, ptr %tool, i64 8
  store i64 %1, ptr %5, align 8
  store ptr %2, ptr %env_getter, align 8
  %6 = getelementptr inbounds i8, ptr %env_getter, i64 8
  store ptr %3, ptr %6, align 8
  call void @llvm.lifetime.start.p0(i64 24, ptr %vc_install_dir)
  call void @llvm.lifetime.start.p0(i64 24, ptr %_5)
  call void @llvm.lifetime.start.p0(i64 24, ptr %_6)
  %7 = load ptr, ptr %env_getter, align 8, !nonnull !4, !align !6, !noundef !4
  %8 = getelementptr inbounds i8, ptr %env_getter, i64 8
  %9 = load ptr, ptr %8, align 8, !nonnull !4, !align !5, !noundef !4
  %10 = getelementptr inbounds i8, ptr %9, i64 24
  %11 = load ptr, ptr %10, align 8, !invariant.load !4, !nonnull !4
  call void %11(ptr noalias noundef sret([24 x i8]) align 8 captures(address) dereferenceable(24) %_6, ptr noundef align 1 %7, ptr noalias noundef nonnull readonly align 1 captures(address, read_provenance) @alloc_e9e59c41b8e8baa47c3e0178e02133e6, i64 noundef 12)
  call void @llvm.lifetime.start.p0(i64 24, ptr %_26)
  %12 = load i64, ptr %_6, align 8, !range !10, !noundef !4
  %13 = icmp eq i64 %12, -9223372036854775807
  %_25 = select i1 %13, i64 0, i64 1
  %14 = trunc nuw i64 %_25 to i1
  br i1 %14, label %bb15, label %bb14

bb15:                                             ; preds = %start
  call void @llvm.memcpy.p0.p0.i64(ptr align 8 %_26, ptr align 8 %_6, i64 24, i1 false)
  call void @llvm.memcpy.p0.p0.i64(ptr align 8 %_5, ptr align 8 %_26, i64 24, i1 false)
  call void @llvm.lifetime.end.p0(i64 24, ptr %_26)
  call void @llvm.lifetime.end.p0(i64 24, ptr %_6)
  call void @llvm.lifetime.start.p0(i64 24, ptr %val)
  call void @llvm.memcpy.p0.p0.i64(ptr align 8 %val, ptr align 8 %_5, i64 24, i1 false)
  call void @llvm.memcpy.p0.p0.i64(ptr align 8 %vc_install_dir, ptr align 8 %val, i64 24, i1 false)
  call void @llvm.lifetime.end.p0(i64 24, ptr %val)
  call void @llvm.lifetime.end.p0(i64 24, ptr %_5)
  call void @llvm.lifetime.start.p0(i64 24, ptr %vs_install_dir)
  call void @llvm.lifetime.start.p0(i64 24, ptr %_9)
  call void @llvm.lifetime.start.p0(i64 24, ptr %_10)
  %15 = load ptr, ptr %env_getter, align 8, !nonnull !4, !align !6, !noundef !4
  %16 = getelementptr inbounds i8, ptr %env_getter, i64 8
  %17 = load ptr, ptr %16, align 8, !nonnull !4, !align !5, !noundef !4
  %18 = getelementptr inbounds i8, ptr %17, i64 24
  %19 = load ptr, ptr %18, align 8, !invariant.load !4, !nonnull !4
  invoke void %19(ptr noalias noundef sret([24 x i8]) align 8 captures(address) dereferenceable(24) %_10, ptr noundef align 1 %15, ptr noalias noundef nonnull readonly align 1 captures(address, read_provenance) @alloc_89bf16989cceee19c050ad04893a585c, i64 noundef 12)
          to label %bb3 unwind label %cleanup

bb14:                                             ; preds = %start
  call void @llvm.lifetime.end.p0(i64 24, ptr %_26)
  call void @llvm.lifetime.end.p0(i64 24, ptr %_6)
  store i64 -9223372036854775808, ptr %_0, align 8
  call void @llvm.lifetime.end.p0(i64 24, ptr %_5)
  br label %bb9

bb9:                                              ; preds = %bb16, %bb14
  call void @llvm.lifetime.end.p0(i64 24, ptr %vc_install_dir)
  br label %bb10

bb12:                                             ; preds = %bb11, %cleanup
; invoke core::ptr::drop_in_place<find_msvc_tools::find_tools::Env>
  invoke void @"_ZN4core3ptr53drop_in_place$LT$find_msvc_tools..find_tools..Env$GT$17hcfcab3b21dba781bE"(ptr noalias noundef align 8 dereferenceable(24) %vc_install_dir) #26
          to label %bb13 unwind label %terminate

cleanup:                                          ; preds = %bb6, %bb15
  %20 = landingpad { ptr, i32 }
          cleanup
  %21 = extractvalue { ptr, i32 } %20, 0
  %22 = extractvalue { ptr, i32 } %20, 1
  call void @llvm.lifetime.start.p0(i64 16, ptr %4)
  store ptr %21, ptr %4, align 8
  %23 = getelementptr inbounds i8, ptr %4, i64 8
  store i32 %22, ptr %23, align 8
  br label %bb12

bb3:                                              ; preds = %bb15
  call void @llvm.lifetime.start.p0(i64 24, ptr %_28)
  %24 = load i64, ptr %_10, align 8, !range !10, !noundef !4
  %25 = icmp eq i64 %24, -9223372036854775807
  %_27 = select i1 %25, i64 0, i64 1
  %26 = trunc nuw i64 %_27 to i1
  br i1 %26, label %bb17, label %bb16

bb17:                                             ; preds = %bb3
  call void @llvm.memcpy.p0.p0.i64(ptr align 8 %_28, ptr align 8 %_10, i64 24, i1 false)
  call void @llvm.memcpy.p0.p0.i64(ptr align 8 %_9, ptr align 8 %_28, i64 24, i1 false)
  call void @llvm.lifetime.end.p0(i64 24, ptr %_28)
  call void @llvm.lifetime.end.p0(i64 24, ptr %_10)
  call void @llvm.lifetime.start.p0(i64 24, ptr %val1)
  call void @llvm.memcpy.p0.p0.i64(ptr align 8 %val1, ptr align 8 %_9, i64 24, i1 false)
  call void @llvm.memcpy.p0.p0.i64(ptr align 8 %vs_install_dir, ptr align 8 %val1, i64 24, i1 false)
  call void @llvm.lifetime.end.p0(i64 24, ptr %val1)
  call void @llvm.lifetime.end.p0(i64 24, ptr %_9)
  call void @llvm.lifetime.start.p0(i64 8, ptr %get_tool)
  store ptr %tool, ptr %get_tool, align 8
  call void @llvm.lifetime.start.p0(i64 56, ptr %_14)
  call void @llvm.lifetime.start.p0(i64 56, ptr %_15)
  call void @llvm.lifetime.start.p0(i64 16, ptr %_29)
  %27 = load i64, ptr %vc_install_dir, align 8, !range !3, !noundef !4
  %28 = icmp eq i64 %27, -9223372036854775808
  %_30 = select i1 %28, i64 1, i64 0
  %29 = trunc nuw i64 %_30 to i1
  br i1 %29, label %bb18, label %bb19

bb16:                                             ; preds = %bb3
  call void @llvm.lifetime.end.p0(i64 24, ptr %_28)
  call void @llvm.lifetime.end.p0(i64 24, ptr %_10)
  store i64 -9223372036854775808, ptr %_0, align 8
  call void @llvm.lifetime.end.p0(i64 24, ptr %_9)
  call void @llvm.lifetime.end.p0(i64 24, ptr %vs_install_dir)
; call core::ptr::drop_in_place<find_msvc_tools::find_tools::Env>
  call void @"_ZN4core3ptr53drop_in_place$LT$find_msvc_tools..find_tools..Env$GT$17hcfcab3b21dba781bE"(ptr noalias noundef align 8 dereferenceable(24) %vc_install_dir)
  br label %bb9

bb10:                                             ; preds = %bb7, %bb9
  ret void

bb18:                                             ; preds = %bb17
  %30 = getelementptr inbounds i8, ptr %vc_install_dir, i64 8
  %_34.0 = load ptr, ptr %30, align 8, !nonnull !4, !noundef !4
  %31 = getelementptr inbounds i8, ptr %30, i64 8
  %_34.1 = load i64, ptr %31, align 8, !noundef !4
  %32 = icmp ne ptr %_34.0, null
  call void @llvm.assume(i1 %32)
  %33 = mul nuw nsw i64 %_34.1, 1
  %34 = add i64 0, %33
  %35 = add i64 %34, 0
  %36 = and i64 %35, -1
  %37 = add i64 0, %36
  %38 = add i64 %37, 0
  %39 = and i64 %38, -1
  %_32.0 = getelementptr inbounds i8, ptr %_34.0, i64 16
  store ptr %_32.0, ptr %_29, align 8
  %40 = getelementptr inbounds i8, ptr %_29, i64 8
  store i64 %_34.1, ptr %40, align 8
  br label %bb20

bb19:                                             ; preds = %bb17
  %41 = getelementptr inbounds i8, ptr %vc_install_dir, i64 8
  %_39 = load ptr, ptr %41, align 8, !nonnull !4, !noundef !4
  %42 = icmp ne ptr %_39, null
  call void @llvm.assume(i1 %42)
  %43 = getelementptr inbounds i8, ptr %vc_install_dir, i64 16
  %_38 = load i64, ptr %43, align 8, !noundef !4
  store ptr %_39, ptr %_29, align 8
  %44 = getelementptr inbounds i8, ptr %_29, i64 8
  store i64 %_38, ptr %44, align 8
  br label %bb20

bb20:                                             ; preds = %bb18, %bb19
  %_18.0 = load ptr, ptr %_29, align 8, !nonnull !4, !align !6, !noundef !4
  %45 = getelementptr inbounds i8, ptr %_29, i64 8
  %_18.1 = load i64, ptr %45, align 8, !noundef !4
  call void @llvm.lifetime.end.p0(i64 16, ptr %_29)
; invoke find_msvc_tools::find_tools::impl_::find_msvc_environment::{{closure}}
  invoke void @"_ZN15find_msvc_tools10find_tools5impl_21find_msvc_environment28_$u7b$$u7b$closure$u7d$$u7d$17h76ef27c1d80510e6E"(ptr noalias noundef sret([56 x i8]) align 8 captures(address) dereferenceable(56) %_15, ptr noalias noundef readonly align 8 captures(address, read_provenance) dereferenceable(8) %get_tool, ptr noalias noundef nonnull readonly align 1 captures(address, read_provenance) %_18.0, i64 noundef %_18.1)
          to label %bb4 unwind label %cleanup2

bb11:                                             ; preds = %cleanup2
; invoke core::ptr::drop_in_place<find_msvc_tools::find_tools::Env>
  invoke void @"_ZN4core3ptr53drop_in_place$LT$find_msvc_tools..find_tools..Env$GT$17hcfcab3b21dba781bE"(ptr noalias noundef align 8 dereferenceable(24) %vs_install_dir) #26
          to label %bb12 unwind label %terminate

cleanup2:                                         ; preds = %bb5, %bb4, %bb20
  %46 = landingpad { ptr, i32 }
          cleanup
  %47 = extractvalue { ptr, i32 } %46, 0
  %48 = extractvalue { ptr, i32 } %46, 1
  call void @llvm.lifetime.start.p0(i64 16, ptr %4)
  store ptr %47, ptr %4, align 8
  %49 = getelementptr inbounds i8, ptr %4, i64 8
  store i32 %48, ptr %49, align 8
  br label %bb11

bb4:                                              ; preds = %bb20
; invoke core::option::Option<T>::or_else
  invoke void @"_ZN4core6option15Option$LT$T$GT$7or_else17h26dcf3b74d60a82cE"(ptr noalias noundef sret([56 x i8]) align 8 captures(address) dereferenceable(56) %_14, ptr noalias noundef align 8 captures(address) dereferenceable(56) %_15, ptr noalias noundef readonly align 8 captures(address, read_provenance) dereferenceable(8) %get_tool, ptr noalias noundef readonly align 8 captures(address, read_provenance) dereferenceable(24) %vs_install_dir)
          to label %bb5 unwind label %cleanup2

bb5:                                              ; preds = %bb4
  call void @llvm.lifetime.end.p0(i64 56, ptr %_15)
; invoke core::option::Option<T>::or_else
  invoke void @"_ZN4core6option15Option$LT$T$GT$7or_else17h24731f7149eda509E"(ptr noalias noundef sret([56 x i8]) align 8 captures(address) dereferenceable(56) %_0, ptr noalias noundef align 8 captures(address) dereferenceable(56) %_14, ptr noalias noundef readonly align 8 captures(address, read_provenance) dereferenceable(16) %env_getter, ptr noalias noundef readonly align 8 captures(address, read_provenance) dereferenceable(8) %get_tool)
          to label %bb6 unwind label %cleanup2

bb6:                                              ; preds = %bb5
  call void @llvm.lifetime.end.p0(i64 56, ptr %_14)
  call void @llvm.lifetime.end.p0(i64 8, ptr %get_tool)
; invoke core::ptr::drop_in_place<find_msvc_tools::find_tools::Env>
  invoke void @"_ZN4core3ptr53drop_in_place$LT$find_msvc_tools..find_tools..Env$GT$17hcfcab3b21dba781bE"(ptr noalias noundef align 8 dereferenceable(24) %vs_install_dir)
          to label %bb7 unwind label %cleanup

bb7:                                              ; preds = %bb6
  call void @llvm.lifetime.end.p0(i64 24, ptr %vs_install_dir)
; call core::ptr::drop_in_place<find_msvc_tools::find_tools::Env>
  call void @"_ZN4core3ptr53drop_in_place$LT$find_msvc_tools..find_tools..Env$GT$17hcfcab3b21dba781bE"(ptr noalias noundef align 8 dereferenceable(24) %vc_install_dir)
  call void @llvm.lifetime.end.p0(i64 24, ptr %vc_install_dir)
  br label %bb10

terminate:                                        ; preds = %bb12, %bb11
  %50 = landingpad { ptr, i32 }
          filter [0 x ptr] zeroinitializer
; call core::panicking::panic_in_cleanup
  call void @_ZN4core9panicking16panic_in_cleanup17h5eff40bcc4481d72E() #27
  unreachable

bb13:                                             ; preds = %bb12
  %51 = load ptr, ptr %4, align 8, !noundef !4
  %52 = getelementptr inbounds i8, ptr %4, i64 8
  %53 = load i32, ptr %52, align 8, !noundef !4
  call void @llvm.lifetime.end.p0(i64 16, ptr %4)
  %54 = insertvalue { ptr, i32 } poison, ptr %51, 0
  %55 = insertvalue { ptr, i32 } %54, i32 %53, 1
  resume { ptr, i32 } %55

bb2:                                              ; No predecessors!
  unreachable
}

; find_msvc_tools::find_tools::impl_::find_msvc_environment::{{closure}}
; Function Attrs: inlinehint nonlazybind uwtable
define internal void @"_ZN15find_msvc_tools10find_tools5impl_21find_msvc_environment28_$u7b$$u7b$closure$u7d$$u7d$17h76ef27c1d80510e6E"(ptr dead_on_unwind noalias noundef writable sret([56 x i8]) align 8 captures(address) dereferenceable(56) %_0, ptr noalias noundef readonly align 8 captures(address, read_provenance) dereferenceable(8) %_1, ptr noalias noundef nonnull readonly align 1 captures(address, read_provenance) %install_dir.0, i64 noundef %install_dir.1) unnamed_addr #1 {
start:
  %_21 = alloca [24 x i8], align 8
  %_20 = alloca [56 x i8], align 8
  %_19 = alloca [24 x i8], align 8
  %_14 = alloca [8 x i8], align 8
  %_13 = alloca [24 x i8], align 8
  %_11 = alloca [24 x i8], align 8
  %_9 = alloca [24 x i8], align 8
  %_8 = alloca [24 x i8], align 8
  %_5 = alloca [24 x i8], align 8
  %_4 = alloca [32 x i8], align 8
  %_3 = alloca [24 x i8], align 8
  call void @llvm.lifetime.start.p0(i64 24, ptr %_3)
  call void @llvm.lifetime.start.p0(i64 32, ptr %_4)
  call void @llvm.lifetime.start.p0(i64 24, ptr %_5)
  call void @llvm.lifetime.start.p0(i64 24, ptr %_8)
  call void @llvm.lifetime.start.p0(i64 24, ptr %_9)
  store ptr %install_dir.0, ptr %_9, align 8
  %0 = getelementptr inbounds i8, ptr %_9, i64 8
  store i64 %install_dir.1, ptr %0, align 8
  %1 = getelementptr inbounds i8, ptr %_9, i64 16
  store i8 0, ptr %1, align 8
  call void @llvm.memcpy.p0.p0.i64(ptr align 8 %_8, ptr align 8 %_9, i64 24, i1 false)
  call void @llvm.lifetime.end.p0(i64 24, ptr %_9)
  call void @llvm.memcpy.p0.p0.i64(ptr align 8 %_5, ptr align 8 %_8, i64 24, i1 false)
  call void @llvm.lifetime.end.p0(i64 24, ptr %_8)
  %_7 = load ptr, ptr %_1, align 8, !nonnull !4, !align !5, !noundef !4
  %2 = getelementptr inbounds i8, ptr %_4, i64 8
  call void @llvm.memcpy.p0.p0.i64(ptr align 8 %2, ptr align 8 %_5, i64 24, i1 false)
  store ptr %_7, ptr %_4, align 8
  call void @llvm.lifetime.end.p0(i64 24, ptr %_5)
  call void @llvm.lifetime.start.p0(i64 24, ptr %_11)
  %_15 = getelementptr inbounds i8, ptr %_4, i64 8
; call core::iter::traits::iterator::Iterator::try_fold
  call void @_ZN4core4iter6traits8iterator8Iterator8try_fold17hb1241dcb8d32c898E(ptr noalias noundef sret([24 x i8]) align 8 captures(address) dereferenceable(24) %_11, ptr noalias noundef align 8 dereferenceable(24) %_15, ptr noalias noundef align 8 dereferenceable(8) %_4)
  call void @llvm.lifetime.start.p0(i64 24, ptr %_13)
  call void @llvm.lifetime.start.p0(i64 8, ptr %_14)
  %3 = load i64, ptr %_11, align 8, !range !3, !noundef !4
  %4 = icmp eq i64 %3, -9223372036854775808
  %_12 = select i1 %4, i64 0, i64 1
  %5 = trunc nuw i64 %_12 to i1
  br i1 %5, label %bb2, label %bb3

bb2:                                              ; preds = %start
  call void @llvm.memcpy.p0.p0.i64(ptr align 8 %_13, ptr align 8 %_11, i64 24, i1 false)
  call void @llvm.memcpy.p0.p0.i64(ptr align 8 %_3, ptr align 8 %_13, i64 24, i1 false)
  %6 = load i64, ptr %_11, align 8, !range !3, !noundef !4
  %7 = icmp eq i64 %6, -9223372036854775808
  %8 = select i1 %7, i64 0, i64 1
  store i64 %8, ptr %_14, align 8
  %9 = load i64, ptr %_14, align 8, !noundef !4
  %10 = trunc nuw i64 %9 to i1
  br i1 %10, label %bb4, label %bb10

bb3:                                              ; preds = %start
  store i64 -9223372036854775808, ptr %_3, align 8
  %11 = load i64, ptr %_11, align 8, !range !3, !noundef !4
  %12 = icmp eq i64 %11, -9223372036854775808
  %13 = select i1 %12, i64 0, i64 1
  store i64 %13, ptr %_14, align 8
  %14 = load i64, ptr %_14, align 8, !noundef !4
  %15 = trunc nuw i64 %14 to i1
  br i1 %15, label %bb4, label %bb5

bb4:                                              ; preds = %bb2, %bb3
  call void @llvm.lifetime.end.p0(i64 8, ptr %_14)
  call void @llvm.lifetime.end.p0(i64 24, ptr %_13)
  call void @llvm.lifetime.end.p0(i64 24, ptr %_11)
  %16 = load i64, ptr %_3, align 8, !range !3, !noundef !4
  %17 = icmp eq i64 %16, -9223372036854775808
  %_18 = select i1 %17, i64 0, i64 1
  %18 = trunc nuw i64 %_18 to i1
  br i1 %18, label %bb9, label %bb8

bb5:                                              ; preds = %bb3
; call core::ptr::drop_in_place<core::ops::control_flow::ControlFlow<std::path::PathBuf>>
  call void @"_ZN4core3ptr83drop_in_place$LT$core..ops..control_flow..ControlFlow$LT$std..path..PathBuf$GT$$GT$17he486bd6d88ff05b8E"(ptr noalias noundef align 8 dereferenceable(24) %_11)
  call void @llvm.lifetime.end.p0(i64 8, ptr %_14)
  call void @llvm.lifetime.end.p0(i64 24, ptr %_13)
  call void @llvm.lifetime.end.p0(i64 24, ptr %_11)
  br label %bb8

bb8:                                              ; preds = %bb4, %bb5
  store i64 -9223372036854775808, ptr %_0, align 8
  br label %bb7

bb10:                                             ; preds = %bb2
; call core::ptr::drop_in_place<core::ops::control_flow::ControlFlow<std::path::PathBuf>>
  call void @"_ZN4core3ptr83drop_in_place$LT$core..ops..control_flow..ControlFlow$LT$std..path..PathBuf$GT$$GT$17he486bd6d88ff05b8E"(ptr noalias noundef align 8 dereferenceable(24) %_11)
  call void @llvm.lifetime.end.p0(i64 8, ptr %_14)
  call void @llvm.lifetime.end.p0(i64 24, ptr %_13)
  call void @llvm.lifetime.end.p0(i64 24, ptr %_11)
  br label %bb9

bb9:                                              ; preds = %bb10, %bb4
  call void @llvm.memcpy.p0.p0.i64(ptr align 8 %_19, ptr align 8 %_3, i64 24, i1 false)
  call void @llvm.lifetime.start.p0(i64 56, ptr %_20)
  call void @llvm.lifetime.start.p0(i64 24, ptr %_21)
  store i64 0, ptr %_21, align 8
  %19 = getelementptr inbounds i8, ptr %_21, i64 8
  store ptr inttoptr (i64 8 to ptr), ptr %19, align 8
  %20 = getelementptr inbounds i8, ptr %_21, i64 16
  store i64 0, ptr %20, align 8
  call void @llvm.memcpy.p0.p0.i64(ptr align 8 %_20, ptr align 8 %_19, i64 24, i1 false)
  %21 = getelementptr inbounds i8, ptr %_20, i64 48
  store i8 0, ptr %21, align 8
  %22 = getelementptr inbounds i8, ptr %_20, i64 24
  call void @llvm.memcpy.p0.p0.i64(ptr align 8 %22, ptr align 8 %_21, i64 24, i1 false)
  call void @llvm.lifetime.end.p0(i64 24, ptr %_21)
  call void @llvm.memcpy.p0.p0.i64(ptr align 8 %_0, ptr align 8 %_20, i64 56, i1 false)
  call void @llvm.lifetime.end.p0(i64 56, ptr %_20)
  br label %bb7

bb7:                                              ; preds = %bb9, %bb8
  call void @llvm.lifetime.end.p0(i64 24, ptr %_3)
  call void @llvm.lifetime.end.p0(i64 32, ptr %_4)
  ret void

bb1:                                              ; No predecessors!
  unreachable
}

; find_msvc_tools::find_tools::impl_::find_msvc_environment::{{closure}}
; Function Attrs: inlinehint nonlazybind uwtable
define internal void @"_ZN15find_msvc_tools10find_tools5impl_21find_msvc_environment28_$u7b$$u7b$closure$u7d$$u7d$17hb7ad139c67dcb908E"(ptr dead_on_unwind noalias noundef writable sret([56 x i8]) align 8 captures(address) dereferenceable(56) %_0, ptr noalias noundef readonly align 8 captures(address, read_provenance) dereferenceable(8) %_1.0, ptr noalias noundef readonly align 8 captures(address, read_provenance) dereferenceable(24) %_1.1) unnamed_addr #1 {
start:
  %_6 = alloca [16 x i8], align 8
  call void @llvm.lifetime.start.p0(i64 16, ptr %_6)
  %0 = load i64, ptr %_1.1, align 8, !range !3, !noundef !4
  %1 = icmp eq i64 %0, -9223372036854775808
  %_7 = select i1 %1, i64 1, i64 0
  %2 = trunc nuw i64 %_7 to i1
  br i1 %2, label %bb3, label %bb4

bb3:                                              ; preds = %start
  %3 = getelementptr inbounds i8, ptr %_1.1, i64 8
  %_11.0 = load ptr, ptr %3, align 8, !nonnull !4, !noundef !4
  %4 = getelementptr inbounds i8, ptr %3, i64 8
  %_11.1 = load i64, ptr %4, align 8, !noundef !4
  %5 = icmp ne ptr %_11.0, null
  call void @llvm.assume(i1 %5)
  %6 = mul nuw nsw i64 %_11.1, 1
  %7 = add i64 0, %6
  %8 = add i64 %7, 0
  %9 = and i64 %8, -1
  %10 = add i64 0, %9
  %11 = add i64 %10, 0
  %12 = and i64 %11, -1
  %_9.0 = getelementptr inbounds i8, ptr %_11.0, i64 16
  store ptr %_9.0, ptr %_6, align 8
  %13 = getelementptr inbounds i8, ptr %_6, i64 8
  store i64 %_11.1, ptr %13, align 8
  br label %bb5

bb4:                                              ; preds = %start
  %14 = getelementptr inbounds i8, ptr %_1.1, i64 8
  %_16 = load ptr, ptr %14, align 8, !nonnull !4, !noundef !4
  %15 = icmp ne ptr %_16, null
  call void @llvm.assume(i1 %15)
  %16 = getelementptr inbounds i8, ptr %_1.1, i64 16
  %_15 = load i64, ptr %16, align 8, !noundef !4
  store ptr %_16, ptr %_6, align 8
  %17 = getelementptr inbounds i8, ptr %_6, i64 8
  store i64 %_15, ptr %17, align 8
  br label %bb5

bb5:                                              ; preds = %bb3, %bb4
  %_3.0 = load ptr, ptr %_6, align 8, !nonnull !4, !align !6, !noundef !4
  %18 = getelementptr inbounds i8, ptr %_6, i64 8
  %_3.1 = load i64, ptr %18, align 8, !noundef !4
  call void @llvm.lifetime.end.p0(i64 16, ptr %_6)
; call find_msvc_tools::find_tools::impl_::find_msvc_environment::{{closure}}
  call void @"_ZN15find_msvc_tools10find_tools5impl_21find_msvc_environment28_$u7b$$u7b$closure$u7d$$u7d$17h76ef27c1d80510e6E"(ptr noalias noundef sret([56 x i8]) align 8 captures(address) dereferenceable(56) %_0, ptr noalias noundef readonly align 8 captures(address, read_provenance) dereferenceable(8) %_1.0, ptr noalias noundef nonnull readonly align 1 captures(address, read_provenance) %_3.0, i64 noundef %_3.1)
  ret void

bb2:                                              ; No predecessors!
  unreachable
}

; find_msvc_tools::find_tools::impl_::find_msvc_environment::{{closure}}
; Function Attrs: inlinehint nonlazybind uwtable
define internal void @"_ZN15find_msvc_tools10find_tools5impl_21find_msvc_environment28_$u7b$$u7b$closure$u7d$$u7d$17hc9c6b202dbc95db6E"(ptr dead_on_unwind noalias noundef writable sret([56 x i8]) align 8 captures(address) dereferenceable(56) %_0, ptr noalias noundef readonly align 8 captures(address, read_provenance) dereferenceable(16) %_1.0, ptr noalias noundef readonly align 8 captures(address, read_provenance) dereferenceable(8) %_1.1) unnamed_addr #1 personality ptr @rust_eh_personality {
start:
  %0 = alloca [16 x i8], align 8
  %_13 = alloca [16 x i8], align 8
  %_4 = alloca [24 x i8], align 8
  %_3 = alloca [8 x i8], align 8
  %_2 = alloca [16 x i8], align 8
  call void @llvm.lifetime.start.p0(i64 16, ptr %_2)
  call void @llvm.lifetime.start.p0(i64 8, ptr %_3)
  call void @llvm.lifetime.start.p0(i64 24, ptr %_4)
  %_7.0 = load ptr, ptr %_1.0, align 8, !nonnull !4, !align !6, !noundef !4
  %1 = getelementptr inbounds i8, ptr %_1.0, i64 8
  %_7.1 = load ptr, ptr %1, align 8, !nonnull !4, !align !5, !noundef !4
  %2 = getelementptr inbounds i8, ptr %_7.1, i64 24
  %3 = load ptr, ptr %2, align 8, !invariant.load !4, !nonnull !4
  call void %3(ptr noalias noundef sret([24 x i8]) align 8 captures(address) dereferenceable(24) %_4, ptr noundef align 1 %_7.0, ptr noalias noundef nonnull readonly align 1 captures(address, read_provenance) @alloc_0961b107d08cfdc5d889c0427a765b76, i64 noundef 4)
  %4 = load i64, ptr %_4, align 8, !range !10, !noundef !4
  %5 = icmp eq i64 %4, -9223372036854775807
  %_9 = select i1 %5, i64 0, i64 1
  %6 = trunc nuw i64 %_9 to i1
  br i1 %6, label %bb7, label %bb6

bb7:                                              ; preds = %start
  store ptr %_4, ptr %_3, align 8
  %_11 = load ptr, ptr %_3, align 8, !nonnull !4, !align !5, !noundef !4
  call void @llvm.lifetime.start.p0(i64 16, ptr %_13)
  %7 = load i64, ptr %_11, align 8, !range !3, !noundef !4
  %8 = icmp eq i64 %7, -9223372036854775808
  %_14 = select i1 %8, i64 1, i64 0
  %9 = trunc nuw i64 %_14 to i1
  br i1 %9, label %bb8, label %bb9

bb6:                                              ; preds = %start
  call void @llvm.lifetime.end.p0(i64 8, ptr %_3)
  store i64 -9223372036854775808, ptr %_0, align 8
  br label %bb11

bb11:                                             ; preds = %bb12, %bb6
  call void @llvm.lifetime.end.p0(i64 16, ptr %_2)
; call core::ptr::drop_in_place<core::option::Option<find_msvc_tools::find_tools::Env>>
  call void @"_ZN4core3ptr81drop_in_place$LT$core..option..Option$LT$find_msvc_tools..find_tools..Env$GT$$GT$17h14708ea578b44d79E"(ptr noalias noundef align 8 dereferenceable(24) %_4)
  call void @llvm.lifetime.end.p0(i64 24, ptr %_4)
  ret void

bb8:                                              ; preds = %bb7
  %10 = getelementptr inbounds i8, ptr %_11, i64 8
  %_18.0 = load ptr, ptr %10, align 8, !nonnull !4, !noundef !4
  %11 = getelementptr inbounds i8, ptr %10, i64 8
  %_18.1 = load i64, ptr %11, align 8, !noundef !4
  %12 = icmp ne ptr %_18.0, null
  call void @llvm.assume(i1 %12)
  %13 = mul nuw nsw i64 %_18.1, 1
  %14 = add i64 0, %13
  %15 = add i64 %14, 0
  %16 = and i64 %15, -1
  %17 = add i64 0, %16
  %18 = add i64 %17, 0
  %19 = and i64 %18, -1
  %_16.0 = getelementptr inbounds i8, ptr %_18.0, i64 16
  store ptr %_16.0, ptr %_13, align 8
  %20 = getelementptr inbounds i8, ptr %_13, i64 8
  store i64 %_18.1, ptr %20, align 8
  br label %bb10

bb9:                                              ; preds = %bb7
  %21 = getelementptr inbounds i8, ptr %_11, i64 8
  %_23 = load ptr, ptr %21, align 8, !nonnull !4, !noundef !4
  %22 = icmp ne ptr %_23, null
  call void @llvm.assume(i1 %22)
  %23 = getelementptr inbounds i8, ptr %_11, i64 16
  %_22 = load i64, ptr %23, align 8, !noundef !4
  store ptr %_23, ptr %_13, align 8
  %24 = getelementptr inbounds i8, ptr %_13, i64 8
  store i64 %_22, ptr %24, align 8
  br label %bb10

bb10:                                             ; preds = %bb8, %bb9
  %_12.0 = load ptr, ptr %_13, align 8, !nonnull !4, !align !6, !noundef !4
  %25 = getelementptr inbounds i8, ptr %_13, i64 8
  %_12.1 = load i64, ptr %25, align 8, !noundef !4
  call void @llvm.lifetime.end.p0(i64 16, ptr %_13)
  store ptr %_12.0, ptr %_2, align 8
  %26 = getelementptr inbounds i8, ptr %_2, i64 8
  store i64 %_12.1, ptr %26, align 8
  call void @llvm.lifetime.end.p0(i64 8, ptr %_3)
  %_5 = load ptr, ptr %_1.1, align 8, !nonnull !4, !align !5, !noundef !4
  %_27.0 = load ptr, ptr %_2, align 8, !nonnull !4, !align !6, !noundef !4
  %27 = getelementptr inbounds i8, ptr %_2, i64 8
  %_27.1 = load i64, ptr %27, align 8, !noundef !4
; invoke core::ops::function::FnOnce::call_once
  invoke void @_ZN4core3ops8function6FnOnce9call_once17h24ecb6616a79fc22E(ptr noalias noundef sret([56 x i8]) align 8 captures(address) dereferenceable(56) %_0, ptr noalias noundef readonly align 8 captures(address, read_provenance) dereferenceable(16) %_5, ptr noalias noundef nonnull readonly align 1 captures(address, read_provenance) %_27.0, i64 noundef %_27.1)
          to label %bb12 unwind label %cleanup

bb3:                                              ; preds = %cleanup
; invoke core::ptr::drop_in_place<core::option::Option<find_msvc_tools::find_tools::Env>>
  invoke void @"_ZN4core3ptr81drop_in_place$LT$core..option..Option$LT$find_msvc_tools..find_tools..Env$GT$$GT$17h14708ea578b44d79E"(ptr noalias noundef align 8 dereferenceable(24) %_4) #26
          to label %bb4 unwind label %terminate

cleanup:                                          ; preds = %bb10
  %28 = landingpad { ptr, i32 }
          cleanup
  %29 = extractvalue { ptr, i32 } %28, 0
  %30 = extractvalue { ptr, i32 } %28, 1
  call void @llvm.lifetime.start.p0(i64 16, ptr %0)
  store ptr %29, ptr %0, align 8
  %31 = getelementptr inbounds i8, ptr %0, i64 8
  store i32 %30, ptr %31, align 8
  br label %bb3

bb12:                                             ; preds = %bb10
  br label %bb11

terminate:                                        ; preds = %bb3
  %32 = landingpad { ptr, i32 }
          filter [0 x ptr] zeroinitializer
; call core::panicking::panic_in_cleanup
  call void @_ZN4core9panicking16panic_in_cleanup17h5eff40bcc4481d72E() #27
  unreachable

bb4:                                              ; preds = %bb3
  %33 = load ptr, ptr %0, align 8, !noundef !4
  %34 = getelementptr inbounds i8, ptr %0, i64 8
  %35 = load i32, ptr %34, align 8, !noundef !4
  call void @llvm.lifetime.end.p0(i64 16, ptr %0)
  %36 = insertvalue { ptr, i32 } poison, ptr %33, 0
  %37 = insertvalue { ptr, i32 } %36, i32 %35, 1
  resume { ptr, i32 } %37

bb5:                                              ; No predecessors!
  unreachable
}

; find_msvc_tools::find_tools::impl_::find_msvc_environment::{{closure}}::{{closure}}
; Function Attrs: inlinehint nonlazybind uwtable
define internal noundef zeroext i1 @"_ZN15find_msvc_tools10find_tools5impl_21find_msvc_environment28_$u7b$$u7b$closure$u7d$$u7d$28_$u7b$$u7b$closure$u7d$$u7d$17h0c0b425b610b5758E"(ptr noalias noundef nonnull align 1 %_1, ptr noalias noundef readonly align 8 captures(address, read_provenance) dereferenceable(24) %p) unnamed_addr #1 {
start:
  %_12 = alloca [176 x i8], align 8
  %0 = getelementptr inbounds i8, ptr %p, i64 8
  %_9 = load ptr, ptr %0, align 8, !nonnull !4, !noundef !4
  %1 = icmp ne ptr %_9, null
  call void @llvm.assume(i1 %1)
  %2 = getelementptr inbounds i8, ptr %p, i64 16
  %_8 = load i64, ptr %2, align 8, !noundef !4
  call void @llvm.lifetime.start.p0(i64 176, ptr %_12)
; call std::fs::metadata
  call void @_ZN3std2fs8metadata17ha8de8fbfe607c1f4E(ptr noalias noundef sret([176 x i8]) align 8 captures(address) dereferenceable(176) %_12, ptr noalias noundef nonnull readonly align 1 captures(address, read_provenance) %_9, i64 noundef %_8)
  %3 = load i64, ptr %_12, align 8, !range !11, !noundef !4
  %4 = icmp eq i64 %3, 2
  %_13 = select i1 %4, i64 1, i64 0
  %_0 = icmp eq i64 %_13, 0
; call core::ptr::drop_in_place<core::result::Result<std::fs::Metadata,std::io::error::Error>>
  call void @"_ZN4core3ptr90drop_in_place$LT$core..result..Result$LT$std..fs..Metadata$C$std..io..error..Error$GT$$GT$17hc122212dae7c1defE"(ptr noalias noundef align 8 dereferenceable(176) %_12)
  call void @llvm.lifetime.end.p0(i64 176, ptr %_12)
  ret i1 %_0
}

; find_msvc_tools::find_tools::impl_::find_msvc_environment::{{closure}}::{{closure}}
; Function Attrs: inlinehint nonlazybind uwtable
define internal void @"_ZN15find_msvc_tools10find_tools5impl_21find_msvc_environment28_$u7b$$u7b$closure$u7d$$u7d$28_$u7b$$u7b$closure$u7d$$u7d$17hfd65752fbf3b8bf7E"(ptr dead_on_unwind noalias noundef writable sret([24 x i8]) align 8 captures(address) dereferenceable(24) %_0, ptr noalias noundef align 8 dereferenceable(8) %_1, ptr dead_on_return noalias noundef align 8 captures(address) dereferenceable(24) %p) unnamed_addr #1 personality ptr @rust_eh_personality {
start:
  %0 = alloca [16 x i8], align 8
  %1 = getelementptr inbounds i8, ptr %p, i64 8
  %_11 = load ptr, ptr %1, align 8, !nonnull !4, !noundef !4
  %2 = icmp ne ptr %_11, null
  call void @llvm.assume(i1 %2)
  %3 = getelementptr inbounds i8, ptr %p, i64 16
  %_10 = load i64, ptr %3, align 8, !noundef !4
  %_5 = load ptr, ptr %_1, align 8, !nonnull !4, !align !5, !noundef !4
  %_4.0 = load ptr, ptr %_5, align 8, !nonnull !4, !align !6, !noundef !4
  %4 = getelementptr inbounds i8, ptr %_5, i64 8
  %_4.1 = load i64, ptr %4, align 8, !noundef !4
; invoke std::path::Path::join
  invoke void @_ZN3std4path4Path4join17h0c29ed1275f98bfbE(ptr noalias noundef sret([24 x i8]) align 8 captures(address) dereferenceable(24) %_0, ptr noalias noundef nonnull readonly align 1 captures(address, read_provenance) %_11, i64 noundef %_10, ptr noalias noundef nonnull readonly align 1 captures(address, read_provenance) %_4.0, i64 noundef %_4.1)
          to label %bb1 unwind label %cleanup

bb3:                                              ; preds = %cleanup
; invoke core::ptr::drop_in_place<std::path::PathBuf>
  invoke void @"_ZN4core3ptr39drop_in_place$LT$std..path..PathBuf$GT$17h4382936b21d81f71E"(ptr noalias noundef align 8 dereferenceable(24) %p) #26
          to label %bb4 unwind label %terminate

cleanup:                                          ; preds = %start
  %5 = landingpad { ptr, i32 }
          cleanup
  %6 = extractvalue { ptr, i32 } %5, 0
  %7 = extractvalue { ptr, i32 } %5, 1
  call void @llvm.lifetime.start.p0(i64 16, ptr %0)
  store ptr %6, ptr %0, align 8
  %8 = getelementptr inbounds i8, ptr %0, i64 8
  store i32 %7, ptr %8, align 8
  br label %bb3

bb1:                                              ; preds = %start
; call core::ptr::drop_in_place<std::path::PathBuf>
  call void @"_ZN4core3ptr39drop_in_place$LT$std..path..PathBuf$GT$17h4382936b21d81f71E"(ptr noalias noundef align 8 dereferenceable(24) %p)
  ret void

terminate:                                        ; preds = %bb3
  %9 = landingpad { ptr, i32 }
          filter [0 x ptr] zeroinitializer
; call core::panicking::panic_in_cleanup
  call void @_ZN4core9panicking16panic_in_cleanup17h5eff40bcc4481d72E() #27
  unreachable

bb4:                                              ; preds = %bb3
  %10 = load ptr, ptr %0, align 8, !noundef !4
  %11 = getelementptr inbounds i8, ptr %0, i64 8
  %12 = load i32, ptr %11, align 8, !noundef !4
  call void @llvm.lifetime.end.p0(i64 16, ptr %0)
  %13 = insertvalue { ptr, i32 } poison, ptr %10, 0
  %14 = insertvalue { ptr, i32 } %13, i32 %12, 1
  resume { ptr, i32 } %14
}

; find_msvc_tools::find_tools::find_tool
; Function Attrs: nonlazybind uwtable
define void @_ZN15find_msvc_tools10find_tools9find_tool17hd8e85edd24a905b9E(ptr dead_on_unwind noalias noundef writable sret([56 x i8]) align 8 captures(address) dereferenceable(56) %_0, ptr noalias noundef nonnull readonly align 1 captures(address, read_provenance) %arch_or_target.0, i64 noundef %arch_or_target.1, ptr noalias noundef nonnull readonly align 1 captures(address, read_provenance) %tool.0, i64 noundef %tool.1) unnamed_addr #0 {
start:
  %_4 = alloca [32 x i8], align 8
  %full_arch = alloca [16 x i8], align 8
  call void @llvm.lifetime.start.p0(i64 16, ptr %full_arch)
  call void @llvm.lifetime.start.p0(i64 32, ptr %_4)
; call core::str::<impl str>::split_once
  call void @"_ZN4core3str21_$LT$impl$u20$str$GT$10split_once17h588468293af0472dE"(ptr noalias noundef sret([32 x i8]) align 8 captures(address) dereferenceable(32) %_4, ptr noalias noundef nonnull readonly align 1 captures(address, read_provenance) %arch_or_target.0, i64 noundef %arch_or_target.1, ptr noalias noundef nonnull readonly align 1 captures(address, read_provenance) @alloc_3bb2650aa074fcfb8c10a9c40791bfbc, i64 noundef 1)
  %0 = load ptr, ptr %_4, align 8, !noundef !4
  %1 = ptrtoint ptr %0 to i64
  %2 = icmp eq i64 %1, 0
  %_5 = select i1 %2, i64 0, i64 1
  %3 = trunc nuw i64 %_5 to i1
  br i1 %3, label %bb2, label %bb5

bb2:                                              ; preds = %start
  %full_arch.0 = load ptr, ptr %_4, align 8, !nonnull !4, !align !6, !noundef !4
  %4 = getelementptr inbounds i8, ptr %_4, i64 8
  %full_arch.1 = load i64, ptr %4, align 8, !noundef !4
  %5 = getelementptr inbounds i8, ptr %_4, i64 16
  %rest.0 = load ptr, ptr %5, align 8, !nonnull !4, !align !6, !noundef !4
  %6 = getelementptr inbounds i8, ptr %5, i64 8
  %rest.1 = load i64, ptr %6, align 8, !noundef !4
; call <&str as core::str::pattern::Pattern>::is_contained_in
  %_8 = call noundef zeroext i1 @"_ZN55_$LT$$RF$str$u20$as$u20$core..str..pattern..Pattern$GT$15is_contained_in17hbec7160a0e3b1a28E"(ptr noalias noundef nonnull readonly align 1 captures(address, read_provenance) @alloc_0b31f4562230d243936ff2637ae71e88, i64 noundef 4, ptr noalias noundef nonnull readonly align 1 captures(address, read_provenance) %rest.0, i64 noundef %rest.1)
  br i1 %_8, label %bb3, label %bb4

bb5:                                              ; preds = %start
  store ptr %arch_or_target.0, ptr %full_arch, align 8
  %7 = getelementptr inbounds i8, ptr %full_arch, i64 8
  store i64 %arch_or_target.1, ptr %7, align 8
  br label %bb6

bb4:                                              ; preds = %bb2
  store i64 -9223372036854775808, ptr %_0, align 8
  call void @llvm.lifetime.end.p0(i64 32, ptr %_4)
  call void @llvm.lifetime.end.p0(i64 16, ptr %full_arch)
  br label %bb8

bb3:                                              ; preds = %bb2
  store ptr %full_arch.0, ptr %full_arch, align 8
  %8 = getelementptr inbounds i8, ptr %full_arch, i64 8
  store i64 %full_arch.1, ptr %8, align 8
  br label %bb6

bb8:                                              ; preds = %bb6, %bb4
  ret void

bb6:                                              ; preds = %bb5, %bb3
  call void @llvm.lifetime.end.p0(i64 32, ptr %_4)
  %_9.0 = load ptr, ptr %full_arch, align 8, !nonnull !4, !align !6, !noundef !4
  %9 = getelementptr inbounds i8, ptr %full_arch, i64 8
  %_9.1 = load i64, ptr %9, align 8, !noundef !4
; call find_msvc_tools::find_tools::find_tool_with_env
  call void @_ZN15find_msvc_tools10find_tools18find_tool_with_env17h36dc0c312c0bfc61E(ptr noalias noundef sret([56 x i8]) align 8 captures(address) dereferenceable(56) %_0, ptr noalias noundef nonnull readonly align 1 captures(address, read_provenance) %_9.0, i64 noundef %_9.1, ptr noalias noundef nonnull readonly align 1 captures(address, read_provenance) %tool.0, i64 noundef %tool.1, ptr noundef nonnull align 1 inttoptr (i64 1 to ptr), ptr noalias noundef readonly align 8 captures(address, read_provenance) dereferenceable(32) @vtable.0)
  call void @llvm.lifetime.end.p0(i64 16, ptr %full_arch)
  br label %bb8

bb10:                                             ; No predecessors!
  unreachable
}

; find_msvc_tools::tool::Tool::to_command
; Function Attrs: nonlazybind uwtable
define void @_ZN15find_msvc_tools4tool4Tool10to_command17h597423d1f29d0360E(ptr dead_on_unwind noalias noundef writable sret([200 x i8]) align 8 captures(address) dereferenceable(200) %_0, ptr noalias noundef readonly align 8 captures(address, read_provenance) dereferenceable(56) %self) unnamed_addr #0 personality ptr @rust_eh_personality {
start:
  %0 = alloca [16 x i8], align 8
  %iter = alloca [8 x i8], align 8
  %_4 = alloca [8 x i8], align 8
  %cmd = alloca [200 x i8], align 8
  call void @llvm.lifetime.start.p0(i64 200, ptr %cmd)
; call std::process::Command::new
  call void @_ZN3std7process7Command3new17h0bf0093295d2f98cE(ptr noalias noundef sret([200 x i8]) align 8 captures(address) dereferenceable(200) %cmd, ptr noalias noundef readonly align 8 captures(address, read_provenance) dereferenceable(24) %self)
  %1 = getelementptr inbounds i8, ptr %self, i64 24
  %2 = getelementptr inbounds i8, ptr %1, i64 8
  %_13 = load ptr, ptr %2, align 8, !nonnull !4, !noundef !4
  %3 = icmp ne ptr %_13, null
  call void @llvm.assume(i1 %3)
  %4 = getelementptr inbounds i8, ptr %self, i64 24
  %5 = getelementptr inbounds i8, ptr %4, i64 16
  %_12 = load i64, ptr %5, align 8, !noundef !4
  %6 = icmp ne ptr %_13, null
  call void @llvm.assume(i1 %6)
  %7 = icmp ne ptr %_13, null
  call void @llvm.assume(i1 %7)
  %_16 = getelementptr inbounds nuw { %"std::ffi::os_str::OsString", %"std::ffi::os_str::OsString" }, ptr %_13, i64 %_12
  call void @llvm.lifetime.start.p0(i64 8, ptr %iter)
  store ptr %_13, ptr %iter, align 8
  br label %bb2

bb2:                                              ; preds = %bb3, %start
  call void @llvm.lifetime.start.p0(i64 8, ptr %_4)
  %_18 = load ptr, ptr %iter, align 8, !nonnull !4, !noundef !4
  %8 = icmp ne ptr %_16, null
  call void @llvm.assume(i1 %8)
  %9 = icmp ne ptr %_18, null
  call void @llvm.assume(i1 %9)
  %10 = icmp ne ptr %_16, null
  call void @llvm.assume(i1 %10)
  %_19 = icmp eq ptr %_18, %_16
  br i1 %_19, label %bb6, label %bb7

bb7:                                              ; preds = %bb2
  %11 = icmp ne ptr %_18, null
  call void @llvm.assume(i1 %11)
  %_25 = getelementptr inbounds nuw { %"std::ffi::os_str::OsString", %"std::ffi::os_str::OsString" }, ptr %_18, i64 1
  %12 = icmp ne ptr %_25, null
  call void @llvm.assume(i1 %12)
  store ptr %_25, ptr %iter, align 8
  %13 = icmp ne ptr %_18, null
  call void @llvm.assume(i1 %13)
  store ptr %_18, ptr %_4, align 8
  %_9 = load ptr, ptr %_4, align 8, !nonnull !4, !align !5, !noundef !4
  %_10 = load ptr, ptr %_4, align 8, !nonnull !4, !align !5, !noundef !4
  %v = getelementptr inbounds i8, ptr %_10, i64 24
; invoke std::process::Command::env
  %_7 = invoke noundef align 8 dereferenceable(200) ptr @_ZN3std7process7Command3env17hc16f5c2fc7fb728dE(ptr noalias noundef align 8 dereferenceable(200) %cmd, ptr noalias noundef readonly align 8 captures(address, read_provenance) dereferenceable(24) %_9, ptr noalias noundef readonly align 8 captures(address, read_provenance) dereferenceable(24) %v)
          to label %bb3 unwind label %cleanup

bb6:                                              ; preds = %bb2
  call void @llvm.lifetime.end.p0(i64 8, ptr %_4)
  call void @llvm.lifetime.end.p0(i64 8, ptr %iter)
  call void @llvm.memcpy.p0.p0.i64(ptr align 8 %_0, ptr align 8 %cmd, i64 200, i1 false)
  call void @llvm.lifetime.end.p0(i64 200, ptr %cmd)
  ret void

bb4:                                              ; preds = %cleanup
; invoke core::ptr::drop_in_place<std::process::Command>
  invoke void @"_ZN4core3ptr42drop_in_place$LT$std..process..Command$GT$17h3f37b8b230f9bb43E"(ptr noalias noundef align 8 dereferenceable(200) %cmd) #26
          to label %bb5 unwind label %terminate

cleanup:                                          ; preds = %bb7
  %14 = landingpad { ptr, i32 }
          cleanup
  %15 = extractvalue { ptr, i32 } %14, 0
  %16 = extractvalue { ptr, i32 } %14, 1
  call void @llvm.lifetime.start.p0(i64 16, ptr %0)
  store ptr %15, ptr %0, align 8
  %17 = getelementptr inbounds i8, ptr %0, i64 8
  store i32 %16, ptr %17, align 8
  br label %bb4

bb3:                                              ; preds = %bb7
  call void @llvm.lifetime.end.p0(i64 8, ptr %_4)
  br label %bb2

terminate:                                        ; preds = %bb4
  %18 = landingpad { ptr, i32 }
          filter [0 x ptr] zeroinitializer
; call core::panicking::panic_in_cleanup
  call void @_ZN4core9panicking16panic_in_cleanup17h5eff40bcc4481d72E() #27
  unreachable

bb5:                                              ; preds = %bb4
  %19 = load ptr, ptr %0, align 8, !noundef !4
  %20 = getelementptr inbounds i8, ptr %0, i64 8
  %21 = load i32, ptr %20, align 8, !noundef !4
  call void @llvm.lifetime.end.p0(i64 16, ptr %0)
  %22 = insertvalue { ptr, i32 } poison, ptr %19, 0
  %23 = insertvalue { ptr, i32 } %22, i32 %21, 1
  resume { ptr, i32 } %23
}

; <<alloc::collections::btree::map::IntoIter<K,V,A> as core::ops::drop::Drop>::drop::DropGuard<K,V,A> as core::ops::drop::Drop>::drop
; Function Attrs: nonlazybind uwtable
define internal void @"_ZN174_$LT$$LT$alloc..collections..btree..map..IntoIter$LT$K$C$V$C$A$GT$$u20$as$u20$core..ops..drop..Drop$GT$..drop..DropGuard$LT$K$C$V$C$A$GT$$u20$as$u20$core..ops..drop..Drop$GT$4drop17h33a70346dc810739E"(ptr noalias noundef align 8 dereferenceable(8) %self) unnamed_addr #0 {
start:
  %kv = alloca [24 x i8], align 8
  %_2 = alloca [24 x i8], align 8
  br label %bb1

bb1:                                              ; preds = %bb3, %start
  call void @llvm.lifetime.start.p0(i64 24, ptr %_2)
  %_6 = load ptr, ptr %self, align 8, !nonnull !4, !align !5, !noundef !4
; call alloc::collections::btree::map::IntoIter<K,V,A>::dying_next
  call void @"_ZN5alloc11collections5btree3map25IntoIter$LT$K$C$V$C$A$GT$10dying_next17h61af1024f7a71359E"(ptr noalias noundef sret([24 x i8]) align 8 captures(address) dereferenceable(24) %_2, ptr noalias noundef align 8 dereferenceable(72) %_6)
  %0 = load ptr, ptr %_2, align 8, !noundef !4
  %1 = ptrtoint ptr %0 to i64
  %2 = icmp eq i64 %1, 0
  %_3 = select i1 %2, i64 0, i64 1
  %3 = trunc nuw i64 %_3 to i1
  br i1 %3, label %bb3, label %bb5

bb3:                                              ; preds = %bb1
  call void @llvm.memcpy.p0.p0.i64(ptr align 8 %kv, ptr align 8 %_2, i64 24, i1 false)
; call alloc::collections::btree::node::Handle<alloc::collections::btree::node::NodeRef<alloc::collections::btree::node::marker::Dying,K,V,NodeType>,alloc::collections::btree::node::marker::KV>::drop_key_val
  call void @"_ZN5alloc11collections5btree4node173Handle$LT$alloc..collections..btree..node..NodeRef$LT$alloc..collections..btree..node..marker..Dying$C$K$C$V$C$NodeType$GT$$C$alloc..collections..btree..node..marker..KV$GT$12drop_key_val17h7124a14afb43ea52E"(ptr noalias noundef align 8 captures(address) dereferenceable(24) %kv)
  call void @llvm.lifetime.end.p0(i64 24, ptr %_2)
  br label %bb1

bb5:                                              ; preds = %bb1
  call void @llvm.lifetime.end.p0(i64 24, ptr %_2)
  ret void

bb6:                                              ; No predecessors!
  unreachable
}

; <core::ops::control_flow::ControlFlow<B,C> as core::ops::try_trait::FromResidual<core::ops::control_flow::ControlFlow<B,core::convert::Infallible>>>::from_residual
; Function Attrs: inlinehint nonlazybind uwtable
define internal void @"_ZN185_$LT$core..ops..control_flow..ControlFlow$LT$B$C$C$GT$$u20$as$u20$core..ops..try_trait..FromResidual$LT$core..ops..control_flow..ControlFlow$LT$B$C$core..convert..Infallible$GT$$GT$$GT$13from_residual17h151c0b56c797b53fE"(ptr dead_on_unwind noalias noundef writable sret([24 x i8]) align 8 captures(address) dereferenceable(24) %_0, ptr dead_on_return noalias noundef align 8 captures(address) dereferenceable(24) %residual) unnamed_addr #1 {
start:
  %_2 = alloca [24 x i8], align 8
  call void @llvm.memcpy.p0.p0.i64(ptr align 8 %_2, ptr align 8 %residual, i64 24, i1 false)
  call void @llvm.memcpy.p0.p0.i64(ptr align 8 %_0, ptr align 8 %_2, i64 24, i1 false)
  ret void
}

; <core::ops::control_flow::ControlFlow<B,C> as core::ops::try_trait::FromResidual<core::ops::control_flow::ControlFlow<B,core::convert::Infallible>>>::from_residual
; Function Attrs: inlinehint nonlazybind uwtable
define internal noundef zeroext i1 @"_ZN185_$LT$core..ops..control_flow..ControlFlow$LT$B$C$C$GT$$u20$as$u20$core..ops..try_trait..FromResidual$LT$core..ops..control_flow..ControlFlow$LT$B$C$core..convert..Infallible$GT$$GT$$GT$13from_residual17h9a27f823ad25c038E"() unnamed_addr #1 {
start:
  ret i1 true
}

; <core::ops::control_flow::ControlFlow<B,C> as core::ops::try_trait::FromResidual<core::ops::control_flow::ControlFlow<B,core::convert::Infallible>>>::from_residual
; Function Attrs: inlinehint nonlazybind uwtable
define internal { i64, i64 } @"_ZN185_$LT$core..ops..control_flow..ControlFlow$LT$B$C$C$GT$$u20$as$u20$core..ops..try_trait..FromResidual$LT$core..ops..control_flow..ControlFlow$LT$B$C$core..convert..Infallible$GT$$GT$$GT$13from_residual17h9c30303599dacef0E"(i64 noundef %residual) unnamed_addr #1 {
start:
  %0 = insertvalue { i64, i64 } { i64 1, i64 poison }, i64 %residual, 1
  ret { i64, i64 } %0
}

; <alloc::collections::btree::node::Handle<alloc::collections::btree::node::NodeRef<alloc::collections::btree::node::marker::Dying,K,V,NodeType>,alloc::collections::btree::node::marker::KV>::drop_key_val::Dropper<T> as core::ops::drop::Drop>::drop
; Function Attrs: inlinehint nonlazybind uwtable
define internal void @"_ZN280_$LT$alloc..collections..btree..node..Handle$LT$alloc..collections..btree..node..NodeRef$LT$alloc..collections..btree..node..marker..Dying$C$K$C$V$C$NodeType$GT$$C$alloc..collections..btree..node..marker..KV$GT$..drop_key_val..Dropper$LT$T$GT$$u20$as$u20$core..ops..drop..Drop$GT$4drop17h9b15a1140d402e4fE"(ptr noalias noundef align 8 dereferenceable(8) %self) unnamed_addr #1 {
start:
  %self1 = load ptr, ptr %self, align 8, !nonnull !4, !align !5, !noundef !4
; call core::ptr::drop_in_place<core::option::Option<std::ffi::os_str::OsString>>
  call void @"_ZN4core3ptr75drop_in_place$LT$core..option..Option$LT$std..ffi..os_str..OsString$GT$$GT$17hb34784fb6a7bd87aE"(ptr noalias noundef align 8 dereferenceable(24) %self1)
  ret void
}

; std::fs::metadata
; Function Attrs: nonlazybind uwtable
define internal void @_ZN3std2fs8metadata17ha8de8fbfe607c1f4E(ptr dead_on_unwind noalias noundef writable sret([176 x i8]) align 8 captures(address) dereferenceable(176) %_0, ptr noalias noundef nonnull readonly align 1 captures(address, read_provenance) %0, i64 noundef %1) unnamed_addr #0 personality ptr @rust_eh_personality {
start:
  %2 = alloca [16 x i8], align 8
  %_7 = alloca [176 x i8], align 8
  %t = alloca [176 x i8], align 8
  %self = alloca [176 x i8], align 8
  %path = alloca [16 x i8], align 8
  store ptr %0, ptr %path, align 8
  %3 = getelementptr inbounds i8, ptr %path, i64 8
  store i64 %1, ptr %3, align 8
  call void @llvm.lifetime.start.p0(i64 176, ptr %self)
; invoke <&T as core::convert::AsRef<U>>::as_ref
  %4 = invoke { ptr, i64 } @"_ZN55_$LT$$RF$T$u20$as$u20$core..convert..AsRef$LT$U$GT$$GT$6as_ref17h7883a368a495c326E"(ptr noalias noundef readonly align 8 captures(address, read_provenance) dereferenceable(16) %path)
          to label %bb1 unwind label %cleanup

bb4:                                              ; preds = %cleanup
  %5 = load ptr, ptr %2, align 8, !noundef !4
  %6 = getelementptr inbounds i8, ptr %2, i64 8
  %7 = load i32, ptr %6, align 8, !noundef !4
  call void @llvm.lifetime.end.p0(i64 16, ptr %2)
  %8 = insertvalue { ptr, i32 } poison, ptr %5, 0
  %9 = insertvalue { ptr, i32 } %8, i32 %7, 1
  resume { ptr, i32 } %9

cleanup:                                          ; preds = %bb1, %start
  %10 = landingpad { ptr, i32 }
          cleanup
  %11 = extractvalue { ptr, i32 } %10, 0
  %12 = extractvalue { ptr, i32 } %10, 1
  call void @llvm.lifetime.start.p0(i64 16, ptr %2)
  store ptr %11, ptr %2, align 8
  %13 = getelementptr inbounds i8, ptr %2, i64 8
  store i32 %12, ptr %13, align 8
  br label %bb4

bb1:                                              ; preds = %start
  %_3.0 = extractvalue { ptr, i64 } %4, 0
  %_3.1 = extractvalue { ptr, i64 } %4, 1
; invoke std::sys::fs::metadata
  invoke void @_ZN3std3sys2fs8metadata17h10d72764d6b6a0fdE(ptr noalias noundef sret([176 x i8]) align 8 captures(address) dereferenceable(176) %self, ptr noalias noundef nonnull readonly align 1 captures(address, read_provenance) %_3.0, i64 noundef %_3.1)
          to label %bb2 unwind label %cleanup

bb2:                                              ; preds = %bb1
  %14 = load i64, ptr %self, align 8, !range !11, !noundef !4
  %15 = icmp eq i64 %14, 2
  %_5 = select i1 %15, i64 1, i64 0
  %16 = trunc nuw i64 %_5 to i1
  br i1 %16, label %bb8, label %bb9

bb8:                                              ; preds = %bb2
  %17 = getelementptr inbounds i8, ptr %self, i64 8
  %e = load ptr, ptr %17, align 8, !nonnull !4, !noundef !4
  %18 = getelementptr inbounds i8, ptr %_0, i64 8
  store ptr %e, ptr %18, align 8
  store i64 2, ptr %_0, align 8
  br label %bb6

bb9:                                              ; preds = %bb2
  call void @llvm.memcpy.p0.p0.i64(ptr align 8 %t, ptr align 8 %self, i64 176, i1 false)
  call void @llvm.lifetime.start.p0(i64 176, ptr %_7)
  call void @llvm.memcpy.p0.p0.i64(ptr align 8 %_7, ptr align 8 %t, i64 176, i1 false)
  call void @llvm.memcpy.p0.p0.i64(ptr align 8 %_0, ptr align 8 %_7, i64 176, i1 false)
  call void @llvm.lifetime.end.p0(i64 176, ptr %_7)
  br label %bb6

bb6:                                              ; preds = %bb8, %bb9
  call void @llvm.lifetime.end.p0(i64 176, ptr %self)
  ret void

bb7:                                              ; No predecessors!
  unreachable
}

; std::io::error::repr_bitpacked::decode_repr
; Function Attrs: inlinehint nonlazybind uwtable
define internal void @_ZN3std2io5error14repr_bitpacked11decode_repr17had45fcffe4cb0b0dE(ptr dead_on_unwind noalias noundef writable sret([16 x i8]) align 8 captures(address) dereferenceable(16) %_0, ptr noundef nonnull %ptr) unnamed_addr #1 personality ptr @rust_eh_personality {
start:
  %0 = alloca [8 x i8], align 8
  %1 = alloca [16 x i8], align 8
  %_21 = alloca [1 x i8], align 1
  %self = alloca [1 x i8], align 1
  %bits = alloca [8 x i8], align 8
  store i8 1, ptr %_21, align 1
  %2 = icmp ne ptr %ptr, null
  call void @llvm.assume(i1 %2)
  store ptr %ptr, ptr %bits, align 8
  %3 = load i64, ptr %bits, align 8, !noundef !4
  %_5 = and i64 %3, 3
  switch i64 %_5, label %bb1 [
    i64 2, label %bb5
    i64 3, label %bb4
    i64 0, label %bb3
    i64 1, label %bb2
  ], !prof !12

bb1:                                              ; preds = %start
; invoke core::panicking::panic
  invoke void @_ZN4core9panicking5panic17ha264d2bb233f2b69E(ptr noalias noundef nonnull readonly align 1 captures(address, read_provenance) @alloc_a500d906b91607583596fa15e63c2ada, i64 noundef 40, ptr noalias noundef readonly align 8 captures(address, read_provenance) dereferenceable(24) @alloc_df38229897fa3f90ed81b968e38fcae7) #25
          to label %unreachable unwind label %cleanup

bb5:                                              ; preds = %start
  %_8 = load i64, ptr %bits, align 8, !noundef !4
  %_7 = ashr i64 %_8, 32
  %code = trunc i64 %_7 to i32
  %4 = getelementptr inbounds i8, ptr %_0, i64 4
  store i32 %code, ptr %4, align 4
  store i8 0, ptr %_0, align 8
  br label %bb10

bb4:                                              ; preds = %start
  %5 = load i64, ptr %bits, align 8, !noundef !4
  %_10 = lshr i64 %5, 32
  %kind_bits = trunc i64 %_10 to i32
  call void @llvm.lifetime.start.p0(i64 1, ptr %self)
; invoke std::io::error::repr_bitpacked::kind_from_prim
  %6 = invoke noundef i8 @_ZN3std2io5error14repr_bitpacked14kind_from_prim17ha428e760b484da2bE(i32 noundef %kind_bits)
          to label %bb6 unwind label %cleanup

bb3:                                              ; preds = %start
  %7 = icmp ne ptr %ptr, null
  call void @llvm.assume(i1 %7)
  %8 = icmp ne ptr %ptr, null
  call void @llvm.assume(i1 %8)
  %9 = icmp ne ptr %ptr, null
  call void @llvm.assume(i1 %9)
  %10 = getelementptr inbounds i8, ptr %_0, i64 8
  store ptr %ptr, ptr %10, align 8
  store i8 2, ptr %_0, align 8
  br label %bb10

bb2:                                              ; preds = %start
  %11 = icmp ne ptr %ptr, null
  call void @llvm.assume(i1 %11)
  %12 = icmp ne ptr %ptr, null
  call void @llvm.assume(i1 %12)
  call void @llvm.lifetime.start.p0(i64 8, ptr %0)
  %13 = getelementptr i8, ptr %ptr, i64 -1
  store ptr %13, ptr %0, align 8
  %_35 = load ptr, ptr %0, align 8, !noundef !4
  call void @llvm.lifetime.end.p0(i64 8, ptr %0)
  %14 = icmp ne ptr %ptr, null
  call void @llvm.assume(i1 %14)
  store i8 0, ptr %_21, align 1
; invoke <std::io::error::repr_bitpacked::Repr as core::ops::drop::Drop>::drop::{{closure}}
  %_17 = invoke noundef nonnull align 8 ptr @"_ZN78_$LT$std..io..error..repr_bitpacked..Repr$u20$as$u20$core..ops..drop..Drop$GT$4drop28_$u7b$$u7b$closure$u7d$$u7d$17h22d75dd43225215aE"(ptr noundef %_35)
          to label %bb7 unwind label %cleanup

bb10:                                             ; preds = %bb3, %bb15, %bb5
  br label %bb8

bb12:                                             ; preds = %cleanup
  %15 = load i8, ptr %_21, align 1, !range !13, !noundef !4
  %16 = trunc nuw i8 %15 to i1
  br i1 %16, label %bb11, label %bb9

cleanup:                                          ; preds = %bb1, %bb2, %bb4
  %17 = landingpad { ptr, i32 }
          cleanup
  %18 = extractvalue { ptr, i32 } %17, 0
  %19 = extractvalue { ptr, i32 } %17, 1
  call void @llvm.lifetime.start.p0(i64 16, ptr %1)
  store ptr %18, ptr %1, align 8
  %20 = getelementptr inbounds i8, ptr %1, i64 8
  store i32 %19, ptr %20, align 8
  br label %bb12

bb6:                                              ; preds = %bb4
  store i8 %6, ptr %self, align 1
  %21 = load i8, ptr %self, align 1, !range !14, !noundef !4
  %22 = icmp eq i8 %21, 42
  %_23 = select i1 %22, i64 0, i64 1
  %23 = trunc nuw i64 %_23 to i1
  %24 = call i1 @llvm.expect.i1(i1 %23, i1 true)
  br i1 %24, label %bb15, label %bb14

bb15:                                             ; preds = %bb6
  %kind = load i8, ptr %self, align 1, !range !15, !noundef !4
  call void @llvm.lifetime.end.p0(i64 1, ptr %self)
  %25 = getelementptr inbounds i8, ptr %_0, i64 1
  store i8 %kind, ptr %25, align 1
  store i8 1, ptr %_0, align 8
  br label %bb10

bb14:                                             ; preds = %bb6
  call void @llvm.assume(i1 false)
; call core::hint::unreachable_unchecked::precondition_check
  call void @_ZN4core4hint21unreachable_unchecked18precondition_check17heae5cbc02e67f073E(ptr noalias noundef readonly align 8 captures(address, read_provenance) dereferenceable(24) @alloc_c46812334728ce009f8cea92fbb7a3bb) #28
  br label %bb13

bb13:                                             ; preds = %bb14
  unreachable

bb8:                                              ; preds = %bb7, %bb10
  ret void

bb7:                                              ; preds = %bb2
  %26 = getelementptr inbounds i8, ptr %_0, i64 8
  store ptr %_17, ptr %26, align 8
  store i8 3, ptr %_0, align 8
  br label %bb8

unreachable:                                      ; preds = %bb1
  unreachable

bb9:                                              ; preds = %bb11, %bb12
  %27 = load ptr, ptr %1, align 8, !noundef !4
  %28 = getelementptr inbounds i8, ptr %1, i64 8
  %29 = load i32, ptr %28, align 8, !noundef !4
  call void @llvm.lifetime.end.p0(i64 16, ptr %1)
  %30 = insertvalue { ptr, i32 } poison, ptr %27, 0
  %31 = insertvalue { ptr, i32 } %30, i32 %29, 1
  resume { ptr, i32 } %31

bb11:                                             ; preds = %bb12
  br label %bb9
}

; std::io::error::repr_bitpacked::kind_from_prim
; Function Attrs: inlinehint nonlazybind uwtable
define internal noundef range(i8 0, 43) i8 @_ZN3std2io5error14repr_bitpacked14kind_from_prim17ha428e760b484da2bE(i32 noundef %0) unnamed_addr #1 {
start:
  %_0 = alloca [1 x i8], align 1
  %ek = alloca [4 x i8], align 4
  store i32 %0, ptr %ek, align 4
  %1 = load i32, ptr %ek, align 4, !noundef !4
  %2 = icmp eq i32 %1, 0
  br i1 %2, label %bb1, label %bb2

bb1:                                              ; preds = %start
  store i8 0, ptr %_0, align 1
  br label %bb85

bb2:                                              ; preds = %start
  %3 = load i32, ptr %ek, align 4, !noundef !4
  %4 = icmp eq i32 %3, 1
  br i1 %4, label %bb3, label %bb4

bb85:                                             ; preds = %bb84, %bb83, %bb81, %bb79, %bb77, %bb75, %bb73, %bb71, %bb69, %bb67, %bb65, %bb63, %bb61, %bb59, %bb57, %bb55, %bb53, %bb51, %bb49, %bb47, %bb45, %bb43, %bb41, %bb39, %bb37, %bb35, %bb33, %bb31, %bb29, %bb27, %bb25, %bb23, %bb21, %bb19, %bb17, %bb15, %bb13, %bb11, %bb9, %bb7, %bb5, %bb3, %bb1
  %5 = load i8, ptr %_0, align 1, !range !14, !noundef !4
  ret i8 %5

bb3:                                              ; preds = %bb2
  store i8 1, ptr %_0, align 1
  br label %bb85

bb4:                                              ; preds = %bb2
  %6 = load i32, ptr %ek, align 4, !noundef !4
  %7 = icmp eq i32 %6, 2
  br i1 %7, label %bb5, label %bb6

bb5:                                              ; preds = %bb4
  store i8 2, ptr %_0, align 1
  br label %bb85

bb6:                                              ; preds = %bb4
  %8 = load i32, ptr %ek, align 4, !noundef !4
  %9 = icmp eq i32 %8, 3
  br i1 %9, label %bb7, label %bb8

bb7:                                              ; preds = %bb6
  store i8 3, ptr %_0, align 1
  br label %bb85

bb8:                                              ; preds = %bb6
  %10 = load i32, ptr %ek, align 4, !noundef !4
  %11 = icmp eq i32 %10, 4
  br i1 %11, label %bb9, label %bb10

bb9:                                              ; preds = %bb8
  store i8 4, ptr %_0, align 1
  br label %bb85

bb10:                                             ; preds = %bb8
  %12 = load i32, ptr %ek, align 4, !noundef !4
  %13 = icmp eq i32 %12, 5
  br i1 %13, label %bb11, label %bb12

bb11:                                             ; preds = %bb10
  store i8 5, ptr %_0, align 1
  br label %bb85

bb12:                                             ; preds = %bb10
  %14 = load i32, ptr %ek, align 4, !noundef !4
  %15 = icmp eq i32 %14, 6
  br i1 %15, label %bb13, label %bb14

bb13:                                             ; preds = %bb12
  store i8 6, ptr %_0, align 1
  br label %bb85

bb14:                                             ; preds = %bb12
  %16 = load i32, ptr %ek, align 4, !noundef !4
  %17 = icmp eq i32 %16, 7
  br i1 %17, label %bb15, label %bb16

bb15:                                             ; preds = %bb14
  store i8 7, ptr %_0, align 1
  br label %bb85

bb16:                                             ; preds = %bb14
  %18 = load i32, ptr %ek, align 4, !noundef !4
  %19 = icmp eq i32 %18, 8
  br i1 %19, label %bb17, label %bb18

bb17:                                             ; preds = %bb16
  store i8 8, ptr %_0, align 1
  br label %bb85

bb18:                                             ; preds = %bb16
  %20 = load i32, ptr %ek, align 4, !noundef !4
  %21 = icmp eq i32 %20, 9
  br i1 %21, label %bb19, label %bb20

bb19:                                             ; preds = %bb18
  store i8 9, ptr %_0, align 1
  br label %bb85

bb20:                                             ; preds = %bb18
  %22 = load i32, ptr %ek, align 4, !noundef !4
  %23 = icmp eq i32 %22, 10
  br i1 %23, label %bb21, label %bb22

bb21:                                             ; preds = %bb20
  store i8 10, ptr %_0, align 1
  br label %bb85

bb22:                                             ; preds = %bb20
  %24 = load i32, ptr %ek, align 4, !noundef !4
  %25 = icmp eq i32 %24, 11
  br i1 %25, label %bb23, label %bb24

bb23:                                             ; preds = %bb22
  store i8 11, ptr %_0, align 1
  br label %bb85

bb24:                                             ; preds = %bb22
  %26 = load i32, ptr %ek, align 4, !noundef !4
  %27 = icmp eq i32 %26, 12
  br i1 %27, label %bb25, label %bb26

bb25:                                             ; preds = %bb24
  store i8 12, ptr %_0, align 1
  br label %bb85

bb26:                                             ; preds = %bb24
  %28 = load i32, ptr %ek, align 4, !noundef !4
  %29 = icmp eq i32 %28, 13
  br i1 %29, label %bb27, label %bb28

bb27:                                             ; preds = %bb26
  store i8 13, ptr %_0, align 1
  br label %bb85

bb28:                                             ; preds = %bb26
  %30 = load i32, ptr %ek, align 4, !noundef !4
  %31 = icmp eq i32 %30, 14
  br i1 %31, label %bb29, label %bb30

bb29:                                             ; preds = %bb28
  store i8 14, ptr %_0, align 1
  br label %bb85

bb30:                                             ; preds = %bb28
  %32 = load i32, ptr %ek, align 4, !noundef !4
  %33 = icmp eq i32 %32, 15
  br i1 %33, label %bb31, label %bb32

bb31:                                             ; preds = %bb30
  store i8 15, ptr %_0, align 1
  br label %bb85

bb32:                                             ; preds = %bb30
  %34 = load i32, ptr %ek, align 4, !noundef !4
  %35 = icmp eq i32 %34, 16
  br i1 %35, label %bb33, label %bb34

bb33:                                             ; preds = %bb32
  store i8 16, ptr %_0, align 1
  br label %bb85

bb34:                                             ; preds = %bb32
  %36 = load i32, ptr %ek, align 4, !noundef !4
  %37 = icmp eq i32 %36, 17
  br i1 %37, label %bb35, label %bb36

bb35:                                             ; preds = %bb34
  store i8 17, ptr %_0, align 1
  br label %bb85

bb36:                                             ; preds = %bb34
  %38 = load i32, ptr %ek, align 4, !noundef !4
  %39 = icmp eq i32 %38, 18
  br i1 %39, label %bb37, label %bb38

bb37:                                             ; preds = %bb36
  store i8 18, ptr %_0, align 1
  br label %bb85

bb38:                                             ; preds = %bb36
  %40 = load i32, ptr %ek, align 4, !noundef !4
  %41 = icmp eq i32 %40, 19
  br i1 %41, label %bb39, label %bb40

bb39:                                             ; preds = %bb38
  store i8 19, ptr %_0, align 1
  br label %bb85

bb40:                                             ; preds = %bb38
  %42 = load i32, ptr %ek, align 4, !noundef !4
  %43 = icmp eq i32 %42, 20
  br i1 %43, label %bb41, label %bb42

bb41:                                             ; preds = %bb40
  store i8 20, ptr %_0, align 1
  br label %bb85

bb42:                                             ; preds = %bb40
  %44 = load i32, ptr %ek, align 4, !noundef !4
  %45 = icmp eq i32 %44, 21
  br i1 %45, label %bb43, label %bb44

bb43:                                             ; preds = %bb42
  store i8 21, ptr %_0, align 1
  br label %bb85

bb44:                                             ; preds = %bb42
  %46 = load i32, ptr %ek, align 4, !noundef !4
  %47 = icmp eq i32 %46, 22
  br i1 %47, label %bb45, label %bb46

bb45:                                             ; preds = %bb44
  store i8 22, ptr %_0, align 1
  br label %bb85

bb46:                                             ; preds = %bb44
  %48 = load i32, ptr %ek, align 4, !noundef !4
  %49 = icmp eq i32 %48, 23
  br i1 %49, label %bb47, label %bb48

bb47:                                             ; preds = %bb46
  store i8 23, ptr %_0, align 1
  br label %bb85

bb48:                                             ; preds = %bb46
  %50 = load i32, ptr %ek, align 4, !noundef !4
  %51 = icmp eq i32 %50, 24
  br i1 %51, label %bb49, label %bb50

bb49:                                             ; preds = %bb48
  store i8 24, ptr %_0, align 1
  br label %bb85

bb50:                                             ; preds = %bb48
  %52 = load i32, ptr %ek, align 4, !noundef !4
  %53 = icmp eq i32 %52, 25
  br i1 %53, label %bb51, label %bb52

bb51:                                             ; preds = %bb50
  store i8 25, ptr %_0, align 1
  br label %bb85

bb52:                                             ; preds = %bb50
  %54 = load i32, ptr %ek, align 4, !noundef !4
  %55 = icmp eq i32 %54, 26
  br i1 %55, label %bb53, label %bb54

bb53:                                             ; preds = %bb52
  store i8 26, ptr %_0, align 1
  br label %bb85

bb54:                                             ; preds = %bb52
  %56 = load i32, ptr %ek, align 4, !noundef !4
  %57 = icmp eq i32 %56, 27
  br i1 %57, label %bb55, label %bb56

bb55:                                             ; preds = %bb54
  store i8 27, ptr %_0, align 1
  br label %bb85

bb56:                                             ; preds = %bb54
  %58 = load i32, ptr %ek, align 4, !noundef !4
  %59 = icmp eq i32 %58, 28
  br i1 %59, label %bb57, label %bb58

bb57:                                             ; preds = %bb56
  store i8 28, ptr %_0, align 1
  br label %bb85

bb58:                                             ; preds = %bb56
  %60 = load i32, ptr %ek, align 4, !noundef !4
  %61 = icmp eq i32 %60, 29
  br i1 %61, label %bb59, label %bb60

bb59:                                             ; preds = %bb58
  store i8 29, ptr %_0, align 1
  br label %bb85

bb60:                                             ; preds = %bb58
  %62 = load i32, ptr %ek, align 4, !noundef !4
  %63 = icmp eq i32 %62, 30
  br i1 %63, label %bb61, label %bb62

bb61:                                             ; preds = %bb60
  store i8 30, ptr %_0, align 1
  br label %bb85

bb62:                                             ; preds = %bb60
  %64 = load i32, ptr %ek, align 4, !noundef !4
  %65 = icmp eq i32 %64, 31
  br i1 %65, label %bb63, label %bb64

bb63:                                             ; preds = %bb62
  store i8 31, ptr %_0, align 1
  br label %bb85

bb64:                                             ; preds = %bb62
  %66 = load i32, ptr %ek, align 4, !noundef !4
  %67 = icmp eq i32 %66, 32
  br i1 %67, label %bb65, label %bb66

bb65:                                             ; preds = %bb64
  store i8 32, ptr %_0, align 1
  br label %bb85

bb66:                                             ; preds = %bb64
  %68 = load i32, ptr %ek, align 4, !noundef !4
  %69 = icmp eq i32 %68, 33
  br i1 %69, label %bb67, label %bb68

bb67:                                             ; preds = %bb66
  store i8 33, ptr %_0, align 1
  br label %bb85

bb68:                                             ; preds = %bb66
  %70 = load i32, ptr %ek, align 4, !noundef !4
  %71 = icmp eq i32 %70, 34
  br i1 %71, label %bb69, label %bb70

bb69:                                             ; preds = %bb68
  store i8 34, ptr %_0, align 1
  br label %bb85

bb70:                                             ; preds = %bb68
  %72 = load i32, ptr %ek, align 4, !noundef !4
  %73 = icmp eq i32 %72, 35
  br i1 %73, label %bb71, label %bb72

bb71:                                             ; preds = %bb70
  store i8 35, ptr %_0, align 1
  br label %bb85

bb72:                                             ; preds = %bb70
  %74 = load i32, ptr %ek, align 4, !noundef !4
  %75 = icmp eq i32 %74, 40
  br i1 %75, label %bb73, label %bb74

bb73:                                             ; preds = %bb72
  store i8 40, ptr %_0, align 1
  br label %bb85

bb74:                                             ; preds = %bb72
  %76 = load i32, ptr %ek, align 4, !noundef !4
  %77 = icmp eq i32 %76, 37
  br i1 %77, label %bb75, label %bb76

bb75:                                             ; preds = %bb74
  store i8 37, ptr %_0, align 1
  br label %bb85

bb76:                                             ; preds = %bb74
  %78 = load i32, ptr %ek, align 4, !noundef !4
  %79 = icmp eq i32 %78, 36
  br i1 %79, label %bb77, label %bb78

bb77:                                             ; preds = %bb76
  store i8 36, ptr %_0, align 1
  br label %bb85

bb78:                                             ; preds = %bb76
  %80 = load i32, ptr %ek, align 4, !noundef !4
  %81 = icmp eq i32 %80, 38
  br i1 %81, label %bb79, label %bb80

bb79:                                             ; preds = %bb78
  store i8 38, ptr %_0, align 1
  br label %bb85

bb80:                                             ; preds = %bb78
  %82 = load i32, ptr %ek, align 4, !noundef !4
  %83 = icmp eq i32 %82, 39
  br i1 %83, label %bb81, label %bb82

bb81:                                             ; preds = %bb80
  store i8 39, ptr %_0, align 1
  br label %bb85

bb82:                                             ; preds = %bb80
  %84 = load i32, ptr %ek, align 4, !noundef !4
  %85 = icmp eq i32 %84, 41
  br i1 %85, label %bb83, label %bb84

bb83:                                             ; preds = %bb82
  store i8 41, ptr %_0, align 1
  br label %bb85

bb84:                                             ; preds = %bb82
  store i8 42, ptr %_0, align 1
  br label %bb85
}

; std::env::var
; Function Attrs: nonlazybind uwtable
define internal void @_ZN3std3env3var17h1ff4c608ea901502E(ptr dead_on_unwind noalias noundef writable sret([32 x i8]) align 8 captures(address) dereferenceable(32) %_0, ptr noalias noundef nonnull readonly align 1 captures(address, read_provenance) %0, i64 noundef %1) unnamed_addr #0 personality ptr @rust_eh_personality {
start:
  %2 = alloca [16 x i8], align 8
  %key = alloca [16 x i8], align 8
  store ptr %0, ptr %key, align 8
  %3 = getelementptr inbounds i8, ptr %key, i64 8
  store i64 %1, ptr %3, align 8
; invoke <&T as core::convert::AsRef<U>>::as_ref
  %4 = invoke { ptr, i64 } @"_ZN55_$LT$$RF$T$u20$as$u20$core..convert..AsRef$LT$U$GT$$GT$6as_ref17haf3cb2ea9f77d932E"(ptr noalias noundef readonly align 8 captures(address, read_provenance) dereferenceable(16) %key)
          to label %bb1 unwind label %cleanup

bb4:                                              ; preds = %cleanup
  %5 = load ptr, ptr %2, align 8, !noundef !4
  %6 = getelementptr inbounds i8, ptr %2, i64 8
  %7 = load i32, ptr %6, align 8, !noundef !4
  call void @llvm.lifetime.end.p0(i64 16, ptr %2)
  %8 = insertvalue { ptr, i32 } poison, ptr %5, 0
  %9 = insertvalue { ptr, i32 } %8, i32 %7, 1
  resume { ptr, i32 } %9

cleanup:                                          ; preds = %bb1, %start
  %10 = landingpad { ptr, i32 }
          cleanup
  %11 = extractvalue { ptr, i32 } %10, 0
  %12 = extractvalue { ptr, i32 } %10, 1
  call void @llvm.lifetime.start.p0(i64 16, ptr %2)
  store ptr %11, ptr %2, align 8
  %13 = getelementptr inbounds i8, ptr %2, i64 8
  store i32 %12, ptr %13, align 8
  br label %bb4

bb1:                                              ; preds = %start
  %_2.0 = extractvalue { ptr, i64 } %4, 0
  %_2.1 = extractvalue { ptr, i64 } %4, 1
; invoke std::env::_var
  invoke void @_ZN3std3env4_var17hedc9fcdb7326c51fE(ptr noalias noundef sret([32 x i8]) align 8 captures(address) dereferenceable(32) %_0, ptr noalias noundef nonnull readonly align 1 captures(address, read_provenance) %_2.0, i64 noundef %_2.1)
          to label %bb2 unwind label %cleanup

bb2:                                              ; preds = %bb1
  ret void
}

; std::env::var_os
; Function Attrs: nonlazybind uwtable
define internal void @_ZN3std3env6var_os17haa41b23c03287664E(ptr dead_on_unwind noalias noundef writable sret([24 x i8]) align 8 captures(address) dereferenceable(24) %_0, ptr noalias noundef nonnull readonly align 1 captures(address, read_provenance) %0, i64 noundef %1) unnamed_addr #0 personality ptr @rust_eh_personality {
start:
  %2 = alloca [16 x i8], align 8
  %key = alloca [16 x i8], align 8
  store ptr %0, ptr %key, align 8
  %3 = getelementptr inbounds i8, ptr %key, i64 8
  store i64 %1, ptr %3, align 8
; invoke <&T as core::convert::AsRef<U>>::as_ref
  %4 = invoke { ptr, i64 } @"_ZN55_$LT$$RF$T$u20$as$u20$core..convert..AsRef$LT$U$GT$$GT$6as_ref17haf3cb2ea9f77d932E"(ptr noalias noundef readonly align 8 captures(address, read_provenance) dereferenceable(16) %key)
          to label %bb1 unwind label %cleanup

bb4:                                              ; preds = %cleanup
  %5 = load ptr, ptr %2, align 8, !noundef !4
  %6 = getelementptr inbounds i8, ptr %2, i64 8
  %7 = load i32, ptr %6, align 8, !noundef !4
  call void @llvm.lifetime.end.p0(i64 16, ptr %2)
  %8 = insertvalue { ptr, i32 } poison, ptr %5, 0
  %9 = insertvalue { ptr, i32 } %8, i32 %7, 1
  resume { ptr, i32 } %9

cleanup:                                          ; preds = %bb1, %start
  %10 = landingpad { ptr, i32 }
          cleanup
  %11 = extractvalue { ptr, i32 } %10, 0
  %12 = extractvalue { ptr, i32 } %10, 1
  call void @llvm.lifetime.start.p0(i64 16, ptr %2)
  store ptr %11, ptr %2, align 8
  %13 = getelementptr inbounds i8, ptr %2, i64 8
  store i32 %12, ptr %13, align 8
  br label %bb4

bb1:                                              ; preds = %start
  %_2.0 = extractvalue { ptr, i64 } %4, 0
  %_2.1 = extractvalue { ptr, i64 } %4, 1
; invoke std::env::_var_os
  invoke void @_ZN3std3env7_var_os17h5af5bd490bdba3d6E(ptr noalias noundef sret([24 x i8]) align 8 captures(address) dereferenceable(24) %_0, ptr noalias noundef nonnull readonly align 1 captures(address, read_provenance) %_2.0, i64 noundef %_2.1)
          to label %bb2 unwind label %cleanup

bb2:                                              ; preds = %bb1
  ret void
}

; std::ffi::os_str::<impl core::convert::AsRef<std::ffi::os_str::OsStr> for str>::as_ref
; Function Attrs: inlinehint nonlazybind uwtable
define internal { ptr, i64 } @"_ZN3std3ffi6os_str85_$LT$impl$u20$core..convert..AsRef$LT$std..ffi..os_str..OsStr$GT$$u20$for$u20$str$GT$6as_ref17hc6c53abeb48c30d3E"(ptr noalias noundef nonnull readonly align 1 captures(address, read_provenance) %self.0, i64 noundef %self.1) unnamed_addr #1 {
start:
  %0 = insertvalue { ptr, i64 } poison, ptr %self.0, 0
  %1 = insertvalue { ptr, i64 } %0, i64 %self.1, 1
  ret { ptr, i64 } %1
}

; std::sys::fs::unix::debug_assert_fd_is_open
; Function Attrs: inlinehint nonlazybind uwtable
define internal void @_ZN3std3sys2fs4unix23debug_assert_fd_is_open17h8985bde6132b4021E(i32 noundef %fd) unnamed_addr #1 {
start:
  br label %bb10

bb10:                                             ; preds = %start
  ret void

bb1:                                              ; No predecessors!
  unreachable

bb2:                                              ; No predecessors!
  unreachable

bb3:                                              ; No predecessors!
  unreachable

bb4:                                              ; No predecessors!
  unreachable

bb5:                                              ; No predecessors!
  unreachable

bb6:                                              ; No predecessors!
  unreachable

bb7:                                              ; No predecessors!
  unreachable

bb8:                                              ; No predecessors!
  unreachable

bb9:                                              ; No predecessors!
  unreachable

bb11:                                             ; No predecessors!
  unreachable
}

; std::path::Path::join
; Function Attrs: nonlazybind uwtable
define internal void @_ZN3std4path4Path4join17h0c29ed1275f98bfbE(ptr dead_on_unwind noalias noundef writable sret([24 x i8]) align 8 captures(address) dereferenceable(24) %_0, ptr noalias noundef nonnull readonly align 1 captures(address, read_provenance) %self.0, i64 noundef %self.1, ptr noalias noundef nonnull readonly align 1 captures(address, read_provenance) %0, i64 noundef %1) unnamed_addr #0 personality ptr @rust_eh_personality {
start:
  %2 = alloca [16 x i8], align 8
  %path = alloca [16 x i8], align 8
  store ptr %0, ptr %path, align 8
  %3 = getelementptr inbounds i8, ptr %path, i64 8
  store i64 %1, ptr %3, align 8
; invoke <&T as core::convert::AsRef<U>>::as_ref
  %4 = invoke { ptr, i64 } @"_ZN55_$LT$$RF$T$u20$as$u20$core..convert..AsRef$LT$U$GT$$GT$6as_ref17h4614380981bd42fcE"(ptr noalias noundef readonly align 8 captures(address, read_provenance) dereferenceable(16) %path)
          to label %bb1 unwind label %cleanup

bb4:                                              ; preds = %cleanup
  %5 = load ptr, ptr %2, align 8, !noundef !4
  %6 = getelementptr inbounds i8, ptr %2, i64 8
  %7 = load i32, ptr %6, align 8, !noundef !4
  call void @llvm.lifetime.end.p0(i64 16, ptr %2)
  %8 = insertvalue { ptr, i32 } poison, ptr %5, 0
  %9 = insertvalue { ptr, i32 } %8, i32 %7, 1
  resume { ptr, i32 } %9

cleanup:                                          ; preds = %bb1, %start
  %10 = landingpad { ptr, i32 }
          cleanup
  %11 = extractvalue { ptr, i32 } %10, 0
  %12 = extractvalue { ptr, i32 } %10, 1
  call void @llvm.lifetime.start.p0(i64 16, ptr %2)
  store ptr %11, ptr %2, align 8
  %13 = getelementptr inbounds i8, ptr %2, i64 8
  store i32 %12, ptr %13, align 8
  br label %bb4

bb1:                                              ; preds = %start
  %_3.0 = extractvalue { ptr, i64 } %4, 0
  %_3.1 = extractvalue { ptr, i64 } %4, 1
; invoke std::path::Path::_join
  invoke void @_ZN3std4path4Path5_join17h7844c17c52e6efdbE(ptr noalias noundef sret([24 x i8]) align 8 captures(address) dereferenceable(24) %_0, ptr noalias noundef nonnull readonly align 1 captures(address, read_provenance) %self.0, i64 noundef %self.1, ptr noalias noundef nonnull readonly align 1 captures(address, read_provenance) %_3.0, i64 noundef %_3.1)
          to label %bb2 unwind label %cleanup

bb2:                                              ; preds = %bb1
  ret void
}

; std::path::<impl core::convert::AsRef<std::path::Path> for str>::as_ref
; Function Attrs: inlinehint nonlazybind uwtable
define internal { ptr, i64 } @"_ZN3std4path77_$LT$impl$u20$core..convert..AsRef$LT$std..path..Path$GT$$u20$for$u20$str$GT$6as_ref17h0802c66d02369d57E"(ptr noalias noundef nonnull readonly align 1 captures(address, read_provenance) %self.0, i64 noundef %self.1) unnamed_addr #1 {
start:
  %0 = insertvalue { ptr, i64 } poison, ptr %self.0, 0
  %1 = insertvalue { ptr, i64 } %0, i64 %self.1, 1
  ret { ptr, i64 } %1
}

; std::process::Command::env
; Function Attrs: nonlazybind uwtable
define internal noundef align 8 dereferenceable(200) ptr @_ZN3std7process7Command3env17hc16f5c2fc7fb728dE(ptr noalias noundef align 8 dereferenceable(200) %self, ptr noalias noundef readonly align 8 captures(address, read_provenance) dereferenceable(24) %0, ptr noalias noundef readonly align 8 captures(address, read_provenance) dereferenceable(24) %1) unnamed_addr #0 personality ptr @rust_eh_personality {
start:
  %2 = alloca [16 x i8], align 8
  %val = alloca [8 x i8], align 8
  %key = alloca [8 x i8], align 8
  store ptr %0, ptr %key, align 8
  store ptr %1, ptr %val, align 8
  %_5 = getelementptr inbounds i8, ptr %self, i64 96
; invoke <&T as core::convert::AsRef<U>>::as_ref
  %3 = invoke { ptr, i64 } @"_ZN55_$LT$$RF$T$u20$as$u20$core..convert..AsRef$LT$U$GT$$GT$6as_ref17hf23dddbab39c803fE"(ptr noalias noundef readonly align 8 captures(address, read_provenance) dereferenceable(8) %key)
          to label %bb1 unwind label %cleanup

bb6:                                              ; preds = %cleanup
  br label %bb7

cleanup:                                          ; preds = %bb2, %bb1, %start
  %4 = landingpad { ptr, i32 }
          cleanup
  %5 = extractvalue { ptr, i32 } %4, 0
  %6 = extractvalue { ptr, i32 } %4, 1
  call void @llvm.lifetime.start.p0(i64 16, ptr %2)
  store ptr %5, ptr %2, align 8
  %7 = getelementptr inbounds i8, ptr %2, i64 8
  store i32 %6, ptr %7, align 8
  br label %bb6

bb1:                                              ; preds = %start
  %_7.0 = extractvalue { ptr, i64 } %3, 0
  %_7.1 = extractvalue { ptr, i64 } %3, 1
; invoke <&T as core::convert::AsRef<U>>::as_ref
  %8 = invoke { ptr, i64 } @"_ZN55_$LT$$RF$T$u20$as$u20$core..convert..AsRef$LT$U$GT$$GT$6as_ref17hf23dddbab39c803fE"(ptr noalias noundef readonly align 8 captures(address, read_provenance) dereferenceable(8) %val)
          to label %bb2 unwind label %cleanup

bb2:                                              ; preds = %bb1
  %_9.0 = extractvalue { ptr, i64 } %8, 0
  %_9.1 = extractvalue { ptr, i64 } %8, 1
; invoke std::sys::process::env::CommandEnv::set
  invoke void @_ZN3std3sys7process3env10CommandEnv3set17h064f2409c7d3b1b2E(ptr noalias noundef align 8 dereferenceable(32) %_5, ptr noalias noundef nonnull readonly align 1 captures(address, read_provenance) %_7.0, i64 noundef %_7.1, ptr noalias noundef nonnull readonly align 1 captures(address, read_provenance) %_9.0, i64 noundef %_9.1)
          to label %bb3 unwind label %cleanup

bb3:                                              ; preds = %bb2
  br label %bb4

bb4:                                              ; preds = %bb3
  ret ptr %self

bb7:                                              ; preds = %bb6
  %9 = load ptr, ptr %2, align 8, !noundef !4
  %10 = getelementptr inbounds i8, ptr %2, i64 8
  %11 = load i32, ptr %10, align 8, !noundef !4
  call void @llvm.lifetime.end.p0(i64 16, ptr %2)
  %12 = insertvalue { ptr, i32 } poison, ptr %9, 0
  %13 = insertvalue { ptr, i32 } %12, i32 %11, 1
  resume { ptr, i32 } %13
}

; std::process::Command::new
; Function Attrs: nonlazybind uwtable
define internal void @_ZN3std7process7Command3new17h0bf0093295d2f98cE(ptr dead_on_unwind noalias noundef writable sret([200 x i8]) align 8 captures(address) dereferenceable(200) %_0, ptr noalias noundef readonly align 8 captures(address, read_provenance) dereferenceable(24) %0) unnamed_addr #0 personality ptr @rust_eh_personality {
start:
  %1 = alloca [16 x i8], align 8
  %_2 = alloca [200 x i8], align 8
  %program = alloca [8 x i8], align 8
  store ptr %0, ptr %program, align 8
  call void @llvm.lifetime.start.p0(i64 200, ptr %_2)
; invoke <&T as core::convert::AsRef<U>>::as_ref
  %2 = invoke { ptr, i64 } @"_ZN55_$LT$$RF$T$u20$as$u20$core..convert..AsRef$LT$U$GT$$GT$6as_ref17ha295fe4b22f73024E"(ptr noalias noundef readonly align 8 captures(address, read_provenance) dereferenceable(8) %program)
          to label %bb1 unwind label %cleanup

bb4:                                              ; preds = %cleanup
  %3 = load ptr, ptr %1, align 8, !noundef !4
  %4 = getelementptr inbounds i8, ptr %1, i64 8
  %5 = load i32, ptr %4, align 8, !noundef !4
  call void @llvm.lifetime.end.p0(i64 16, ptr %1)
  %6 = insertvalue { ptr, i32 } poison, ptr %3, 0
  %7 = insertvalue { ptr, i32 } %6, i32 %5, 1
  resume { ptr, i32 } %7

cleanup:                                          ; preds = %bb1, %start
  %8 = landingpad { ptr, i32 }
          cleanup
  %9 = extractvalue { ptr, i32 } %8, 0
  %10 = extractvalue { ptr, i32 } %8, 1
  call void @llvm.lifetime.start.p0(i64 16, ptr %1)
  store ptr %9, ptr %1, align 8
  %11 = getelementptr inbounds i8, ptr %1, i64 8
  store i32 %10, ptr %11, align 8
  br label %bb4

bb1:                                              ; preds = %start
  %_3.0 = extractvalue { ptr, i64 } %2, 0
  %_3.1 = extractvalue { ptr, i64 } %2, 1
; invoke std::sys::process::unix::common::Command::new
  invoke void @_ZN3std3sys7process4unix6common7Command3new17h32f380f7324f3eb9E(ptr noalias noundef sret([200 x i8]) align 8 captures(address) dereferenceable(200) %_2, ptr noalias noundef nonnull readonly align 1 captures(address, read_provenance) %_3.0, i64 noundef %_3.1)
          to label %bb2 unwind label %cleanup

bb2:                                              ; preds = %bb1
  call void @llvm.memcpy.p0.p0.i64(ptr align 8 %_0, ptr align 8 %_2, i64 200, i1 false)
  call void @llvm.lifetime.end.p0(i64 200, ptr %_2)
  ret void
}

; <&T as core::fmt::Display>::fmt
; Function Attrs: nonlazybind uwtable
define internal noundef zeroext i1 @"_ZN44_$LT$$RF$T$u20$as$u20$core..fmt..Display$GT$3fmt17hbc70c7de1b24d109E"(ptr noalias noundef readonly align 8 captures(address, read_provenance) dereferenceable(16) %self, ptr noalias noundef align 8 dereferenceable(24) %f) unnamed_addr #0 {
start:
  %_3.0 = load ptr, ptr %self, align 8, !nonnull !4, !align !6, !noundef !4
  %0 = getelementptr inbounds i8, ptr %self, i64 8
  %_3.1 = load i64, ptr %0, align 8, !noundef !4
; call <str as core::fmt::Display>::fmt
  %_0 = call noundef zeroext i1 @"_ZN42_$LT$str$u20$as$u20$core..fmt..Display$GT$3fmt17hc26b542d45893745E"(ptr noalias noundef nonnull readonly align 1 captures(address, read_provenance) %_3.0, i64 noundef %_3.1, ptr noalias noundef align 8 dereferenceable(24) %f)
  ret i1 %_0
}

; <&A as core::alloc::Allocator>::deallocate
; Function Attrs: inlinehint nonlazybind uwtable
define internal void @"_ZN48_$LT$$RF$A$u20$as$u20$core..alloc..Allocator$GT$10deallocate17ha22b0e5675bdef20E"(ptr noalias noundef readonly align 8 captures(address, read_provenance) dereferenceable(8) %self, ptr noundef nonnull %ptr, i64 noundef range(i64 1, -9223372036854775807) %layout.0, i64 noundef %layout.1) unnamed_addr #1 {
start:
  %_4 = load ptr, ptr %self, align 8, !nonnull !4, !align !6, !noundef !4
; call <alloc::alloc::Global as core::alloc::Allocator>::deallocate
  call void @"_ZN63_$LT$alloc..alloc..Global$u20$as$u20$core..alloc..Allocator$GT$10deallocate17h1e0b43146c957e5eE"(ptr noalias noundef nonnull readonly align 1 captures(address, read_provenance) %_4, ptr noundef nonnull %ptr, i64 noundef %layout.0, i64 noundef %layout.1)
  ret void
}

; <usize as core::iter::range::Step>::backward_unchecked
; Function Attrs: inlinehint nonlazybind uwtable
define internal noundef i64 @"_ZN49_$LT$usize$u20$as$u20$core..iter..range..Step$GT$18backward_unchecked17h8baa175c50204dc3E"(i64 noundef %start1, i64 noundef %n) unnamed_addr #1 {
start:
  br label %bb2

bb2:                                              ; preds = %start
  %_0 = sub nuw i64 %start1, %n
  ret i64 %_0

bb1:                                              ; No predecessors!
  unreachable
}

; core::intrinsics::cold_path
; Function Attrs: cold nounwind nonlazybind uwtable
define internal void @_ZN4core10intrinsics9cold_path17hcc3fa6d1c5ba962cE() unnamed_addr #3 {
start:
  ret void
}

; core::cmp::Ord::max
; Function Attrs: inlinehint nonlazybind uwtable
define internal noundef i64 @_ZN4core3cmp3Ord3max17h2307e2758d68e0adE(i64 noundef %0, i64 noundef %1) unnamed_addr #1 personality ptr @rust_eh_personality {
start:
  %2 = alloca [16 x i8], align 8
  %_6 = alloca [1 x i8], align 1
  %_0 = alloca [8 x i8], align 8
  %other = alloca [8 x i8], align 8
  %self = alloca [8 x i8], align 8
  store i64 %0, ptr %self, align 8
  store i64 %1, ptr %other, align 8
  store i8 1, ptr %_6, align 1
; invoke core::cmp::impls::<impl core::cmp::PartialOrd for usize>::lt
  %_3 = invoke noundef zeroext i1 @"_ZN4core3cmp5impls57_$LT$impl$u20$core..cmp..PartialOrd$u20$for$u20$usize$GT$2lt17h141fc39ac5991653E"(ptr noalias noundef readonly align 8 captures(address, read_provenance) dereferenceable(8) %other, ptr noalias noundef readonly align 8 captures(address, read_provenance) dereferenceable(8) %self)
          to label %bb1 unwind label %cleanup

bb5:                                              ; preds = %cleanup
  br label %bb9

cleanup:                                          ; preds = %start
  %3 = landingpad { ptr, i32 }
          cleanup
  %4 = extractvalue { ptr, i32 } %3, 0
  %5 = extractvalue { ptr, i32 } %3, 1
  call void @llvm.lifetime.start.p0(i64 16, ptr %2)
  store ptr %4, ptr %2, align 8
  %6 = getelementptr inbounds i8, ptr %2, i64 8
  store i32 %5, ptr %6, align 8
  br label %bb5

bb1:                                              ; preds = %start
  br i1 %_3, label %bb2, label %bb3

bb3:                                              ; preds = %bb1
  %7 = load i64, ptr %other, align 8, !noundef !4
  store i64 %7, ptr %_0, align 8
  %8 = load i8, ptr %_6, align 1, !range !13, !noundef !4
  %9 = trunc nuw i8 %8 to i1
  br i1 %9, label %bb7, label %bb4

bb2:                                              ; preds = %bb1
  store i8 0, ptr %_6, align 1
  %10 = load i64, ptr %self, align 8, !noundef !4
  store i64 %10, ptr %_0, align 8
  br label %bb4

bb4:                                              ; preds = %bb2, %bb7, %bb3
  %11 = load i64, ptr %_0, align 8, !noundef !4
  ret i64 %11

bb7:                                              ; preds = %bb3
  br label %bb4

bb9:                                              ; preds = %bb5
  %12 = load i8, ptr %_6, align 1, !range !13, !noundef !4
  %13 = trunc nuw i8 %12 to i1
  br i1 %13, label %bb8, label %bb6

bb6:                                              ; preds = %bb8, %bb9
  %14 = load ptr, ptr %2, align 8, !noundef !4
  %15 = getelementptr inbounds i8, ptr %2, i64 8
  %16 = load i32, ptr %15, align 8, !noundef !4
  call void @llvm.lifetime.end.p0(i64 16, ptr %2)
  %17 = insertvalue { ptr, i32 } poison, ptr %14, 0
  %18 = insertvalue { ptr, i32 } %17, i32 %16, 1
  resume { ptr, i32 } %18

bb8:                                              ; preds = %bb9
  br label %bb6
}

; core::cmp::Ord::min
; Function Attrs: inlinehint nonlazybind uwtable
define internal noundef i64 @_ZN4core3cmp3Ord3min17h1f42a01c097db870E(i64 noundef %0, i64 noundef %1) unnamed_addr #1 personality ptr @rust_eh_personality {
start:
  %2 = alloca [16 x i8], align 8
  %_6 = alloca [1 x i8], align 1
  %_0 = alloca [8 x i8], align 8
  %other = alloca [8 x i8], align 8
  %self = alloca [8 x i8], align 8
  store i64 %0, ptr %self, align 8
  store i64 %1, ptr %other, align 8
  store i8 1, ptr %_6, align 1
; invoke core::cmp::impls::<impl core::cmp::PartialOrd for usize>::lt
  %_3 = invoke noundef zeroext i1 @"_ZN4core3cmp5impls57_$LT$impl$u20$core..cmp..PartialOrd$u20$for$u20$usize$GT$2lt17h141fc39ac5991653E"(ptr noalias noundef readonly align 8 captures(address, read_provenance) dereferenceable(8) %other, ptr noalias noundef readonly align 8 captures(address, read_provenance) dereferenceable(8) %self)
          to label %bb1 unwind label %cleanup

bb5:                                              ; preds = %cleanup
  br label %bb9

cleanup:                                          ; preds = %start
  %3 = landingpad { ptr, i32 }
          cleanup
  %4 = extractvalue { ptr, i32 } %3, 0
  %5 = extractvalue { ptr, i32 } %3, 1
  call void @llvm.lifetime.start.p0(i64 16, ptr %2)
  store ptr %4, ptr %2, align 8
  %6 = getelementptr inbounds i8, ptr %2, i64 8
  store i32 %5, ptr %6, align 8
  br label %bb5

bb1:                                              ; preds = %start
  br i1 %_3, label %bb2, label %bb3

bb3:                                              ; preds = %bb1
  store i8 0, ptr %_6, align 1
  %7 = load i64, ptr %self, align 8, !noundef !4
  store i64 %7, ptr %_0, align 8
  br label %bb4

bb2:                                              ; preds = %bb1
  %8 = load i64, ptr %other, align 8, !noundef !4
  store i64 %8, ptr %_0, align 8
  %9 = load i8, ptr %_6, align 1, !range !13, !noundef !4
  %10 = trunc nuw i8 %9 to i1
  br i1 %10, label %bb7, label %bb4

bb4:                                              ; preds = %bb7, %bb2, %bb3
  %11 = load i64, ptr %_0, align 8, !noundef !4
  ret i64 %11

bb7:                                              ; preds = %bb2
  br label %bb4

bb9:                                              ; preds = %bb5
  %12 = load i8, ptr %_6, align 1, !range !13, !noundef !4
  %13 = trunc nuw i8 %12 to i1
  br i1 %13, label %bb8, label %bb6

bb6:                                              ; preds = %bb8, %bb9
  %14 = load ptr, ptr %2, align 8, !noundef !4
  %15 = getelementptr inbounds i8, ptr %2, i64 8
  %16 = load i32, ptr %15, align 8, !noundef !4
  call void @llvm.lifetime.end.p0(i64 16, ptr %2)
  %17 = insertvalue { ptr, i32 } poison, ptr %14, 0
  %18 = insertvalue { ptr, i32 } %17, i32 %16, 1
  resume { ptr, i32 } %18

bb8:                                              ; preds = %bb9
  br label %bb6
}

; core::cmp::impls::<impl core::cmp::PartialOrd for usize>::lt
; Function Attrs: alwaysinline nonlazybind uwtable
define internal noundef zeroext i1 @"_ZN4core3cmp5impls57_$LT$impl$u20$core..cmp..PartialOrd$u20$for$u20$usize$GT$2lt17h141fc39ac5991653E"(ptr noalias noundef readonly align 8 captures(address, read_provenance) dereferenceable(8) %self, ptr noalias noundef readonly align 8 captures(address, read_provenance) dereferenceable(8) %other) unnamed_addr #4 {
start:
  %_3 = load i64, ptr %self, align 8, !noundef !4
  %_4 = load i64, ptr %other, align 8, !noundef !4
  %_0 = icmp ult i64 %_3, %_4
  ret i1 %_0
}

; core::cmp::impls::<impl core::cmp::PartialEq for ()>::eq
; Function Attrs: inlinehint nonlazybind uwtable
define internal noundef zeroext i1 @"_ZN4core3cmp5impls59_$LT$impl$u20$core..cmp..PartialEq$u20$for$u20$$LP$$RP$$GT$2eq17hc59d55efe502aefaE"(ptr noalias noundef nonnull readonly align 1 captures(address, read_provenance) %self, ptr noalias noundef nonnull readonly align 1 captures(address, read_provenance) %_other) unnamed_addr #1 {
start:
  ret i1 true
}

; core::ops::function::FnOnce::call_once
; Function Attrs: inlinehint nonlazybind uwtable
define internal void @_ZN4core3ops8function6FnOnce9call_once17h24ecb6616a79fc22E(ptr dead_on_unwind noalias noundef writable sret([56 x i8]) align 8 captures(address) dereferenceable(56) %_0, ptr noalias noundef readonly align 8 captures(address, read_provenance) dereferenceable(16) %0, ptr noalias noundef nonnull readonly align 1 captures(address, read_provenance) %1, i64 noundef %2) unnamed_addr #1 personality ptr @rust_eh_personality {
start:
  %3 = alloca [16 x i8], align 8
  %_2 = alloca [16 x i8], align 8
  %_1 = alloca [8 x i8], align 8
  store ptr %0, ptr %_1, align 8
  store ptr %1, ptr %_2, align 8
  %4 = getelementptr inbounds i8, ptr %_2, i64 8
  store i64 %2, ptr %4, align 8
  %5 = load ptr, ptr %_2, align 8, !nonnull !4, !align !6, !noundef !4
  %6 = getelementptr inbounds i8, ptr %_2, i64 8
  %7 = load i64, ptr %6, align 8, !noundef !4
; invoke find_msvc_tools::find_tools::impl_::find_msvc_environment::{{closure}}
  invoke void @"_ZN15find_msvc_tools10find_tools5impl_21find_msvc_environment28_$u7b$$u7b$closure$u7d$$u7d$17h76ef27c1d80510e6E"(ptr noalias noundef sret([56 x i8]) align 8 captures(address) dereferenceable(56) %_0, ptr noalias noundef readonly align 8 captures(address, read_provenance) dereferenceable(8) %_1, ptr noalias noundef nonnull readonly align 1 captures(address, read_provenance) %5, i64 noundef %7)
          to label %bb1 unwind label %cleanup

bb3:                                              ; preds = %cleanup
  %8 = load ptr, ptr %3, align 8, !noundef !4
  %9 = getelementptr inbounds i8, ptr %3, i64 8
  %10 = load i32, ptr %9, align 8, !noundef !4
  call void @llvm.lifetime.end.p0(i64 16, ptr %3)
  %11 = insertvalue { ptr, i32 } poison, ptr %8, 0
  %12 = insertvalue { ptr, i32 } %11, i32 %10, 1
  resume { ptr, i32 } %12

cleanup:                                          ; preds = %start
  %13 = landingpad { ptr, i32 }
          cleanup
  %14 = extractvalue { ptr, i32 } %13, 0
  %15 = extractvalue { ptr, i32 } %13, 1
  call void @llvm.lifetime.start.p0(i64 16, ptr %3)
  store ptr %14, ptr %3, align 8
  %16 = getelementptr inbounds i8, ptr %3, i64 8
  store i32 %15, ptr %16, align 8
  br label %bb3

bb1:                                              ; preds = %start
  ret void
}

; core::ops::function::FnOnce::call_once
; Function Attrs: inlinehint nonlazybind uwtable
define internal void @_ZN4core3ops8function6FnOnce9call_once17h8fd2502b1275efa7E(ptr dead_on_unwind noalias noundef writable sret([24 x i8]) align 8 captures(address) dereferenceable(24) %_0, ptr noalias noundef nonnull readonly align 1 captures(address, read_provenance) %0, i64 noundef %1) unnamed_addr #1 {
start:
  %_2 = alloca [16 x i8], align 8
  store ptr %0, ptr %_2, align 8
  %2 = getelementptr inbounds i8, ptr %_2, i64 8
  store i64 %1, ptr %2, align 8
  %3 = load ptr, ptr %_2, align 8, !nonnull !4, !align !6, !noundef !4
  %4 = getelementptr inbounds i8, ptr %_2, i64 8
  %5 = load i64, ptr %4, align 8, !noundef !4
; call alloc::str::<impl alloc::borrow::ToOwned for str>::to_owned
  call void @"_ZN5alloc3str56_$LT$impl$u20$alloc..borrow..ToOwned$u20$for$u20$str$GT$8to_owned17h8b458a9baecda28aE"(ptr noalias noundef sret([24 x i8]) align 8 captures(address) dereferenceable(24) %_0, ptr noalias noundef nonnull readonly align 1 captures(address, read_provenance) %3, i64 noundef %5)
  ret void
}

; core::ptr::drop_in_place<std::io::error::ErrorData<alloc::boxed::Box<std::io::error::Custom>>>
; Function Attrs: nonlazybind uwtable
define internal void @"_ZN4core3ptr101drop_in_place$LT$std..io..error..ErrorData$LT$alloc..boxed..Box$LT$std..io..error..Custom$GT$$GT$$GT$17h16a23b262cf53208E"(ptr noalias noundef align 8 dereferenceable(16) %_1) unnamed_addr #0 {
start:
  %0 = load i8, ptr %_1, align 8, !range !16, !noundef !4
  %_2 = zext i8 %0 to i64
  switch i64 %_2, label %bb2 [
    i64 0, label %bb1
    i64 1, label %bb1
    i64 2, label %bb1
  ]

bb2:                                              ; preds = %start
  %1 = getelementptr inbounds i8, ptr %_1, i64 8
; call core::ptr::drop_in_place<alloc::boxed::Box<std::io::error::Custom>>
  call void @"_ZN4core3ptr68drop_in_place$LT$alloc..boxed..Box$LT$std..io..error..Custom$GT$$GT$17h5adb8c686ef3ed57E"(ptr noalias noundef align 8 dereferenceable(8) %1)
  br label %bb1

bb1:                                              ; preds = %bb2, %start, %start, %start
  ret void
}

; core::ptr::drop_in_place<alloc::vec::Vec<(std::ffi::os_str::OsString,std::ffi::os_str::OsString)>>
; Function Attrs: nonlazybind uwtable
define internal void @"_ZN4core3ptr107drop_in_place$LT$alloc..vec..Vec$LT$$LP$std..ffi..os_str..OsString$C$std..ffi..os_str..OsString$RP$$GT$$GT$17hbed25cacb5a496c8E"(ptr noalias noundef align 8 dereferenceable(24) %_1) unnamed_addr #0 personality ptr @rust_eh_personality {
start:
  %0 = alloca [16 x i8], align 8
; invoke <alloc::vec::Vec<T,A> as core::ops::drop::Drop>::drop
  invoke void @"_ZN70_$LT$alloc..vec..Vec$LT$T$C$A$GT$$u20$as$u20$core..ops..drop..Drop$GT$4drop17ha2cef0c1665037f4E"(ptr noalias noundef align 8 dereferenceable(24) %_1)
          to label %bb4 unwind label %cleanup

bb3:                                              ; preds = %cleanup
; invoke core::ptr::drop_in_place<alloc::raw_vec::RawVec<(std::ffi::os_str::OsString,std::ffi::os_str::OsString)>>
  invoke void @"_ZN4core3ptr114drop_in_place$LT$alloc..raw_vec..RawVec$LT$$LP$std..ffi..os_str..OsString$C$std..ffi..os_str..OsString$RP$$GT$$GT$17h6712f7173f83ec1fE"(ptr noalias noundef align 8 dereferenceable(16) %_1) #26
          to label %bb1 unwind label %terminate

cleanup:                                          ; preds = %start
  %1 = landingpad { ptr, i32 }
          cleanup
  %2 = extractvalue { ptr, i32 } %1, 0
  %3 = extractvalue { ptr, i32 } %1, 1
  call void @llvm.lifetime.start.p0(i64 16, ptr %0)
  store ptr %2, ptr %0, align 8
  %4 = getelementptr inbounds i8, ptr %0, i64 8
  store i32 %3, ptr %4, align 8
  br label %bb3

bb4:                                              ; preds = %start
; call core::ptr::drop_in_place<alloc::raw_vec::RawVec<(std::ffi::os_str::OsString,std::ffi::os_str::OsString)>>
  call void @"_ZN4core3ptr114drop_in_place$LT$alloc..raw_vec..RawVec$LT$$LP$std..ffi..os_str..OsString$C$std..ffi..os_str..OsString$RP$$GT$$GT$17h6712f7173f83ec1fE"(ptr noalias noundef align 8 dereferenceable(16) %_1)
  ret void

terminate:                                        ; preds = %bb3
  %5 = landingpad { ptr, i32 }
          filter [0 x ptr] zeroinitializer
; call core::panicking::panic_in_cleanup
  call void @_ZN4core9panicking16panic_in_cleanup17h5eff40bcc4481d72E() #27
  unreachable

bb1:                                              ; preds = %bb3
  %6 = load ptr, ptr %0, align 8, !noundef !4
  %7 = getelementptr inbounds i8, ptr %0, i64 8
  %8 = load i32, ptr %7, align 8, !noundef !4
  call void @llvm.lifetime.end.p0(i64 16, ptr %0)
  %9 = insertvalue { ptr, i32 } poison, ptr %6, 0
  %10 = insertvalue { ptr, i32 } %9, i32 %8, 1
  resume { ptr, i32 } %10
}

; core::ptr::drop_in_place<alloc::raw_vec::RawVec<(std::ffi::os_str::OsString,std::ffi::os_str::OsString)>>
; Function Attrs: nonlazybind uwtable
define internal void @"_ZN4core3ptr114drop_in_place$LT$alloc..raw_vec..RawVec$LT$$LP$std..ffi..os_str..OsString$C$std..ffi..os_str..OsString$RP$$GT$$GT$17h6712f7173f83ec1fE"(ptr noalias noundef align 8 dereferenceable(16) %_1) unnamed_addr #0 {
start:
; call <alloc::raw_vec::RawVec<T,A> as core::ops::drop::Drop>::drop
  call void @"_ZN77_$LT$alloc..raw_vec..RawVec$LT$T$C$A$GT$$u20$as$u20$core..ops..drop..Drop$GT$4drop17h118a742a407db28fE"(ptr noalias noundef align 8 dereferenceable(16) %_1)
  ret void
}

; core::ptr::drop_in_place<alloc::boxed::Box<dyn core::error::Error+core::marker::Sync+core::marker::Send>>
; Function Attrs: nonlazybind uwtable
define internal void @"_ZN4core3ptr118drop_in_place$LT$alloc..boxed..Box$LT$dyn$u20$core..error..Error$u2b$core..marker..Sync$u2b$core..marker..Send$GT$$GT$17h3bdfaf371ebc1f8cE"(ptr noalias noundef align 8 dereferenceable(16) %_1) unnamed_addr #0 personality ptr @rust_eh_personality {
start:
  %0 = alloca [16 x i8], align 8
  %_6.0 = load ptr, ptr %_1, align 8, !nonnull !4, !noundef !4
  %1 = getelementptr inbounds i8, ptr %_1, i64 8
  %_6.1 = load ptr, ptr %1, align 8, !nonnull !4, !align !5, !noundef !4
  %2 = icmp ne ptr %_6.0, null
  call void @llvm.assume(i1 %2)
  %3 = getelementptr inbounds i8, ptr %_6.1, i64 0
  %4 = load ptr, ptr %3, align 8, !invariant.load !4
  %5 = icmp ne ptr %4, null
  br i1 %5, label %is_not_null, label %bb3

is_not_null:                                      ; preds = %start
  invoke void %4(ptr noundef %_6.0)
          to label %bb3 unwind label %cleanup

bb3:                                              ; preds = %is_not_null, %start
; call <alloc::boxed::Box<T,A> as core::ops::drop::Drop>::drop
  call void @"_ZN72_$LT$alloc..boxed..Box$LT$T$C$A$GT$$u20$as$u20$core..ops..drop..Drop$GT$4drop17h53be785ca520141dE"(ptr noalias noundef align 8 dereferenceable(16) %_1)
  ret void

bb4:                                              ; preds = %cleanup
; invoke <alloc::boxed::Box<T,A> as core::ops::drop::Drop>::drop
  invoke void @"_ZN72_$LT$alloc..boxed..Box$LT$T$C$A$GT$$u20$as$u20$core..ops..drop..Drop$GT$4drop17h53be785ca520141dE"(ptr noalias noundef align 8 dereferenceable(16) %_1) #26
          to label %bb1 unwind label %terminate

cleanup:                                          ; preds = %is_not_null
  %6 = landingpad { ptr, i32 }
          cleanup
  %7 = extractvalue { ptr, i32 } %6, 0
  %8 = extractvalue { ptr, i32 } %6, 1
  call void @llvm.lifetime.start.p0(i64 16, ptr %0)
  store ptr %7, ptr %0, align 8
  %9 = getelementptr inbounds i8, ptr %0, i64 8
  store i32 %8, ptr %9, align 8
  br label %bb4

terminate:                                        ; preds = %bb4
  %10 = landingpad { ptr, i32 }
          filter [0 x ptr] zeroinitializer
; call core::panicking::panic_in_cleanup
  call void @_ZN4core9panicking16panic_in_cleanup17h5eff40bcc4481d72E() #27
  unreachable

bb1:                                              ; preds = %bb4
  %11 = load ptr, ptr %0, align 8, !noundef !4
  %12 = getelementptr inbounds i8, ptr %0, i64 8
  %13 = load i32, ptr %12, align 8, !noundef !4
  call void @llvm.lifetime.end.p0(i64 16, ptr %0)
  %14 = insertvalue { ptr, i32 } poison, ptr %11, 0
  %15 = insertvalue { ptr, i32 } %14, i32 %13, 1
  resume { ptr, i32 } %15
}

; core::ptr::read_unaligned
; Function Attrs: inlinehint nonlazybind uwtable
define internal void @_ZN4core3ptr14read_unaligned17h5b53176a007faca0E(ptr dead_on_unwind noalias noundef writable sret([16 x i8]) align 16 captures(address) dereferenceable(16) %_0, ptr noundef %src, ptr noalias noundef readonly align 8 captures(address, read_provenance) dereferenceable(24) %0) unnamed_addr #1 {
start:
  %self = alloca [16 x i8], align 16
  %tmp = alloca [16 x i8], align 16
  call void @llvm.lifetime.start.p0(i64 16, ptr %tmp)
  br label %bb3

bb3:                                              ; preds = %start
  call void @llvm.memcpy.p0.p0.i64(ptr align 1 %tmp, ptr align 1 %src, i64 16, i1 false)
  call void @llvm.lifetime.start.p0(i64 16, ptr %self)
  %1 = load <16 x i8>, ptr %tmp, align 16
  store <16 x i8> %1, ptr %self, align 16
  %2 = load <16 x i8>, ptr %self, align 16
  store <16 x i8> %2, ptr %_0, align 16
  call void @llvm.lifetime.end.p0(i64 16, ptr %self)
  call void @llvm.lifetime.end.p0(i64 16, ptr %tmp)
  ret void

bb1:                                              ; No predecessors!
  unreachable

bb2:                                              ; No predecessors!
  unreachable
}

; core::ptr::read_unaligned
; Function Attrs: inlinehint nonlazybind uwtable
define internal noundef i32 @_ZN4core3ptr14read_unaligned17he4b3cb0e2b205151E(ptr noundef %src, ptr noalias noundef readonly align 8 captures(address, read_provenance) dereferenceable(24) %0) unnamed_addr #1 {
start:
  %self = alloca [4 x i8], align 4
  %tmp = alloca [4 x i8], align 4
  call void @llvm.lifetime.start.p0(i64 4, ptr %tmp)
  br label %bb3

bb3:                                              ; preds = %start
  call void @llvm.memcpy.p0.p0.i64(ptr align 1 %tmp, ptr align 1 %src, i64 4, i1 false)
  call void @llvm.lifetime.start.p0(i64 4, ptr %self)
  %1 = load i32, ptr %tmp, align 4
  store i32 %1, ptr %self, align 4
  %_0 = load i32, ptr %self, align 4, !noundef !4
  call void @llvm.lifetime.end.p0(i64 4, ptr %self)
  call void @llvm.lifetime.end.p0(i64 4, ptr %tmp)
  ret i32 %_0

bb1:                                              ; No predecessors!
  unreachable

bb2:                                              ; No predecessors!
  unreachable
}

; core::ptr::drop_in_place<alloc::collections::btree::map::BTreeMap<std::ffi::os_str::OsString,core::option::Option<std::ffi::os_str::OsString>>>
; Function Attrs: nonlazybind uwtable
define internal void @"_ZN4core3ptr152drop_in_place$LT$alloc..collections..btree..map..BTreeMap$LT$std..ffi..os_str..OsString$C$core..option..Option$LT$std..ffi..os_str..OsString$GT$$GT$$GT$17h34502892cd90c9e8E"(ptr noalias noundef align 8 dereferenceable(24) %_1) unnamed_addr #0 {
start:
; call <alloc::collections::btree::map::BTreeMap<K,V,A> as core::ops::drop::Drop>::drop
  call void @"_ZN99_$LT$alloc..collections..btree..map..BTreeMap$LT$K$C$V$C$A$GT$$u20$as$u20$core..ops..drop..Drop$GT$4drop17ha091e5cfd57f3520E"(ptr noalias noundef align 8 dereferenceable(24) %_1)
  ret void
}

; core::ptr::drop_in_place<alloc::collections::btree::map::IntoIter<std::ffi::os_str::OsString,core::option::Option<std::ffi::os_str::OsString>>>
; Function Attrs: nonlazybind uwtable
define internal void @"_ZN4core3ptr152drop_in_place$LT$alloc..collections..btree..map..IntoIter$LT$std..ffi..os_str..OsString$C$core..option..Option$LT$std..ffi..os_str..OsString$GT$$GT$$GT$17h45b3bd10c5b92270E"(ptr noalias noundef align 8 dereferenceable(72) %_1) unnamed_addr #0 {
start:
; call <alloc::collections::btree::map::IntoIter<K,V,A> as core::ops::drop::Drop>::drop
  call void @"_ZN99_$LT$alloc..collections..btree..map..IntoIter$LT$K$C$V$C$A$GT$$u20$as$u20$core..ops..drop..Drop$GT$4drop17h1ed9ee5d92b424d2E"(ptr noalias noundef align 8 dereferenceable(72) %_1)
  ret void
}

; core::ptr::drop_in_place<dyn core::ops::function::FnMut<()>+Output = core::result::Result<(),std::io::error::Error>+core::marker::Sync+core::marker::Send>
; Function Attrs: nonlazybind uwtable
define internal void @"_ZN4core3ptr203drop_in_place$LT$dyn$u20$core..ops..function..FnMut$LT$$LP$$RP$$GT$$u2b$Output$u20$$u3d$$u20$core..result..Result$LT$$LP$$RP$$C$std..io..error..Error$GT$$u2b$core..marker..Sync$u2b$core..marker..Send$GT$17hec4613b0cc07d1dcE"(ptr noundef nonnull align 1 %_1.0, ptr noalias noundef readonly align 8 captures(address, read_provenance) dereferenceable(40) %_1.1) unnamed_addr #0 {
start:
  %0 = getelementptr inbounds i8, ptr %_1.1, i64 0
  %1 = load ptr, ptr %0, align 8, !invariant.load !4
  %2 = icmp ne ptr %1, null
  br i1 %2, label %is_not_null, label %bb1

is_not_null:                                      ; preds = %start
  call void %1(ptr noundef %_1.0)
  br label %bb1

bb1:                                              ; preds = %is_not_null, %start
  ret void
}

; core::ptr::drop_in_place<alloc::boxed::Box<dyn core::ops::function::FnMut<()>+Output = core::result::Result<(),std::io::error::Error>+core::marker::Sync+core::marker::Send>>
; Function Attrs: nonlazybind uwtable
define internal void @"_ZN4core3ptr228drop_in_place$LT$alloc..boxed..Box$LT$dyn$u20$core..ops..function..FnMut$LT$$LP$$RP$$GT$$u2b$Output$u20$$u3d$$u20$core..result..Result$LT$$LP$$RP$$C$std..io..error..Error$GT$$u2b$core..marker..Sync$u2b$core..marker..Send$GT$$GT$17h356602bdff7f7173E"(ptr noalias noundef align 8 dereferenceable(16) %_1) unnamed_addr #0 personality ptr @rust_eh_personality {
start:
  %0 = alloca [16 x i8], align 8
  %_6.0 = load ptr, ptr %_1, align 8, !nonnull !4, !noundef !4
  %1 = getelementptr inbounds i8, ptr %_1, i64 8
  %_6.1 = load ptr, ptr %1, align 8, !nonnull !4, !align !5, !noundef !4
  %2 = icmp ne ptr %_6.0, null
  call void @llvm.assume(i1 %2)
  %3 = getelementptr inbounds i8, ptr %_6.1, i64 0
  %4 = load ptr, ptr %3, align 8, !invariant.load !4
  %5 = icmp ne ptr %4, null
  br i1 %5, label %is_not_null, label %bb3

is_not_null:                                      ; preds = %start
  invoke void %4(ptr noundef %_6.0)
          to label %bb3 unwind label %cleanup

bb3:                                              ; preds = %is_not_null, %start
; call <alloc::boxed::Box<T,A> as core::ops::drop::Drop>::drop
  call void @"_ZN72_$LT$alloc..boxed..Box$LT$T$C$A$GT$$u20$as$u20$core..ops..drop..Drop$GT$4drop17h8072aaa49fb74ca1E"(ptr noalias noundef align 8 dereferenceable(16) %_1)
  ret void

bb4:                                              ; preds = %cleanup
; invoke <alloc::boxed::Box<T,A> as core::ops::drop::Drop>::drop
  invoke void @"_ZN72_$LT$alloc..boxed..Box$LT$T$C$A$GT$$u20$as$u20$core..ops..drop..Drop$GT$4drop17h8072aaa49fb74ca1E"(ptr noalias noundef align 8 dereferenceable(16) %_1) #26
          to label %bb1 unwind label %terminate

cleanup:                                          ; preds = %is_not_null
  %6 = landingpad { ptr, i32 }
          cleanup
  %7 = extractvalue { ptr, i32 } %6, 0
  %8 = extractvalue { ptr, i32 } %6, 1
  call void @llvm.lifetime.start.p0(i64 16, ptr %0)
  store ptr %7, ptr %0, align 8
  %9 = getelementptr inbounds i8, ptr %0, i64 8
  store i32 %8, ptr %9, align 8
  br label %bb4

terminate:                                        ; preds = %bb4
  %10 = landingpad { ptr, i32 }
          filter [0 x ptr] zeroinitializer
; call core::panicking::panic_in_cleanup
  call void @_ZN4core9panicking16panic_in_cleanup17h5eff40bcc4481d72E() #27
  unreachable

bb1:                                              ; preds = %bb4
  %11 = load ptr, ptr %0, align 8, !noundef !4
  %12 = getelementptr inbounds i8, ptr %0, i64 8
  %13 = load i32, ptr %12, align 8, !noundef !4
  call void @llvm.lifetime.end.p0(i64 16, ptr %0)
  %14 = insertvalue { ptr, i32 } poison, ptr %11, 0
  %15 = insertvalue { ptr, i32 } %14, i32 %13, 1
  resume { ptr, i32 } %15
}

; core::ptr::drop_in_place<[alloc::boxed::Box<dyn core::ops::function::FnMut<()>+Output = core::result::Result<(),std::io::error::Error>+core::marker::Sync+core::marker::Send>]>
; Function Attrs: nonlazybind uwtable
define internal void @"_ZN4core3ptr238drop_in_place$LT$$u5b$alloc..boxed..Box$LT$dyn$u20$core..ops..function..FnMut$LT$$LP$$RP$$GT$$u2b$Output$u20$$u3d$$u20$core..result..Result$LT$$LP$$RP$$C$std..io..error..Error$GT$$u2b$core..marker..Sync$u2b$core..marker..Send$GT$$u5d$$GT$17h81b73c0207b33974E"(ptr noalias noundef nonnull align 8 %_1.0, i64 noundef %_1.1) unnamed_addr #0 personality ptr @rust_eh_personality {
start:
  %0 = alloca [16 x i8], align 8
  %_3 = alloca [8 x i8], align 8
  store i64 0, ptr %_3, align 8
  br label %bb6

bb6:                                              ; preds = %bb5, %start
  %1 = load i64, ptr %_3, align 8, !noundef !4
  %_7 = icmp eq i64 %1, %_1.1
  br i1 %_7, label %bb1, label %bb5

bb5:                                              ; preds = %bb6
  %2 = load i64, ptr %_3, align 8, !noundef !4
  %_6 = getelementptr inbounds nuw %"alloc::boxed::Box<dyn core::ops::function::FnMut() -> core::result::Result<(), std::io::error::Error> + core::marker::Send + core::marker::Sync>", ptr %_1.0, i64 %2
  %3 = load i64, ptr %_3, align 8, !noundef !4
  %4 = add i64 %3, 1
  store i64 %4, ptr %_3, align 8
; invoke core::ptr::drop_in_place<alloc::boxed::Box<dyn core::ops::function::FnMut<()>+Output = core::result::Result<(),std::io::error::Error>+core::marker::Sync+core::marker::Send>>
  invoke void @"_ZN4core3ptr228drop_in_place$LT$alloc..boxed..Box$LT$dyn$u20$core..ops..function..FnMut$LT$$LP$$RP$$GT$$u2b$Output$u20$$u3d$$u20$core..result..Result$LT$$LP$$RP$$C$std..io..error..Error$GT$$u2b$core..marker..Sync$u2b$core..marker..Send$GT$$GT$17h356602bdff7f7173E"(ptr noalias noundef align 8 dereferenceable(16) %_6)
          to label %bb6 unwind label %cleanup

bb1:                                              ; preds = %bb6
  ret void

bb4:                                              ; preds = %bb3, %cleanup
  %5 = load i64, ptr %_3, align 8, !noundef !4
  %_5 = icmp eq i64 %5, %_1.1
  br i1 %_5, label %bb2, label %bb3

cleanup:                                          ; preds = %bb5
  %6 = landingpad { ptr, i32 }
          cleanup
  %7 = extractvalue { ptr, i32 } %6, 0
  %8 = extractvalue { ptr, i32 } %6, 1
  call void @llvm.lifetime.start.p0(i64 16, ptr %0)
  store ptr %7, ptr %0, align 8
  %9 = getelementptr inbounds i8, ptr %0, i64 8
  store i32 %8, ptr %9, align 8
  br label %bb4

bb3:                                              ; preds = %bb4
  %10 = load i64, ptr %_3, align 8, !noundef !4
  %_4 = getelementptr inbounds nuw %"alloc::boxed::Box<dyn core::ops::function::FnMut() -> core::result::Result<(), std::io::error::Error> + core::marker::Send + core::marker::Sync>", ptr %_1.0, i64 %10
  %11 = load i64, ptr %_3, align 8, !noundef !4
  %12 = add i64 %11, 1
  store i64 %12, ptr %_3, align 8
; invoke core::ptr::drop_in_place<alloc::boxed::Box<dyn core::ops::function::FnMut<()>+Output = core::result::Result<(),std::io::error::Error>+core::marker::Sync+core::marker::Send>>
  invoke void @"_ZN4core3ptr228drop_in_place$LT$alloc..boxed..Box$LT$dyn$u20$core..ops..function..FnMut$LT$$LP$$RP$$GT$$u2b$Output$u20$$u3d$$u20$core..result..Result$LT$$LP$$RP$$C$std..io..error..Error$GT$$u2b$core..marker..Sync$u2b$core..marker..Send$GT$$GT$17h356602bdff7f7173E"(ptr noalias noundef align 8 dereferenceable(16) %_4) #26
          to label %bb4 unwind label %terminate

bb2:                                              ; preds = %bb4
  %13 = load ptr, ptr %0, align 8, !noundef !4
  %14 = getelementptr inbounds i8, ptr %0, i64 8
  %15 = load i32, ptr %14, align 8, !noundef !4
  call void @llvm.lifetime.end.p0(i64 16, ptr %0)
  %16 = insertvalue { ptr, i32 } poison, ptr %13, 0
  %17 = insertvalue { ptr, i32 } %16, i32 %15, 1
  resume { ptr, i32 } %17

terminate:                                        ; preds = %bb3
  %18 = landingpad { ptr, i32 }
          filter [0 x ptr] zeroinitializer
; call core::panicking::panic_in_cleanup
  call void @_ZN4core9panicking16panic_in_cleanup17h5eff40bcc4481d72E() #27
  unreachable
}

; core::ptr::drop_in_place<<alloc::collections::btree::map::IntoIter<K,V,A> as core::ops::drop::Drop>::drop::DropGuard<std::ffi::os_str::OsString,core::option::Option<std::ffi::os_str::OsString>,alloc::alloc::Global>>
; Function Attrs: nonlazybind uwtable
define internal void @"_ZN4core3ptr250drop_in_place$LT$$LT$alloc..collections..btree..map..IntoIter$LT$K$C$V$C$A$GT$$u20$as$u20$core..ops..drop..Drop$GT$..drop..DropGuard$LT$std..ffi..os_str..OsString$C$core..option..Option$LT$std..ffi..os_str..OsString$GT$$C$alloc..alloc..Global$GT$$GT$17h38e3c899926230caE"(ptr noalias noundef align 8 dereferenceable(8) %_1) unnamed_addr #0 {
start:
; call <<alloc::collections::btree::map::IntoIter<K,V,A> as core::ops::drop::Drop>::drop::DropGuard<K,V,A> as core::ops::drop::Drop>::drop
  call void @"_ZN174_$LT$$LT$alloc..collections..btree..map..IntoIter$LT$K$C$V$C$A$GT$$u20$as$u20$core..ops..drop..Drop$GT$..drop..DropGuard$LT$K$C$V$C$A$GT$$u20$as$u20$core..ops..drop..Drop$GT$4drop17h33a70346dc810739E"(ptr noalias noundef align 8 dereferenceable(8) %_1)
  ret void
}

; core::ptr::drop_in_place<alloc::vec::Vec<alloc::boxed::Box<dyn core::ops::function::FnMut<()>+Output = core::result::Result<(),std::io::error::Error>+core::marker::Sync+core::marker::Send>>>
; Function Attrs: nonlazybind uwtable
define internal void @"_ZN4core3ptr251drop_in_place$LT$alloc..vec..Vec$LT$alloc..boxed..Box$LT$dyn$u20$core..ops..function..FnMut$LT$$LP$$RP$$GT$$u2b$Output$u20$$u3d$$u20$core..result..Result$LT$$LP$$RP$$C$std..io..error..Error$GT$$u2b$core..marker..Sync$u2b$core..marker..Send$GT$$GT$$GT$17h1cd078a7c41ad51aE"(ptr noalias noundef align 8 dereferenceable(24) %_1) unnamed_addr #0 personality ptr @rust_eh_personality {
start:
  %0 = alloca [16 x i8], align 8
; invoke <alloc::vec::Vec<T,A> as core::ops::drop::Drop>::drop
  invoke void @"_ZN70_$LT$alloc..vec..Vec$LT$T$C$A$GT$$u20$as$u20$core..ops..drop..Drop$GT$4drop17h96c8b6c13afc7db9E"(ptr noalias noundef align 8 dereferenceable(24) %_1)
          to label %bb4 unwind label %cleanup

bb3:                                              ; preds = %cleanup
; invoke core::ptr::drop_in_place<alloc::raw_vec::RawVec<alloc::boxed::Box<dyn core::ops::function::FnMut<()>+Output = core::result::Result<(),std::io::error::Error>+core::marker::Sync+core::marker::Send>>>
  invoke void @"_ZN4core3ptr258drop_in_place$LT$alloc..raw_vec..RawVec$LT$alloc..boxed..Box$LT$dyn$u20$core..ops..function..FnMut$LT$$LP$$RP$$GT$$u2b$Output$u20$$u3d$$u20$core..result..Result$LT$$LP$$RP$$C$std..io..error..Error$GT$$u2b$core..marker..Sync$u2b$core..marker..Send$GT$$GT$$GT$17h616e9423c3349f6eE"(ptr noalias noundef align 8 dereferenceable(16) %_1) #26
          to label %bb1 unwind label %terminate

cleanup:                                          ; preds = %start
  %1 = landingpad { ptr, i32 }
          cleanup
  %2 = extractvalue { ptr, i32 } %1, 0
  %3 = extractvalue { ptr, i32 } %1, 1
  call void @llvm.lifetime.start.p0(i64 16, ptr %0)
  store ptr %2, ptr %0, align 8
  %4 = getelementptr inbounds i8, ptr %0, i64 8
  store i32 %3, ptr %4, align 8
  br label %bb3

bb4:                                              ; preds = %start
; call core::ptr::drop_in_place<alloc::raw_vec::RawVec<alloc::boxed::Box<dyn core::ops::function::FnMut<()>+Output = core::result::Result<(),std::io::error::Error>+core::marker::Sync+core::marker::Send>>>
  call void @"_ZN4core3ptr258drop_in_place$LT$alloc..raw_vec..RawVec$LT$alloc..boxed..Box$LT$dyn$u20$core..ops..function..FnMut$LT$$LP$$RP$$GT$$u2b$Output$u20$$u3d$$u20$core..result..Result$LT$$LP$$RP$$C$std..io..error..Error$GT$$u2b$core..marker..Sync$u2b$core..marker..Send$GT$$GT$$GT$17h616e9423c3349f6eE"(ptr noalias noundef align 8 dereferenceable(16) %_1)
  ret void

terminate:                                        ; preds = %bb3
  %5 = landingpad { ptr, i32 }
          filter [0 x ptr] zeroinitializer
; call core::panicking::panic_in_cleanup
  call void @_ZN4core9panicking16panic_in_cleanup17h5eff40bcc4481d72E() #27
  unreachable

bb1:                                              ; preds = %bb3
  %6 = load ptr, ptr %0, align 8, !noundef !4
  %7 = getelementptr inbounds i8, ptr %0, i64 8
  %8 = load i32, ptr %7, align 8, !noundef !4
  call void @llvm.lifetime.end.p0(i64 16, ptr %0)
  %9 = insertvalue { ptr, i32 } poison, ptr %6, 0
  %10 = insertvalue { ptr, i32 } %9, i32 %8, 1
  resume { ptr, i32 } %10
}

; core::ptr::drop_in_place<alloc::raw_vec::RawVec<alloc::boxed::Box<dyn core::ops::function::FnMut<()>+Output = core::result::Result<(),std::io::error::Error>+core::marker::Sync+core::marker::Send>>>
; Function Attrs: nonlazybind uwtable
define internal void @"_ZN4core3ptr258drop_in_place$LT$alloc..raw_vec..RawVec$LT$alloc..boxed..Box$LT$dyn$u20$core..ops..function..FnMut$LT$$LP$$RP$$GT$$u2b$Output$u20$$u3d$$u20$core..result..Result$LT$$LP$$RP$$C$std..io..error..Error$GT$$u2b$core..marker..Sync$u2b$core..marker..Send$GT$$GT$$GT$17h616e9423c3349f6eE"(ptr noalias noundef align 8 dereferenceable(16) %_1) unnamed_addr #0 {
start:
; call <alloc::raw_vec::RawVec<T,A> as core::ops::drop::Drop>::drop
  call void @"_ZN77_$LT$alloc..raw_vec..RawVec$LT$T$C$A$GT$$u20$as$u20$core..ops..drop..Drop$GT$4drop17h020ec6aabc59a52cE"(ptr noalias noundef align 8 dereferenceable(16) %_1)
  ret void
}

; core::ptr::drop_in_place<alloc::collections::btree::node::Handle<alloc::collections::btree::node::NodeRef<alloc::collections::btree::node::marker::Dying,K,V,NodeType>,alloc::collections::btree::node::marker::KV>::drop_key_val::Dropper<core::option::Option<std::ffi::os_str::OsString>>>
; Function Attrs: nonlazybind uwtable
define internal void @"_ZN4core3ptr312drop_in_place$LT$alloc..collections..btree..node..Handle$LT$alloc..collections..btree..node..NodeRef$LT$alloc..collections..btree..node..marker..Dying$C$K$C$V$C$NodeType$GT$$C$alloc..collections..btree..node..marker..KV$GT$..drop_key_val..Dropper$LT$core..option..Option$LT$std..ffi..os_str..OsString$GT$$GT$$GT$17h9eaef2e6c6eb45bbE"(ptr noalias noundef align 8 dereferenceable(8) %_1) unnamed_addr #0 {
start:
; call <alloc::collections::btree::node::Handle<alloc::collections::btree::node::NodeRef<alloc::collections::btree::node::marker::Dying,K,V,NodeType>,alloc::collections::btree::node::marker::KV>::drop_key_val::Dropper<T> as core::ops::drop::Drop>::drop
  call void @"_ZN280_$LT$alloc..collections..btree..node..Handle$LT$alloc..collections..btree..node..NodeRef$LT$alloc..collections..btree..node..marker..Dying$C$K$C$V$C$NodeType$GT$$C$alloc..collections..btree..node..marker..KV$GT$..drop_key_val..Dropper$LT$T$GT$$u20$as$u20$core..ops..drop..Drop$GT$4drop17h9b15a1140d402e4fE"(ptr noalias noundef align 8 dereferenceable(8) %_1)
  ret void
}

; core::ptr::drop_in_place<std::env::VarError>
; Function Attrs: nonlazybind uwtable
define internal void @"_ZN4core3ptr39drop_in_place$LT$std..env..VarError$GT$17h532be8984489c640E"(ptr noalias noundef align 8 dereferenceable(24) %_1) unnamed_addr #0 {
start:
  %0 = load i64, ptr %_1, align 8, !range !3, !noundef !4
  %1 = icmp eq i64 %0, -9223372036854775808
  %_2 = select i1 %1, i64 0, i64 1
  %2 = icmp eq i64 %_2, 0
  br i1 %2, label %bb1, label %bb2

bb1:                                              ; preds = %bb2, %start
  ret void

bb2:                                              ; preds = %start
; call core::ptr::drop_in_place<std::ffi::os_str::OsString>
  call void @"_ZN4core3ptr47drop_in_place$LT$std..ffi..os_str..OsString$GT$17hf6d3044f5a345abfE"(ptr noalias noundef align 8 dereferenceable(24) %_1)
  br label %bb1
}

; core::ptr::drop_in_place<std::path::PathBuf>
; Function Attrs: nonlazybind uwtable
define internal void @"_ZN4core3ptr39drop_in_place$LT$std..path..PathBuf$GT$17h4382936b21d81f71E"(ptr noalias noundef align 8 dereferenceable(24) %_1) unnamed_addr #0 {
start:
; call core::ptr::drop_in_place<std::ffi::os_str::OsString>
  call void @"_ZN4core3ptr47drop_in_place$LT$std..ffi..os_str..OsString$GT$17hf6d3044f5a345abfE"(ptr noalias noundef align 8 dereferenceable(24) %_1)
  ret void
}

; core::ptr::drop_in_place<alloc::string::String>
; Function Attrs: nonlazybind uwtable
define internal void @"_ZN4core3ptr42drop_in_place$LT$alloc..string..String$GT$17h335246f49205a784E"(ptr noalias noundef align 8 dereferenceable(24) %_1) unnamed_addr #0 {
start:
; call core::ptr::drop_in_place<alloc::vec::Vec<u8>>
  call void @"_ZN4core3ptr46drop_in_place$LT$alloc..vec..Vec$LT$u8$GT$$GT$17hc5392a662e37bc30E"(ptr noalias noundef align 8 dereferenceable(24) %_1)
  ret void
}

; core::ptr::drop_in_place<std::io::error::Error>
; Function Attrs: nonlazybind uwtable
define internal void @"_ZN4core3ptr42drop_in_place$LT$std..io..error..Error$GT$17hd1d67dc700e14505E"(ptr noalias noundef align 8 dereferenceable(8) %_1) unnamed_addr #0 {
start:
; call core::ptr::drop_in_place<std::io::error::repr_bitpacked::Repr>
  call void @"_ZN4core3ptr57drop_in_place$LT$std..io..error..repr_bitpacked..Repr$GT$17he744bd826b8482abE"(ptr noalias noundef align 8 dereferenceable(8) %_1)
  ret void
}

; core::ptr::drop_in_place<std::process::Command>
; Function Attrs: nonlazybind uwtable
define internal void @"_ZN4core3ptr42drop_in_place$LT$std..process..Command$GT$17h3f37b8b230f9bb43E"(ptr noalias noundef align 8 dereferenceable(200) %_1) unnamed_addr #0 {
start:
; call core::ptr::drop_in_place<std::sys::process::unix::common::Command>
  call void @"_ZN4core3ptr61drop_in_place$LT$std..sys..process..unix..common..Command$GT$17hae0293caeec6ddcbE"(ptr noalias noundef align 8 dereferenceable(200) %_1)
  ret void
}

; core::ptr::drop_in_place<std::io::error::Custom>
; Function Attrs: nonlazybind uwtable
define internal void @"_ZN4core3ptr43drop_in_place$LT$std..io..error..Custom$GT$17h41c0af2c3d072c40E"(ptr noalias noundef align 8 dereferenceable(24) %_1) unnamed_addr #0 {
start:
; call core::ptr::drop_in_place<alloc::boxed::Box<dyn core::error::Error+core::marker::Sync+core::marker::Send>>
  call void @"_ZN4core3ptr118drop_in_place$LT$alloc..boxed..Box$LT$dyn$u20$core..error..Error$u2b$core..marker..Sync$u2b$core..marker..Send$GT$$GT$17h3bdfaf371ebc1f8cE"(ptr noalias noundef align 8 dereferenceable(16) %_1)
  ret void
}

; core::ptr::drop_in_place<alloc::vec::Vec<u8>>
; Function Attrs: nonlazybind uwtable
define internal void @"_ZN4core3ptr46drop_in_place$LT$alloc..vec..Vec$LT$u8$GT$$GT$17hc5392a662e37bc30E"(ptr noalias noundef align 8 dereferenceable(24) %_1) unnamed_addr #0 personality ptr @rust_eh_personality {
start:
  %0 = alloca [16 x i8], align 8
; invoke <alloc::vec::Vec<T,A> as core::ops::drop::Drop>::drop
  invoke void @"_ZN70_$LT$alloc..vec..Vec$LT$T$C$A$GT$$u20$as$u20$core..ops..drop..Drop$GT$4drop17h1f8e18913759d1d0E"(ptr noalias noundef align 8 dereferenceable(24) %_1)
          to label %bb4 unwind label %cleanup

bb3:                                              ; preds = %cleanup
; invoke core::ptr::drop_in_place<alloc::raw_vec::RawVec<u8>>
  invoke void @"_ZN4core3ptr53drop_in_place$LT$alloc..raw_vec..RawVec$LT$u8$GT$$GT$17h88a44587a5523204E"(ptr noalias noundef align 8 dereferenceable(16) %_1) #26
          to label %bb1 unwind label %terminate

cleanup:                                          ; preds = %start
  %1 = landingpad { ptr, i32 }
          cleanup
  %2 = extractvalue { ptr, i32 } %1, 0
  %3 = extractvalue { ptr, i32 } %1, 1
  call void @llvm.lifetime.start.p0(i64 16, ptr %0)
  store ptr %2, ptr %0, align 8
  %4 = getelementptr inbounds i8, ptr %0, i64 8
  store i32 %3, ptr %4, align 8
  br label %bb3

bb4:                                              ; preds = %start
; call core::ptr::drop_in_place<alloc::raw_vec::RawVec<u8>>
  call void @"_ZN4core3ptr53drop_in_place$LT$alloc..raw_vec..RawVec$LT$u8$GT$$GT$17h88a44587a5523204E"(ptr noalias noundef align 8 dereferenceable(16) %_1)
  ret void

terminate:                                        ; preds = %bb3
  %5 = landingpad { ptr, i32 }
          filter [0 x ptr] zeroinitializer
; call core::panicking::panic_in_cleanup
  call void @_ZN4core9panicking16panic_in_cleanup17h5eff40bcc4481d72E() #27
  unreachable

bb1:                                              ; preds = %bb3
  %6 = load ptr, ptr %0, align 8, !noundef !4
  %7 = getelementptr inbounds i8, ptr %0, i64 8
  %8 = load i32, ptr %7, align 8, !noundef !4
  call void @llvm.lifetime.end.p0(i64 16, ptr %0)
  %9 = insertvalue { ptr, i32 } poison, ptr %6, 0
  %10 = insertvalue { ptr, i32 } %9, i32 %8, 1
  resume { ptr, i32 } %10
}

; core::ptr::drop_in_place<alloc::ffi::c_str::CString>
; Function Attrs: nonlazybind uwtable
define internal void @"_ZN4core3ptr47drop_in_place$LT$alloc..ffi..c_str..CString$GT$17h18e1cb379d62ca0cE"(ptr noalias noundef align 8 dereferenceable(16) %_1) unnamed_addr #0 personality ptr @rust_eh_personality {
start:
  %0 = alloca [16 x i8], align 8
; invoke <alloc::ffi::c_str::CString as core::ops::drop::Drop>::drop
  invoke void @"_ZN68_$LT$alloc..ffi..c_str..CString$u20$as$u20$core..ops..drop..Drop$GT$4drop17hbb58f451b95b492eE"(ptr noalias noundef align 8 dereferenceable(16) %_1)
          to label %bb4 unwind label %cleanup

bb3:                                              ; preds = %cleanup
; invoke core::ptr::drop_in_place<alloc::boxed::Box<[u8]>>
  invoke void @"_ZN4core3ptr58drop_in_place$LT$alloc..boxed..Box$LT$$u5b$u8$u5d$$GT$$GT$17h621813f0ae8a40d5E"(ptr noalias noundef align 8 dereferenceable(16) %_1) #26
          to label %bb1 unwind label %terminate

cleanup:                                          ; preds = %start
  %1 = landingpad { ptr, i32 }
          cleanup
  %2 = extractvalue { ptr, i32 } %1, 0
  %3 = extractvalue { ptr, i32 } %1, 1
  call void @llvm.lifetime.start.p0(i64 16, ptr %0)
  store ptr %2, ptr %0, align 8
  %4 = getelementptr inbounds i8, ptr %0, i64 8
  store i32 %3, ptr %4, align 8
  br label %bb3

bb4:                                              ; preds = %start
; call core::ptr::drop_in_place<alloc::boxed::Box<[u8]>>
  call void @"_ZN4core3ptr58drop_in_place$LT$alloc..boxed..Box$LT$$u5b$u8$u5d$$GT$$GT$17h621813f0ae8a40d5E"(ptr noalias noundef align 8 dereferenceable(16) %_1)
  ret void

terminate:                                        ; preds = %bb3
  %5 = landingpad { ptr, i32 }
          filter [0 x ptr] zeroinitializer
; call core::panicking::panic_in_cleanup
  call void @_ZN4core9panicking16panic_in_cleanup17h5eff40bcc4481d72E() #27
  unreachable

bb1:                                              ; preds = %bb3
  %6 = load ptr, ptr %0, align 8, !noundef !4
  %7 = getelementptr inbounds i8, ptr %0, i64 8
  %8 = load i32, ptr %7, align 8, !noundef !4
  call void @llvm.lifetime.end.p0(i64 16, ptr %0)
  %9 = insertvalue { ptr, i32 } poison, ptr %6, 0
  %10 = insertvalue { ptr, i32 } %9, i32 %8, 1
  resume { ptr, i32 } %10
}

; core::ptr::drop_in_place<std::ffi::os_str::OsString>
; Function Attrs: nonlazybind uwtable
define internal void @"_ZN4core3ptr47drop_in_place$LT$std..ffi..os_str..OsString$GT$17hf6d3044f5a345abfE"(ptr noalias noundef align 8 dereferenceable(24) %_1) unnamed_addr #0 {
start:
; call core::ptr::drop_in_place<std::sys::os_str::bytes::Buf>
  call void @"_ZN4core3ptr49drop_in_place$LT$std..sys..os_str..bytes..Buf$GT$17ha490459d409a842cE"(ptr noalias noundef align 8 dereferenceable(24) %_1)
  ret void
}

; core::ptr::drop_in_place<find_msvc_tools::tool::Tool>
; Function Attrs: nonlazybind uwtable
define internal void @"_ZN4core3ptr48drop_in_place$LT$find_msvc_tools..tool..Tool$GT$17hf594379180d2b953E"(ptr noalias noundef align 8 dereferenceable(56) %_1) unnamed_addr #0 personality ptr @rust_eh_personality {
start:
  %0 = alloca [16 x i8], align 8
; invoke core::ptr::drop_in_place<std::path::PathBuf>
  invoke void @"_ZN4core3ptr39drop_in_place$LT$std..path..PathBuf$GT$17h4382936b21d81f71E"(ptr noalias noundef align 8 dereferenceable(24) %_1)
          to label %bb4 unwind label %cleanup

bb3:                                              ; preds = %cleanup
  %1 = getelementptr inbounds i8, ptr %_1, i64 24
; invoke core::ptr::drop_in_place<alloc::vec::Vec<(std::ffi::os_str::OsString,std::ffi::os_str::OsString)>>
  invoke void @"_ZN4core3ptr107drop_in_place$LT$alloc..vec..Vec$LT$$LP$std..ffi..os_str..OsString$C$std..ffi..os_str..OsString$RP$$GT$$GT$17hbed25cacb5a496c8E"(ptr noalias noundef align 8 dereferenceable(24) %1) #26
          to label %bb1 unwind label %terminate

cleanup:                                          ; preds = %start
  %2 = landingpad { ptr, i32 }
          cleanup
  %3 = extractvalue { ptr, i32 } %2, 0
  %4 = extractvalue { ptr, i32 } %2, 1
  call void @llvm.lifetime.start.p0(i64 16, ptr %0)
  store ptr %3, ptr %0, align 8
  %5 = getelementptr inbounds i8, ptr %0, i64 8
  store i32 %4, ptr %5, align 8
  br label %bb3

bb4:                                              ; preds = %start
  %6 = getelementptr inbounds i8, ptr %_1, i64 24
; call core::ptr::drop_in_place<alloc::vec::Vec<(std::ffi::os_str::OsString,std::ffi::os_str::OsString)>>
  call void @"_ZN4core3ptr107drop_in_place$LT$alloc..vec..Vec$LT$$LP$std..ffi..os_str..OsString$C$std..ffi..os_str..OsString$RP$$GT$$GT$17hbed25cacb5a496c8E"(ptr noalias noundef align 8 dereferenceable(24) %6)
  ret void

terminate:                                        ; preds = %bb3
  %7 = landingpad { ptr, i32 }
          filter [0 x ptr] zeroinitializer
; call core::panicking::panic_in_cleanup
  call void @_ZN4core9panicking16panic_in_cleanup17h5eff40bcc4481d72E() #27
  unreachable

bb1:                                              ; preds = %bb3
  %8 = load ptr, ptr %0, align 8, !noundef !4
  %9 = getelementptr inbounds i8, ptr %0, i64 8
  %10 = load i32, ptr %9, align 8, !noundef !4
  call void @llvm.lifetime.end.p0(i64 16, ptr %0)
  %11 = insertvalue { ptr, i32 } poison, ptr %8, 0
  %12 = insertvalue { ptr, i32 } %11, i32 %10, 1
  resume { ptr, i32 } %12
}

; core::ptr::drop_in_place<std::os::fd::owned::OwnedFd>
; Function Attrs: nonlazybind uwtable
define internal void @"_ZN4core3ptr48drop_in_place$LT$std..os..fd..owned..OwnedFd$GT$17h13ea5591a244fde9E"(ptr noalias noundef align 4 dereferenceable(4) %_1) unnamed_addr #0 {
start:
; call <std::os::fd::owned::OwnedFd as core::ops::drop::Drop>::drop
  call void @"_ZN69_$LT$std..os..fd..owned..OwnedFd$u20$as$u20$core..ops..drop..Drop$GT$4drop17h6d61f43dbc6677d8E"(ptr noalias noundef align 4 dereferenceable(4) %_1)
  ret void
}

; core::ptr::drop_in_place<std::sys::fd::unix::FileDesc>
; Function Attrs: nonlazybind uwtable
define internal void @"_ZN4core3ptr49drop_in_place$LT$std..sys..fd..unix..FileDesc$GT$17h9760dd2525dfc4c9E"(ptr noalias noundef align 4 dereferenceable(4) %_1) unnamed_addr #0 {
start:
; call core::ptr::drop_in_place<std::os::fd::owned::OwnedFd>
  call void @"_ZN4core3ptr48drop_in_place$LT$std..os..fd..owned..OwnedFd$GT$17h13ea5591a244fde9E"(ptr noalias noundef align 4 dereferenceable(4) %_1)
  ret void
}

; core::ptr::drop_in_place<std::sys::os_str::bytes::Buf>
; Function Attrs: nonlazybind uwtable
define internal void @"_ZN4core3ptr49drop_in_place$LT$std..sys..os_str..bytes..Buf$GT$17ha490459d409a842cE"(ptr noalias noundef align 8 dereferenceable(24) %_1) unnamed_addr #0 {
start:
; call core::ptr::drop_in_place<alloc::vec::Vec<u8>>
  call void @"_ZN4core3ptr46drop_in_place$LT$alloc..vec..Vec$LT$u8$GT$$GT$17hc5392a662e37bc30E"(ptr noalias noundef align 8 dereferenceable(24) %_1)
  ret void
}

; core::ptr::drop_in_place<alloc::raw_vec::RawVec<u8>>
; Function Attrs: nonlazybind uwtable
define internal void @"_ZN4core3ptr53drop_in_place$LT$alloc..raw_vec..RawVec$LT$u8$GT$$GT$17h88a44587a5523204E"(ptr noalias noundef align 8 dereferenceable(16) %_1) unnamed_addr #0 {
start:
; call <alloc::raw_vec::RawVec<T,A> as core::ops::drop::Drop>::drop
  call void @"_ZN77_$LT$alloc..raw_vec..RawVec$LT$T$C$A$GT$$u20$as$u20$core..ops..drop..Drop$GT$4drop17hfc4a7c83c155a497E"(ptr noalias noundef align 8 dereferenceable(16) %_1)
  ret void
}

; core::ptr::drop_in_place<find_msvc_tools::find_tools::Env>
; Function Attrs: nonlazybind uwtable
define internal void @"_ZN4core3ptr53drop_in_place$LT$find_msvc_tools..find_tools..Env$GT$17hcfcab3b21dba781bE"(ptr noalias noundef align 8 dereferenceable(24) %_1) unnamed_addr #0 {
start:
  %0 = load i64, ptr %_1, align 8, !range !3, !noundef !4
  %1 = icmp eq i64 %0, -9223372036854775808
  %_2 = select i1 %1, i64 1, i64 0
  %2 = icmp eq i64 %_2, 0
  br i1 %2, label %bb2, label %bb3

bb2:                                              ; preds = %start
; call core::ptr::drop_in_place<std::ffi::os_str::OsString>
  call void @"_ZN4core3ptr47drop_in_place$LT$std..ffi..os_str..OsString$GT$17hf6d3044f5a345abfE"(ptr noalias noundef align 8 dereferenceable(24) %_1)
  br label %bb1

bb3:                                              ; preds = %start
  %3 = getelementptr inbounds i8, ptr %_1, i64 8
; call core::ptr::drop_in_place<alloc::sync::Arc<std::ffi::os_str::OsStr>>
  call void @"_ZN4core3ptr68drop_in_place$LT$alloc..sync..Arc$LT$std..ffi..os_str..OsStr$GT$$GT$17h4ee3a8e115d73d7aE"(ptr noalias noundef align 8 dereferenceable(16) %3)
  br label %bb1

bb1:                                              ; preds = %bb3, %bb2
  ret void
}

; core::ptr::drop_in_place<std::sys::process::env::CommandEnv>
; Function Attrs: nonlazybind uwtable
define internal void @"_ZN4core3ptr55drop_in_place$LT$std..sys..process..env..CommandEnv$GT$17hb066dc10a7c636a7E"(ptr noalias noundef align 8 dereferenceable(32) %_1) unnamed_addr #0 {
start:
; call core::ptr::drop_in_place<alloc::collections::btree::map::BTreeMap<std::ffi::os_str::OsString,core::option::Option<std::ffi::os_str::OsString>>>
  call void @"_ZN4core3ptr152drop_in_place$LT$alloc..collections..btree..map..BTreeMap$LT$std..ffi..os_str..OsString$C$core..option..Option$LT$std..ffi..os_str..OsString$GT$$GT$$GT$17h34502892cd90c9e8E"(ptr noalias noundef align 8 dereferenceable(24) %_1)
  ret void
}

; core::ptr::drop_in_place<std::io::error::repr_bitpacked::Repr>
; Function Attrs: nonlazybind uwtable
define internal void @"_ZN4core3ptr57drop_in_place$LT$std..io..error..repr_bitpacked..Repr$GT$17he744bd826b8482abE"(ptr noalias noundef align 8 dereferenceable(8) %_1) unnamed_addr #0 {
start:
; call <std::io::error::repr_bitpacked::Repr as core::ops::drop::Drop>::drop
  call void @"_ZN78_$LT$std..io..error..repr_bitpacked..Repr$u20$as$u20$core..ops..drop..Drop$GT$4drop17hb9baf8c4a17472fcE"(ptr noalias noundef align 8 dereferenceable(8) %_1)
  ret void
}

; core::ptr::drop_in_place<alloc::boxed::Box<[u8]>>
; Function Attrs: nonlazybind uwtable
define internal void @"_ZN4core3ptr58drop_in_place$LT$alloc..boxed..Box$LT$$u5b$u8$u5d$$GT$$GT$17h621813f0ae8a40d5E"(ptr noalias noundef align 8 dereferenceable(16) %_1) unnamed_addr #0 personality ptr @rust_eh_personality {
start:
  %0 = alloca [16 x i8], align 8
  %_6.0 = load ptr, ptr %_1, align 8, !nonnull !4, !noundef !4
  %1 = getelementptr inbounds i8, ptr %_1, i64 8
  %_6.1 = load i64, ptr %1, align 8, !noundef !4
  %2 = icmp ne ptr %_6.0, null
  call void @llvm.assume(i1 %2)
  br label %bb3

bb3:                                              ; preds = %start
; call <alloc::boxed::Box<T,A> as core::ops::drop::Drop>::drop
  call void @"_ZN72_$LT$alloc..boxed..Box$LT$T$C$A$GT$$u20$as$u20$core..ops..drop..Drop$GT$4drop17hffbfd967013c1c39E"(ptr noalias noundef align 8 dereferenceable(16) %_1)
  ret void

bb4:                                              ; No predecessors!
; invoke <alloc::boxed::Box<T,A> as core::ops::drop::Drop>::drop
  invoke void @"_ZN72_$LT$alloc..boxed..Box$LT$T$C$A$GT$$u20$as$u20$core..ops..drop..Drop$GT$4drop17hffbfd967013c1c39E"(ptr noalias noundef align 8 dereferenceable(16) %_1) #26
          to label %bb1 unwind label %terminate

terminate:                                        ; preds = %bb4
  %3 = landingpad { ptr, i32 }
          filter [0 x ptr] zeroinitializer
; call core::panicking::panic_in_cleanup
  call void @_ZN4core9panicking16panic_in_cleanup17h5eff40bcc4481d72E() #27
  unreachable

bb1:                                              ; preds = %bb4
  %4 = load ptr, ptr %0, align 8, !noundef !4
  %5 = getelementptr inbounds i8, ptr %0, i64 8
  %6 = load i32, ptr %5, align 8, !noundef !4
  call void @llvm.lifetime.end.p0(i64 16, ptr %0)
  %7 = insertvalue { ptr, i32 } poison, ptr %4, 0
  %8 = insertvalue { ptr, i32 } %7, i32 %6, 1
  resume { ptr, i32 } %8
}

; core::ptr::drop_in_place<alloc::boxed::Box<[u32]>>
; Function Attrs: nonlazybind uwtable
define internal void @"_ZN4core3ptr59drop_in_place$LT$alloc..boxed..Box$LT$$u5b$u32$u5d$$GT$$GT$17h299aaea818c13d61E"(ptr noalias noundef align 8 dereferenceable(16) %_1) unnamed_addr #0 personality ptr @rust_eh_personality {
start:
  %0 = alloca [16 x i8], align 8
  %_6.0 = load ptr, ptr %_1, align 8, !nonnull !4, !noundef !4
  %1 = getelementptr inbounds i8, ptr %_1, i64 8
  %_6.1 = load i64, ptr %1, align 8, !noundef !4
  %2 = icmp ne ptr %_6.0, null
  call void @llvm.assume(i1 %2)
  br label %bb3

bb3:                                              ; preds = %start
; call <alloc::boxed::Box<T,A> as core::ops::drop::Drop>::drop
  call void @"_ZN72_$LT$alloc..boxed..Box$LT$T$C$A$GT$$u20$as$u20$core..ops..drop..Drop$GT$4drop17h337d9fbdfb5c5c4fE"(ptr noalias noundef align 8 dereferenceable(16) %_1)
  ret void

bb4:                                              ; No predecessors!
; invoke <alloc::boxed::Box<T,A> as core::ops::drop::Drop>::drop
  invoke void @"_ZN72_$LT$alloc..boxed..Box$LT$T$C$A$GT$$u20$as$u20$core..ops..drop..Drop$GT$4drop17h337d9fbdfb5c5c4fE"(ptr noalias noundef align 8 dereferenceable(16) %_1) #26
          to label %bb1 unwind label %terminate

terminate:                                        ; preds = %bb4
  %3 = landingpad { ptr, i32 }
          filter [0 x ptr] zeroinitializer
; call core::panicking::panic_in_cleanup
  call void @_ZN4core9panicking16panic_in_cleanup17h5eff40bcc4481d72E() #27
  unreachable

bb1:                                              ; preds = %bb4
  %4 = load ptr, ptr %0, align 8, !noundef !4
  %5 = getelementptr inbounds i8, ptr %0, i64 8
  %6 = load i32, ptr %5, align 8, !noundef !4
  call void @llvm.lifetime.end.p0(i64 16, ptr %0)
  %7 = insertvalue { ptr, i32 } poison, ptr %4, 0
  %8 = insertvalue { ptr, i32 } %7, i32 %6, 1
  resume { ptr, i32 } %8
}

; core::ptr::drop_in_place<std::sys::process::unix::common::Stdio>
; Function Attrs: nonlazybind uwtable
define internal void @"_ZN4core3ptr59drop_in_place$LT$std..sys..process..unix..common..Stdio$GT$17h99078d3853b19d65E"(ptr noalias noundef align 4 dereferenceable(8) %_1) unnamed_addr #0 {
start:
  %0 = load i32, ptr %_1, align 4, !range !17, !noundef !4
  %1 = getelementptr inbounds i8, ptr %_1, i64 4
  %2 = load i32, ptr %1, align 4
  %_2 = zext i32 %0 to i64
  %3 = icmp eq i64 %_2, 3
  br i1 %3, label %bb2, label %bb1

bb2:                                              ; preds = %start
  %4 = getelementptr inbounds i8, ptr %_1, i64 4
; call core::ptr::drop_in_place<std::sys::fd::unix::FileDesc>
  call void @"_ZN4core3ptr49drop_in_place$LT$std..sys..fd..unix..FileDesc$GT$17h9760dd2525dfc4c9E"(ptr noalias noundef align 4 dereferenceable(4) %4)
  br label %bb1

bb1:                                              ; preds = %bb2, %start
  ret void
}

; core::ptr::drop_in_place<alloc::vec::Vec<*const i8>>
; Function Attrs: nonlazybind uwtable
define internal void @"_ZN4core3ptr60drop_in_place$LT$alloc..vec..Vec$LT$$BP$const$u20$i8$GT$$GT$17h999bb1413536829fE"(ptr noalias noundef align 8 dereferenceable(24) %_1) unnamed_addr #0 personality ptr @rust_eh_personality {
start:
  %0 = alloca [16 x i8], align 8
; invoke <alloc::vec::Vec<T,A> as core::ops::drop::Drop>::drop
  invoke void @"_ZN70_$LT$alloc..vec..Vec$LT$T$C$A$GT$$u20$as$u20$core..ops..drop..Drop$GT$4drop17h1814413587695920E"(ptr noalias noundef align 8 dereferenceable(24) %_1)
          to label %bb4 unwind label %cleanup

bb3:                                              ; preds = %cleanup
; invoke core::ptr::drop_in_place<alloc::raw_vec::RawVec<*const i8>>
  invoke void @"_ZN4core3ptr67drop_in_place$LT$alloc..raw_vec..RawVec$LT$$BP$const$u20$i8$GT$$GT$17h0439095ade44e57cE"(ptr noalias noundef align 8 dereferenceable(16) %_1) #26
          to label %bb1 unwind label %terminate

cleanup:                                          ; preds = %start
  %1 = landingpad { ptr, i32 }
          cleanup
  %2 = extractvalue { ptr, i32 } %1, 0
  %3 = extractvalue { ptr, i32 } %1, 1
  call void @llvm.lifetime.start.p0(i64 16, ptr %0)
  store ptr %2, ptr %0, align 8
  %4 = getelementptr inbounds i8, ptr %0, i64 8
  store i32 %3, ptr %4, align 8
  br label %bb3

bb4:                                              ; preds = %start
; call core::ptr::drop_in_place<alloc::raw_vec::RawVec<*const i8>>
  call void @"_ZN4core3ptr67drop_in_place$LT$alloc..raw_vec..RawVec$LT$$BP$const$u20$i8$GT$$GT$17h0439095ade44e57cE"(ptr noalias noundef align 8 dereferenceable(16) %_1)
  ret void

terminate:                                        ; preds = %bb3
  %5 = landingpad { ptr, i32 }
          filter [0 x ptr] zeroinitializer
; call core::panicking::panic_in_cleanup
  call void @_ZN4core9panicking16panic_in_cleanup17h5eff40bcc4481d72E() #27
  unreachable

bb1:                                              ; preds = %bb3
  %6 = load ptr, ptr %0, align 8, !noundef !4
  %7 = getelementptr inbounds i8, ptr %0, i64 8
  %8 = load i32, ptr %7, align 8, !noundef !4
  call void @llvm.lifetime.end.p0(i64 16, ptr %0)
  %9 = insertvalue { ptr, i32 } poison, ptr %6, 0
  %10 = insertvalue { ptr, i32 } %9, i32 %8, 1
  resume { ptr, i32 } %10
}

; core::ptr::drop_in_place<std::sys::process::unix::common::Command>
; Function Attrs: nonlazybind uwtable
define internal void @"_ZN4core3ptr61drop_in_place$LT$std..sys..process..unix..common..Command$GT$17hae0293caeec6ddcbE"(ptr noalias noundef align 8 dereferenceable(200) %_1) unnamed_addr #0 personality ptr @rust_eh_personality {
start:
  %0 = alloca [16 x i8], align 8
  %1 = getelementptr inbounds i8, ptr %_1, i64 128
; invoke core::ptr::drop_in_place<alloc::ffi::c_str::CString>
  invoke void @"_ZN4core3ptr47drop_in_place$LT$alloc..ffi..c_str..CString$GT$17h18e1cb379d62ca0cE"(ptr noalias noundef align 8 dereferenceable(16) %1)
          to label %bb20 unwind label %cleanup

bb11:                                             ; preds = %cleanup
; invoke core::ptr::drop_in_place<std::sys::process::unix::common::cstring_array::CStringArray>
  invoke void @"_ZN4core3ptr81drop_in_place$LT$std..sys..process..unix..common..cstring_array..CStringArray$GT$17h24e0c9764960ef9dE"(ptr noalias noundef align 8 dereferenceable(24) %_1) #26
          to label %bb10 unwind label %terminate

cleanup:                                          ; preds = %start
  %2 = landingpad { ptr, i32 }
          cleanup
  %3 = extractvalue { ptr, i32 } %2, 0
  %4 = extractvalue { ptr, i32 } %2, 1
  call void @llvm.lifetime.start.p0(i64 16, ptr %0)
  store ptr %3, ptr %0, align 8
  %5 = getelementptr inbounds i8, ptr %0, i64 8
  store i32 %4, ptr %5, align 8
  br label %bb11

bb20:                                             ; preds = %start
; invoke core::ptr::drop_in_place<std::sys::process::unix::common::cstring_array::CStringArray>
  invoke void @"_ZN4core3ptr81drop_in_place$LT$std..sys..process..unix..common..cstring_array..CStringArray$GT$17h24e0c9764960ef9dE"(ptr noalias noundef align 8 dereferenceable(24) %_1)
          to label %bb19 unwind label %cleanup1

bb10:                                             ; preds = %bb11, %cleanup1
  %6 = getelementptr inbounds i8, ptr %_1, i64 96
; invoke core::ptr::drop_in_place<std::sys::process::env::CommandEnv>
  invoke void @"_ZN4core3ptr55drop_in_place$LT$std..sys..process..env..CommandEnv$GT$17hb066dc10a7c636a7E"(ptr noalias noundef align 8 dereferenceable(32) %6) #26
          to label %bb9 unwind label %terminate

cleanup1:                                         ; preds = %bb20
  %7 = landingpad { ptr, i32 }
          cleanup
  %8 = extractvalue { ptr, i32 } %7, 0
  %9 = extractvalue { ptr, i32 } %7, 1
  call void @llvm.lifetime.start.p0(i64 16, ptr %0)
  store ptr %8, ptr %0, align 8
  %10 = getelementptr inbounds i8, ptr %0, i64 8
  store i32 %9, ptr %10, align 8
  br label %bb10

bb19:                                             ; preds = %bb20
  %11 = getelementptr inbounds i8, ptr %_1, i64 96
; invoke core::ptr::drop_in_place<std::sys::process::env::CommandEnv>
  invoke void @"_ZN4core3ptr55drop_in_place$LT$std..sys..process..env..CommandEnv$GT$17hb066dc10a7c636a7E"(ptr noalias noundef align 8 dereferenceable(32) %11)
          to label %bb18 unwind label %cleanup2

bb9:                                              ; preds = %bb10, %cleanup2
  %12 = getelementptr inbounds i8, ptr %_1, i64 144
; invoke core::ptr::drop_in_place<core::option::Option<alloc::ffi::c_str::CString>>
  invoke void @"_ZN4core3ptr75drop_in_place$LT$core..option..Option$LT$alloc..ffi..c_str..CString$GT$$GT$17h7954000d3a720a2eE"(ptr noalias noundef align 8 dereferenceable(16) %12) #26
          to label %bb8 unwind label %terminate

cleanup2:                                         ; preds = %bb19
  %13 = landingpad { ptr, i32 }
          cleanup
  %14 = extractvalue { ptr, i32 } %13, 0
  %15 = extractvalue { ptr, i32 } %13, 1
  call void @llvm.lifetime.start.p0(i64 16, ptr %0)
  store ptr %14, ptr %0, align 8
  %16 = getelementptr inbounds i8, ptr %0, i64 8
  store i32 %15, ptr %16, align 8
  br label %bb9

bb18:                                             ; preds = %bb19
  %17 = getelementptr inbounds i8, ptr %_1, i64 144
; invoke core::ptr::drop_in_place<core::option::Option<alloc::ffi::c_str::CString>>
  invoke void @"_ZN4core3ptr75drop_in_place$LT$core..option..Option$LT$alloc..ffi..c_str..CString$GT$$GT$17h7954000d3a720a2eE"(ptr noalias noundef align 8 dereferenceable(16) %17)
          to label %bb17 unwind label %cleanup3

bb8:                                              ; preds = %bb9, %cleanup3
  %18 = getelementptr inbounds i8, ptr %_1, i64 160
; invoke core::ptr::drop_in_place<core::option::Option<alloc::ffi::c_str::CString>>
  invoke void @"_ZN4core3ptr75drop_in_place$LT$core..option..Option$LT$alloc..ffi..c_str..CString$GT$$GT$17h7954000d3a720a2eE"(ptr noalias noundef align 8 dereferenceable(16) %18) #26
          to label %bb7 unwind label %terminate

cleanup3:                                         ; preds = %bb18
  %19 = landingpad { ptr, i32 }
          cleanup
  %20 = extractvalue { ptr, i32 } %19, 0
  %21 = extractvalue { ptr, i32 } %19, 1
  call void @llvm.lifetime.start.p0(i64 16, ptr %0)
  store ptr %20, ptr %0, align 8
  %22 = getelementptr inbounds i8, ptr %0, i64 8
  store i32 %21, ptr %22, align 8
  br label %bb8

bb17:                                             ; preds = %bb18
  %23 = getelementptr inbounds i8, ptr %_1, i64 160
; invoke core::ptr::drop_in_place<core::option::Option<alloc::ffi::c_str::CString>>
  invoke void @"_ZN4core3ptr75drop_in_place$LT$core..option..Option$LT$alloc..ffi..c_str..CString$GT$$GT$17h7954000d3a720a2eE"(ptr noalias noundef align 8 dereferenceable(16) %23)
          to label %bb16 unwind label %cleanup4

bb7:                                              ; preds = %bb8, %cleanup4
  %24 = getelementptr inbounds i8, ptr %_1, i64 24
; invoke core::ptr::drop_in_place<alloc::vec::Vec<alloc::boxed::Box<dyn core::ops::function::FnMut<()>+Output = core::result::Result<(),std::io::error::Error>+core::marker::Sync+core::marker::Send>>>
  invoke void @"_ZN4core3ptr251drop_in_place$LT$alloc..vec..Vec$LT$alloc..boxed..Box$LT$dyn$u20$core..ops..function..FnMut$LT$$LP$$RP$$GT$$u2b$Output$u20$$u3d$$u20$core..result..Result$LT$$LP$$RP$$C$std..io..error..Error$GT$$u2b$core..marker..Sync$u2b$core..marker..Send$GT$$GT$$GT$17h1cd078a7c41ad51aE"(ptr noalias noundef align 8 dereferenceable(24) %24) #26
          to label %bb6 unwind label %terminate

cleanup4:                                         ; preds = %bb17
  %25 = landingpad { ptr, i32 }
          cleanup
  %26 = extractvalue { ptr, i32 } %25, 0
  %27 = extractvalue { ptr, i32 } %25, 1
  call void @llvm.lifetime.start.p0(i64 16, ptr %0)
  store ptr %26, ptr %0, align 8
  %28 = getelementptr inbounds i8, ptr %0, i64 8
  store i32 %27, ptr %28, align 8
  br label %bb7

bb16:                                             ; preds = %bb17
  %29 = getelementptr inbounds i8, ptr %_1, i64 24
; invoke core::ptr::drop_in_place<alloc::vec::Vec<alloc::boxed::Box<dyn core::ops::function::FnMut<()>+Output = core::result::Result<(),std::io::error::Error>+core::marker::Sync+core::marker::Send>>>
  invoke void @"_ZN4core3ptr251drop_in_place$LT$alloc..vec..Vec$LT$alloc..boxed..Box$LT$dyn$u20$core..ops..function..FnMut$LT$$LP$$RP$$GT$$u2b$Output$u20$$u3d$$u20$core..result..Result$LT$$LP$$RP$$C$std..io..error..Error$GT$$u2b$core..marker..Sync$u2b$core..marker..Send$GT$$GT$$GT$17h1cd078a7c41ad51aE"(ptr noalias noundef align 8 dereferenceable(24) %29)
          to label %bb15 unwind label %cleanup5

bb6:                                              ; preds = %bb7, %cleanup5
  %30 = getelementptr inbounds i8, ptr %_1, i64 176
; invoke core::ptr::drop_in_place<core::option::Option<alloc::boxed::Box<[u32]>>>
  invoke void @"_ZN4core3ptr87drop_in_place$LT$core..option..Option$LT$alloc..boxed..Box$LT$$u5b$u32$u5d$$GT$$GT$$GT$17h12b0ec8e35d0c8b0E"(ptr noalias noundef align 8 dereferenceable(16) %30) #26
          to label %bb5 unwind label %terminate

cleanup5:                                         ; preds = %bb16
  %31 = landingpad { ptr, i32 }
          cleanup
  %32 = extractvalue { ptr, i32 } %31, 0
  %33 = extractvalue { ptr, i32 } %31, 1
  call void @llvm.lifetime.start.p0(i64 16, ptr %0)
  store ptr %32, ptr %0, align 8
  %34 = getelementptr inbounds i8, ptr %0, i64 8
  store i32 %33, ptr %34, align 8
  br label %bb6

bb15:                                             ; preds = %bb16
  %35 = getelementptr inbounds i8, ptr %_1, i64 176
; invoke core::ptr::drop_in_place<core::option::Option<alloc::boxed::Box<[u32]>>>
  invoke void @"_ZN4core3ptr87drop_in_place$LT$core..option..Option$LT$alloc..boxed..Box$LT$$u5b$u32$u5d$$GT$$GT$$GT$17h12b0ec8e35d0c8b0E"(ptr noalias noundef align 8 dereferenceable(16) %35)
          to label %bb14 unwind label %cleanup6

bb5:                                              ; preds = %bb6, %cleanup6
  %36 = getelementptr inbounds i8, ptr %_1, i64 72
; invoke core::ptr::drop_in_place<core::option::Option<std::sys::process::unix::common::Stdio>>
  invoke void @"_ZN4core3ptr87drop_in_place$LT$core..option..Option$LT$std..sys..process..unix..common..Stdio$GT$$GT$17h75fdd5cf7cea3d6bE"(ptr noalias noundef align 4 dereferenceable(8) %36) #26
          to label %bb4 unwind label %terminate

cleanup6:                                         ; preds = %bb15
  %37 = landingpad { ptr, i32 }
          cleanup
  %38 = extractvalue { ptr, i32 } %37, 0
  %39 = extractvalue { ptr, i32 } %37, 1
  call void @llvm.lifetime.start.p0(i64 16, ptr %0)
  store ptr %38, ptr %0, align 8
  %40 = getelementptr inbounds i8, ptr %0, i64 8
  store i32 %39, ptr %40, align 8
  br label %bb5

bb14:                                             ; preds = %bb15
  %41 = getelementptr inbounds i8, ptr %_1, i64 72
; invoke core::ptr::drop_in_place<core::option::Option<std::sys::process::unix::common::Stdio>>
  invoke void @"_ZN4core3ptr87drop_in_place$LT$core..option..Option$LT$std..sys..process..unix..common..Stdio$GT$$GT$17h75fdd5cf7cea3d6bE"(ptr noalias noundef align 4 dereferenceable(8) %41)
          to label %bb13 unwind label %cleanup7

bb4:                                              ; preds = %bb5, %cleanup7
  %42 = getelementptr inbounds i8, ptr %_1, i64 80
; invoke core::ptr::drop_in_place<core::option::Option<std::sys::process::unix::common::Stdio>>
  invoke void @"_ZN4core3ptr87drop_in_place$LT$core..option..Option$LT$std..sys..process..unix..common..Stdio$GT$$GT$17h75fdd5cf7cea3d6bE"(ptr noalias noundef align 4 dereferenceable(8) %42) #26
          to label %bb3 unwind label %terminate

cleanup7:                                         ; preds = %bb14
  %43 = landingpad { ptr, i32 }
          cleanup
  %44 = extractvalue { ptr, i32 } %43, 0
  %45 = extractvalue { ptr, i32 } %43, 1
  call void @llvm.lifetime.start.p0(i64 16, ptr %0)
  store ptr %44, ptr %0, align 8
  %46 = getelementptr inbounds i8, ptr %0, i64 8
  store i32 %45, ptr %46, align 8
  br label %bb4

bb13:                                             ; preds = %bb14
  %47 = getelementptr inbounds i8, ptr %_1, i64 80
; invoke core::ptr::drop_in_place<core::option::Option<std::sys::process::unix::common::Stdio>>
  invoke void @"_ZN4core3ptr87drop_in_place$LT$core..option..Option$LT$std..sys..process..unix..common..Stdio$GT$$GT$17h75fdd5cf7cea3d6bE"(ptr noalias noundef align 4 dereferenceable(8) %47)
          to label %bb12 unwind label %cleanup8

bb3:                                              ; preds = %bb4, %cleanup8
  %48 = getelementptr inbounds i8, ptr %_1, i64 88
; invoke core::ptr::drop_in_place<core::option::Option<std::sys::process::unix::common::Stdio>>
  invoke void @"_ZN4core3ptr87drop_in_place$LT$core..option..Option$LT$std..sys..process..unix..common..Stdio$GT$$GT$17h75fdd5cf7cea3d6bE"(ptr noalias noundef align 4 dereferenceable(8) %48) #26
          to label %bb1 unwind label %terminate

cleanup8:                                         ; preds = %bb13
  %49 = landingpad { ptr, i32 }
          cleanup
  %50 = extractvalue { ptr, i32 } %49, 0
  %51 = extractvalue { ptr, i32 } %49, 1
  call void @llvm.lifetime.start.p0(i64 16, ptr %0)
  store ptr %50, ptr %0, align 8
  %52 = getelementptr inbounds i8, ptr %0, i64 8
  store i32 %51, ptr %52, align 8
  br label %bb3

bb12:                                             ; preds = %bb13
  %53 = getelementptr inbounds i8, ptr %_1, i64 88
; call core::ptr::drop_in_place<core::option::Option<std::sys::process::unix::common::Stdio>>
  call void @"_ZN4core3ptr87drop_in_place$LT$core..option..Option$LT$std..sys..process..unix..common..Stdio$GT$$GT$17h75fdd5cf7cea3d6bE"(ptr noalias noundef align 4 dereferenceable(8) %53)
  ret void

terminate:                                        ; preds = %bb3, %bb4, %bb5, %bb6, %bb7, %bb8, %bb9, %bb10, %bb11
  %54 = landingpad { ptr, i32 }
          filter [0 x ptr] zeroinitializer
; call core::panicking::panic_in_cleanup
  call void @_ZN4core9panicking16panic_in_cleanup17h5eff40bcc4481d72E() #27
  unreachable

bb1:                                              ; preds = %bb3
  %55 = load ptr, ptr %0, align 8, !noundef !4
  %56 = getelementptr inbounds i8, ptr %0, i64 8
  %57 = load i32, ptr %56, align 8, !noundef !4
  call void @llvm.lifetime.end.p0(i64 16, ptr %0)
  %58 = insertvalue { ptr, i32 } poison, ptr %55, 0
  %59 = insertvalue { ptr, i32 } %58, i32 %57, 1
  resume { ptr, i32 } %59
}

; core::ptr::drop_in_place<alloc::raw_vec::RawVec<*const i8>>
; Function Attrs: nonlazybind uwtable
define internal void @"_ZN4core3ptr67drop_in_place$LT$alloc..raw_vec..RawVec$LT$$BP$const$u20$i8$GT$$GT$17h0439095ade44e57cE"(ptr noalias noundef align 8 dereferenceable(16) %_1) unnamed_addr #0 {
start:
; call <alloc::raw_vec::RawVec<T,A> as core::ops::drop::Drop>::drop
  call void @"_ZN77_$LT$alloc..raw_vec..RawVec$LT$T$C$A$GT$$u20$as$u20$core..ops..drop..Drop$GT$4drop17ha795a0cb4e4ad18eE"(ptr noalias noundef align 8 dereferenceable(16) %_1)
  ret void
}

; core::ptr::drop_in_place<alloc::boxed::Box<std::io::error::Custom>>
; Function Attrs: nonlazybind uwtable
define internal void @"_ZN4core3ptr68drop_in_place$LT$alloc..boxed..Box$LT$std..io..error..Custom$GT$$GT$17h5adb8c686ef3ed57E"(ptr noalias noundef align 8 dereferenceable(8) %_1) unnamed_addr #0 personality ptr @rust_eh_personality {
start:
  %0 = alloca [16 x i8], align 8
  %_6 = load ptr, ptr %_1, align 8, !nonnull !4, !noundef !4
  %1 = icmp ne ptr %_6, null
  call void @llvm.assume(i1 %1)
; invoke core::ptr::drop_in_place<std::io::error::Custom>
  invoke void @"_ZN4core3ptr43drop_in_place$LT$std..io..error..Custom$GT$17h41c0af2c3d072c40E"(ptr noalias noundef align 8 dereferenceable(24) %_6)
          to label %bb3 unwind label %cleanup

bb4:                                              ; preds = %cleanup
; invoke <alloc::boxed::Box<T,A> as core::ops::drop::Drop>::drop
  invoke void @"_ZN72_$LT$alloc..boxed..Box$LT$T$C$A$GT$$u20$as$u20$core..ops..drop..Drop$GT$4drop17h41e2b304d9041092E"(ptr noalias noundef align 8 dereferenceable(8) %_1) #26
          to label %bb1 unwind label %terminate

cleanup:                                          ; preds = %start
  %2 = landingpad { ptr, i32 }
          cleanup
  %3 = extractvalue { ptr, i32 } %2, 0
  %4 = extractvalue { ptr, i32 } %2, 1
  call void @llvm.lifetime.start.p0(i64 16, ptr %0)
  store ptr %3, ptr %0, align 8
  %5 = getelementptr inbounds i8, ptr %0, i64 8
  store i32 %4, ptr %5, align 8
  br label %bb4

bb3:                                              ; preds = %start
; call <alloc::boxed::Box<T,A> as core::ops::drop::Drop>::drop
  call void @"_ZN72_$LT$alloc..boxed..Box$LT$T$C$A$GT$$u20$as$u20$core..ops..drop..Drop$GT$4drop17h41e2b304d9041092E"(ptr noalias noundef align 8 dereferenceable(8) %_1)
  ret void

terminate:                                        ; preds = %bb4
  %6 = landingpad { ptr, i32 }
          filter [0 x ptr] zeroinitializer
; call core::panicking::panic_in_cleanup
  call void @_ZN4core9panicking16panic_in_cleanup17h5eff40bcc4481d72E() #27
  unreachable

bb1:                                              ; preds = %bb4
  %7 = load ptr, ptr %0, align 8, !noundef !4
  %8 = getelementptr inbounds i8, ptr %0, i64 8
  %9 = load i32, ptr %8, align 8, !noundef !4
  call void @llvm.lifetime.end.p0(i64 16, ptr %0)
  %10 = insertvalue { ptr, i32 } poison, ptr %7, 0
  %11 = insertvalue { ptr, i32 } %10, i32 %9, 1
  resume { ptr, i32 } %11
}

; core::ptr::drop_in_place<alloc::sync::Arc<std::ffi::os_str::OsStr>>
; Function Attrs: nonlazybind uwtable
define internal void @"_ZN4core3ptr68drop_in_place$LT$alloc..sync..Arc$LT$std..ffi..os_str..OsStr$GT$$GT$17h4ee3a8e115d73d7aE"(ptr noalias noundef align 8 dereferenceable(16) %_1) unnamed_addr #0 {
start:
; call <alloc::sync::Arc<T,A> as core::ops::drop::Drop>::drop
  call void @"_ZN71_$LT$alloc..sync..Arc$LT$T$C$A$GT$$u20$as$u20$core..ops..drop..Drop$GT$4drop17hb3e30609cd9859c8E"(ptr noalias noundef align 8 dereferenceable(16) %_1)
  ret void
}

; core::ptr::drop_in_place<alloc::collections::btree::mem::replace::PanicGuard>
; Function Attrs: nonlazybind uwtable
define internal void @"_ZN4core3ptr72drop_in_place$LT$alloc..collections..btree..mem..replace..PanicGuard$GT$17hffc02c38d280e864E"(ptr noalias noundef nonnull align 1 %_1) unnamed_addr #0 {
start:
; call <alloc::collections::btree::mem::replace::PanicGuard as core::ops::drop::Drop>::drop
  call void @"_ZN93_$LT$alloc..collections..btree..mem..replace..PanicGuard$u20$as$u20$core..ops..drop..Drop$GT$4drop17h1abc43e6fce09246E"(ptr noalias noundef nonnull align 1 %_1)
  ret void
}

; core::ptr::drop_in_place<core::option::Option<alloc::ffi::c_str::CString>>
; Function Attrs: nonlazybind uwtable
define internal void @"_ZN4core3ptr75drop_in_place$LT$core..option..Option$LT$alloc..ffi..c_str..CString$GT$$GT$17h7954000d3a720a2eE"(ptr noalias noundef align 8 dereferenceable(16) %_1) unnamed_addr #0 {
start:
  %0 = load ptr, ptr %_1, align 8, !align !6, !noundef !4
  %1 = getelementptr inbounds i8, ptr %_1, i64 8
  %2 = load i64, ptr %1, align 8
  %3 = ptrtoint ptr %0 to i64
  %4 = icmp eq i64 %3, 0
  %_2 = select i1 %4, i64 0, i64 1
  %5 = icmp eq i64 %_2, 0
  br i1 %5, label %bb1, label %bb2

bb1:                                              ; preds = %bb2, %start
  ret void

bb2:                                              ; preds = %start
