; ModuleID = 'find_msvc_tools.3acd0cce724740af-cgu.0'
source_filename = "find_msvc_tools.3acd0cce724740af-cgu.0"
target datalayout = "e-m:e-p270:32:32-p271:32:32-p272:64:64-i64:64-i128:128-f80:128-n8:16:32:64-S128"
target triple = "x86_64-unknown-linux-gnu"

%"std::ffi::os_str::OsString" = type { %"std::sys::os_str::bytes::Buf" }
%"std::sys::os_str::bytes::Buf" = type { %"alloc::vec::Vec<u8>" }
%"alloc::vec::Vec<u8>" = type { %"alloc::raw_vec::RawVec<u8>", i64 }
%"alloc::raw_vec::RawVec<u8>" = type { %"alloc::raw_vec::RawVecInner", %"core::marker::PhantomData<u8>" }
%"alloc::raw_vec::RawVecInner" = type { i64, ptr, %"alloc::alloc::Global" }
%"alloc::alloc::Global" = type {}
%"core::marker::PhantomData<u8>" = type {}
%"alloc::boxed::Box<dyn core::ops::function::FnMut() -> core::result::Result<(), std::io::error::Error> + core::marker::Send + core::marker::Sync>" = type { %"core::ptr::unique::Unique<dyn core::ops::function::FnMut() -> core::result::Result<(), std::io::error::Error> + core::marker::Send + core::marker::Sync>", %"alloc::alloc::Global" }
%"core::ptr::unique::Unique<dyn core::ops::function::FnMut() -> core::result::Result<(), std::io::error::Error> + core::marker::Send + core::marker::Sync>" = type { %"core::ptr::non_null::NonNull<dyn core::ops::function::FnMut() -> core::result::Result<(), std::io::error::Error> + core::marker::Send + core::marker::Sync>", %"core::marker::PhantomData<dyn core::ops::function::FnMut() -> core::result::Result<(), std::io::error::Error> + core::marker::Send + core::marker::Sync>" }
%"core::ptr::non_null::NonNull<dyn core::ops::function::FnMut() -> core::result::Result<(), std::io::error::Error> + core::marker::Send + core::marker::Sync>" = type { { ptr, ptr } }
%"core::marker::PhantomData<dyn core::ops::function::FnMut() -> core::result::Result<(), std::io::error::Error> + core::marker::Send + core::marker::Sync>" = type {}
%"core::mem::maybe_uninit::MaybeUninit<std::ffi::os_str::OsString>" = type { [3 x i64] }
%"core::mem::maybe_uninit::MaybeUninit<core::option::Option<std::ffi::os_str::OsString>>" = type { [3 x i64] }

@alloc_643f7782d991ad79bd79ba2d2c668a4c = private unnamed_addr constant [3 x i8] c"x64", align 1
@alloc_97ea9fc425ea3c7752d1c5ba5dd6dd88 = private unnamed_addr constant [6 x i8] c"x86_64", align 1
@alloc_902cf81a6d418c2063e2efdd4bdd7c78 = private unnamed_addr constant [5 x i8] c"arm64", align 1
@alloc_708437d7a9a3b1bed2b2fbb27ca99947 = private unnamed_addr constant [7 x i8] c"aarch64", align 1
@alloc_77091ef4013986fd40216f126dabc12f = private unnamed_addr constant [7 x i8] c"arm64ec", align 1
@alloc_de5ab4e2afa2804d1a733c1ad824af99 = private unnamed_addr constant [3 x i8] c"x86", align 1
@alloc_673aaa5b29fe2e169c9bc7d4a86cb0c3 = private unnamed_addr constant [4 x i8] c"i686", align 1
@alloc_e4250c89692f9a3aef523af36427f57d = private unnamed_addr constant [4 x i8] c"i586", align 1
@alloc_d9036dbef1cc78d0c3562113c2babf56 = private unnamed_addr constant [3 x i8] c"arm", align 1
@alloc_f33c6662c87959700862e0731dde2345 = private unnamed_addr constant [8 x i8] c"thumbv7a", align 1
@alloc_27ab3463f97ac7611ae7210d49ccd7c3 = private unnamed_addr constant [4 x i8] c"17.0", align 1
@alloc_352ccd7f6cbe7b0d708d9f781a94edee = private unnamed_addr constant [4 x i8] c"16.0", align 1
@alloc_b1b5f2a9301a343417d4aa2a7431dd7d = private unnamed_addr constant [4 x i8] c"15.0", align 1
@alloc_492b7b15921808c7cb3444ea46807112 = private unnamed_addr constant [4 x i8] c"14.0", align 1
@alloc_4c3d6d2ec03009af02deebbaf76c0028 = private unnamed_addr constant [47 x i8] c"\0A\0Aunsupported or unknown VisualStudio version: ", align 1
@alloc_8b5c4133abb6585d2de207c4e8b536f3 = private unnamed_addr constant [107 x i8] c"\0Aif another version is installed consider running the appropriate vcvars script before building this crate\0A", align 1
@alloc_0210f9a7de6109ab616e82ff8f9cb79b = private unnamed_addr constant <{ ptr, [8 x i8], ptr, [8 x i8] }> <{ ptr @alloc_4c3d6d2ec03009af02deebbaf76c0028, [8 x i8] c"/\00\00\00\00\00\00\00", ptr @alloc_8b5c4133abb6585d2de207c4e8b536f3, [8 x i8] c"k\00\00\00\00\00\00\00" }>, align 8
@alloc_7c9b26184241b4a5a6cf41b356f60cd3 = private unnamed_addr constant [158 x i8] c"\0A\0Acouldn't determine visual studio generator\0Aif VisualStudio is installed, however, consider running the appropriate vcvars script before building this crate\0A", align 1
@alloc_913d07a29c91f086277fcece161be651 = private unnamed_addr constant [19 x i8] c"VisualStudioVersion", align 1
@alloc_4156e959589ba4dd32a5f8e9e8794e02 = private unnamed_addr constant [7 x i8] c"msbuild", align 1
@alloc_30e48f5bc9536fc9c0ff564a2ed46279 = private unnamed_addr constant [6 x i8] c"devenv", align 1
@alloc_b02cb0441008eafb9892df4255d9f1a7 = private unnamed_addr constant [5 x i8] c"clang", align 1
@alloc_9a68dd18f0911526c199eebcfa8367d8 = private unnamed_addr constant [4 x i8] c"lldb", align 1
@alloc_527b1a6f3ab2db7d4c95d2e85f6dc8f4 = private unnamed_addr constant [4 x i8] c"llvm", align 1
@alloc_7852d5fba8844429e6d5c8b75ea78b9b = private unnamed_addr constant [2 x i8] c"ld", align 1
@alloc_cc5f7aea2b49bddfd6e88357165846f3 = private unnamed_addr constant [3 x i8] c"lld", align 1
@alloc_e9e59c41b8e8baa47c3e0178e02133e6 = private unnamed_addr constant [12 x i8] c"VCINSTALLDIR", align 1
@alloc_89bf16989cceee19c050ad04893a585c = private unnamed_addr constant [12 x i8] c"VSINSTALLDIR", align 1
@alloc_0961b107d08cfdc5d889c0427a765b76 = private unnamed_addr constant [4 x i8] c"PATH", align 1
@alloc_0b31f4562230d243936ff2637ae71e88 = private unnamed_addr constant [4 x i8] c"msvc", align 1
@alloc_3bb2650aa074fcfb8c10a9c40791bfbc = private unnamed_addr constant [1 x i8] c"-", align 1
@vtable.0 = private constant <{ [24 x i8], ptr }> <{ [24 x i8] c"\00\00\00\00\00\00\00\00\00\00\00\00\00\00\00\00\01\00\00\00\00\00\00\00", ptr @"_ZN100_$LT$find_msvc_tools..find_tools..StdEnvGetter$u20$as$u20$find_msvc_tools..find_tools..EnvGetter$GT$7get_env17habd7e04afaf1f111E" }>, align 8, !dbg !0
@alloc_223564df8319c322e734031185d15c7a = private unnamed_addr constant [80 x i8] c"/rustc/f8297e351a40c1439a467bbbb6879088047f50b3/library/core/src/str/pattern.rs\00", align 1
@alloc_a39005b5f5fa798990523826aa340649 = private unnamed_addr constant <{ ptr, [16 x i8] }> <{ ptr @alloc_223564df8319c322e734031185d15c7a, [16 x i8] c"O\00\00\00\00\00\00\00\12\07\00\00I\00\00\00" }>, align 8
@alloc_ec32a4c0fd30f0cfa6887e329cb26292 = private unnamed_addr constant <{ ptr, [16 x i8] }> <{ ptr @alloc_223564df8319c322e734031185d15c7a, [16 x i8] c"O\00\00\00\00\00\00\00\E5\05\00\00\14\00\00\00" }>, align 8
@alloc_f7eb2c29fa08e95610ecb46b45dfb07c = private unnamed_addr constant <{ ptr, [16 x i8] }> <{ ptr @alloc_223564df8319c322e734031185d15c7a, [16 x i8] c"O\00\00\00\00\00\00\00\E5\05\00\00!\00\00\00" }>, align 8
@alloc_bd4c51db961c0a508c83f91620497c36 = private unnamed_addr constant <{ ptr, [16 x i8] }> <{ ptr @alloc_223564df8319c322e734031185d15c7a, [16 x i8] c"O\00\00\00\00\00\00\00\D9\05\00\00!\00\00\00" }>, align 8
@alloc_114a47939710b1ff35e231e3818c466b = private unnamed_addr constant [96 x i8] c"/rustc/f8297e351a40c1439a467bbbb6879088047f50b3/library/alloc/src/collections/btree/navigate.rs\00", align 1
@alloc_941df310a847314966c90244023d54da = private unnamed_addr constant <{ ptr, [16 x i8] }> <{ ptr @alloc_114a47939710b1ff35e231e3818c466b, [16 x i8] c"_\00\00\00\00\00\00\00X\02\00\000\00\00\00" }>, align 8
@alloc_38ec782865df8d4640d3e87a347c1bf8 = private unnamed_addr constant <{ ptr, [16 x i8] }> <{ ptr @alloc_114a47939710b1ff35e231e3818c466b, [16 x i8] c"_\00\00\00\00\00\00\00\C6\00\00\00'\00\00\00" }>, align 8
@alloc_691e2b7f6ea7cfb1c0885c7202bfeb2f = private unnamed_addr constant <{ ptr, [16 x i8] }> <{ ptr @alloc_223564df8319c322e734031185d15c7a, [16 x i8] c"O\00\00\00\00\00\00\00i\04\00\00$\00\00\00" }>, align 8
@alloc_5264e1fa93f1966af635842635a97b9c = private unnamed_addr constant [75 x i8] c"/rustc/f8297e351a40c1439a467bbbb6879088047f50b3/library/alloc/src/slice.rs\00", align 1
@alloc_9077336e87f2fbeea4d9a498a8a37d0f = private unnamed_addr constant <{ ptr, [16 x i8] }> <{ ptr @alloc_5264e1fa93f1966af635842635a97b9c, [16 x i8] c"J\00\00\00\00\00\00\00\BD\01\00\00\1D\00\00\00" }>, align 8

; <find_msvc_tools::find_tools::StdEnvGetter as find_msvc_tools::find_tools::EnvGetter>::get_env
; Function Attrs: nonlazybind uwtable
define void @"_ZN100_$LT$find_msvc_tools..find_tools..StdEnvGetter$u20$as$u20$find_msvc_tools..find_tools..EnvGetter$GT$7get_env17habd7e04afaf1f111E"(ptr dead_on_unwind noalias noundef writable writeonly sret([24 x i8]) align 8 captures(none) dereferenceable(24) initializes((0, 8)) %_0, ptr noalias nonnull readonly align 1 captures(none) %self, ptr noalias noundef nonnull readonly align 1 captures(address, read_provenance) %name.0, i64 noundef %name.1) unnamed_addr #0 personality ptr @rust_eh_personality !dbg !194 {
start:
  %self1 = alloca [24 x i8], align 8
    #dbg_value(ptr poison, !321, !DIExpression(), !323)
    #dbg_value(ptr %name.0, !322, !DIExpression(DW_OP_LLVM_fragment, 0, 64), !323)
    #dbg_value(i64 %name.1, !322, !DIExpression(DW_OP_LLVM_fragment, 64, 64), !323)
    #dbg_declare(ptr %self1, !324, !DIExpression(), !353)
    #dbg_declare(ptr poison, !351, !DIExpression(), !355)
    #dbg_declare(ptr poison, !350, !DIExpression(), !356)
  call void @llvm.lifetime.start.p0(i64 24, ptr nonnull %self1), !dbg !357
    #dbg_value(ptr %name.0, !358, !DIExpression(DW_OP_LLVM_fragment, 0, 64), !367)
    #dbg_value(i64 %name.1, !358, !DIExpression(DW_OP_LLVM_fragment, 64, 64), !367)
; call std::env::_var_os
  call void @_ZN3std3env7_var_os17h78f57e2d5ca283e2E(ptr noalias noundef nonnull sret([24 x i8]) align 8 captures(address) dereferenceable(24) %self1, ptr noalias noundef nonnull readonly align 1 captures(address, read_provenance) %name.0, i64 noundef %name.1), !dbg !369
  %0 = load i64, ptr %self1, align 8, !dbg !370, !range !371, !noundef !15
  %.not = icmp eq i64 %0, -9223372036854775808, !dbg !370
  br i1 %.not, label %bb4, label %bb5, !dbg !372

bb5:                                              ; preds = %start
  call void @llvm.memcpy.p0.p0.i64(ptr noundef nonnull align 8 dereferenceable(24) %_0, ptr noundef nonnull align 8 dereferenceable(24) %self1, i64 24, i1 false), !dbg !373
  br label %bb2, !dbg !374

bb4:                                              ; preds = %start
  store i64 -9223372036854775807, ptr %_0, align 8, !dbg !375
  br label %bb2, !dbg !376

bb2:                                              ; preds = %bb5, %bb4
  call void @llvm.lifetime.end.p0(i64 24, ptr nonnull %self1), !dbg !377
  ret void, !dbg !378
}

; find_msvc_tools::find_tools::<impl core::convert::From<find_msvc_tools::find_tools::Env> for std::path::PathBuf>::from
; Function Attrs: nonlazybind uwtable
define void @"_ZN15find_msvc_tools10find_tools108_$LT$impl$u20$core..convert..From$LT$find_msvc_tools..find_tools..Env$GT$$u20$for$u20$std..path..PathBuf$GT$4from17h3d3a4779d8912b4dE"(ptr dead_on_unwind noalias noundef writable writeonly sret([24 x i8]) align 8 captures(none) dereferenceable(24) %_0, ptr dead_on_return noalias noundef readonly align 8 captures(none) dereferenceable(24) %env) unnamed_addr #0 personality ptr @rust_eh_personality !dbg !379 {
start:
  %os_str1 = alloca [16 x i8], align 8
    #dbg_declare(ptr %env, !388, !DIExpression(), !393)
    #dbg_declare(ptr %env, !389, !DIExpression(), !394)
    #dbg_declare(ptr %env, !395, !DIExpression(), !402)
    #dbg_declare(ptr %os_str1, !391, !DIExpression(), !404)
    #dbg_declare(ptr poison, !405, !DIExpression(), !418)
  %0 = load i64, ptr %env, align 8, !dbg !459, !range !371, !noundef !15
  %1 = icmp eq i64 %0, -9223372036854775808, !dbg !459
  br i1 %1, label %bb2, label %bb3, !dbg !460

bb2:                                              ; preds = %start
  call void @llvm.lifetime.start.p0(i64 16, ptr nonnull %os_str1), !dbg !461
  %2 = getelementptr inbounds nuw i8, ptr %env, i64 8, !dbg !461
  %3 = load ptr, ptr %2, align 8, !dbg !461, !nonnull !15, !noundef !15
  %4 = getelementptr inbounds nuw i8, ptr %env, i64 16, !dbg !461
  %5 = load i64, ptr %4, align 8, !dbg !461, !noundef !15
  store ptr %3, ptr %os_str1, align 8, !dbg !461
  %6 = getelementptr inbounds nuw i8, ptr %os_str1, i64 8, !dbg !461
  store i64 %5, ptr %6, align 8, !dbg !461
    #dbg_value(ptr %3, !457, !DIExpression(DW_OP_plus_uconst, 16, DW_OP_stack_value, DW_OP_LLVM_fragment, 0, 64), !462)
    #dbg_value(ptr %3, !450, !DIExpression(DW_OP_plus_uconst, 16, DW_OP_stack_value, DW_OP_LLVM_fragment, 0, 64), !463)
    #dbg_value(i64 %5, !457, !DIExpression(DW_OP_LLVM_fragment, 64, 64), !462)
    #dbg_value(i64 %5, !450, !DIExpression(DW_OP_LLVM_fragment, 64, 64), !463)
    #dbg_value(ptr %3, !437, !DIExpression(DW_OP_plus_uconst, 16, DW_OP_stack_value, DW_OP_LLVM_fragment, 0, 64), !464)
    #dbg_value(i64 %5, !437, !DIExpression(DW_OP_LLVM_fragment, 64, 64), !464)
  %self.03 = getelementptr inbounds nuw i8, ptr %3, i64 16, !dbg !465
    #dbg_value(ptr %self.03, !424, !DIExpression(DW_OP_LLVM_fragment, 0, 64), !466)
    #dbg_value(ptr %self.03, !417, !DIExpression(DW_OP_LLVM_fragment, 0, 64), !467)
    #dbg_value(i64 %5, !424, !DIExpression(DW_OP_LLVM_fragment, 64, 64), !466)
    #dbg_value(i64 %5, !417, !DIExpression(DW_OP_LLVM_fragment, 64, 64), !467)
    #dbg_value(ptr %self.03, !468, !DIExpression(DW_OP_LLVM_fragment, 0, 64), !476)
    #dbg_value(i64 %5, !468, !DIExpression(DW_OP_LLVM_fragment, 64, 64), !476)
    #dbg_declare(ptr poison, !473, !DIExpression(), !478)
    #dbg_declare(ptr poison, !479, !DIExpression(), !507)
    #dbg_declare(ptr poison, !509, !DIExpression(), !517)
    #dbg_value(i64 %5, !506, !DIExpression(), !519)
    #dbg_value(i64 %5, !516, !DIExpression(), !520)
    #dbg_value(i64 %5, !521, !DIExpression(), !532)
    #dbg_value(i64 %5, !534, !DIExpression(), !542)
    #dbg_value(i64 %5, !544, !DIExpression(), !581)
    #dbg_declare(ptr poison, !559, !DIExpression(), !583)
    #dbg_value(i64 1, !560, !DIExpression(DW_OP_LLVM_fragment, 0, 64), !581)
    #dbg_value(i64 1, !560, !DIExpression(DW_OP_LLVM_fragment, 64, 64), !581)
    #dbg_value(i64 1, !584, !DIExpression(DW_OP_LLVM_fragment, 0, 64), !644)
    #dbg_value(i64 1, !584, !DIExpression(DW_OP_LLVM_fragment, 64, 64), !644)
    #dbg_value(i64 %5, !607, !DIExpression(), !644)
    #dbg_value(i64 %5, !646, !DIExpression(), !667)
    #dbg_value(i1 false, !608, !DIExpression(DW_OP_LLVM_convert, 1, DW_ATE_unsigned, DW_OP_LLVM_convert, 8, DW_ATE_unsigned, DW_OP_stack_value), !644)
    #dbg_declare(ptr poison, !609, !DIExpression(), !669)
    #dbg_value(i64 1, !666, !DIExpression(DW_OP_LLVM_fragment, 0, 64), !667)
    #dbg_value(i64 1, !666, !DIExpression(DW_OP_LLVM_fragment, 64, 64), !667)
    #dbg_value(ptr poison, !670, !DIExpression(), !704)
    #dbg_value(i64 %5, !699, !DIExpression(), !704)
    #dbg_value(i64 %5, !706, !DIExpression(), !729)
    #dbg_value(i64 %5, !731, !DIExpression(), !754)
    #dbg_value(i64 1, !749, !DIExpression(), !754)
    #dbg_value(i64 1, !700, !DIExpression(DW_OP_LLVM_fragment, 64, 64), !756)
    #dbg_value(i64 1, !700, !DIExpression(DW_OP_LLVM_fragment, 0, 64), !756)
    #dbg_value(ptr undef, !726, !DIExpression(), !729)
    #dbg_value(i1 false, !752, !DIExpression(DW_OP_LLVM_convert, 1, DW_ATE_unsigned, DW_OP_LLVM_convert, 8, DW_ATE_unsigned, DW_OP_stack_value), !757)
    #dbg_value(i1 false, !758, !DIExpression(DW_OP_LLVM_convert, 1, DW_ATE_unsigned, DW_OP_LLVM_convert, 8, DW_ATE_unsigned, DW_OP_stack_value), !765)
    #dbg_value(i64 %5, !727, !DIExpression(), !767)
    #dbg_value(i64 %5, !750, !DIExpression(), !757)
  %_26.i.i.i.i = icmp slt i64 %5, 0
  br i1 %_26.i.i.i.i, label %bb3.i.i, label %bb18.i.i.i, !dbg !768, !prof !769

bb18.i.i.i:                                       ; preds = %bb2
    #dbg_value(i64 1, !702, !DIExpression(DW_OP_LLVM_fragment, 0, 64), !770)
    #dbg_value(i64 %5, !702, !DIExpression(DW_OP_LLVM_fragment, 64, 64), !770)
    #dbg_value(i64 1, !610, !DIExpression(DW_OP_LLVM_fragment, 0, 64), !771)
    #dbg_value(i64 %5, !610, !DIExpression(DW_OP_LLVM_fragment, 64, 64), !771)
  %7 = icmp eq i64 %5, 0, !dbg !772
  br i1 %7, label %bb8, label %bb5.i.i.i, !dbg !772

bb5.i.i.i:                                        ; preds = %bb18.i.i.i
    #dbg_value(ptr poison, !773, !DIExpression(), !782)
    #dbg_value(i64 1, !781, !DIExpression(DW_OP_LLVM_fragment, 0, 64), !782)
    #dbg_value(i64 %5, !781, !DIExpression(DW_OP_LLVM_fragment, 64, 64), !782)
    #dbg_value(i64 1, !784, !DIExpression(DW_OP_LLVM_fragment, 0, 64), !820)
    #dbg_value(i64 %5, !784, !DIExpression(DW_OP_LLVM_fragment, 64, 64), !820)
    #dbg_value(ptr poison, !790, !DIExpression(), !820)
    #dbg_value(i1 false, !791, !DIExpression(DW_OP_LLVM_convert, 1, DW_ATE_unsigned, DW_OP_LLVM_convert, 8, DW_ATE_unsigned, DW_OP_stack_value), !820)
    #dbg_value(i64 %5, !792, !DIExpression(), !822)
    #dbg_value(i64 1, !823, !DIExpression(DW_OP_LLVM_fragment, 0, 64), !828)
    #dbg_value(i64 %5, !823, !DIExpression(DW_OP_LLVM_fragment, 64, 64), !828)
; call __rustc::__rust_no_alloc_shim_is_unstable_v2
  tail call void @_RNvCsj3IbkTTFM3W_7___rustc35___rust_no_alloc_shim_is_unstable_v2() #19, !dbg !830, !noalias !831
; call __rustc::__rust_alloc
  %8 = tail call noundef ptr @_RNvCsj3IbkTTFM3W_7___rustc12___rust_alloc(i64 noundef range(i64 1, 0) %5, i64 noundef range(i64 1, -9223372036854775807) 1) #19, !dbg !837, !noalias !831
    #dbg_value(i64 poison, !614, !DIExpression(DW_OP_LLVM_fragment, 64, 64), !838)
    #dbg_value(ptr %8, !614, !DIExpression(DW_OP_LLVM_fragment, 0, 64), !838)
  %9 = icmp eq ptr %8, null, !dbg !839
  br i1 %9, label %bb3.i.i, label %bb10.i.i.i, !dbg !840

bb10.i.i.i:                                       ; preds = %bb5.i.i.i
    #dbg_value(ptr %8, !640, !DIExpression(DW_OP_LLVM_fragment, 0, 64), !841)
    #dbg_value(i64 poison, !640, !DIExpression(DW_OP_LLVM_fragment, 64, 64), !841)
  %10 = ptrtoint ptr %8 to i64, !dbg !842
  br label %bb8, !dbg !843

bb3.i.i:                                          ; preds = %bb5.i.i.i, %bb2
  %_4.sroa.4.0.ph.i.i = phi i64 [ 1, %bb5.i.i.i ], [ 0, %bb2 ]
    #dbg_value(i64 %_4.sroa.4.0.ph.i.i, !563, !DIExpression(DW_OP_LLVM_fragment, 0, 64), !844)
    #dbg_value(i64 %5, !563, !DIExpression(DW_OP_LLVM_fragment, 64, 64), !844)
; invoke alloc::raw_vec::handle_error
  invoke void @_ZN5alloc7raw_vec12handle_error17h44cc7051d170a168E(i64 noundef %_4.sroa.4.0.ph.i.i, i64 %5, ptr noalias noundef readonly align 8 captures(address, read_provenance) dereferenceable(24) @alloc_9077336e87f2fbeea4d9a498a8a37d0f) #20
          to label %.noexc unwind label %cleanup, !dbg !845

.noexc:                                           ; preds = %bb3.i.i
  unreachable, !dbg !845

bb3:                                              ; preds = %start
  tail call void @llvm.memcpy.p0.p0.i64(ptr noundef nonnull align 8 dereferenceable(24) %_0, ptr noundef nonnull align 8 dereferenceable(24) %env, i64 24, i1 false), !dbg !846
  br label %bb6, !dbg !847

bb6:                                              ; preds = %"_ZN4core3ptr68drop_in_place$LT$alloc..sync..Arc$LT$std..ffi..os_str..OsStr$GT$$GT$17h74d9048cc1d55c48E.exit7", %bb3
  ret void, !dbg !848

cleanup:                                          ; preds = %bb3.i.i
  %11 = landingpad { ptr, i32 }
          cleanup
    #dbg_value(ptr %os_str1, !849, !DIExpression(), !857)
    #dbg_value(ptr %os_str1, !859, !DIExpression(), !867)
    #dbg_value(i64 1, !869, !DIExpression(), !879)
    #dbg_value(i8 1, !878, !DIExpression(), !879)
    #dbg_value(i64 1, !881, !DIExpression(), !891)
    #dbg_value(i8 1, !888, !DIExpression(), !891)
    #dbg_value(i8 2, !893, !DIExpression(), !898)
    #dbg_value(ptr %3, !877, !DIExpression(), !879)
    #dbg_value(ptr %3, !887, !DIExpression(), !891)
  %12 = atomicrmw sub ptr %3, i64 1 release, align 8, !dbg !900, !noalias !901
  %13 = icmp eq i64 %12, 1, !dbg !906
  br i1 %13, label %bb2.i.i, label %bb7, !dbg !906

bb2.i.i:                                          ; preds = %cleanup
  fence acquire, !dbg !907
; call alloc::sync::Arc<T,A>::drop_slow
  call void @"_ZN5alloc4sync16Arc$LT$T$C$A$GT$9drop_slow17hbf12b01ed7716fa7E"(ptr noalias noundef nonnull readonly align 8 dereferenceable(16) %os_str1), !dbg !908
  br label %bb7, !dbg !908

bb8:                                              ; preds = %bb10.i.i.i, %bb18.i.i.i
  %_4.sroa.10.0.i.i = phi i64 [ %10, %bb10.i.i.i ], [ 1, %bb18.i.i.i ]
  %14 = inttoptr i64 %_4.sroa.10.0.i.i to ptr, !dbg !909
    #dbg_value(i64 %5, !474, !DIExpression(DW_OP_LLVM_fragment, 0, 64), !910)
    #dbg_value(ptr %14, !474, !DIExpression(DW_OP_LLVM_fragment, 64, 64), !910)
    #dbg_value(i64 0, !474, !DIExpression(DW_OP_LLVM_fragment, 128, 64), !910)
    #dbg_value(ptr %self.03, !530, !DIExpression(), !532)
    #dbg_value(ptr %self.03, !540, !DIExpression(), !542)
    #dbg_value(ptr %14, !531, !DIExpression(), !532)
    #dbg_value(ptr %14, !541, !DIExpression(), !542)
  tail call void @llvm.memcpy.p0.p0.i64(ptr align 1 %14, ptr nonnull readonly align 1 %self.03, i64 %5, i1 false), !dbg !911, !noalias !912
    #dbg_value(i64 %5, !474, !DIExpression(DW_OP_LLVM_fragment, 128, 64), !910)
    #dbg_value(i64 %5, !395, !DIExpression(DW_OP_LLVM_fragment, 0, 64), !913)
    #dbg_value(ptr %14, !395, !DIExpression(DW_OP_LLVM_fragment, 64, 64), !913)
    #dbg_value(i64 %5, !395, !DIExpression(DW_OP_LLVM_fragment, 128, 64), !913)
  store i64 %5, ptr %_0, align 8, !dbg !915
  %s.sroa.4.0._0.sroa_idx = getelementptr inbounds nuw i8, ptr %_0, i64 8, !dbg !915
  store ptr %14, ptr %s.sroa.4.0._0.sroa_idx, align 8, !dbg !915
  %s.sroa.5.0._0.sroa_idx = getelementptr inbounds nuw i8, ptr %_0, i64 16, !dbg !915
  store i64 %5, ptr %s.sroa.5.0._0.sroa_idx, align 8, !dbg !915
    #dbg_value(ptr %os_str1, !849, !DIExpression(), !916)
    #dbg_value(ptr %os_str1, !859, !DIExpression(), !918)
    #dbg_value(i64 1, !869, !DIExpression(), !920)
    #dbg_value(i8 1, !878, !DIExpression(), !920)
    #dbg_value(i64 1, !881, !DIExpression(), !922)
    #dbg_value(i8 1, !888, !DIExpression(), !922)
    #dbg_value(i8 2, !893, !DIExpression(), !924)
    #dbg_value(ptr %3, !877, !DIExpression(), !920)
    #dbg_value(ptr %3, !887, !DIExpression(), !922)
  %15 = atomicrmw sub ptr %3, i64 1 release, align 8, !dbg !926, !noalias !927
  %16 = icmp eq i64 %15, 1, !dbg !932
  br i1 %16, label %bb2.i.i6, label %"_ZN4core3ptr68drop_in_place$LT$alloc..sync..Arc$LT$std..ffi..os_str..OsStr$GT$$GT$17h74d9048cc1d55c48E.exit7", !dbg !932

bb2.i.i6:                                         ; preds = %bb8
  fence acquire, !dbg !933
; call alloc::sync::Arc<T,A>::drop_slow
  call void @"_ZN5alloc4sync16Arc$LT$T$C$A$GT$9drop_slow17hbf12b01ed7716fa7E"(ptr noalias noundef nonnull readonly align 8 dereferenceable(16) %os_str1), !dbg !934
  br label %"_ZN4core3ptr68drop_in_place$LT$alloc..sync..Arc$LT$std..ffi..os_str..OsStr$GT$$GT$17h74d9048cc1d55c48E.exit7", !dbg !934

"_ZN4core3ptr68drop_in_place$LT$alloc..sync..Arc$LT$std..ffi..os_str..OsStr$GT$$GT$17h74d9048cc1d55c48E.exit7": ; preds = %bb8, %bb2.i.i6
  call void @llvm.lifetime.end.p0(i64 16, ptr nonnull %os_str1), !dbg !935
  br label %bb6, !dbg !935

bb7:                                              ; preds = %bb2.i.i, %cleanup
  resume { ptr, i32 } %11, !dbg !936
}

; find_msvc_tools::find_tools::find_vs_version
; Function Attrs: nonlazybind uwtable
define void @_ZN15find_msvc_tools10find_tools15find_vs_version17h1f5acf8bedda0f78E(ptr dead_on_unwind noalias noundef writable writeonly sret([24 x i8]) align 8 captures(none) dereferenceable(24) %_0) unnamed_addr #0 personality ptr @rust_eh_personality !dbg !937 {
start:
  %_2.i.i = alloca [48 x i8], align 8
    #dbg_value(ptr poison, !1041, !DIExpression(), !1054)
    #dbg_value(ptr poison, !1050, !DIExpression(), !1054)
    #dbg_value(ptr poison, !1041, !DIExpression(), !1068)
    #dbg_value(ptr poison, !1050, !DIExpression(), !1068)
    #dbg_value(ptr poison, !1041, !DIExpression(), !1072)
    #dbg_value(ptr poison, !1050, !DIExpression(), !1072)
    #dbg_value(ptr poison, !1041, !DIExpression(), !1076)
    #dbg_value(ptr poison, !1050, !DIExpression(), !1076)
  %args1 = alloca [16 x i8], align 8
    #dbg_value(ptr poison, !1079, !DIExpression(), !1167)
  %value = alloca [24 x i8], align 8
  %_9 = alloca [16 x i8], align 8
  %_1 = alloca [32 x i8], align 8
    #dbg_value(ptr @alloc_27ab3463f97ac7611ae7210d49ccd7c3, !1066, !DIExpression(DW_OP_LLVM_fragment, 0, 64), !1177)
    #dbg_value(i64 4, !1066, !DIExpression(DW_OP_LLVM_fragment, 64, 64), !1177)
    #dbg_value(ptr @alloc_352ccd7f6cbe7b0d708d9f781a94edee, !1066, !DIExpression(DW_OP_LLVM_fragment, 0, 64), !1178)
    #dbg_value(i64 4, !1066, !DIExpression(DW_OP_LLVM_fragment, 64, 64), !1178)
    #dbg_value(ptr @alloc_b1b5f2a9301a343417d4aa2a7431dd7d, !1066, !DIExpression(DW_OP_LLVM_fragment, 0, 64), !1179)
    #dbg_value(i64 4, !1066, !DIExpression(DW_OP_LLVM_fragment, 64, 64), !1179)
    #dbg_value(ptr @alloc_492b7b15921808c7cb3444ea46807112, !1066, !DIExpression(DW_OP_LLVM_fragment, 0, 64), !1180)
    #dbg_value(i64 4, !1066, !DIExpression(DW_OP_LLVM_fragment, 64, 64), !1180)
    #dbg_value(ptr @alloc_7c9b26184241b4a5a6cf41b356f60cd3, !1181, !DIExpression(DW_OP_LLVM_fragment, 0, 64), !1186)
    #dbg_value(i64 158, !1181, !DIExpression(DW_OP_LLVM_fragment, 64, 64), !1186)
    #dbg_value(ptr @alloc_7c9b26184241b4a5a6cf41b356f60cd3, !1188, !DIExpression(DW_OP_LLVM_fragment, 0, 64), !1194)
    #dbg_value(i64 158, !1188, !DIExpression(DW_OP_LLVM_fragment, 64, 64), !1194)
    #dbg_value(ptr @alloc_7c9b26184241b4a5a6cf41b356f60cd3, !1192, !DIExpression(DW_OP_LLVM_fragment, 0, 64), !1196)
    #dbg_value(i64 158, !1192, !DIExpression(DW_OP_LLVM_fragment, 64, 64), !1196)
    #dbg_value(ptr @alloc_7c9b26184241b4a5a6cf41b356f60cd3, !1197, !DIExpression(DW_OP_LLVM_fragment, 0, 64), !1201)
    #dbg_value(i64 158, !1197, !DIExpression(DW_OP_LLVM_fragment, 64, 64), !1201)
    #dbg_value(ptr @alloc_7c9b26184241b4a5a6cf41b356f60cd3, !1203, !DIExpression(DW_OP_LLVM_fragment, 0, 64), !1209)
    #dbg_value(i64 158, !1203, !DIExpression(DW_OP_LLVM_fragment, 64, 64), !1209)
    #dbg_declare(ptr poison, !1211, !DIExpression(), !1215)
  call void @llvm.lifetime.start.p0(i64 32, ptr nonnull %_1), !dbg !1226
    #dbg_value(ptr @alloc_913d07a29c91f086277fcece161be651, !1227, !DIExpression(DW_OP_LLVM_fragment, 0, 64), !1259)
    #dbg_value(i64 19, !1227, !DIExpression(DW_OP_LLVM_fragment, 64, 64), !1259)
; call std::env::_var
  call void @_ZN3std3env4_var17h25c6d924f650e097E(ptr noalias noundef nonnull sret([32 x i8]) align 8 captures(address) dereferenceable(32) %_1, ptr noalias noundef nonnull readonly align 1 captures(address, read_provenance) @alloc_913d07a29c91f086277fcece161be651, i64 noundef 19), !dbg !1261
  %_2 = load i64, ptr %_1, align 8, !dbg !1226, !range !1262, !noundef !15
  %0 = trunc nuw i64 %_2 to i1, !dbg !1263
  br i1 %0, label %bb2, label %bb3, !dbg !1263

bb2:                                              ; preds = %start
    #dbg_value(ptr @alloc_7c9b26184241b4a5a6cf41b356f60cd3, !1224, !DIExpression(DW_OP_LLVM_fragment, 0, 64), !1264)
    #dbg_value(ptr @alloc_7c9b26184241b4a5a6cf41b356f60cd3, !1219, !DIExpression(DW_OP_LLVM_fragment, 0, 64), !1265)
    #dbg_value(ptr @alloc_7c9b26184241b4a5a6cf41b356f60cd3, !1214, !DIExpression(DW_OP_LLVM_fragment, 0, 64), !1266)
    #dbg_value(i64 158, !1224, !DIExpression(DW_OP_LLVM_fragment, 64, 64), !1264)
    #dbg_value(i64 158, !1219, !DIExpression(DW_OP_LLVM_fragment, 64, 64), !1265)
    #dbg_value(i64 158, !1214, !DIExpression(DW_OP_LLVM_fragment, 64, 64), !1266)
    #dbg_value(ptr @alloc_7c9b26184241b4a5a6cf41b356f60cd3, !468, !DIExpression(DW_OP_LLVM_fragment, 0, 64), !1267)
    #dbg_value(i64 158, !468, !DIExpression(DW_OP_LLVM_fragment, 64, 64), !1267)
    #dbg_declare(ptr poison, !473, !DIExpression(), !1269)
    #dbg_declare(ptr poison, !479, !DIExpression(), !1270)
    #dbg_declare(ptr poison, !509, !DIExpression(), !1272)
    #dbg_value(i64 158, !506, !DIExpression(), !1274)
    #dbg_value(i64 158, !516, !DIExpression(), !1275)
    #dbg_value(i64 158, !521, !DIExpression(), !1276)
    #dbg_value(i64 158, !534, !DIExpression(), !1278)
    #dbg_value(i64 158, !544, !DIExpression(), !1280)
    #dbg_declare(ptr poison, !559, !DIExpression(), !1282)
    #dbg_value(i64 1, !560, !DIExpression(DW_OP_LLVM_fragment, 0, 64), !1280)
    #dbg_value(i64 1, !560, !DIExpression(DW_OP_LLVM_fragment, 64, 64), !1280)
    #dbg_value(i64 1, !584, !DIExpression(DW_OP_LLVM_fragment, 0, 64), !1283)
    #dbg_value(i64 1, !584, !DIExpression(DW_OP_LLVM_fragment, 64, 64), !1283)
    #dbg_value(i64 158, !607, !DIExpression(), !1283)
    #dbg_value(i1 false, !608, !DIExpression(DW_OP_LLVM_convert, 1, DW_ATE_unsigned, DW_OP_LLVM_convert, 8, DW_ATE_unsigned, DW_OP_stack_value), !1283)
    #dbg_declare(ptr poison, !609, !DIExpression(), !1285)
    #dbg_value(i64 1, !610, !DIExpression(DW_OP_LLVM_fragment, 0, 64), !1286)
    #dbg_value(i64 158, !610, !DIExpression(DW_OP_LLVM_fragment, 64, 64), !1286)
    #dbg_value(ptr poison, !773, !DIExpression(), !1287)
    #dbg_value(i64 1, !781, !DIExpression(DW_OP_LLVM_fragment, 0, 64), !1287)
    #dbg_value(i64 158, !781, !DIExpression(DW_OP_LLVM_fragment, 64, 64), !1287)
    #dbg_value(i64 1, !784, !DIExpression(DW_OP_LLVM_fragment, 0, 64), !1289)
    #dbg_value(i64 158, !784, !DIExpression(DW_OP_LLVM_fragment, 64, 64), !1289)
    #dbg_value(ptr poison, !790, !DIExpression(), !1289)
    #dbg_value(i1 false, !791, !DIExpression(DW_OP_LLVM_convert, 1, DW_ATE_unsigned, DW_OP_LLVM_convert, 8, DW_ATE_unsigned, DW_OP_stack_value), !1289)
    #dbg_value(i64 158, !792, !DIExpression(), !1291)
    #dbg_value(i64 1, !823, !DIExpression(DW_OP_LLVM_fragment, 0, 64), !1292)
    #dbg_value(i64 158, !823, !DIExpression(DW_OP_LLVM_fragment, 64, 64), !1292)
; call __rustc::__rust_no_alloc_shim_is_unstable_v2
  call void @_RNvCsj3IbkTTFM3W_7___rustc35___rust_no_alloc_shim_is_unstable_v2() #19, !dbg !1294, !noalias !1295
; call __rustc::__rust_alloc
  %1 = call noundef dereferenceable_or_null(158) ptr @_RNvCsj3IbkTTFM3W_7___rustc12___rust_alloc(i64 noundef range(i64 1, 0) 158, i64 noundef range(i64 1, -9223372036854775807) 1) #19, !dbg !1301, !noalias !1295
    #dbg_value(i64 poison, !614, !DIExpression(DW_OP_LLVM_fragment, 64, 64), !1302)
    #dbg_value(ptr %1, !614, !DIExpression(DW_OP_LLVM_fragment, 0, 64), !1302)
  %2 = icmp eq ptr %1, null, !dbg !1303
  br i1 %2, label %bb3.i.i, label %bb3.i, !dbg !1304

bb3.i.i:                                          ; preds = %bb2
    #dbg_value(i64 1, !563, !DIExpression(DW_OP_LLVM_fragment, 0, 64), !1305)
    #dbg_value(i64 158, !563, !DIExpression(DW_OP_LLVM_fragment, 64, 64), !1305)
; invoke alloc::raw_vec::handle_error
  invoke void @_ZN5alloc7raw_vec12handle_error17h44cc7051d170a168E(i64 noundef 1, i64 158, ptr noalias noundef readonly align 8 captures(address, read_provenance) dereferenceable(24) @alloc_9077336e87f2fbeea4d9a498a8a37d0f) #20
          to label %.noexc unwind label %bb19, !dbg !1306

.noexc:                                           ; preds = %bb3.i.i
  unreachable, !dbg !1306

bb3:                                              ; preds = %start
  %3 = getelementptr inbounds nuw i8, ptr %_1, i64 8, !dbg !1307
  %version.sroa.0.0.copyload = load i64, ptr %3, align 8, !dbg !1307
    #dbg_value(i64 %version.sroa.0.0.copyload, !961, !DIExpression(DW_OP_LLVM_fragment, 0, 64), !1308)
  %version.sroa.5.0..sroa_idx = getelementptr inbounds nuw i8, ptr %_1, i64 16, !dbg !1307
  %version.sroa.5.0.copyload = load ptr, ptr %version.sroa.5.0..sroa_idx, align 8, !dbg !1307, !nonnull !15, !noundef !15
    #dbg_value(ptr %version.sroa.5.0.copyload, !961, !DIExpression(DW_OP_LLVM_fragment, 64, 64), !1308)
  %version.sroa.8.0..sroa_idx = getelementptr inbounds nuw i8, ptr %_1, i64 24, !dbg !1307
  %version.sroa.8.0.copyload = load i64, ptr %version.sroa.8.0..sroa_idx, align 8, !dbg !1307
    #dbg_value(i64 %version.sroa.8.0.copyload, !961, !DIExpression(DW_OP_LLVM_fragment, 128, 64), !1308)
    #dbg_value(ptr %version.sroa.5.0.copyload, !963, !DIExpression(DW_OP_LLVM_fragment, 0, 64), !1309)
    #dbg_value(ptr %version.sroa.5.0.copyload, !1065, !DIExpression(DW_OP_LLVM_fragment, 0, 64), !1177)
    #dbg_value(ptr %version.sroa.5.0.copyload, !1065, !DIExpression(DW_OP_LLVM_fragment, 0, 64), !1178)
    #dbg_value(ptr %version.sroa.5.0.copyload, !1065, !DIExpression(DW_OP_LLVM_fragment, 0, 64), !1179)
    #dbg_value(ptr %version.sroa.5.0.copyload, !1065, !DIExpression(DW_OP_LLVM_fragment, 0, 64), !1180)
    #dbg_value(i64 %version.sroa.8.0.copyload, !963, !DIExpression(DW_OP_LLVM_fragment, 64, 64), !1309)
    #dbg_value(i64 %version.sroa.8.0.copyload, !1065, !DIExpression(DW_OP_LLVM_fragment, 64, 64), !1177)
    #dbg_value(i64 %version.sroa.8.0.copyload, !1065, !DIExpression(DW_OP_LLVM_fragment, 64, 64), !1178)
    #dbg_value(i64 %version.sroa.8.0.copyload, !1065, !DIExpression(DW_OP_LLVM_fragment, 64, 64), !1179)
    #dbg_value(i64 %version.sroa.8.0.copyload, !1065, !DIExpression(DW_OP_LLVM_fragment, 64, 64), !1180)
    #dbg_value(ptr %version.sroa.5.0.copyload, !1310, !DIExpression(DW_OP_LLVM_fragment, 0, 64), !1322)
    #dbg_value(ptr %version.sroa.5.0.copyload, !1324, !DIExpression(DW_OP_LLVM_fragment, 0, 64), !1337)
    #dbg_value(i64 %version.sroa.8.0.copyload, !1310, !DIExpression(DW_OP_LLVM_fragment, 64, 64), !1322)
    #dbg_value(i64 %version.sroa.8.0.copyload, !1324, !DIExpression(DW_OP_LLVM_fragment, 64, 64), !1337)
    #dbg_value(ptr undef, !1050, !DIExpression(), !1076)
    #dbg_value(ptr @alloc_27ab3463f97ac7611ae7210d49ccd7c3, !1319, !DIExpression(DW_OP_LLVM_fragment, 0, 64), !1322)
    #dbg_value(ptr @alloc_27ab3463f97ac7611ae7210d49ccd7c3, !1328, !DIExpression(DW_OP_LLVM_fragment, 0, 64), !1337)
    #dbg_value(i64 4, !1319, !DIExpression(DW_OP_LLVM_fragment, 64, 64), !1322)
    #dbg_value(i64 4, !1328, !DIExpression(DW_OP_LLVM_fragment, 64, 64), !1337)
    #dbg_value(ptr undef, !1041, !DIExpression(), !1076)
  %_30.not = icmp eq i64 %version.sroa.8.0.copyload, 4, !dbg !1339
  br i1 %_30.not, label %bb22, label %bb4, !dbg !1339

bb22:                                             ; preds = %bb3
    #dbg_value(i64 %version.sroa.8.0.copyload, !1329, !DIExpression(), !1340)
  %bcmp = call i32 @bcmp(ptr noundef nonnull dereferenceable(4) %version.sroa.5.0.copyload, ptr noundef nonnull dereferenceable(4) @alloc_27ab3463f97ac7611ae7210d49ccd7c3, i64 4), !dbg !1341
  %_8 = icmp eq i32 %bcmp, 0, !dbg !1341
  br i1 %_8, label %bb5, label %bb26, !dbg !1078

bb5:                                              ; preds = %bb22
  %4 = getelementptr inbounds nuw i8, ptr %_0, i64 8, !dbg !1342
  store i8 4, ptr %4, align 8, !dbg !1342
  store i64 -9223372036854775808, ptr %_0, align 8, !dbg !1342
  br label %bb12, !dbg !1343

bb12:                                             ; preds = %bb37, %bb11, %bb9, %bb7, %bb5
    #dbg_value(ptr poison, !1344, !DIExpression(), !1351)
    #dbg_value(ptr poison, !1353, !DIExpression(), !1361)
    #dbg_value(ptr poison, !1363, !DIExpression(), !1371)
    #dbg_value(ptr poison, !1373, !DIExpression(), !1380)
    #dbg_value(ptr poison, !1382, !DIExpression(), !1393)
    #dbg_value(i64 1, !1389, !DIExpression(DW_OP_LLVM_fragment, 0, 64), !1393)
    #dbg_value(i64 1, !1389, !DIExpression(DW_OP_LLVM_fragment, 64, 64), !1393)
    #dbg_value(i64 1, !1395, !DIExpression(DW_OP_LLVM_fragment, 0, 64), !1424)
    #dbg_value(i64 1, !1395, !DIExpression(DW_OP_LLVM_fragment, 64, 64), !1424)
    #dbg_value(ptr poison, !1419, !DIExpression(), !1424)
  %5 = icmp eq i64 %version.sroa.0.0.copyload, 0, !dbg !1426
  br i1 %5, label %bb16, label %bb2.i.i.i4.i.i, !dbg !1426

bb2.i.i.i4.i.i:                                   ; preds = %bb12
    #dbg_value(ptr %version.sroa.5.0.copyload, !1390, !DIExpression(), !1427)
    #dbg_value(i64 1, !1392, !DIExpression(DW_OP_LLVM_fragment, 0, 64), !1427)
    #dbg_value(i64 %version.sroa.0.0.copyload, !1392, !DIExpression(DW_OP_LLVM_fragment, 64, 64), !1427)
    #dbg_value(i64 1, !1428, !DIExpression(DW_OP_LLVM_fragment, 0, 64), !1435)
    #dbg_value(i64 %version.sroa.0.0.copyload, !1428, !DIExpression(DW_OP_LLVM_fragment, 64, 64), !1435)
    #dbg_value(ptr poison, !1433, !DIExpression(), !1435)
    #dbg_value(ptr %version.sroa.5.0.copyload, !1434, !DIExpression(), !1435)
    #dbg_value(ptr %version.sroa.5.0.copyload, !1437, !DIExpression(), !1443)
    #dbg_value(i64 1, !1442, !DIExpression(DW_OP_LLVM_fragment, 0, 64), !1443)
    #dbg_value(i64 %version.sroa.0.0.copyload, !1442, !DIExpression(DW_OP_LLVM_fragment, 64, 64), !1443)
; call __rustc::__rust_dealloc
  call void @_RNvCsj3IbkTTFM3W_7___rustc14___rust_dealloc(ptr noundef nonnull %version.sroa.5.0.copyload, i64 noundef %version.sroa.0.0.copyload, i64 noundef range(i64 1, -9223372036854775807) 1) #19, !dbg !1445
  br label %bb16, !dbg !1446

bb26:                                             ; preds = %bb22
    #dbg_value(ptr %version.sroa.5.0.copyload, !1310, !DIExpression(DW_OP_LLVM_fragment, 0, 64), !1447)
    #dbg_value(ptr %version.sroa.5.0.copyload, !1324, !DIExpression(DW_OP_LLVM_fragment, 0, 64), !1450)
    #dbg_value(i64 %version.sroa.8.0.copyload, !1310, !DIExpression(DW_OP_LLVM_fragment, 64, 64), !1447)
    #dbg_value(i64 %version.sroa.8.0.copyload, !1324, !DIExpression(DW_OP_LLVM_fragment, 64, 64), !1450)
    #dbg_value(ptr undef, !1050, !DIExpression(), !1072)
    #dbg_value(ptr @alloc_352ccd7f6cbe7b0d708d9f781a94edee, !1319, !DIExpression(DW_OP_LLVM_fragment, 0, 64), !1447)
    #dbg_value(ptr @alloc_352ccd7f6cbe7b0d708d9f781a94edee, !1328, !DIExpression(DW_OP_LLVM_fragment, 0, 64), !1450)
    #dbg_value(i64 4, !1319, !DIExpression(DW_OP_LLVM_fragment, 64, 64), !1447)
    #dbg_value(i64 4, !1328, !DIExpression(DW_OP_LLVM_fragment, 64, 64), !1450)
    #dbg_value(ptr undef, !1041, !DIExpression(), !1072)
    #dbg_value(i64 %version.sroa.8.0.copyload, !1331, !DIExpression(), !1453)
  %bcmp70 = call i32 @bcmp(ptr noundef nonnull dereferenceable(4) %version.sroa.5.0.copyload, ptr noundef nonnull dereferenceable(4) @alloc_352ccd7f6cbe7b0d708d9f781a94edee, i64 4), !dbg !1454
  %_7 = icmp eq i32 %bcmp70, 0, !dbg !1454
  br i1 %_7, label %bb7, label %bb30, !dbg !1075

bb7:                                              ; preds = %bb26
  %6 = getelementptr inbounds nuw i8, ptr %_0, i64 8, !dbg !1455
  store i8 3, ptr %6, align 8, !dbg !1455
  store i64 -9223372036854775808, ptr %_0, align 8, !dbg !1455
  br label %bb12, !dbg !1456

bb30:                                             ; preds = %bb26
    #dbg_value(ptr %version.sroa.5.0.copyload, !1310, !DIExpression(DW_OP_LLVM_fragment, 0, 64), !1457)
    #dbg_value(ptr %version.sroa.5.0.copyload, !1324, !DIExpression(DW_OP_LLVM_fragment, 0, 64), !1460)
    #dbg_value(i64 %version.sroa.8.0.copyload, !1310, !DIExpression(DW_OP_LLVM_fragment, 64, 64), !1457)
    #dbg_value(i64 %version.sroa.8.0.copyload, !1324, !DIExpression(DW_OP_LLVM_fragment, 64, 64), !1460)
    #dbg_value(ptr undef, !1050, !DIExpression(), !1068)
    #dbg_value(ptr @alloc_b1b5f2a9301a343417d4aa2a7431dd7d, !1319, !DIExpression(DW_OP_LLVM_fragment, 0, 64), !1457)
    #dbg_value(ptr @alloc_b1b5f2a9301a343417d4aa2a7431dd7d, !1328, !DIExpression(DW_OP_LLVM_fragment, 0, 64), !1460)
    #dbg_value(i64 4, !1319, !DIExpression(DW_OP_LLVM_fragment, 64, 64), !1457)
    #dbg_value(i64 4, !1328, !DIExpression(DW_OP_LLVM_fragment, 64, 64), !1460)
    #dbg_value(ptr undef, !1041, !DIExpression(), !1068)
    #dbg_value(i64 %version.sroa.8.0.copyload, !1333, !DIExpression(), !1463)
  %bcmp71 = call i32 @bcmp(ptr noundef nonnull dereferenceable(4) %version.sroa.5.0.copyload, ptr noundef nonnull dereferenceable(4) @alloc_b1b5f2a9301a343417d4aa2a7431dd7d, i64 4), !dbg !1464
  %_6 = icmp eq i32 %bcmp71, 0, !dbg !1464
  br i1 %_6, label %bb9, label %bb34, !dbg !1071

bb9:                                              ; preds = %bb30
  %7 = getelementptr inbounds nuw i8, ptr %_0, i64 8, !dbg !1465
  store i8 2, ptr %7, align 8, !dbg !1465
  store i64 -9223372036854775808, ptr %_0, align 8, !dbg !1465
  br label %bb12, !dbg !1466

bb34:                                             ; preds = %bb30
    #dbg_value(ptr %version.sroa.5.0.copyload, !1310, !DIExpression(DW_OP_LLVM_fragment, 0, 64), !1467)
    #dbg_value(ptr %version.sroa.5.0.copyload, !1324, !DIExpression(DW_OP_LLVM_fragment, 0, 64), !1470)
    #dbg_value(i64 %version.sroa.8.0.copyload, !1310, !DIExpression(DW_OP_LLVM_fragment, 64, 64), !1467)
    #dbg_value(i64 %version.sroa.8.0.copyload, !1324, !DIExpression(DW_OP_LLVM_fragment, 64, 64), !1470)
    #dbg_value(ptr undef, !1050, !DIExpression(), !1054)
    #dbg_value(ptr @alloc_492b7b15921808c7cb3444ea46807112, !1319, !DIExpression(DW_OP_LLVM_fragment, 0, 64), !1467)
    #dbg_value(ptr @alloc_492b7b15921808c7cb3444ea46807112, !1328, !DIExpression(DW_OP_LLVM_fragment, 0, 64), !1470)
    #dbg_value(i64 4, !1319, !DIExpression(DW_OP_LLVM_fragment, 64, 64), !1467)
    #dbg_value(i64 4, !1328, !DIExpression(DW_OP_LLVM_fragment, 64, 64), !1470)
    #dbg_value(ptr undef, !1041, !DIExpression(), !1054)
    #dbg_value(i64 %version.sroa.8.0.copyload, !1335, !DIExpression(), !1473)
  %bcmp72 = call i32 @bcmp(ptr noundef nonnull dereferenceable(4) %version.sroa.5.0.copyload, ptr noundef nonnull dereferenceable(4) @alloc_492b7b15921808c7cb3444ea46807112, i64 4), !dbg !1474
  %_5 = icmp eq i32 %bcmp72, 0, !dbg !1474
  br i1 %_5, label %bb11, label %bb4, !dbg !1067

bb4:                                              ; preds = %bb3, %bb34
  call void @llvm.lifetime.start.p0(i64 16, ptr nonnull %_9), !dbg !1475
  store ptr %version.sroa.5.0.copyload, ptr %_9, align 8, !dbg !1475
  %8 = getelementptr inbounds nuw i8, ptr %_9, i64 8, !dbg !1475
  store i64 %version.sroa.8.0.copyload, ptr %8, align 8, !dbg !1475
  call void @llvm.lifetime.start.p0(i64 16, ptr nonnull %args1), !dbg !1476
  store ptr %_9, ptr %args1, align 8, !dbg !1476
  %_13.sroa.4.0..sroa_idx = getelementptr inbounds nuw i8, ptr %args1, i64 8, !dbg !1476
  store ptr @"_ZN44_$LT$$RF$T$u20$as$u20$core..fmt..Display$GT$3fmt17h66f239f46630cdbcE", ptr %_13.sroa.4.0..sroa_idx, align 8, !dbg !1476
    #dbg_value(ptr @alloc_0210f9a7de6109ab616e82ff8f9cb79b, !1174, !DIExpression(DW_OP_LLVM_fragment, 0, 64), !1477)
    #dbg_value(i64 2, !1174, !DIExpression(DW_OP_LLVM_fragment, 64, 64), !1477)
    #dbg_value(ptr null, !1174, !DIExpression(DW_OP_LLVM_fragment, 256, 64), !1477)
    #dbg_value(ptr %args1, !1174, !DIExpression(DW_OP_LLVM_fragment, 128, 64), !1477)
    #dbg_value(i64 1, !1174, !DIExpression(DW_OP_LLVM_fragment, 192, 64), !1477)
    #dbg_value(ptr null, !1163, !DIExpression(DW_OP_LLVM_fragment, 0, 64), !1167)
    #dbg_value(i64 undef, !1163, !DIExpression(DW_OP_LLVM_fragment, 64, 64), !1167)
    #dbg_value(ptr undef, !1079, !DIExpression(), !1167)
    #dbg_declare(ptr poison, !1164, !DIExpression(), !1478)
    #dbg_value(ptr poison, !1479, !DIExpression(DW_OP_deref, DW_OP_LLVM_fragment, 0, 64), !1484)
  call void @llvm.lifetime.start.p0(i64 48, ptr nonnull %_2.i.i), !dbg !1486, !noalias !1487
  store ptr @alloc_0210f9a7de6109ab616e82ff8f9cb79b, ptr %_2.i.i, align 8, !dbg !1486, !noalias !1494
  %args.sroa.4.0._2.i.i.sroa_idx = getelementptr inbounds nuw i8, ptr %_2.i.i, i64 8, !dbg !1486
  store i64 2, ptr %args.sroa.4.0._2.i.i.sroa_idx, align 8, !dbg !1486, !noalias !1494
  %args.sroa.5.0._2.i.i.sroa_idx = getelementptr inbounds nuw i8, ptr %_2.i.i, i64 16, !dbg !1486
  store ptr %args1, ptr %args.sroa.5.0._2.i.i.sroa_idx, align 8, !dbg !1486, !noalias !1494
  %args.sroa.6.0._2.i.i.sroa_idx = getelementptr inbounds nuw i8, ptr %_2.i.i, i64 24, !dbg !1486
  store i64 1, ptr %args.sroa.6.0._2.i.i.sroa_idx, align 8, !dbg !1486, !noalias !1494
  %args.sroa.7.0._2.i.i.sroa_idx = getelementptr inbounds nuw i8, ptr %_2.i.i, i64 32, !dbg !1486
  store ptr null, ptr %args.sroa.7.0._2.i.i.sroa_idx, align 8, !dbg !1486, !noalias !1494
; invoke alloc::fmt::format::format_inner
  invoke void @_ZN5alloc3fmt6format12format_inner17hfd79f8caa80769a9E(ptr noalias noundef nonnull sret([24 x i8]) align 8 captures(address) dereferenceable(24) %value, ptr noalias noundef nonnull readonly align 8 captures(address) dereferenceable(48) %_2.i.i)
          to label %bb37 unwind label %cleanup, !dbg !1495

bb11:                                             ; preds = %bb34
  %9 = getelementptr inbounds nuw i8, ptr %_0, i64 8, !dbg !1496
  store i8 1, ptr %9, align 8, !dbg !1496
  store i64 -9223372036854775808, ptr %_0, align 8, !dbg !1496
  br label %bb12, !dbg !1497

cleanup:                                          ; preds = %bb4
  %10 = landingpad { ptr, i32 }
          cleanup
    #dbg_value(ptr poison, !1344, !DIExpression(), !1498)
    #dbg_value(ptr poison, !1353, !DIExpression(), !1500)
    #dbg_value(ptr poison, !1363, !DIExpression(), !1502)
    #dbg_value(ptr poison, !1373, !DIExpression(), !1504)
    #dbg_value(ptr poison, !1382, !DIExpression(), !1506)
    #dbg_value(i64 1, !1389, !DIExpression(DW_OP_LLVM_fragment, 0, 64), !1506)
    #dbg_value(i64 1, !1389, !DIExpression(DW_OP_LLVM_fragment, 64, 64), !1506)
    #dbg_value(i64 1, !1395, !DIExpression(DW_OP_LLVM_fragment, 0, 64), !1508)
    #dbg_value(i64 1, !1395, !DIExpression(DW_OP_LLVM_fragment, 64, 64), !1508)
    #dbg_value(ptr poison, !1419, !DIExpression(), !1508)
  %11 = icmp eq i64 %version.sroa.0.0.copyload, 0, !dbg !1510
  br i1 %11, label %bb15, label %bb2.i.i.i4.i.i78, !dbg !1510

bb2.i.i.i4.i.i78:                                 ; preds = %cleanup
    #dbg_value(ptr %version.sroa.5.0.copyload, !1390, !DIExpression(), !1511)
    #dbg_value(i64 1, !1392, !DIExpression(DW_OP_LLVM_fragment, 0, 64), !1511)
    #dbg_value(i64 %version.sroa.0.0.copyload, !1392, !DIExpression(DW_OP_LLVM_fragment, 64, 64), !1511)
    #dbg_value(i64 1, !1428, !DIExpression(DW_OP_LLVM_fragment, 0, 64), !1512)
    #dbg_value(i64 %version.sroa.0.0.copyload, !1428, !DIExpression(DW_OP_LLVM_fragment, 64, 64), !1512)
    #dbg_value(ptr poison, !1433, !DIExpression(), !1512)
    #dbg_value(ptr %version.sroa.5.0.copyload, !1434, !DIExpression(), !1512)
    #dbg_value(ptr %version.sroa.5.0.copyload, !1437, !DIExpression(), !1514)
    #dbg_value(i64 1, !1442, !DIExpression(DW_OP_LLVM_fragment, 0, 64), !1514)
    #dbg_value(i64 %version.sroa.0.0.copyload, !1442, !DIExpression(DW_OP_LLVM_fragment, 64, 64), !1514)
; call __rustc::__rust_dealloc
  call void @_RNvCsj3IbkTTFM3W_7___rustc14___rust_dealloc(ptr noundef nonnull %version.sroa.5.0.copyload, i64 noundef %version.sroa.0.0.copyload, i64 noundef range(i64 1, -9223372036854775807) 1) #19, !dbg !1516
  br label %bb15, !dbg !1517

bb37:                                             ; preds = %bb4
  call void @llvm.lifetime.end.p0(i64 48, ptr nonnull %_2.i.i), !dbg !1518, !noalias !1487
  call void @llvm.lifetime.end.p0(i64 16, ptr nonnull %args1), !dbg !1476
  call void @llvm.memcpy.p0.p0.i64(ptr noundef nonnull align 8 dereferenceable(24) %_0, ptr noundef nonnull align 8 dereferenceable(24) %value, i64 24, i1 false), !dbg !1519
  call void @llvm.lifetime.end.p0(i64 16, ptr nonnull %_9), !dbg !1520
  br label %bb12, !dbg !1520

bb3.i:                                            ; preds = %bb2
    #dbg_value(i64 158, !474, !DIExpression(DW_OP_LLVM_fragment, 0, 64), !1521)
    #dbg_value(ptr %1, !474, !DIExpression(DW_OP_LLVM_fragment, 64, 64), !1521)
    #dbg_value(i64 0, !474, !DIExpression(DW_OP_LLVM_fragment, 128, 64), !1521)
    #dbg_value(ptr @alloc_7c9b26184241b4a5a6cf41b356f60cd3, !530, !DIExpression(), !1276)
    #dbg_value(ptr @alloc_7c9b26184241b4a5a6cf41b356f60cd3, !540, !DIExpression(), !1278)
    #dbg_value(ptr %1, !531, !DIExpression(), !1276)
    #dbg_value(ptr %1, !541, !DIExpression(), !1278)
  call void @llvm.memcpy.p0.p0.i64(ptr noundef nonnull align 1 dereferenceable(158) %1, ptr noundef nonnull align 1 dereferenceable(158) @alloc_7c9b26184241b4a5a6cf41b356f60cd3, i64 158, i1 false), !dbg !1522, !noalias !1523
    #dbg_value(i64 158, !474, !DIExpression(DW_OP_LLVM_fragment, 128, 64), !1521)
  store i64 158, ptr %_0, align 8, !dbg !1524
  %_16.sroa.4.0._0.sroa_idx = getelementptr inbounds nuw i8, ptr %_0, i64 8, !dbg !1524
  store ptr %1, ptr %_16.sroa.4.0._0.sroa_idx, align 8, !dbg !1524
  %_16.sroa.5.0._0.sroa_idx = getelementptr inbounds nuw i8, ptr %_0, i64 16, !dbg !1524
  store i64 158, ptr %_16.sroa.5.0._0.sroa_idx, align 8, !dbg !1524
  call void @llvm.experimental.noalias.scope.decl(metadata !1525), !dbg !1528
    #dbg_value(ptr %_1, !1529, !DIExpression(), !1537)
  %12 = getelementptr inbounds nuw i8, ptr %_1, i64 8, !dbg !1539
  %.val.i = load i64, ptr %12, align 8, !dbg !1539, !alias.scope !1525
    #dbg_value(ptr poison, !1540, !DIExpression(), !1548)
  switch i64 %.val.i, label %bb1.sink.split.i [
    i64 -9223372036854775808, label %bb16
    i64 0, label %bb16
  ], !dbg !1550

bb1.sink.split.i:                                 ; preds = %bb3.i
  %13 = getelementptr inbounds nuw i8, ptr %_1, i64 16, !dbg !1539
  %.val3.i = load ptr, ptr %13, align 8, !dbg !1539, !alias.scope !1525, !nonnull !15, !noundef !15
; call __rustc::__rust_dealloc
  call void @_RNvCsj3IbkTTFM3W_7___rustc14___rust_dealloc(ptr noundef nonnull %.val3.i, i64 noundef %.val.i, i64 noundef range(i64 1, -9223372036854775807) 1) #19, !dbg !1539, !noalias !1525
  br label %bb16, !dbg !1539

bb16:                                             ; preds = %bb2.i.i.i4.i.i, %bb12, %bb1.sink.split.i, %bb3.i, %bb3.i
  call void @llvm.lifetime.end.p0(i64 32, ptr nonnull %_1), !dbg !1528
  ret void, !dbg !1551

bb15:                                             ; preds = %bb19, %cleanup, %bb2.i.i.i4.i.i78
  %.pn81 = phi { ptr, i32 } [ %14, %bb19 ], [ %10, %bb2.i.i.i4.i.i78 ], [ %10, %cleanup ]
  resume { ptr, i32 } %.pn81, !dbg !1552

bb19:                                             ; preds = %bb3.i.i
  %14 = landingpad { ptr, i32 }
          cleanup
; call core::ptr::drop_in_place<core::result::Result<alloc::string::String,std::env::VarError>>
  call fastcc void @"_ZN4core3ptr91drop_in_place$LT$core..result..Result$LT$alloc..string..String$C$std..env..VarError$GT$$GT$17h9fae00d0f6722b22E"(ptr noalias noundef align 8 dereferenceable(32) %_1) #21, !dbg !1528
  br label %bb15, !dbg !1528
}

; find_msvc_tools::find_tools::find_tool_with_env
; Function Attrs: nonlazybind uwtable
define void @_ZN15find_msvc_tools10find_tools18find_tool_with_env17h90d4fb796ce5f272E(ptr dead_on_unwind noalias noundef writable writeonly sret([56 x i8]) align 8 captures(none) dereferenceable(56) %_0, ptr noalias noundef nonnull readonly align 1 captures(none) %full_arch.0, i64 noundef %full_arch.1, ptr noalias noundef nonnull readonly align 1 captures(address, read_provenance) %0, i64 noundef %1, ptr noundef nonnull align 1 %2, ptr noalias noundef readonly align 8 captures(none) dereferenceable(32) %3) unnamed_addr #0 personality ptr @rust_eh_personality !dbg !1553 {
start:
  %_5.i.i.i = alloca [24 x i8], align 8
  %_15.i = alloca [56 x i8], align 8
  %_14.i = alloca [56 x i8], align 8
  %self1.i = alloca [24 x i8], align 8
  %vs_install_dir.i = alloca [24 x i8], align 8
  %self.i = alloca [24 x i8], align 8
  %vc_install_dir.i = alloca [24 x i8], align 8
  %tool.i = alloca [16 x i8], align 8
  %_17 = alloca [56 x i8], align 8
    #dbg_declare(ptr poison, !1622, !DIExpression(DW_OP_LLVM_fragment, 64, 384), !1642)
    #dbg_declare(ptr poison, !1640, !DIExpression(DW_OP_LLVM_fragment, 64, 384), !1644)
    #dbg_value(ptr poison, !1645, !DIExpression(), !1674)
    #dbg_value(ptr poison, !1676, !DIExpression(DW_OP_LLVM_fragment, 64, 8), !1692)
    #dbg_value(ptr poison, !1641, !DIExpression(DW_OP_LLVM_fragment, 64, 8), !1694)
    #dbg_value(ptr poison, !1676, !DIExpression(DW_OP_LLVM_fragment, 128, 64), !1692)
    #dbg_value(ptr poison, !1641, !DIExpression(DW_OP_LLVM_fragment, 128, 64), !1694)
    #dbg_value(ptr poison, !1676, !DIExpression(DW_OP_LLVM_fragment, 0, 64), !1692)
    #dbg_value(ptr poison, !1641, !DIExpression(DW_OP_LLVM_fragment, 0, 64), !1694)
    #dbg_value(ptr poison, !1669, !DIExpression(), !1674)
    #dbg_value(ptr %0, !1603, !DIExpression(DW_OP_LLVM_fragment, 0, 64), !1695)
    #dbg_value(ptr %0, !1696, !DIExpression(DW_OP_LLVM_fragment, 0, 64), !1704)
    #dbg_value(ptr %0, !1696, !DIExpression(DW_OP_LLVM_fragment, 0, 64), !1706)
    #dbg_value(ptr %0, !1708, !DIExpression(DW_OP_LLVM_fragment, 0, 64), !1715)
    #dbg_value(i64 %1, !1603, !DIExpression(DW_OP_LLVM_fragment, 64, 64), !1695)
    #dbg_value(i64 %1, !1696, !DIExpression(DW_OP_LLVM_fragment, 64, 64), !1704)
    #dbg_value(i64 %1, !1696, !DIExpression(DW_OP_LLVM_fragment, 64, 64), !1706)
    #dbg_value(i64 %1, !1708, !DIExpression(DW_OP_LLVM_fragment, 64, 64), !1715)
    #dbg_value(ptr %2, !1604, !DIExpression(DW_OP_LLVM_fragment, 0, 64), !1695)
    #dbg_value(ptr %3, !1604, !DIExpression(DW_OP_LLVM_fragment, 64, 64), !1695)
    #dbg_value(ptr %full_arch.0, !1602, !DIExpression(DW_OP_LLVM_fragment, 0, 64), !1695)
    #dbg_value(i64 %full_arch.1, !1602, !DIExpression(DW_OP_LLVM_fragment, 64, 64), !1695)
    #dbg_declare(ptr poison, !1607, !DIExpression(), !1717)
    #dbg_value(ptr @alloc_4156e959589ba4dd32a5f8e9e8794e02, !1701, !DIExpression(DW_OP_LLVM_fragment, 0, 64), !1704)
    #dbg_value(i64 7, !1701, !DIExpression(DW_OP_LLVM_fragment, 64, 64), !1704)
    #dbg_value(ptr @alloc_30e48f5bc9536fc9c0ff564a2ed46279, !1701, !DIExpression(DW_OP_LLVM_fragment, 0, 64), !1706)
    #dbg_value(i64 6, !1701, !DIExpression(DW_OP_LLVM_fragment, 64, 64), !1706)
    #dbg_value(ptr poison, !1718, !DIExpression(), !1722)
    #dbg_value(ptr poison, !1721, !DIExpression(), !1722)
    #dbg_value(ptr poison, !1718, !DIExpression(), !1750)
    #dbg_value(ptr poison, !1721, !DIExpression(), !1750)
    #dbg_value(ptr poison, !1718, !DIExpression(), !1754)
    #dbg_value(ptr poison, !1721, !DIExpression(), !1754)
    #dbg_value(ptr poison, !1718, !DIExpression(), !1758)
    #dbg_value(ptr poison, !1721, !DIExpression(), !1758)
    #dbg_value(ptr poison, !1718, !DIExpression(), !1762)
    #dbg_value(ptr poison, !1721, !DIExpression(), !1762)
    #dbg_value(ptr poison, !1718, !DIExpression(), !1766)
    #dbg_value(ptr poison, !1721, !DIExpression(), !1766)
    #dbg_value(ptr poison, !1718, !DIExpression(), !1770)
    #dbg_value(ptr poison, !1721, !DIExpression(), !1770)
    #dbg_value(ptr poison, !1718, !DIExpression(), !1774)
    #dbg_value(ptr poison, !1721, !DIExpression(), !1774)
    #dbg_value(ptr poison, !1718, !DIExpression(), !1778)
    #dbg_value(ptr poison, !1721, !DIExpression(), !1778)
    #dbg_value(ptr %full_arch.0, !1748, !DIExpression(DW_OP_LLVM_fragment, 0, 64), !1782)
    #dbg_value(ptr %full_arch.0, !1727, !DIExpression(DW_OP_LLVM_fragment, 0, 64), !1783)
    #dbg_value(ptr %full_arch.0, !1727, !DIExpression(DW_OP_LLVM_fragment, 0, 64), !1785)
    #dbg_value(ptr %full_arch.0, !1727, !DIExpression(DW_OP_LLVM_fragment, 0, 64), !1786)
    #dbg_value(ptr %full_arch.0, !1727, !DIExpression(DW_OP_LLVM_fragment, 0, 64), !1787)
    #dbg_value(ptr %full_arch.0, !1727, !DIExpression(DW_OP_LLVM_fragment, 0, 64), !1788)
    #dbg_value(ptr %full_arch.0, !1727, !DIExpression(DW_OP_LLVM_fragment, 0, 64), !1789)
    #dbg_value(ptr %full_arch.0, !1727, !DIExpression(DW_OP_LLVM_fragment, 0, 64), !1790)
    #dbg_value(ptr %full_arch.0, !1727, !DIExpression(DW_OP_LLVM_fragment, 0, 64), !1791)
    #dbg_value(ptr %full_arch.0, !1727, !DIExpression(DW_OP_LLVM_fragment, 0, 64), !1792)
    #dbg_value(ptr %full_arch.0, !1727, !DIExpression(DW_OP_LLVM_fragment, 0, 64), !1793)
    #dbg_value(i64 %full_arch.1, !1748, !DIExpression(DW_OP_LLVM_fragment, 64, 64), !1782)
    #dbg_value(i64 %full_arch.1, !1727, !DIExpression(DW_OP_LLVM_fragment, 64, 64), !1783)
    #dbg_value(i64 %full_arch.1, !1727, !DIExpression(DW_OP_LLVM_fragment, 64, 64), !1785)
    #dbg_value(i64 %full_arch.1, !1727, !DIExpression(DW_OP_LLVM_fragment, 64, 64), !1786)
    #dbg_value(i64 %full_arch.1, !1727, !DIExpression(DW_OP_LLVM_fragment, 64, 64), !1787)
    #dbg_value(i64 %full_arch.1, !1727, !DIExpression(DW_OP_LLVM_fragment, 64, 64), !1788)
    #dbg_value(i64 %full_arch.1, !1727, !DIExpression(DW_OP_LLVM_fragment, 64, 64), !1789)
    #dbg_value(i64 %full_arch.1, !1727, !DIExpression(DW_OP_LLVM_fragment, 64, 64), !1790)
    #dbg_value(i64 %full_arch.1, !1727, !DIExpression(DW_OP_LLVM_fragment, 64, 64), !1791)
    #dbg_value(i64 %full_arch.1, !1727, !DIExpression(DW_OP_LLVM_fragment, 64, 64), !1792)
    #dbg_value(i64 %full_arch.1, !1727, !DIExpression(DW_OP_LLVM_fragment, 64, 64), !1793)
    #dbg_value(ptr @alloc_643f7782d991ad79bd79ba2d2c668a4c, !1728, !DIExpression(DW_OP_LLVM_fragment, 0, 64), !1783)
    #dbg_value(i64 3, !1728, !DIExpression(DW_OP_LLVM_fragment, 64, 64), !1783)
    #dbg_value(ptr @alloc_97ea9fc425ea3c7752d1c5ba5dd6dd88, !1728, !DIExpression(DW_OP_LLVM_fragment, 0, 64), !1785)
    #dbg_value(i64 6, !1728, !DIExpression(DW_OP_LLVM_fragment, 64, 64), !1785)
    #dbg_value(ptr @alloc_902cf81a6d418c2063e2efdd4bdd7c78, !1728, !DIExpression(DW_OP_LLVM_fragment, 0, 64), !1786)
    #dbg_value(i64 5, !1728, !DIExpression(DW_OP_LLVM_fragment, 64, 64), !1786)
    #dbg_value(ptr @alloc_708437d7a9a3b1bed2b2fbb27ca99947, !1728, !DIExpression(DW_OP_LLVM_fragment, 0, 64), !1787)
    #dbg_value(i64 7, !1728, !DIExpression(DW_OP_LLVM_fragment, 64, 64), !1787)
    #dbg_value(ptr @alloc_77091ef4013986fd40216f126dabc12f, !1728, !DIExpression(DW_OP_LLVM_fragment, 0, 64), !1788)
    #dbg_value(i64 7, !1728, !DIExpression(DW_OP_LLVM_fragment, 64, 64), !1788)
    #dbg_value(ptr @alloc_de5ab4e2afa2804d1a733c1ad824af99, !1728, !DIExpression(DW_OP_LLVM_fragment, 0, 64), !1789)
    #dbg_value(i64 3, !1728, !DIExpression(DW_OP_LLVM_fragment, 64, 64), !1789)
    #dbg_value(ptr @alloc_673aaa5b29fe2e169c9bc7d4a86cb0c3, !1728, !DIExpression(DW_OP_LLVM_fragment, 0, 64), !1790)
    #dbg_value(i64 4, !1728, !DIExpression(DW_OP_LLVM_fragment, 64, 64), !1790)
    #dbg_value(ptr @alloc_e4250c89692f9a3aef523af36427f57d, !1728, !DIExpression(DW_OP_LLVM_fragment, 0, 64), !1791)
    #dbg_value(i64 4, !1728, !DIExpression(DW_OP_LLVM_fragment, 64, 64), !1791)
    #dbg_value(ptr @alloc_d9036dbef1cc78d0c3562113c2babf56, !1728, !DIExpression(DW_OP_LLVM_fragment, 0, 64), !1792)
    #dbg_value(i64 3, !1728, !DIExpression(DW_OP_LLVM_fragment, 64, 64), !1792)
    #dbg_value(ptr @alloc_f33c6662c87959700862e0731dde2345, !1728, !DIExpression(DW_OP_LLVM_fragment, 0, 64), !1793)
    #dbg_value(i64 8, !1728, !DIExpression(DW_OP_LLVM_fragment, 64, 64), !1793)
    #dbg_value(ptr %full_arch.0, !1794, !DIExpression(DW_OP_LLVM_fragment, 0, 64), !1798)
    #dbg_value(ptr %full_arch.0, !1801, !DIExpression(DW_OP_LLVM_fragment, 0, 64), !1825)
    #dbg_value(i64 %full_arch.1, !1794, !DIExpression(DW_OP_LLVM_fragment, 64, 64), !1798)
    #dbg_value(i64 %full_arch.1, !1801, !DIExpression(DW_OP_LLVM_fragment, 64, 64), !1825)
    #dbg_value(ptr undef, !1721, !DIExpression(), !1827)
    #dbg_value(ptr @alloc_643f7782d991ad79bd79ba2d2c668a4c, !1797, !DIExpression(DW_OP_LLVM_fragment, 0, 64), !1798)
    #dbg_value(ptr @alloc_643f7782d991ad79bd79ba2d2c668a4c, !1804, !DIExpression(DW_OP_LLVM_fragment, 0, 64), !1825)
    #dbg_value(i64 3, !1797, !DIExpression(DW_OP_LLVM_fragment, 64, 64), !1798)
    #dbg_value(i64 3, !1804, !DIExpression(DW_OP_LLVM_fragment, 64, 64), !1825)
    #dbg_value(ptr undef, !1718, !DIExpression(), !1827)
  switch i64 %full_arch.1, label %bb15 [
    i64 3, label %bb18.i
    i64 6, label %bb22.i
    i64 5, label %bb26.i
    i64 7, label %bb30.i
    i64 4, label %bb42.i
    i64 8, label %bb54.i
  ], !dbg !1828

bb18.i:                                           ; preds = %start
    #dbg_value(i64 %full_arch.1, !1805, !DIExpression(), !1829)
  %bcmp.i = tail call i32 @bcmp(ptr noundef nonnull readonly align 1 dereferenceable(3) %full_arch.0, ptr noundef nonnull dereferenceable(3) @alloc_643f7782d991ad79bd79ba2d2c668a4c, i64 3), !dbg !1830
  %_11.i = icmp eq i32 %bcmp.i, 0, !dbg !1830
  br i1 %_11.i, label %bb16, label %bb38.i, !dbg !1831

bb22.i:                                           ; preds = %start
    #dbg_value(i64 %full_arch.1, !1807, !DIExpression(), !1832)
  %bcmp142.i = tail call i32 @bcmp(ptr noundef nonnull readonly align 1 dereferenceable(6) %full_arch.0, ptr noundef nonnull dereferenceable(6) @alloc_97ea9fc425ea3c7752d1c5ba5dd6dd88, i64 6), !dbg !1837
  %_10.i = icmp eq i32 %bcmp142.i, 0, !dbg !1837
  br i1 %_10.i, label %bb16, label %bb15, !dbg !1838

bb26.i:                                           ; preds = %start
    #dbg_value(i64 %full_arch.1, !1809, !DIExpression(), !1839)
  %bcmp143.i = tail call i32 @bcmp(ptr noundef nonnull readonly align 1 dereferenceable(5) %full_arch.0, ptr noundef nonnull dereferenceable(5) @alloc_902cf81a6d418c2063e2efdd4bdd7c78, i64 5), !dbg !1844
  %_9.i = icmp eq i32 %bcmp143.i, 0, !dbg !1844
  br i1 %_9.i, label %bb16, label %bb15, !dbg !1845

bb30.i:                                           ; preds = %start
    #dbg_value(i64 %full_arch.1, !1811, !DIExpression(), !1846)
  %bcmp144.i = tail call i32 @bcmp(ptr noundef nonnull readonly align 1 dereferenceable(7) %full_arch.0, ptr noundef nonnull dereferenceable(7) @alloc_708437d7a9a3b1bed2b2fbb27ca99947, i64 7), !dbg !1851
  %_8.i = icmp eq i32 %bcmp144.i, 0, !dbg !1851
  br i1 %_8.i, label %bb16, label %bb34.i, !dbg !1852

bb34.i:                                           ; preds = %bb30.i
    #dbg_value(ptr %full_arch.0, !1794, !DIExpression(DW_OP_LLVM_fragment, 0, 64), !1853)
    #dbg_value(ptr %full_arch.0, !1801, !DIExpression(DW_OP_LLVM_fragment, 0, 64), !1856)
    #dbg_value(i64 %full_arch.1, !1794, !DIExpression(DW_OP_LLVM_fragment, 64, 64), !1853)
    #dbg_value(i64 %full_arch.1, !1801, !DIExpression(DW_OP_LLVM_fragment, 64, 64), !1856)
    #dbg_value(ptr undef, !1721, !DIExpression(), !1766)
    #dbg_value(ptr @alloc_77091ef4013986fd40216f126dabc12f, !1797, !DIExpression(DW_OP_LLVM_fragment, 0, 64), !1853)
    #dbg_value(ptr @alloc_77091ef4013986fd40216f126dabc12f, !1804, !DIExpression(DW_OP_LLVM_fragment, 0, 64), !1856)
    #dbg_value(i64 7, !1797, !DIExpression(DW_OP_LLVM_fragment, 64, 64), !1853)
    #dbg_value(i64 7, !1804, !DIExpression(DW_OP_LLVM_fragment, 64, 64), !1856)
    #dbg_value(ptr undef, !1718, !DIExpression(), !1766)
    #dbg_value(i64 %full_arch.1, !1813, !DIExpression(), !1859)
  %bcmp145.i = tail call i32 @bcmp(ptr noundef nonnull readonly align 1 dereferenceable(7) %full_arch.0, ptr noundef nonnull dereferenceable(7) @alloc_77091ef4013986fd40216f126dabc12f, i64 7), !dbg !1860
  %_7.i = icmp eq i32 %bcmp145.i, 0, !dbg !1860
  br i1 %_7.i, label %bb16, label %bb15, !dbg !1861

bb38.i:                                           ; preds = %bb18.i
    #dbg_value(ptr %full_arch.0, !1794, !DIExpression(DW_OP_LLVM_fragment, 0, 64), !1862)
    #dbg_value(ptr %full_arch.0, !1801, !DIExpression(DW_OP_LLVM_fragment, 0, 64), !1863)
    #dbg_value(i64 %full_arch.1, !1794, !DIExpression(DW_OP_LLVM_fragment, 64, 64), !1862)
    #dbg_value(i64 %full_arch.1, !1801, !DIExpression(DW_OP_LLVM_fragment, 64, 64), !1863)
    #dbg_value(ptr undef, !1721, !DIExpression(), !1778)
    #dbg_value(ptr @alloc_97ea9fc425ea3c7752d1c5ba5dd6dd88, !1797, !DIExpression(DW_OP_LLVM_fragment, 0, 64), !1862)
    #dbg_value(ptr @alloc_97ea9fc425ea3c7752d1c5ba5dd6dd88, !1804, !DIExpression(DW_OP_LLVM_fragment, 0, 64), !1863)
    #dbg_value(i64 6, !1797, !DIExpression(DW_OP_LLVM_fragment, 64, 64), !1862)
    #dbg_value(i64 6, !1804, !DIExpression(DW_OP_LLVM_fragment, 64, 64), !1863)
    #dbg_value(ptr undef, !1718, !DIExpression(), !1778)
    #dbg_value(ptr %full_arch.0, !1794, !DIExpression(DW_OP_LLVM_fragment, 0, 64), !1864)
    #dbg_value(ptr %full_arch.0, !1801, !DIExpression(DW_OP_LLVM_fragment, 0, 64), !1865)
    #dbg_value(i64 %full_arch.1, !1794, !DIExpression(DW_OP_LLVM_fragment, 64, 64), !1864)
    #dbg_value(i64 %full_arch.1, !1801, !DIExpression(DW_OP_LLVM_fragment, 64, 64), !1865)
    #dbg_value(ptr undef, !1721, !DIExpression(), !1770)
    #dbg_value(ptr @alloc_708437d7a9a3b1bed2b2fbb27ca99947, !1797, !DIExpression(DW_OP_LLVM_fragment, 0, 64), !1864)
    #dbg_value(ptr @alloc_708437d7a9a3b1bed2b2fbb27ca99947, !1804, !DIExpression(DW_OP_LLVM_fragment, 0, 64), !1865)
    #dbg_value(i64 7, !1797, !DIExpression(DW_OP_LLVM_fragment, 64, 64), !1864)
    #dbg_value(i64 7, !1804, !DIExpression(DW_OP_LLVM_fragment, 64, 64), !1865)
    #dbg_value(ptr undef, !1718, !DIExpression(), !1770)
    #dbg_value(ptr %full_arch.0, !1794, !DIExpression(DW_OP_LLVM_fragment, 0, 64), !1866)
    #dbg_value(ptr %full_arch.0, !1801, !DIExpression(DW_OP_LLVM_fragment, 0, 64), !1869)
    #dbg_value(i64 %full_arch.1, !1794, !DIExpression(DW_OP_LLVM_fragment, 64, 64), !1866)
    #dbg_value(i64 %full_arch.1, !1801, !DIExpression(DW_OP_LLVM_fragment, 64, 64), !1869)
    #dbg_value(ptr undef, !1721, !DIExpression(), !1762)
    #dbg_value(ptr @alloc_de5ab4e2afa2804d1a733c1ad824af99, !1797, !DIExpression(DW_OP_LLVM_fragment, 0, 64), !1866)
    #dbg_value(ptr @alloc_de5ab4e2afa2804d1a733c1ad824af99, !1804, !DIExpression(DW_OP_LLVM_fragment, 0, 64), !1869)
    #dbg_value(i64 3, !1797, !DIExpression(DW_OP_LLVM_fragment, 64, 64), !1866)
    #dbg_value(i64 3, !1804, !DIExpression(DW_OP_LLVM_fragment, 64, 64), !1869)
    #dbg_value(ptr undef, !1718, !DIExpression(), !1762)
    #dbg_value(i64 %full_arch.1, !1815, !DIExpression(), !1872)
  %bcmp146.i = tail call i32 @bcmp(ptr noundef nonnull readonly align 1 dereferenceable(3) %full_arch.0, ptr noundef nonnull dereferenceable(3) @alloc_de5ab4e2afa2804d1a733c1ad824af99, i64 3), !dbg !1873
  %_6.i = icmp eq i32 %bcmp146.i, 0, !dbg !1873
  br i1 %_6.i, label %bb16, label %bb50.i, !dbg !1874

bb42.i:                                           ; preds = %start
    #dbg_value(i64 %full_arch.1, !1817, !DIExpression(), !1875)
  %bcmp147.i = tail call i32 @bcmp(ptr noundef nonnull readonly align 1 dereferenceable(4) %full_arch.0, ptr noundef nonnull dereferenceable(4) @alloc_673aaa5b29fe2e169c9bc7d4a86cb0c3, i64 4), !dbg !1880
  %_5.i = icmp eq i32 %bcmp147.i, 0, !dbg !1880
  br i1 %_5.i, label %bb16, label %bb46.i, !dbg !1881

bb46.i:                                           ; preds = %bb42.i
    #dbg_value(ptr %full_arch.0, !1794, !DIExpression(DW_OP_LLVM_fragment, 0, 64), !1882)
    #dbg_value(ptr %full_arch.0, !1801, !DIExpression(DW_OP_LLVM_fragment, 0, 64), !1885)
    #dbg_value(i64 %full_arch.1, !1794, !DIExpression(DW_OP_LLVM_fragment, 64, 64), !1882)
    #dbg_value(i64 %full_arch.1, !1801, !DIExpression(DW_OP_LLVM_fragment, 64, 64), !1885)
    #dbg_value(ptr undef, !1721, !DIExpression(), !1754)
    #dbg_value(ptr @alloc_e4250c89692f9a3aef523af36427f57d, !1797, !DIExpression(DW_OP_LLVM_fragment, 0, 64), !1882)
    #dbg_value(ptr @alloc_e4250c89692f9a3aef523af36427f57d, !1804, !DIExpression(DW_OP_LLVM_fragment, 0, 64), !1885)
    #dbg_value(i64 4, !1797, !DIExpression(DW_OP_LLVM_fragment, 64, 64), !1882)
    #dbg_value(i64 4, !1804, !DIExpression(DW_OP_LLVM_fragment, 64, 64), !1885)
    #dbg_value(ptr undef, !1718, !DIExpression(), !1754)
    #dbg_value(i64 %full_arch.1, !1819, !DIExpression(), !1888)
  %bcmp148.i = tail call i32 @bcmp(ptr noundef nonnull readonly align 1 dereferenceable(4) %full_arch.0, ptr noundef nonnull dereferenceable(4) @alloc_e4250c89692f9a3aef523af36427f57d, i64 4), !dbg !1889
  %_4.i = icmp eq i32 %bcmp148.i, 0, !dbg !1889
  br i1 %_4.i, label %bb16, label %bb15, !dbg !1890

bb50.i:                                           ; preds = %bb38.i
    #dbg_value(ptr %full_arch.0, !1794, !DIExpression(DW_OP_LLVM_fragment, 0, 64), !1891)
    #dbg_value(ptr %full_arch.0, !1801, !DIExpression(DW_OP_LLVM_fragment, 0, 64), !1892)
    #dbg_value(i64 %full_arch.1, !1794, !DIExpression(DW_OP_LLVM_fragment, 64, 64), !1891)
    #dbg_value(i64 %full_arch.1, !1801, !DIExpression(DW_OP_LLVM_fragment, 64, 64), !1892)
    #dbg_value(ptr undef, !1721, !DIExpression(), !1758)
    #dbg_value(ptr @alloc_673aaa5b29fe2e169c9bc7d4a86cb0c3, !1797, !DIExpression(DW_OP_LLVM_fragment, 0, 64), !1891)
    #dbg_value(ptr @alloc_673aaa5b29fe2e169c9bc7d4a86cb0c3, !1804, !DIExpression(DW_OP_LLVM_fragment, 0, 64), !1892)
    #dbg_value(i64 4, !1797, !DIExpression(DW_OP_LLVM_fragment, 64, 64), !1891)
    #dbg_value(i64 4, !1804, !DIExpression(DW_OP_LLVM_fragment, 64, 64), !1892)
    #dbg_value(ptr undef, !1718, !DIExpression(), !1758)
    #dbg_value(ptr %full_arch.0, !1794, !DIExpression(DW_OP_LLVM_fragment, 0, 64), !1893)
    #dbg_value(ptr %full_arch.0, !1801, !DIExpression(DW_OP_LLVM_fragment, 0, 64), !1896)
    #dbg_value(i64 %full_arch.1, !1794, !DIExpression(DW_OP_LLVM_fragment, 64, 64), !1893)
    #dbg_value(i64 %full_arch.1, !1801, !DIExpression(DW_OP_LLVM_fragment, 64, 64), !1896)
    #dbg_value(ptr undef, !1721, !DIExpression(), !1750)
    #dbg_value(ptr @alloc_d9036dbef1cc78d0c3562113c2babf56, !1797, !DIExpression(DW_OP_LLVM_fragment, 0, 64), !1893)
    #dbg_value(ptr @alloc_d9036dbef1cc78d0c3562113c2babf56, !1804, !DIExpression(DW_OP_LLVM_fragment, 0, 64), !1896)
    #dbg_value(i64 3, !1797, !DIExpression(DW_OP_LLVM_fragment, 64, 64), !1893)
    #dbg_value(i64 3, !1804, !DIExpression(DW_OP_LLVM_fragment, 64, 64), !1896)
    #dbg_value(ptr undef, !1718, !DIExpression(), !1750)
    #dbg_value(i64 %full_arch.1, !1821, !DIExpression(), !1899)
  %bcmp149.i = tail call i32 @bcmp(ptr noundef nonnull readonly align 1 dereferenceable(3) %full_arch.0, ptr noundef nonnull dereferenceable(3) @alloc_d9036dbef1cc78d0c3562113c2babf56, i64 3), !dbg !1900
  %_3.i = icmp eq i32 %bcmp149.i, 0, !dbg !1900
  br i1 %_3.i, label %bb16, label %bb15, !dbg !1901

bb54.i:                                           ; preds = %start
    #dbg_value(i64 %full_arch.1, !1823, !DIExpression(), !1902)
  %bcmp150.i = tail call i32 @bcmp(ptr noundef nonnull readonly align 1 dereferenceable(8) %full_arch.0, ptr noundef nonnull dereferenceable(8) @alloc_f33c6662c87959700862e0731dde2345, i64 8), !dbg !1907
  %_2.i = icmp eq i32 %bcmp150.i, 0, !dbg !1907
  br i1 %_2.i, label %bb16, label %bb15, !dbg !1908

bb16:                                             ; preds = %bb22.i, %bb18.i, %bb30.i, %bb26.i, %bb34.i, %bb46.i, %bb42.i, %bb38.i, %bb54.i, %bb50.i
    #dbg_value(i8 poison, !1909, !DIExpression(), !1914)
    #dbg_value(i8 poison, !1916, !DIExpression(), !1919)
    #dbg_value(i8 poison, !1714, !DIExpression(), !1715)
    #dbg_value(i8 poison, !1605, !DIExpression(), !1921)
; call <&str as core::str::pattern::Pattern>::is_contained_in
  %_8 = tail call fastcc noundef zeroext i1 @"_ZN55_$LT$$RF$str$u20$as$u20$core..str..pattern..Pattern$GT$15is_contained_in17h33bb93430b08c5ceE"(ptr noalias noundef nonnull readonly align 1 captures(address, read_provenance) @alloc_4156e959589ba4dd32a5f8e9e8794e02, i64 noundef 7, ptr noalias noundef nonnull readonly align 1 captures(address, read_provenance) %0, i64 noundef %1), !dbg !1922
  br i1 %_8, label %bb3, label %bb4, !dbg !1923

bb15:                                             ; preds = %bb54.i, %bb50.i, %bb46.i, %bb34.i, %bb26.i, %bb22.i, %start
  store i64 -9223372036854775808, ptr %_0, align 8, !dbg !1924
  br label %bb14, !dbg !1931

bb4:                                              ; preds = %bb16
; call <&str as core::str::pattern::Pattern>::is_contained_in
  %_9 = tail call fastcc noundef zeroext i1 @"_ZN55_$LT$$RF$str$u20$as$u20$core..str..pattern..Pattern$GT$15is_contained_in17h33bb93430b08c5ceE"(ptr noalias noundef nonnull readonly align 1 captures(address, read_provenance) @alloc_30e48f5bc9536fc9c0ff564a2ed46279, i64 noundef 6, ptr noalias noundef nonnull readonly align 1 captures(address, read_provenance) %0, i64 noundef %1), !dbg !1934
  br i1 %_9, label %bb5, label %bb1.i5.preheader, !dbg !1935

bb1.i5.preheader:                                 ; preds = %bb4
    #dbg_value(ptr poison, !1670, !DIExpression(), !1936)
    #dbg_value(ptr poison, !1937, !DIExpression(DW_OP_deref, DW_OP_deref, DW_OP_LLVM_fragment, 0, 64), !1946)
    #dbg_value(ptr poison, !1945, !DIExpression(), !1946)
    #dbg_value(ptr @alloc_b02cb0441008eafb9892df4255d9f1a7, !1943, !DIExpression(DW_OP_LLVM_fragment, 0, 64), !1948)
    #dbg_value(ptr @alloc_b02cb0441008eafb9892df4255d9f1a7, !1949, !DIExpression(DW_OP_LLVM_fragment, 0, 64), !1953)
    #dbg_value(i64 5, !1943, !DIExpression(DW_OP_LLVM_fragment, 64, 64), !1948)
    #dbg_value(i64 5, !1949, !DIExpression(DW_OP_LLVM_fragment, 64, 64), !1953)
    #dbg_value(ptr %0, !1952, !DIExpression(DW_OP_LLVM_fragment, 0, 64), !1953)
    #dbg_value(i64 %1, !1952, !DIExpression(DW_OP_LLVM_fragment, 64, 64), !1953)
; call <&str as core::str::pattern::Pattern>::is_contained_in
  %_0.i.i = tail call fastcc noundef zeroext i1 @"_ZN55_$LT$$RF$str$u20$as$u20$core..str..pattern..Pattern$GT$15is_contained_in17h33bb93430b08c5ceE"(ptr noalias noundef nonnull readonly align 1 captures(address, read_provenance) @alloc_b02cb0441008eafb9892df4255d9f1a7, i64 noundef 5, ptr noalias noundef nonnull readonly align 1 captures(address, read_provenance) %0, i64 noundef %1), !dbg !1955, !noalias !1956
  br i1 %_0.i.i, label %bb8, label %bb1.i5.1, !dbg !1960

bb3:                                              ; preds = %bb16
  store i64 -9223372036854775808, ptr %_0, align 8, !dbg !1961
  br label %bb14, !dbg !1962

bb1.i5.1:                                         ; preds = %bb1.i5.preheader
    #dbg_value(ptr poison, !1670, !DIExpression(), !1936)
    #dbg_value(ptr poison, !1937, !DIExpression(DW_OP_deref, DW_OP_deref, DW_OP_LLVM_fragment, 0, 64), !1946)
    #dbg_value(ptr poison, !1945, !DIExpression(), !1946)
    #dbg_value(ptr @alloc_9a68dd18f0911526c199eebcfa8367d8, !1943, !DIExpression(DW_OP_LLVM_fragment, 0, 64), !1948)
    #dbg_value(ptr @alloc_9a68dd18f0911526c199eebcfa8367d8, !1949, !DIExpression(DW_OP_LLVM_fragment, 0, 64), !1953)
    #dbg_value(i64 4, !1943, !DIExpression(DW_OP_LLVM_fragment, 64, 64), !1948)
    #dbg_value(i64 4, !1949, !DIExpression(DW_OP_LLVM_fragment, 64, 64), !1953)
    #dbg_value(ptr %0, !1952, !DIExpression(DW_OP_LLVM_fragment, 0, 64), !1953)
    #dbg_value(i64 %1, !1952, !DIExpression(DW_OP_LLVM_fragment, 64, 64), !1953)
; call <&str as core::str::pattern::Pattern>::is_contained_in
  %_0.i.i.1 = tail call fastcc noundef zeroext i1 @"_ZN55_$LT$$RF$str$u20$as$u20$core..str..pattern..Pattern$GT$15is_contained_in17h33bb93430b08c5ceE"(ptr noalias noundef nonnull readonly align 1 captures(address, read_provenance) @alloc_9a68dd18f0911526c199eebcfa8367d8, i64 noundef 4, ptr noalias noundef nonnull readonly align 1 captures(address, read_provenance) %0, i64 noundef %1), !dbg !1955, !noalias !1956
  br i1 %_0.i.i.1, label %bb8, label %bb1.i5.2, !dbg !1960

bb1.i5.2:                                         ; preds = %bb1.i5.1
    #dbg_value(ptr poison, !1670, !DIExpression(), !1936)
    #dbg_value(ptr poison, !1937, !DIExpression(DW_OP_deref, DW_OP_deref, DW_OP_LLVM_fragment, 0, 64), !1946)
    #dbg_value(ptr poison, !1945, !DIExpression(), !1946)
    #dbg_value(ptr @alloc_527b1a6f3ab2db7d4c95d2e85f6dc8f4, !1943, !DIExpression(DW_OP_LLVM_fragment, 0, 64), !1948)
    #dbg_value(ptr @alloc_527b1a6f3ab2db7d4c95d2e85f6dc8f4, !1949, !DIExpression(DW_OP_LLVM_fragment, 0, 64), !1953)
    #dbg_value(i64 4, !1943, !DIExpression(DW_OP_LLVM_fragment, 64, 64), !1948)
    #dbg_value(i64 4, !1949, !DIExpression(DW_OP_LLVM_fragment, 64, 64), !1953)
    #dbg_value(ptr %0, !1952, !DIExpression(DW_OP_LLVM_fragment, 0, 64), !1953)
    #dbg_value(i64 %1, !1952, !DIExpression(DW_OP_LLVM_fragment, 64, 64), !1953)
; call <&str as core::str::pattern::Pattern>::is_contained_in
  %_0.i.i.2 = tail call fastcc noundef zeroext i1 @"_ZN55_$LT$$RF$str$u20$as$u20$core..str..pattern..Pattern$GT$15is_contained_in17h33bb93430b08c5ceE"(ptr noalias noundef nonnull readonly align 1 captures(address, read_provenance) @alloc_527b1a6f3ab2db7d4c95d2e85f6dc8f4, i64 noundef 4, ptr noalias noundef nonnull readonly align 1 captures(address, read_provenance) %0, i64 noundef %1), !dbg !1955, !noalias !1956
  br i1 %_0.i.i.2, label %bb8, label %bb1.i5.3, !dbg !1960

bb1.i5.3:                                         ; preds = %bb1.i5.2
    #dbg_value(ptr poison, !1670, !DIExpression(), !1936)
    #dbg_value(ptr poison, !1937, !DIExpression(DW_OP_deref, DW_OP_deref, DW_OP_LLVM_fragment, 0, 64), !1946)
    #dbg_value(ptr poison, !1945, !DIExpression(), !1946)
    #dbg_value(ptr @alloc_7852d5fba8844429e6d5c8b75ea78b9b, !1943, !DIExpression(DW_OP_LLVM_fragment, 0, 64), !1948)
    #dbg_value(ptr @alloc_7852d5fba8844429e6d5c8b75ea78b9b, !1949, !DIExpression(DW_OP_LLVM_fragment, 0, 64), !1953)
    #dbg_value(i64 2, !1943, !DIExpression(DW_OP_LLVM_fragment, 64, 64), !1948)
    #dbg_value(i64 2, !1949, !DIExpression(DW_OP_LLVM_fragment, 64, 64), !1953)
    #dbg_value(ptr %0, !1952, !DIExpression(DW_OP_LLVM_fragment, 0, 64), !1953)
    #dbg_value(i64 %1, !1952, !DIExpression(DW_OP_LLVM_fragment, 64, 64), !1953)
; call <&str as core::str::pattern::Pattern>::is_contained_in
  %_0.i.i.3 = tail call fastcc noundef zeroext i1 @"_ZN55_$LT$$RF$str$u20$as$u20$core..str..pattern..Pattern$GT$15is_contained_in17h33bb93430b08c5ceE"(ptr noalias noundef nonnull readonly align 1 captures(address, read_provenance) @alloc_7852d5fba8844429e6d5c8b75ea78b9b, i64 noundef 2, ptr noalias noundef nonnull readonly align 1 captures(address, read_provenance) %0, i64 noundef %1), !dbg !1955, !noalias !1956
  br i1 %_0.i.i.3, label %bb8, label %bb1.i5.4, !dbg !1960

bb1.i5.4:                                         ; preds = %bb1.i5.3
    #dbg_value(ptr poison, !1670, !DIExpression(), !1936)
    #dbg_value(ptr poison, !1937, !DIExpression(DW_OP_deref, DW_OP_deref, DW_OP_LLVM_fragment, 0, 64), !1946)
    #dbg_value(ptr poison, !1945, !DIExpression(), !1946)
    #dbg_value(ptr @alloc_cc5f7aea2b49bddfd6e88357165846f3, !1943, !DIExpression(DW_OP_LLVM_fragment, 0, 64), !1948)
    #dbg_value(ptr @alloc_cc5f7aea2b49bddfd6e88357165846f3, !1949, !DIExpression(DW_OP_LLVM_fragment, 0, 64), !1953)
    #dbg_value(i64 3, !1943, !DIExpression(DW_OP_LLVM_fragment, 64, 64), !1948)
    #dbg_value(i64 3, !1949, !DIExpression(DW_OP_LLVM_fragment, 64, 64), !1953)
    #dbg_value(ptr %0, !1952, !DIExpression(DW_OP_LLVM_fragment, 0, 64), !1953)
    #dbg_value(i64 %1, !1952, !DIExpression(DW_OP_LLVM_fragment, 64, 64), !1953)
; call <&str as core::str::pattern::Pattern>::is_contained_in
  %_0.i.i.4 = tail call fastcc noundef zeroext i1 @"_ZN55_$LT$$RF$str$u20$as$u20$core..str..pattern..Pattern$GT$15is_contained_in17h33bb93430b08c5ceE"(ptr noalias noundef nonnull readonly align 1 captures(address, read_provenance) @alloc_cc5f7aea2b49bddfd6e88357165846f3, i64 noundef 3, ptr noalias noundef nonnull readonly align 1 captures(address, read_provenance) %0, i64 noundef %1), !dbg !1955, !noalias !1956
  br i1 %_0.i.i.4, label %bb8, label %bb9, !dbg !1960

bb5:                                              ; preds = %bb4
  store i64 -9223372036854775808, ptr %_0, align 8, !dbg !1964
  br label %bb14, !dbg !1962

bb9:                                              ; preds = %bb1.i5.4
  call void @llvm.lifetime.start.p0(i64 56, ptr nonnull %_17), !dbg !1965
  tail call void @llvm.experimental.noalias.scope.decl(metadata !1966), !dbg !1965
  tail call void @llvm.experimental.noalias.scope.decl(metadata !1969), !dbg !1965
  call void @llvm.lifetime.start.p0(i64 16, ptr nonnull %tool.i)
  store ptr %0, ptr %tool.i, align 8, !noalias !1971
  %4 = getelementptr inbounds nuw i8, ptr %tool.i, i64 8
  store i64 %1, ptr %4, align 8, !noalias !1971
    #dbg_value(ptr %2, !1973, !DIExpression(DW_OP_LLVM_fragment, 0, 64), !1996)
    #dbg_value(ptr %3, !1973, !DIExpression(DW_OP_LLVM_fragment, 64, 64), !1996)
    #dbg_declare(ptr %tool.i, !1976, !DIExpression(), !1998)
    #dbg_value(i8 poison, !1977, !DIExpression(), !1996)
    #dbg_declare(ptr %vc_install_dir.i, !1978, !DIExpression(), !1999)
    #dbg_declare(ptr %self.i, !2000, !DIExpression(), !2028)
    #dbg_declare(ptr %vs_install_dir.i, !1984, !DIExpression(), !2030)
    #dbg_declare(ptr %self1.i, !2000, !DIExpression(), !2031)
    #dbg_declare(ptr poison, !1980, !DIExpression(), !2033)
    #dbg_declare(ptr poison, !1986, !DIExpression(), !2034)
  call void @llvm.lifetime.start.p0(i64 24, ptr nonnull %vc_install_dir.i), !dbg !2035, !noalias !1971
  call void @llvm.lifetime.start.p0(i64 24, ptr nonnull %self.i), !dbg !2036, !noalias !1971
  %5 = getelementptr inbounds nuw i8, ptr %3, i64 24, !dbg !2036
  %6 = load ptr, ptr %5, align 8, !dbg !2036, !invariant.load !15, !alias.scope !1969, !noalias !2037, !nonnull !15
  call void %6(ptr noalias noundef nonnull sret([24 x i8]) align 8 captures(address) dereferenceable(24) %self.i, ptr noundef nonnull align 1 %2, ptr noalias noundef nonnull readonly align 1 captures(address, read_provenance) @alloc_e9e59c41b8e8baa47c3e0178e02133e6, i64 noundef 12), !dbg !2038, !noalias !2039
  %7 = load i64, ptr %self.i, align 8, !dbg !2040, !range !2041, !noalias !1971, !noundef !15
  %.not.i = icmp eq i64 %7, -9223372036854775807, !dbg !2040
  br i1 %.not.i, label %bb14.i, label %bb15.i, !dbg !2042

bb15.i:                                           ; preds = %bb9
  call void @llvm.memcpy.p0.p0.i64(ptr noundef nonnull align 8 dereferenceable(24) %vc_install_dir.i, ptr noundef nonnull align 8 dereferenceable(24) %self.i, i64 24, i1 false), !dbg !2043, !noalias !1971
  call void @llvm.lifetime.end.p0(i64 24, ptr nonnull %self.i), !dbg !2044, !noalias !1971
  call void @llvm.lifetime.start.p0(i64 24, ptr nonnull %vs_install_dir.i), !dbg !2045, !noalias !1971
  call void @llvm.lifetime.start.p0(i64 24, ptr nonnull %self1.i), !dbg !2046, !noalias !1971
  invoke void %6(ptr noalias noundef nonnull sret([24 x i8]) align 8 captures(address) dereferenceable(24) %self1.i, ptr noundef nonnull align 1 %2, ptr noalias noundef nonnull readonly align 1 captures(address, read_provenance) @alloc_89bf16989cceee19c050ad04893a585c, i64 noundef 12)
          to label %bb3.i6 unwind label %cleanup.i, !dbg !2047, !noalias !2039

bb14.i:                                           ; preds = %bb9
  call void @llvm.lifetime.end.p0(i64 24, ptr nonnull %self.i), !dbg !2044, !noalias !1971
  br label %_ZN15find_msvc_tools10find_tools5impl_21find_msvc_environment17hfdfb923d70c11458E.exit.thread, !dbg !2048

bb12.i:                                           ; preds = %cleanup8.body.i, %cleanup.i
  %.pn.i = phi { ptr, i32 } [ %8, %cleanup.i ], [ %eh.lpad-body.i, %cleanup8.body.i ]
; call core::ptr::drop_in_place<find_msvc_tools::find_tools::Env>
  call fastcc void @"_ZN4core3ptr53drop_in_place$LT$find_msvc_tools..find_tools..Env$GT$17h97c91be571dd9293E"(ptr noalias noundef align 8 dereferenceable(24) %vc_install_dir.i) #21, !dbg !2050, !noalias !2039
  resume { ptr, i32 } %.pn.i, !dbg !2051

cleanup.i:                                        ; preds = %bb15.i
  %8 = landingpad { ptr, i32 }
          cleanup
  br label %bb12.i

bb3.i6:                                           ; preds = %bb15.i
  %9 = load i64, ptr %self1.i, align 8, !dbg !2052, !range !2041, !noalias !1971, !noundef !15
  %.not9.i = icmp eq i64 %9, -9223372036854775807, !dbg !2052
  br i1 %.not9.i, label %bb16.i, label %bb17.i, !dbg !2053

bb17.i:                                           ; preds = %bb3.i6
  call void @llvm.memcpy.p0.p0.i64(ptr noundef nonnull align 8 dereferenceable(24) %vs_install_dir.i, ptr noundef nonnull align 8 dereferenceable(24) %self1.i, i64 24, i1 false), !dbg !2054, !noalias !1971
  call void @llvm.lifetime.end.p0(i64 24, ptr nonnull %self1.i), !dbg !2055, !noalias !1971
    #dbg_value(ptr %tool.i, !1990, !DIExpression(), !2056)
  call void @llvm.lifetime.start.p0(i64 56, ptr nonnull %_14.i), !dbg !2057, !noalias !1971
  call void @llvm.lifetime.start.p0(i64 56, ptr nonnull %_15.i), !dbg !2057, !noalias !1971
    #dbg_value(ptr %vc_install_dir.i, !2058, !DIExpression(), !2065)
    #dbg_value(ptr %vc_install_dir.i, !2067, !DIExpression(), !2077)
  %10 = load i64, ptr %vc_install_dir.i, align 8, !dbg !2079, !range !371, !noalias !1971, !noundef !15
  %11 = icmp eq i64 %10, -9223372036854775808, !dbg !2079
  %12 = getelementptr inbounds nuw i8, ptr %vc_install_dir.i, i64 8, !dbg !2080
  %_37.0.i = load ptr, ptr %12, align 8, !dbg !2080, !noalias !1971, !nonnull !15
  %13 = getelementptr inbounds nuw i8, ptr %vc_install_dir.i, i64 16, !dbg !2080
  %_37.1.i = load i64, ptr %13, align 8, !dbg !2080, !noalias !1971
  %_30.sroa.0.0.idx.i = select i1 %11, i64 16, i64 0, !dbg !2080
  %_30.sroa.0.0.i = getelementptr inbounds nuw i8, ptr %_37.0.i, i64 %_30.sroa.0.0.idx.i, !dbg !2080
; invoke find_msvc_tools::find_tools::impl_::find_msvc_environment::{{closure}}
  invoke fastcc void @"_ZN15find_msvc_tools10find_tools5impl_21find_msvc_environment28_$u7b$$u7b$closure$u7d$$u7d$17h1cedd8d1b27b44f4E"(ptr noalias noundef align 8 captures(address) dereferenceable(56) %_15.i, ptr nonnull %tool.i, ptr noalias noundef nonnull readonly align 1 captures(address, read_provenance) %_30.sroa.0.0.i, i64 noundef %_37.1.i)
          to label %bb4.i unwind label %cleanup8.i, !dbg !2057, !noalias !2039

bb16.i:                                           ; preds = %bb3.i6
  call void @llvm.lifetime.end.p0(i64 24, ptr nonnull %self1.i), !dbg !2055, !noalias !1971
  store i64 -9223372036854775808, ptr %_17, align 8, !dbg !2081, !alias.scope !1966, !noalias !2085
  call void @llvm.lifetime.end.p0(i64 24, ptr nonnull %vs_install_dir.i), !dbg !2086, !noalias !1971
  call void @llvm.experimental.noalias.scope.decl(metadata !2087), !dbg !2050
    #dbg_value(ptr %vc_install_dir.i, !2090, !DIExpression(), !2096)
  %14 = load i64, ptr %vc_install_dir.i, align 8, !dbg !2098, !range !371, !alias.scope !2087, !noalias !1971, !noundef !15
  switch i64 %14, label %bb2.i.i.i4.i.i.i.i.i [
    i64 -9223372036854775808, label %bb3.i.i
    i64 0, label %_ZN15find_msvc_tools10find_tools5impl_21find_msvc_environment17hfdfb923d70c11458E.exit.thread
  ], !dbg !2098

bb2.i.i.i4.i.i.i.i.i:                             ; preds = %bb16.i
  %15 = getelementptr inbounds nuw i8, ptr %vc_install_dir.i, i64 8, !dbg !2098
  %_1.val1.i.i = load ptr, ptr %15, align 8, !dbg !2098, !alias.scope !2087, !noalias !1971, !nonnull !15, !noundef !15
    #dbg_value(ptr %_1.val1.i.i, !1390, !DIExpression(), !2099)
    #dbg_value(i64 1, !1392, !DIExpression(DW_OP_LLVM_fragment, 0, 64), !2099)
    #dbg_value(i64 %14, !1392, !DIExpression(DW_OP_LLVM_fragment, 64, 64), !2099)
    #dbg_value(i64 1, !1428, !DIExpression(DW_OP_LLVM_fragment, 0, 64), !2120)
    #dbg_value(i64 %14, !1428, !DIExpression(DW_OP_LLVM_fragment, 64, 64), !2120)
    #dbg_value(ptr poison, !1433, !DIExpression(), !2120)
    #dbg_value(ptr %_1.val1.i.i, !1434, !DIExpression(), !2120)
    #dbg_value(ptr %_1.val1.i.i, !1437, !DIExpression(), !2122)
    #dbg_value(i64 1, !1442, !DIExpression(DW_OP_LLVM_fragment, 0, 64), !2122)
    #dbg_value(i64 %14, !1442, !DIExpression(DW_OP_LLVM_fragment, 64, 64), !2122)
; call __rustc::__rust_dealloc
  call void @_RNvCsj3IbkTTFM3W_7___rustc14___rust_dealloc(ptr noundef nonnull %_1.val1.i.i, i64 noundef %14, i64 noundef range(i64 1, -9223372036854775807) 1) #19, !dbg !2124, !noalias !2125
  br label %_ZN15find_msvc_tools10find_tools5impl_21find_msvc_environment17hfdfb923d70c11458E.exit, !dbg !2126

bb3.i.i:                                          ; preds = %bb16.i
  %16 = getelementptr inbounds nuw i8, ptr %vc_install_dir.i, i64 8, !dbg !2098
  call void @llvm.experimental.noalias.scope.decl(metadata !2127), !dbg !2098
    #dbg_value(ptr %16, !849, !DIExpression(), !2130)
  call void @llvm.experimental.noalias.scope.decl(metadata !2132), !dbg !2135
    #dbg_value(ptr %16, !859, !DIExpression(), !2136)
    #dbg_value(ptr %16, !2138, !DIExpression(), !2148)
    #dbg_value(i64 1, !869, !DIExpression(), !2150)
    #dbg_value(i8 1, !878, !DIExpression(), !2150)
    #dbg_value(i64 1, !881, !DIExpression(), !2152)
    #dbg_value(i8 1, !888, !DIExpression(), !2152)
    #dbg_value(i8 2, !893, !DIExpression(), !2154)
  %_10.0.i.i.i.i = load ptr, ptr %16, align 8, !dbg !2156, !alias.scope !2164, !noalias !1971, !nonnull !15, !noundef !15
    #dbg_value(ptr %_10.0.i.i.i.i, !877, !DIExpression(), !2150)
    #dbg_value(ptr %_10.0.i.i.i.i, !887, !DIExpression(), !2152)
  %17 = atomicrmw sub ptr %_10.0.i.i.i.i, i64 1 release, align 8, !dbg !2165, !noalias !2166
  %18 = icmp eq i64 %17, 1, !dbg !2167
  br i1 %18, label %bb2.i.i.i.i, label %_ZN15find_msvc_tools10find_tools5impl_21find_msvc_environment17hfdfb923d70c11458E.exit, !dbg !2167

bb2.i.i.i.i:                                      ; preds = %bb3.i.i
  fence acquire, !dbg !2168
; call alloc::sync::Arc<T,A>::drop_slow
  call void @"_ZN5alloc4sync16Arc$LT$T$C$A$GT$9drop_slow17hbf12b01ed7716fa7E"(ptr noalias noundef nonnull readonly align 8 dereferenceable(16) %16), !dbg !2169, !noalias !2039
  br label %_ZN15find_msvc_tools10find_tools5impl_21find_msvc_environment17hfdfb923d70c11458E.exit, !dbg !2169

cleanup8.i:                                       ; preds = %bb2.i17.i, %bb2.i.i, %bb17.i
  %19 = landingpad { ptr, i32 }
          cleanup
  br label %cleanup8.body.i, !dbg !2086

cleanup8.body.i:                                  ; preds = %cleanup.i.i.i, %cleanup8.i
  %eh.lpad-body.i = phi { ptr, i32 } [ %19, %cleanup8.i ], [ %33, %cleanup.i.i.i ]
; call core::ptr::drop_in_place<find_msvc_tools::find_tools::Env>
  call fastcc void @"_ZN4core3ptr53drop_in_place$LT$find_msvc_tools..find_tools..Env$GT$17h97c91be571dd9293E"(ptr noalias noundef align 8 dereferenceable(24) %vs_install_dir.i) #21, !dbg !2086, !noalias !2039
  br label %bb12.i, !dbg !2086

bb4.i:                                            ; preds = %bb17.i
  call void @llvm.experimental.noalias.scope.decl(metadata !2170), !dbg !2173
  call void @llvm.experimental.noalias.scope.decl(metadata !2174), !dbg !2173
  call void @llvm.experimental.noalias.scope.decl(metadata !2176), !dbg !2173
    #dbg_declare(ptr %_15.i, !2178, !DIExpression(), !2194)
    #dbg_value(ptr poison, !2191, !DIExpression(DW_OP_LLVM_fragment, 0, 64), !2196)
    #dbg_value(ptr %vs_install_dir.i, !2191, !DIExpression(DW_OP_LLVM_fragment, 64, 64), !2196)
    #dbg_declare(ptr %_15.i, !2192, !DIExpression(), !2197)
  %20 = load i64, ptr %_15.i, align 8, !dbg !2198, !range !371, !alias.scope !2174, !noalias !2199, !noundef !15
  %.not.i.i = icmp eq i64 %20, -9223372036854775808, !dbg !2198
  br i1 %.not.i.i, label %bb2.i.i, label %bb3.i14.i, !dbg !2200

bb3.i14.i:                                        ; preds = %bb4.i
  call void @llvm.memcpy.p0.p0.i64(ptr noundef nonnull align 8 dereferenceable(56) %_14.i, ptr noundef nonnull readonly align 8 dereferenceable(56) %_15.i, i64 56, i1 false), !dbg !2201, !alias.scope !2202, !noalias !2203
  br label %bb5.i, !dbg !2204

bb2.i.i:                                          ; preds = %bb4.i
    #dbg_value(ptr poison, !2205, !DIExpression(DW_OP_deref), !2211)
    #dbg_value(ptr poison, !2210, !DIExpression(DW_OP_deref, DW_OP_LLVM_fragment, 0, 64), !2211)
    #dbg_value(ptr %vs_install_dir.i, !2213, !DIExpression(), !2216)
    #dbg_value(ptr %vs_install_dir.i, !2218, !DIExpression(), !2225)
  %21 = load i64, ptr %vs_install_dir.i, align 8, !dbg !2227, !range !371, !alias.scope !2228, !noalias !2231, !noundef !15
  %22 = icmp eq i64 %21, -9223372036854775808, !dbg !2227
  %23 = getelementptr inbounds nuw i8, ptr %vs_install_dir.i, i64 8, !dbg !2233
  %_13.0.i.i.i = load ptr, ptr %23, align 8, !dbg !2233, !alias.scope !2228, !noalias !2231, !nonnull !15
  %_6.sroa.0.0.idx.i.i.i = select i1 %22, i64 16, i64 0, !dbg !2233
  %_6.sroa.0.0.i.i.i = getelementptr inbounds nuw i8, ptr %_13.0.i.i.i, i64 %_6.sroa.0.0.idx.i.i.i, !dbg !2233
  %_6.sroa.5.0.in.i.i.i = getelementptr inbounds nuw i8, ptr %vs_install_dir.i, i64 16, !dbg !2225
  %_6.sroa.5.0.i.i.i = load i64, ptr %_6.sroa.5.0.in.i.i.i, align 8, !dbg !2225, !alias.scope !2228, !noalias !2231, !noundef !15
; invoke find_msvc_tools::find_tools::impl_::find_msvc_environment::{{closure}}
  invoke fastcc void @"_ZN15find_msvc_tools10find_tools5impl_21find_msvc_environment28_$u7b$$u7b$closure$u7d$$u7d$17h1cedd8d1b27b44f4E"(ptr noalias noundef nonnull align 8 captures(address) dereferenceable(56) %_14.i, ptr nonnull %tool.i, ptr noalias noundef nonnull readonly align 1 captures(address, read_provenance) %_6.sroa.0.0.i.i.i, i64 noundef %_6.sroa.5.0.i.i.i)
          to label %bb5.i unwind label %cleanup8.i, !dbg !2234, !noalias !2039

bb5.i:                                            ; preds = %bb2.i.i, %bb3.i14.i
  call void @llvm.lifetime.end.p0(i64 56, ptr nonnull %_15.i), !dbg !2235, !noalias !1971
  call void @llvm.experimental.noalias.scope.decl(metadata !2236), !dbg !2239
  call void @llvm.experimental.noalias.scope.decl(metadata !2240), !dbg !2239
    #dbg_declare(ptr %_14.i, !2242, !DIExpression(), !2257)
    #dbg_value(ptr poison, !2254, !DIExpression(DW_OP_LLVM_fragment, 0, 64), !2259)
    #dbg_value(ptr poison, !2254, !DIExpression(DW_OP_LLVM_fragment, 64, 64), !2259)
    #dbg_declare(ptr %_14.i, !2255, !DIExpression(), !2260)
  %24 = load i64, ptr %_14.i, align 8, !dbg !2261, !range !371, !alias.scope !2240, !noalias !2262, !noundef !15
  %.not.i15.i = icmp eq i64 %24, -9223372036854775808, !dbg !2261
  br i1 %.not.i15.i, label %bb2.i17.i, label %bb3.i16.i, !dbg !2263

bb3.i16.i:                                        ; preds = %bb5.i
  call void @llvm.memcpy.p0.p0.i64(ptr noundef nonnull align 8 dereferenceable(56) %_17, ptr noundef nonnull readonly align 8 dereferenceable(56) %_14.i, i64 56, i1 false), !dbg !2264, !alias.scope !2265, !noalias !2085
  br label %bb6.i, !dbg !2266

bb2.i17.i:                                        ; preds = %bb5.i
  call void @llvm.experimental.noalias.scope.decl(metadata !2267), !dbg !2270
    #dbg_value(ptr poison, !2271, !DIExpression(DW_OP_deref, DW_OP_LLVM_fragment, 0, 64), !2277)
    #dbg_value(ptr poison, !2271, !DIExpression(DW_OP_deref, DW_OP_LLVM_fragment, 64, 64), !2277)
    #dbg_value(ptr poison, !2276, !DIExpression(DW_OP_deref), !2277)
    #dbg_declare(ptr poison, !2279, !DIExpression(), !2319)
    #dbg_declare(ptr poison, !2321, !DIExpression(), !2330)
  call void @llvm.lifetime.start.p0(i64 24, ptr nonnull %_5.i.i.i), !dbg !2357, !noalias !2358
  invoke void %6(ptr noalias noundef nonnull sret([24 x i8]) align 8 captures(address) dereferenceable(24) %_5.i.i.i, ptr noundef nonnull align 1 %2, ptr noalias noundef nonnull readonly align 1 captures(address, read_provenance) @alloc_0961b107d08cfdc5d889c0427a765b76, i64 noundef 4)
          to label %.noexc19.i unwind label %cleanup8.i, !dbg !2359, !noalias !2039

.noexc19.i:                                       ; preds = %bb2.i17.i
    #dbg_value(ptr %_5.i.i.i, !2360, !DIExpression(), !2369)
  %25 = load i64, ptr %_5.i.i.i, align 8, !dbg !2371, !range !2041, !noalias !2358, !noundef !15
  switch i64 %25, label %bb9.i.i.i [
    i64 -9223372036854775807, label %bb11.thread.i.i.i
    i64 -9223372036854775808, label %bb8.i.i.i
  ], !dbg !2372

bb11.thread.i.i.i:                                ; preds = %.noexc19.i
    #dbg_value(ptr null, !2316, !DIExpression(), !2373)
    #dbg_value(ptr poison, !2374, !DIExpression(DW_OP_LLVM_fragment, 0, 64), !2386)
    #dbg_value(i64 poison, !2374, !DIExpression(DW_OP_LLVM_fragment, 64, 64), !2386)
    #dbg_value(ptr poison, !2383, !DIExpression(), !2386)
  store i64 -9223372036854775808, ptr %_17, align 8, !dbg !2388, !alias.scope !2389, !noalias !2390
    #dbg_value(ptr %_5.i.i.i, !2391, !DIExpression(), !2399)
  br label %"_ZN4core3ptr76drop_in_place$LT$core..option..Option$LT$find_msvc_tools..tool..Tool$GT$$GT$17h54a023de06999109E.exit4.i.i", !dbg !2401

bb2.i.i.i18.i:                                    ; preds = %bb10.i.i.i
    #dbg_value(ptr %_5.i.i.i, !2391, !DIExpression(), !2399)
    #dbg_value(ptr %_5.i.i.i, !2090, !DIExpression(), !2402)
  switch i64 %25, label %bb2.i.i.i4.i.i.i.i.i.i.i.i [
    i64 -9223372036854775808, label %bb3.i.i.i.i.i
    i64 0, label %"_ZN4core3ptr76drop_in_place$LT$core..option..Option$LT$find_msvc_tools..tool..Tool$GT$$GT$17h54a023de06999109E.exit4.i.i"
  ], !dbg !2404

bb2.i.i.i4.i.i.i.i.i.i.i.i:                       ; preds = %bb2.i.i.i18.i
    #dbg_value(ptr %_1.val1.i.i.i.i.i, !1390, !DIExpression(), !2405)
    #dbg_value(i64 1, !1392, !DIExpression(DW_OP_LLVM_fragment, 0, 64), !2405)
    #dbg_value(i64 %25, !1392, !DIExpression(DW_OP_LLVM_fragment, 64, 64), !2405)
    #dbg_value(i64 1, !1428, !DIExpression(DW_OP_LLVM_fragment, 0, 64), !2412)
    #dbg_value(i64 %25, !1428, !DIExpression(DW_OP_LLVM_fragment, 64, 64), !2412)
    #dbg_value(ptr poison, !1433, !DIExpression(), !2412)
    #dbg_value(ptr %_1.val1.i.i.i.i.i, !1434, !DIExpression(), !2412)
    #dbg_value(ptr %_1.val1.i.i.i.i.i, !1437, !DIExpression(), !2414)
    #dbg_value(i64 1, !1442, !DIExpression(DW_OP_LLVM_fragment, 0, 64), !2414)
    #dbg_value(i64 %25, !1442, !DIExpression(DW_OP_LLVM_fragment, 64, 64), !2414)
; call __rustc::__rust_dealloc
  call void @_RNvCsj3IbkTTFM3W_7___rustc14___rust_dealloc(ptr noundef nonnull %_1.val1.i.i.i.i.i, i64 noundef %25, i64 noundef range(i64 1, -9223372036854775807) 1) #19, !dbg !2416, !noalias !2417
  br label %"_ZN4core3ptr76drop_in_place$LT$core..option..Option$LT$find_msvc_tools..tool..Tool$GT$$GT$17h54a023de06999109E.exit4.i.i", !dbg !2422

bb3.i.i.i.i.i:                                    ; preds = %bb2.i.i.i18.i
    #dbg_value(ptr %_5.i.i.i, !849, !DIExpression(DW_OP_plus_uconst, 8, DW_OP_stack_value), !2423)
    #dbg_value(ptr %_5.i.i.i, !859, !DIExpression(DW_OP_plus_uconst, 8, DW_OP_stack_value), !2425)
    #dbg_value(i64 1, !869, !DIExpression(), !2427)
    #dbg_value(i8 1, !878, !DIExpression(), !2427)
    #dbg_value(i64 1, !881, !DIExpression(), !2429)
    #dbg_value(i8 1, !888, !DIExpression(), !2429)
    #dbg_value(i8 2, !893, !DIExpression(), !2431)
    #dbg_value(ptr %_1.val1.i.i.i.i.i, !877, !DIExpression(), !2427)
    #dbg_value(ptr %_1.val1.i.i.i.i.i, !887, !DIExpression(), !2429)
  %26 = atomicrmw sub ptr %_1.val1.i.i.i.i.i, i64 1 release, align 8, !dbg !2433, !noalias !2434
  %27 = icmp eq i64 %26, 1, !dbg !2439
  br i1 %27, label %bb2.i.i.i.i.i.i.i, label %"_ZN4core3ptr76drop_in_place$LT$core..option..Option$LT$find_msvc_tools..tool..Tool$GT$$GT$17h54a023de06999109E.exit4.i.i", !dbg !2439

bb2.i.i.i.i.i.i.i:                                ; preds = %bb3.i.i.i.i.i
  %28 = getelementptr inbounds nuw i8, ptr %_5.i.i.i, i64 8, !dbg !2404
    #dbg_value(ptr %28, !849, !DIExpression(), !2423)
    #dbg_value(ptr %28, !859, !DIExpression(), !2425)
  fence acquire, !dbg !2440
; call alloc::sync::Arc<T,A>::drop_slow
  call void @"_ZN5alloc4sync16Arc$LT$T$C$A$GT$9drop_slow17hbf12b01ed7716fa7E"(ptr noalias noundef nonnull readonly align 8 dereferenceable(16) %28), !dbg !2441, !noalias !2442
  br label %"_ZN4core3ptr76drop_in_place$LT$core..option..Option$LT$find_msvc_tools..tool..Tool$GT$$GT$17h54a023de06999109E.exit4.i.i", !dbg !2441

bb8.i.i.i:                                        ; preds = %.noexc19.i
    #dbg_value(ptr %_5.i.i.i, !2344, !DIExpression(DW_OP_plus_uconst, 8, DW_OP_stack_value), !2443)
    #dbg_value(ptr %_5.i.i.i, !2444, !DIExpression(DW_OP_plus_uconst, 8, DW_OP_stack_value), !2450)
    #dbg_value(ptr %_5.i.i.i, !2452, !DIExpression(DW_OP_plus_uconst, 8, DW_OP_stack_value), !2455)
  %29 = getelementptr inbounds nuw i8, ptr %_5.i.i.i, i64 8, !dbg !2457
  %_21.0.i.i.i = load ptr, ptr %29, align 8, !dbg !2457, !noalias !2358, !nonnull !15, !noundef !15
  %30 = getelementptr inbounds nuw i8, ptr %_5.i.i.i, i64 16, !dbg !2457
  %_21.1.i.i.i = load i64, ptr %30, align 8, !dbg !2457, !noalias !2358, !noundef !15
  %_19.0.i.i.i = getelementptr inbounds nuw i8, ptr %_21.0.i.i.i, i64 16, !dbg !2460
  br label %bb10.i.i.i, !dbg !2461

bb9.i.i.i:                                        ; preds = %.noexc19.i
    #dbg_value(ptr %_5.i.i.i, !2343, !DIExpression(), !2462)
    #dbg_value(ptr %_5.i.i.i, !2337, !DIExpression(), !2463)
    #dbg_value(ptr %_5.i.i.i, !2329, !DIExpression(), !2464)
    #dbg_value(ptr %_5.i.i.i, !2465, !DIExpression(), !2472)
    #dbg_value(ptr %_5.i.i.i, !2474, !DIExpression(), !2481)
    #dbg_value(ptr %_5.i.i.i, !2483, !DIExpression(), !2489)
  %31 = getelementptr inbounds nuw i8, ptr %_5.i.i.i, i64 8, !dbg !2491
  %_28.i.i.i = load ptr, ptr %31, align 8, !dbg !2491, !noalias !2358, !nonnull !15, !noundef !15
  %32 = getelementptr inbounds nuw i8, ptr %_5.i.i.i, i64 16, !dbg !2509
  %len.i.i.i = load i64, ptr %32, align 8, !dbg !2509, !noalias !2358, !noundef !15
  br label %bb10.i.i.i, !dbg !2510

bb10.i.i.i:                                       ; preds = %bb9.i.i.i, %bb8.i.i.i
  %_1.val1.i.i.i.i.i = phi ptr [ %_21.0.i.i.i, %bb8.i.i.i ], [ %_28.i.i.i, %bb9.i.i.i ]
  %_14.sroa.5.0.i.i.i = phi i64 [ %_21.1.i.i.i, %bb8.i.i.i ], [ %len.i.i.i, %bb9.i.i.i ], !dbg !2511
  %_14.sroa.0.0.i.i.i = phi ptr [ %_19.0.i.i.i, %bb8.i.i.i ], [ %_28.i.i.i, %bb9.i.i.i ], !dbg !2511
    #dbg_value(ptr %_14.sroa.0.0.i.i.i, !2374, !DIExpression(DW_OP_LLVM_fragment, 0, 64), !2386)
    #dbg_value(i64 %_14.sroa.5.0.i.i.i, !2374, !DIExpression(DW_OP_LLVM_fragment, 64, 64), !2386)
    #dbg_value(ptr %tool.i, !2383, !DIExpression(), !2386)
    #dbg_value(ptr %_14.sroa.0.0.i.i.i, !2384, !DIExpression(DW_OP_LLVM_fragment, 0, 64), !2512)
    #dbg_value(i64 %_14.sroa.5.0.i.i.i, !2384, !DIExpression(DW_OP_LLVM_fragment, 64, 64), !2512)
    #dbg_value(ptr %tool.i, !2513, !DIExpression(), !2528)
    #dbg_value(ptr %_14.sroa.0.0.i.i.i, !2521, !DIExpression(DW_OP_LLVM_fragment, 0, 64), !2528)
    #dbg_value(i64 %_14.sroa.5.0.i.i.i, !2521, !DIExpression(DW_OP_LLVM_fragment, 64, 64), !2528)
; invoke find_msvc_tools::find_tools::impl_::find_msvc_environment::{{closure}}
  invoke fastcc void @"_ZN15find_msvc_tools10find_tools5impl_21find_msvc_environment28_$u7b$$u7b$closure$u7d$$u7d$17h1cedd8d1b27b44f4E"(ptr noalias noundef nonnull align 8 captures(address) dereferenceable(56) %_17, ptr nonnull readonly align 8 dereferenceable(16) %tool.i, ptr noalias noundef nonnull readonly align 1 captures(address, read_provenance) %_14.sroa.0.0.i.i.i, i64 noundef %_14.sroa.5.0.i.i.i)
          to label %bb2.i.i.i18.i unwind label %cleanup.i.i.i, !dbg !2530, !noalias !2531

cleanup.i.i.i:                                    ; preds = %bb10.i.i.i
  %33 = landingpad { ptr, i32 }
          cleanup
; call core::ptr::drop_in_place<core::option::Option<find_msvc_tools::find_tools::Env>>
  call fastcc void @"_ZN4core3ptr81drop_in_place$LT$core..option..Option$LT$find_msvc_tools..find_tools..Env$GT$$GT$17haca6a01245ad3656E"(ptr noalias noundef align 8 dereferenceable(24) %_5.i.i.i) #21, !dbg !2532, !noalias !2442
  br label %cleanup8.body.i, !dbg !2533

"_ZN4core3ptr76drop_in_place$LT$core..option..Option$LT$find_msvc_tools..tool..Tool$GT$$GT$17h54a023de06999109E.exit4.i.i": ; preds = %bb2.i.i.i.i.i.i.i, %bb3.i.i.i.i.i, %bb2.i.i.i4.i.i.i.i.i.i.i.i, %bb2.i.i.i18.i, %bb11.thread.i.i.i
  call void @llvm.lifetime.end.p0(i64 24, ptr nonnull %_5.i.i.i), !dbg !2532, !noalias !2358
  br label %bb6.i, !dbg !2266

bb6.i:                                            ; preds = %"_ZN4core3ptr76drop_in_place$LT$core..option..Option$LT$find_msvc_tools..tool..Tool$GT$$GT$17h54a023de06999109E.exit4.i.i", %bb3.i16.i
  call void @llvm.lifetime.end.p0(i64 56, ptr nonnull %_14.i), !dbg !2534, !noalias !1971
  call void @llvm.experimental.noalias.scope.decl(metadata !2535), !dbg !2086
    #dbg_value(ptr %vs_install_dir.i, !2090, !DIExpression(), !2538)
  %34 = load i64, ptr %vs_install_dir.i, align 8, !dbg !2540, !range !371, !alias.scope !2535, !noalias !1971, !noundef !15
  switch i64 %34, label %bb2.i.i.i4.i.i.i.i23.i [
    i64 -9223372036854775808, label %bb3.i20.i
    i64 0, label %bb7.i
  ], !dbg !2540

bb2.i.i.i4.i.i.i.i23.i:                           ; preds = %bb6.i
  %35 = getelementptr inbounds nuw i8, ptr %vs_install_dir.i, i64 8, !dbg !2540
  %_1.val1.i24.i = load ptr, ptr %35, align 8, !dbg !2540, !alias.scope !2535, !noalias !1971, !nonnull !15, !noundef !15
    #dbg_value(ptr %_1.val1.i24.i, !1390, !DIExpression(), !2541)
    #dbg_value(i64 1, !1392, !DIExpression(DW_OP_LLVM_fragment, 0, 64), !2541)
    #dbg_value(i64 %34, !1392, !DIExpression(DW_OP_LLVM_fragment, 64, 64), !2541)
    #dbg_value(i64 1, !1428, !DIExpression(DW_OP_LLVM_fragment, 0, 64), !2548)
    #dbg_value(i64 %34, !1428, !DIExpression(DW_OP_LLVM_fragment, 64, 64), !2548)
    #dbg_value(ptr poison, !1433, !DIExpression(), !2548)
    #dbg_value(ptr %_1.val1.i24.i, !1434, !DIExpression(), !2548)
    #dbg_value(ptr %_1.val1.i24.i, !1437, !DIExpression(), !2550)
    #dbg_value(i64 1, !1442, !DIExpression(DW_OP_LLVM_fragment, 0, 64), !2550)
    #dbg_value(i64 %34, !1442, !DIExpression(DW_OP_LLVM_fragment, 64, 64), !2550)
; call __rustc::__rust_dealloc
  call void @_RNvCsj3IbkTTFM3W_7___rustc14___rust_dealloc(ptr noundef nonnull %_1.val1.i24.i, i64 noundef %34, i64 noundef range(i64 1, -9223372036854775807) 1) #19, !dbg !2552, !noalias !2553
  br label %bb7.i, !dbg !2554

bb3.i20.i:                                        ; preds = %bb6.i
  %36 = getelementptr inbounds nuw i8, ptr %vs_install_dir.i, i64 8, !dbg !2540
  call void @llvm.experimental.noalias.scope.decl(metadata !2555), !dbg !2540
    #dbg_value(ptr %36, !849, !DIExpression(), !2558)
  call void @llvm.experimental.noalias.scope.decl(metadata !2560), !dbg !2563
    #dbg_value(ptr %36, !859, !DIExpression(), !2564)
    #dbg_value(ptr %36, !2138, !DIExpression(), !2566)
    #dbg_value(i64 1, !869, !DIExpression(), !2568)
    #dbg_value(i8 1, !878, !DIExpression(), !2568)
    #dbg_value(i64 1, !881, !DIExpression(), !2570)
    #dbg_value(i8 1, !888, !DIExpression(), !2570)
    #dbg_value(i8 2, !893, !DIExpression(), !2572)
  %_10.0.i.i.i21.i = load ptr, ptr %36, align 8, !dbg !2574, !alias.scope !2576, !noalias !1971, !nonnull !15, !noundef !15
    #dbg_value(ptr %_10.0.i.i.i21.i, !877, !DIExpression(), !2568)
    #dbg_value(ptr %_10.0.i.i.i21.i, !887, !DIExpression(), !2570)
  %37 = atomicrmw sub ptr %_10.0.i.i.i21.i, i64 1 release, align 8, !dbg !2577, !noalias !2578
  %38 = icmp eq i64 %37, 1, !dbg !2579
  br i1 %38, label %bb2.i.i.i22.i, label %bb7.i, !dbg !2579

bb2.i.i.i22.i:                                    ; preds = %bb3.i20.i
  fence acquire, !dbg !2580
; call alloc::sync::Arc<T,A>::drop_slow
  call void @"_ZN5alloc4sync16Arc$LT$T$C$A$GT$9drop_slow17hbf12b01ed7716fa7E"(ptr noalias noundef nonnull readonly align 8 dereferenceable(16) %36), !dbg !2581, !noalias !2039
  br label %bb7.i, !dbg !2581

bb7.i:                                            ; preds = %bb2.i.i.i22.i, %bb3.i20.i, %bb2.i.i.i4.i.i.i.i23.i, %bb6.i
  call void @llvm.lifetime.end.p0(i64 24, ptr nonnull %vs_install_dir.i), !dbg !2086, !noalias !1971
  call void @llvm.experimental.noalias.scope.decl(metadata !2582), !dbg !2050
    #dbg_value(ptr %vc_install_dir.i, !2090, !DIExpression(), !2585)
  %39 = load i64, ptr %vc_install_dir.i, align 8, !dbg !2587, !range !371, !alias.scope !2582, !noalias !1971, !noundef !15
  switch i64 %39, label %bb2.i.i.i4.i.i.i.i29.i [
    i64 -9223372036854775808, label %bb3.i26.i
    i64 0, label %_ZN15find_msvc_tools10find_tools5impl_21find_msvc_environment17hfdfb923d70c11458E.exit
  ], !dbg !2587

bb2.i.i.i4.i.i.i.i29.i:                           ; preds = %bb7.i
  %_1.val1.i30.i = load ptr, ptr %12, align 8, !dbg !2587, !alias.scope !2582, !noalias !1971, !nonnull !15, !noundef !15
    #dbg_value(ptr %_1.val1.i30.i, !1390, !DIExpression(), !2588)
    #dbg_value(i64 1, !1392, !DIExpression(DW_OP_LLVM_fragment, 0, 64), !2588)
    #dbg_value(i64 %39, !1392, !DIExpression(DW_OP_LLVM_fragment, 64, 64), !2588)
    #dbg_value(i64 1, !1428, !DIExpression(DW_OP_LLVM_fragment, 0, 64), !2595)
    #dbg_value(i64 %39, !1428, !DIExpression(DW_OP_LLVM_fragment, 64, 64), !2595)
    #dbg_value(ptr poison, !1433, !DIExpression(), !2595)
    #dbg_value(ptr %_1.val1.i30.i, !1434, !DIExpression(), !2595)
    #dbg_value(ptr %_1.val1.i30.i, !1437, !DIExpression(), !2597)
    #dbg_value(i64 1, !1442, !DIExpression(DW_OP_LLVM_fragment, 0, 64), !2597)
    #dbg_value(i64 %39, !1442, !DIExpression(DW_OP_LLVM_fragment, 64, 64), !2597)
; call __rustc::__rust_dealloc
  call void @_RNvCsj3IbkTTFM3W_7___rustc14___rust_dealloc(ptr noundef nonnull %_1.val1.i30.i, i64 noundef %39, i64 noundef range(i64 1, -9223372036854775807) 1) #19, !dbg !2599, !noalias !2600
  br label %_ZN15find_msvc_tools10find_tools5impl_21find_msvc_environment17hfdfb923d70c11458E.exit, !dbg !2601

bb3.i26.i:                                        ; preds = %bb7.i
  call void @llvm.experimental.noalias.scope.decl(metadata !2602), !dbg !2587
    #dbg_value(ptr %12, !849, !DIExpression(), !2605)
  call void @llvm.experimental.noalias.scope.decl(metadata !2607), !dbg !2610
    #dbg_value(ptr %12, !859, !DIExpression(), !2611)
    #dbg_value(ptr %12, !2138, !DIExpression(), !2613)
    #dbg_value(i64 1, !869, !DIExpression(), !2615)
    #dbg_value(i8 1, !878, !DIExpression(), !2615)
    #dbg_value(i64 1, !881, !DIExpression(), !2617)
    #dbg_value(i8 1, !888, !DIExpression(), !2617)
    #dbg_value(i8 2, !893, !DIExpression(), !2619)
  %_10.0.i.i.i27.i = load ptr, ptr %12, align 8, !dbg !2621, !alias.scope !2623, !noalias !1971, !nonnull !15, !noundef !15
    #dbg_value(ptr %_10.0.i.i.i27.i, !877, !DIExpression(), !2615)
    #dbg_value(ptr %_10.0.i.i.i27.i, !887, !DIExpression(), !2617)
  %40 = atomicrmw sub ptr %_10.0.i.i.i27.i, i64 1 release, align 8, !dbg !2624, !noalias !2625
  %41 = icmp eq i64 %40, 1, !dbg !2626
  br i1 %41, label %bb2.i.i.i28.i, label %_ZN15find_msvc_tools10find_tools5impl_21find_msvc_environment17hfdfb923d70c11458E.exit, !dbg !2626

bb2.i.i.i28.i:                                    ; preds = %bb3.i26.i
  fence acquire, !dbg !2627
; call alloc::sync::Arc<T,A>::drop_slow
  call void @"_ZN5alloc4sync16Arc$LT$T$C$A$GT$9drop_slow17hbf12b01ed7716fa7E"(ptr noalias noundef nonnull readonly align 8 dereferenceable(16) %12), !dbg !2628, !noalias !2039
  br label %_ZN15find_msvc_tools10find_tools5impl_21find_msvc_environment17hfdfb923d70c11458E.exit, !dbg !2628

_ZN15find_msvc_tools10find_tools5impl_21find_msvc_environment17hfdfb923d70c11458E.exit.thread: ; preds = %bb14.i, %bb16.i
  call void @llvm.lifetime.end.p0(i64 24, ptr nonnull %vc_install_dir.i), !dbg !2050, !noalias !1971
  call void @llvm.lifetime.end.p0(i64 16, ptr nonnull %tool.i), !dbg !2629
    #dbg_value(ptr undef, !1676, !DIExpression(DW_OP_LLVM_fragment, 0, 64), !1692)
    #dbg_value(ptr undef, !1676, !DIExpression(DW_OP_LLVM_fragment, 64, 64), !1692)
    #dbg_value(ptr undef, !1676, !DIExpression(DW_OP_LLVM_fragment, 128, 64), !1692)
    #dbg_declare(ptr %_17, !1689, !DIExpression(), !2630)
    #dbg_declare(ptr %_17, !1690, !DIExpression(), !2631)
  br label %"_ZN4core3ptr76drop_in_place$LT$core..option..Option$LT$find_msvc_tools..tool..Tool$GT$$GT$17h54a023de06999109E.exit3.i13", !dbg !2632

_ZN15find_msvc_tools10find_tools5impl_21find_msvc_environment17hfdfb923d70c11458E.exit: ; preds = %bb2.i.i.i4.i.i.i.i.i, %bb3.i.i, %bb2.i.i.i.i, %bb7.i, %bb2.i.i.i4.i.i.i.i29.i, %bb3.i26.i, %bb2.i.i.i28.i
  %.pr = load i64, ptr %_17, align 8, !dbg !2633, !alias.scope !2634, !noalias !2637
  call void @llvm.lifetime.end.p0(i64 24, ptr nonnull %vc_install_dir.i), !dbg !2050, !noalias !1971
  call void @llvm.lifetime.end.p0(i64 16, ptr nonnull %tool.i), !dbg !2629
    #dbg_value(ptr undef, !1676, !DIExpression(DW_OP_LLVM_fragment, 0, 64), !1692)
    #dbg_value(ptr undef, !1676, !DIExpression(DW_OP_LLVM_fragment, 64, 64), !1692)
    #dbg_value(ptr undef, !1676, !DIExpression(DW_OP_LLVM_fragment, 128, 64), !1692)
    #dbg_declare(ptr %_17, !1689, !DIExpression(), !2630)
    #dbg_declare(ptr %_17, !1690, !DIExpression(), !2631)
  %.not.i7 = icmp eq i64 %.pr, -9223372036854775808, !dbg !2633
  br i1 %.not.i7, label %"_ZN4core3ptr76drop_in_place$LT$core..option..Option$LT$find_msvc_tools..tool..Tool$GT$$GT$17h54a023de06999109E.exit3.i13", label %bb3.i11, !dbg !2632

bb3.i11:                                          ; preds = %_ZN15find_msvc_tools10find_tools5impl_21find_msvc_environment17hfdfb923d70c11458E.exit
    #dbg_value(i64 %.pr, !1640, !DIExpression(DW_OP_LLVM_fragment, 0, 64), !1694)
    #dbg_value(i64 %.pr, !1622, !DIExpression(DW_OP_LLVM_fragment, 0, 64), !2639)
  %_16.sroa.6.0._17.sroa_idx = getelementptr inbounds nuw i8, ptr %_17, i64 8, !dbg !2640
  %_16.sroa.6.0._0.sroa_idx = getelementptr inbounds nuw i8, ptr %_0, i64 8, !dbg !2641
  call void @llvm.memcpy.p0.p0.i64(ptr noundef nonnull align 8 dereferenceable(48) %_16.sroa.6.0._0.sroa_idx, ptr noundef nonnull align 8 dereferenceable(48) %_16.sroa.6.0._17.sroa_idx, i64 48, i1 false), !dbg !2640
  call void @llvm.lifetime.end.p0(i64 56, ptr nonnull %_17), !dbg !2642
    #dbg_value(ptr undef, !1641, !DIExpression(DW_OP_LLVM_fragment, 0, 64), !1694)
    #dbg_value(ptr undef, !1641, !DIExpression(DW_OP_LLVM_fragment, 64, 64), !1694)
    #dbg_value(ptr undef, !1641, !DIExpression(DW_OP_LLVM_fragment, 128, 64), !1694)
  br label %"_ZN4core6option15Option$LT$T$GT$7or_else17h221a3b9a06739028E.exit", !dbg !2643

"_ZN4core3ptr76drop_in_place$LT$core..option..Option$LT$find_msvc_tools..tool..Tool$GT$$GT$17h54a023de06999109E.exit3.i13": ; preds = %_ZN15find_msvc_tools10find_tools5impl_21find_msvc_environment17hfdfb923d70c11458E.exit.thread, %_ZN15find_msvc_tools10find_tools5impl_21find_msvc_environment17hfdfb923d70c11458E.exit
    #dbg_value(i64 -9223372036854775808, !1622, !DIExpression(DW_OP_LLVM_fragment, 0, 64), !2639)
    #dbg_value(i64 -9223372036854775808, !1640, !DIExpression(DW_OP_LLVM_fragment, 0, 64), !1694)
  call void @llvm.lifetime.end.p0(i64 56, ptr nonnull %_17), !dbg !2642
    #dbg_value(ptr undef, !1641, !DIExpression(DW_OP_LLVM_fragment, 0, 64), !1694)
    #dbg_value(ptr undef, !1641, !DIExpression(DW_OP_LLVM_fragment, 64, 64), !1694)
    #dbg_value(ptr undef, !1641, !DIExpression(DW_OP_LLVM_fragment, 128, 64), !1694)
    #dbg_declare(ptr poison, !2644, !DIExpression(DW_OP_deref), !2651)
    #dbg_declare(ptr poison, !2649, !DIExpression(DW_OP_plus_uconst, 8, DW_OP_deref), !2653)
    #dbg_declare(ptr poison, !2650, !DIExpression(DW_OP_plus_uconst, 16, DW_OP_deref), !2654)
    #dbg_value(ptr poison, !2655, !DIExpression(DW_OP_LLVM_fragment, 0, 64), !2659)
    #dbg_value(i64 poison, !2655, !DIExpression(DW_OP_LLVM_fragment, 64, 64), !2659)
    #dbg_value(i8 poison, !2658, !DIExpression(), !2659)
  br label %"_ZN4core6option15Option$LT$T$GT$7or_else17h221a3b9a06739028E.exit", !dbg !2643

"_ZN4core6option15Option$LT$T$GT$7or_else17h221a3b9a06739028E.exit": ; preds = %bb3.i11, %"_ZN4core3ptr76drop_in_place$LT$core..option..Option$LT$find_msvc_tools..tool..Tool$GT$$GT$17h54a023de06999109E.exit3.i13"
  %.pr.sink = phi i64 [ %.pr, %bb3.i11 ], [ -9223372036854775808, %"_ZN4core3ptr76drop_in_place$LT$core..option..Option$LT$find_msvc_tools..tool..Tool$GT$$GT$17h54a023de06999109E.exit3.i13" ]
  store i64 %.pr.sink, ptr %_0, align 8, !dbg !1694, !alias.scope !2661
  br label %bb14, !dbg !2665

bb8:                                              ; preds = %bb1.i5.4, %bb1.i5.3, %bb1.i5.2, %bb1.i5.1, %bb1.i5.preheader
  store i64 -9223372036854775808, ptr %_0, align 8, !dbg !2666
  br label %bb14, !dbg !1962

bb14:                                             ; preds = %bb15, %bb8, %bb5, %bb3, %"_ZN4core6option15Option$LT$T$GT$7or_else17h221a3b9a06739028E.exit"
  ret void, !dbg !2665
}

; find_msvc_tools::find_tools::find
; Function Attrs: nonlazybind uwtable
define void @_ZN15find_msvc_tools10find_tools4find17hb334e0dadacd69d8E(ptr dead_on_unwind noalias noundef writable writeonly sret([200 x i8]) align 8 captures(none) dereferenceable(200) %_0, ptr noalias noundef nonnull readonly align 1 captures(address, read_provenance) %arch_or_target.0, i64 noundef %arch_or_target.1, ptr noalias noundef nonnull readonly align 1 captures(address, read_provenance) %tool.0, i64 noundef %tool.1) unnamed_addr #0 personality ptr @rust_eh_personality !dbg !2667 {
start:
  %cmd.i.i = alloca [200 x i8], align 8
  %_6.i.i = alloca [104 x i8], align 8
  %self.i.i = alloca [24 x i8], align 8
  %_7 = alloca [56 x i8], align 8
  %_6 = alloca [200 x i8], align 8
  %self = alloca [56 x i8], align 8
    #dbg_value(ptr %arch_or_target.0, !3014, !DIExpression(DW_OP_LLVM_fragment, 0, 64), !3016)
    #dbg_value(i64 %arch_or_target.1, !3014, !DIExpression(DW_OP_LLVM_fragment, 64, 64), !3016)
    #dbg_value(ptr %tool.0, !3015, !DIExpression(DW_OP_LLVM_fragment, 0, 64), !3016)
    #dbg_value(i64 %tool.1, !3015, !DIExpression(DW_OP_LLVM_fragment, 64, 64), !3016)
    #dbg_declare(ptr %self, !3017, !DIExpression(), !3031)
    #dbg_declare(ptr poison, !3029, !DIExpression(), !3033)
    #dbg_declare(ptr poison, !3028, !DIExpression(), !3034)
  call void @llvm.lifetime.start.p0(i64 56, ptr nonnull %self), !dbg !3035
    #dbg_value(ptr %arch_or_target.0, !3036, !DIExpression(DW_OP_LLVM_fragment, 0, 64), !3047)
    #dbg_value(i64 %arch_or_target.1, !3036, !DIExpression(DW_OP_LLVM_fragment, 64, 64), !3047)
    #dbg_value(ptr %tool.0, !3041, !DIExpression(DW_OP_LLVM_fragment, 0, 64), !3047)
    #dbg_value(i64 %tool.1, !3041, !DIExpression(DW_OP_LLVM_fragment, 64, 64), !3047)
    #dbg_value(ptr @alloc_0b31f4562230d243936ff2637ae71e88, !3049, !DIExpression(DW_OP_LLVM_fragment, 0, 64), !3053)
    #dbg_value(i64 4, !3049, !DIExpression(DW_OP_LLVM_fragment, 64, 64), !3053)
    #dbg_value(ptr %arch_or_target.0, !3055, !DIExpression(DW_OP_LLVM_fragment, 0, 64), !3089)
    #dbg_value(ptr %arch_or_target.0, !3091, !DIExpression(DW_OP_LLVM_fragment, 0, 64), !3112)
    #dbg_value(ptr %arch_or_target.0, !3134, !DIExpression(DW_OP_LLVM_fragment, 0, 64), !3145)
    #dbg_value(ptr %arch_or_target.0, !3147, !DIExpression(DW_OP_LLVM_fragment, 0, 64), !3156)
    #dbg_value(ptr %arch_or_target.0, !3091, !DIExpression(DW_OP_LLVM_fragment, 0, 64), !3159)
    #dbg_value(i64 %arch_or_target.1, !3055, !DIExpression(DW_OP_LLVM_fragment, 64, 64), !3089)
    #dbg_value(i64 %arch_or_target.1, !3091, !DIExpression(DW_OP_LLVM_fragment, 64, 64), !3112)
    #dbg_value(i64 %arch_or_target.1, !3134, !DIExpression(DW_OP_LLVM_fragment, 64, 64), !3145)
    #dbg_value(i64 %arch_or_target.1, !3147, !DIExpression(DW_OP_LLVM_fragment, 64, 64), !3156)
    #dbg_value(i64 %arch_or_target.1, !3091, !DIExpression(DW_OP_LLVM_fragment, 64, 64), !3159)
    #dbg_value(ptr @alloc_3bb2650aa074fcfb8c10a9c40791bfbc, !3077, !DIExpression(DW_OP_LLVM_fragment, 0, 64), !3089)
    #dbg_value(i64 1, !3077, !DIExpression(DW_OP_LLVM_fragment, 64, 64), !3089)
    #dbg_declare(ptr %self.i.i, !3161, !DIExpression(), !3196)
    #dbg_value(i64 0, !3103, !DIExpression(DW_OP_LLVM_fragment, 0, 64), !3112)
    #dbg_value(i64 0, !3198, !DIExpression(), !3205)
  call void @llvm.lifetime.start.p0(i64 24, ptr nonnull %self.i.i), !dbg !3207, !noalias !3208
  call void @llvm.lifetime.start.p0(i64 104, ptr nonnull %_6.i.i), !dbg !3207, !noalias !3208
    #dbg_value(ptr @alloc_3bb2650aa074fcfb8c10a9c40791bfbc, !3216, !DIExpression(DW_OP_LLVM_fragment, 0, 64), !3260)
    #dbg_value(i64 1, !3216, !DIExpression(DW_OP_LLVM_fragment, 64, 64), !3260)
    #dbg_value(ptr %arch_or_target.0, !3259, !DIExpression(DW_OP_LLVM_fragment, 0, 64), !3260)
    #dbg_value(i64 %arch_or_target.1, !3259, !DIExpression(DW_OP_LLVM_fragment, 64, 64), !3260)
; call core::str::pattern::StrSearcher::new
  call void @_ZN4core3str7pattern11StrSearcher3new17h53f2c5adf0926cf2E(ptr noalias noundef nonnull sret([104 x i8]) align 8 captures(address) dereferenceable(104) %_6.i.i, ptr noalias noundef nonnull readonly align 1 captures(address, read_provenance) %arch_or_target.0, i64 noundef %arch_or_target.1, ptr noalias noundef nonnull readonly align 1 captures(address, read_provenance) @alloc_3bb2650aa074fcfb8c10a9c40791bfbc, i64 noundef 1), !dbg !3262, !noalias !3263
; call <core::str::pattern::StrSearcher as core::str::pattern::Searcher>::next_match
  call fastcc void @"_ZN80_$LT$core..str..pattern..StrSearcher$u20$as$u20$core..str..pattern..Searcher$GT$10next_match17h154ed0f121d3153eE"(ptr noalias noundef align 8 captures(address) dereferenceable(24) %self.i.i, ptr noalias noundef align 8 dereferenceable(104) %_6.i.i), !dbg !3264, !noalias !3263
  %_10.i.i = load i64, ptr %self.i.i, align 8, !dbg !3265, !range !1262, !noalias !3208, !noundef !15
  %0 = trunc nuw i64 %_10.i.i to i1, !dbg !3266
  br i1 %0, label %bb2.i, label %"_ZN4core3str21_$LT$impl$u20$str$GT$10split_once17h2f4e4dae0e41d74cE.exit.thread.i", !dbg !3266

"_ZN4core3str21_$LT$impl$u20$str$GT$10split_once17h2f4e4dae0e41d74cE.exit.thread.i": ; preds = %start
  call void @llvm.lifetime.end.p0(i64 24, ptr nonnull %self.i.i), !dbg !3267, !noalias !3208
  call void @llvm.lifetime.end.p0(i64 104, ptr nonnull %_6.i.i), !dbg !3268, !noalias !3208
  br label %_ZN15find_msvc_tools10find_tools9find_tool17hd332079c3fb38992E.exit, !dbg !3269

bb2.i:                                            ; preds = %start
  %1 = getelementptr inbounds nuw i8, ptr %self.i.i, i64 8, !dbg !3270
  %v.0.i.i = load i64, ptr %1, align 8, !dbg !3270, !noalias !3208, !noundef !15
  %2 = getelementptr inbounds nuw i8, ptr %self.i.i, i64 16, !dbg !3270
  %v.1.i.i = load i64, ptr %2, align 8, !dbg !3270, !noalias !3208, !noundef !15
  call void @llvm.lifetime.end.p0(i64 24, ptr nonnull %self.i.i), !dbg !3267, !noalias !3208
    #dbg_value(i64 %v.0.i.i, !3078, !DIExpression(), !3271)
    #dbg_value(i64 %v.0.i.i, !3103, !DIExpression(DW_OP_LLVM_fragment, 64, 64), !3112)
    #dbg_value(i64 %v.1.i.i, !3080, !DIExpression(), !3271)
  call void @llvm.lifetime.end.p0(i64 104, ptr nonnull %_6.i.i), !dbg !3268, !noalias !3208
    #dbg_value(ptr %arch_or_target.0, !3203, !DIExpression(), !3205)
    #dbg_value(i64 %v.1.i.i, !3142, !DIExpression(), !3145)
    #dbg_value(i64 %v.1.i.i, !3153, !DIExpression(), !3156)
    #dbg_value(ptr %arch_or_target.0, !3108, !DIExpression(DW_OP_LLVM_fragment, 0, 64), !3272)
    #dbg_value(i64 %arch_or_target.1, !3108, !DIExpression(DW_OP_LLVM_fragment, 64, 64), !3272)
    #dbg_value(i64 %arch_or_target.1, !3154, !DIExpression(), !3273)
    #dbg_value(i64 %arch_or_target.1, !3103, !DIExpression(DW_OP_LLVM_fragment, 64, 64), !3159)
    #dbg_value(i64 %v.1.i.i, !3103, !DIExpression(DW_OP_LLVM_fragment, 0, 64), !3159)
    #dbg_value(i64 %v.1.i.i, !3204, !DIExpression(), !3274)
  %new_len.i.i = sub nuw i64 %arch_or_target.1, %v.1.i.i, !dbg !3277
    #dbg_value(i64 %new_len.i.i, !3110, !DIExpression(), !3278)
    #dbg_value(ptr %arch_or_target.0, !3203, !DIExpression(), !3274)
  %data.i.i = getelementptr inbounds nuw i8, ptr %arch_or_target.0, i64 %v.1.i.i, !dbg !3279
    #dbg_value(ptr %arch_or_target.0, !3044, !DIExpression(DW_OP_LLVM_fragment, 0, 64), !3280)
    #dbg_value(i64 %v.0.i.i, !3044, !DIExpression(DW_OP_LLVM_fragment, 64, 64), !3280)
    #dbg_value(ptr %data.i.i, !3046, !DIExpression(DW_OP_LLVM_fragment, 0, 64), !3280)
    #dbg_value(ptr %data.i.i, !3052, !DIExpression(DW_OP_LLVM_fragment, 0, 64), !3053)
    #dbg_value(i64 %new_len.i.i, !3046, !DIExpression(DW_OP_LLVM_fragment, 64, 64), !3280)
    #dbg_value(i64 %new_len.i.i, !3052, !DIExpression(DW_OP_LLVM_fragment, 64, 64), !3053)
; call <&str as core::str::pattern::Pattern>::is_contained_in
  %_8.i = call fastcc noundef zeroext i1 @"_ZN55_$LT$$RF$str$u20$as$u20$core..str..pattern..Pattern$GT$15is_contained_in17h33bb93430b08c5ceE"(ptr noalias noundef nonnull readonly align 1 captures(address, read_provenance) @alloc_0b31f4562230d243936ff2637ae71e88, i64 noundef 4, ptr noalias noundef nonnull readonly align 1 captures(address, read_provenance) %data.i.i, i64 noundef %new_len.i.i), !dbg !3281, !noalias !3282
  br i1 %_8.i, label %_ZN15find_msvc_tools10find_tools9find_tool17hd332079c3fb38992E.exit, label %_ZN15find_msvc_tools10find_tools9find_tool17hd332079c3fb38992E.exit.thread, !dbg !3283

_ZN15find_msvc_tools10find_tools9find_tool17hd332079c3fb38992E.exit.thread: ; preds = %bb2.i
  br label %bb4, !dbg !3284

_ZN15find_msvc_tools10find_tools9find_tool17hd332079c3fb38992E.exit: ; preds = %"_ZN4core3str21_$LT$impl$u20$str$GT$10split_once17h2f4e4dae0e41d74cE.exit.thread.i", %bb2.i
  %full_arch.sroa.6.0.i = phi i64 [ %v.0.i.i, %bb2.i ], [ %arch_or_target.1, %"_ZN4core3str21_$LT$impl$u20$str$GT$10split_once17h2f4e4dae0e41d74cE.exit.thread.i" ], !dbg !3047
    #dbg_value(ptr %arch_or_target.0, !3042, !DIExpression(DW_OP_LLVM_fragment, 0, 64), !3285)
    #dbg_value(i64 %full_arch.sroa.6.0.i, !3042, !DIExpression(DW_OP_LLVM_fragment, 64, 64), !3285)
; call find_msvc_tools::find_tools::find_tool_with_env
  call void @_ZN15find_msvc_tools10find_tools18find_tool_with_env17h90d4fb796ce5f272E(ptr noalias noundef nonnull sret([56 x i8]) align 8 captures(address) dereferenceable(56) %self, ptr noalias noundef nonnull readonly align 1 captures(address, read_provenance) %arch_or_target.0, i64 noundef %full_arch.sroa.6.0.i, ptr noalias noundef nonnull readonly align 1 captures(address, read_provenance) %tool.0, i64 noundef %tool.1, ptr noundef nonnull align 1 inttoptr (i64 1 to ptr), ptr noalias noundef readonly align 8 captures(address, read_provenance) dereferenceable(32) @vtable.0), !dbg !3286
  %.pr = load i64, ptr %self, align 8, !dbg !3287
  %.not = icmp eq i64 %.pr, -9223372036854775808, !dbg !3287
  br i1 %.not, label %bb4, label %bb5, !dbg !3284

bb5:                                              ; preds = %_ZN15find_msvc_tools10find_tools9find_tool17hd332079c3fb38992E.exit
  call void @llvm.lifetime.start.p0(i64 56, ptr nonnull %_7), !dbg !3288
  call void @llvm.memcpy.p0.p0.i64(ptr noundef nonnull align 8 dereferenceable(56) %_7, ptr noundef nonnull align 8 dereferenceable(56) %self, i64 56, i1 false), !dbg !3289
  call void @llvm.lifetime.start.p0(i64 200, ptr nonnull %_6), !dbg !3288
  call void @llvm.experimental.noalias.scope.decl(metadata !3290), !dbg !3288
    #dbg_declare(ptr poison, !3293, !DIExpression(), !3299)
    #dbg_declare(ptr %_7, !3298, !DIExpression(), !3301)
  call void @llvm.experimental.noalias.scope.decl(metadata !3302), !dbg !3305
    #dbg_value(ptr poison, !3306, !DIExpression(), !3318)
    #dbg_value(ptr poison, !3317, !DIExpression(), !3318)
    #dbg_value(ptr poison, !3347, !DIExpression(), !3370)
    #dbg_value(ptr %_7, !3363, !DIExpression(), !3371)
    #dbg_declare(ptr %cmd.i.i, !3364, !DIExpression(), !3372)
    #dbg_value(i64 1, !3373, !DIExpression(), !3380)
  call void @llvm.lifetime.start.p0(i64 200, ptr nonnull %cmd.i.i), !dbg !3382, !noalias !3383
    #dbg_value(ptr %_7, !3386, !DIExpression(), !3396)
    #dbg_value(ptr poison, !3398, !DIExpression(), !3409)
  %3 = getelementptr inbounds nuw i8, ptr %_7, i64 8, !dbg !3411
  %_2.val.i.i.i.i = load ptr, ptr %3, align 8, !dbg !3411, !alias.scope !3412, !noalias !3415, !nonnull !15, !noundef !15
  %4 = getelementptr inbounds nuw i8, ptr %_7, i64 16, !dbg !3411
  %_2.val1.i.i.i.i = load i64, ptr %4, align 8, !dbg !3411, !alias.scope !3412, !noalias !3415, !noundef !15
; invoke std::sys::process::unix::common::Command::new
  invoke void @_ZN3std3sys7process4unix6common7Command3new17hd085411f617aeca8E(ptr noalias noundef nonnull sret([200 x i8]) align 8 captures(address) dereferenceable(200) %cmd.i.i, ptr noalias noundef nonnull readonly align 1 captures(address, read_provenance) %_2.val.i.i.i.i, i64 noundef %_2.val1.i.i.i.i)
          to label %.noexc.i unwind label %cleanup.i, !dbg !3417, !noalias !3418

.noexc.i:                                         ; preds = %bb5
    #dbg_value(ptr %_7, !3419, !DIExpression(DW_OP_plus_uconst, 24, DW_OP_stack_value), !3431)
    #dbg_value(ptr %_7, !3433, !DIExpression(DW_OP_plus_uconst, 24, DW_OP_stack_value), !3437)
    #dbg_value(ptr %_7, !3439, !DIExpression(DW_OP_plus_uconst, 24, DW_OP_stack_value), !3445)
  %5 = getelementptr inbounds nuw i8, ptr %_7, i64 32, !dbg !3447
  %_17.i.i = load ptr, ptr %5, align 8, !dbg !3447, !alias.scope !3466, !noalias !3467, !nonnull !15, !noundef !15
  %6 = getelementptr inbounds nuw i8, ptr %_7, i64 40, !dbg !3468
  %len.i.i = load i64, ptr %6, align 8, !dbg !3468, !alias.scope !3466, !noalias !3467, !noundef !15
    #dbg_value(i64 %len.i.i, !3469, !DIExpression(), !3486)
    #dbg_value(i64 %len.i.i, !3494, !DIExpression(), !3503)
    #dbg_value(ptr %_17.i.i, !3492, !DIExpression(DW_OP_LLVM_fragment, 0, 64), !3505)
    #dbg_value(ptr %_17.i.i, !3477, !DIExpression(DW_OP_LLVM_fragment, 0, 64), !3506)
    #dbg_value(i64 %len.i.i, !3492, !DIExpression(DW_OP_LLVM_fragment, 64, 64), !3505)
    #dbg_value(i64 %len.i.i, !3477, !DIExpression(DW_OP_LLVM_fragment, 64, 64), !3506)
    #dbg_value(ptr %_17.i.i, !3482, !DIExpression(), !3507)
    #dbg_value(ptr %_17.i.i, !3502, !DIExpression(), !3503)
  %_21.idx.i.i = mul nuw nsw i64 %len.i.i, 48, !dbg !3508
  %_21.i.i = getelementptr inbounds nuw i8, ptr %_17.i.i, i64 %_21.idx.i.i, !dbg !3508
    #dbg_value(ptr %_17.i.i, !3365, !DIExpression(DW_OP_LLVM_fragment, 0, 64), !3509)
    #dbg_value(ptr %_21.i.i, !3365, !DIExpression(DW_OP_LLVM_fragment, 64, 64), !3509)
    #dbg_value(ptr undef, !3347, !DIExpression(), !3370)
    #dbg_value(ptr %_17.i.i, !3348, !DIExpression(), !3510)
    #dbg_value(ptr %_17.i.i, !3379, !DIExpression(), !3380)
    #dbg_value(ptr %_21.i.i, !3349, !DIExpression(), !3511)
    #dbg_value(ptr undef, !3317, !DIExpression(), !3318)
    #dbg_value(ptr undef, !3306, !DIExpression(), !3318)
  %_2712.i.i = icmp eq i64 %len.i.i, 0, !dbg !3512
  br i1 %_2712.i.i, label %"_ZN15find_msvc_tools10find_tools4find28_$u7b$$u7b$closure$u7d$$u7d$17h087b6883e13f2befE.exit", label %bb7.lr.ph.i.i, !dbg !3513

bb7.lr.ph.i.i:                                    ; preds = %.noexc.i
  %_5.i.i.i = getelementptr inbounds nuw i8, ptr %cmd.i.i, i64 96
  br label %bb7.i.i, !dbg !3513

bb7.i.i:                                          ; preds = %bb3.i.i, %bb7.lr.ph.i.i
  %iter.sroa.0.013.i.i = phi ptr [ %_17.i.i, %bb7.lr.ph.i.i ], [ %_37.i.i, %bb3.i.i ]
    #dbg_value(ptr %iter.sroa.0.013.i.i, !3365, !DIExpression(DW_OP_plus_uconst, 48, DW_OP_stack_value, DW_OP_LLVM_fragment, 0, 64), !3509)
    #dbg_value(ptr %iter.sroa.0.013.i.i, !3366, !DIExpression(), !3514)
    #dbg_value(ptr %iter.sroa.0.013.i.i, !3368, !DIExpression(DW_OP_plus_uconst, 24, DW_OP_stack_value), !3514)
  call void @llvm.experimental.noalias.scope.decl(metadata !3515), !dbg !3518
  call void @llvm.experimental.noalias.scope.decl(metadata !3519), !dbg !3518
    #dbg_value(ptr %iter.sroa.0.013.i.i, !3521, !DIExpression(), !3533)
    #dbg_value(ptr %iter.sroa.0.013.i.i, !3532, !DIExpression(DW_OP_plus_uconst, 24, DW_OP_stack_value), !3533)
    #dbg_value(ptr %cmd.i.i, !3531, !DIExpression(), !3533)
    #dbg_value(ptr poison, !3535, !DIExpression(), !3542)
  %7 = getelementptr inbounds nuw i8, ptr %iter.sroa.0.013.i.i, i64 8, !dbg !3544
  %_2.val.i.i10.i.i = load ptr, ptr %7, align 8, !dbg !3544, !alias.scope !3515, !noalias !3545, !nonnull !15, !noundef !15
  %8 = getelementptr inbounds nuw i8, ptr %iter.sroa.0.013.i.i, i64 16, !dbg !3544
  %_2.val1.i.i11.i.i = load i64, ptr %8, align 8, !dbg !3544, !alias.scope !3515, !noalias !3545, !noundef !15
    #dbg_value(ptr poison, !3535, !DIExpression(), !3547)
  %9 = getelementptr inbounds nuw i8, ptr %iter.sroa.0.013.i.i, i64 32, !dbg !3549
  %_2.val.i2.i.i.i = load ptr, ptr %9, align 8, !dbg !3549, !alias.scope !3519, !noalias !3550, !nonnull !15, !noundef !15
  %10 = getelementptr inbounds nuw i8, ptr %iter.sroa.0.013.i.i, i64 40, !dbg !3549
  %_2.val1.i3.i.i.i = load i64, ptr %10, align 8, !dbg !3549, !alias.scope !3519, !noalias !3550, !noundef !15
; invoke std::sys::process::env::CommandEnv::set
  invoke void @_ZN3std3sys7process3env10CommandEnv3set17hfa04cebfa582fe1bE(ptr noalias noundef nonnull align 8 dereferenceable(32) %_5.i.i.i, ptr noalias noundef nonnull readonly align 1 captures(address, read_provenance) %_2.val.i.i10.i.i, i64 noundef %_2.val1.i.i11.i.i, ptr noalias noundef nonnull readonly align 1 captures(address, read_provenance) %_2.val.i2.i.i.i, i64 noundef %_2.val1.i3.i.i.i)
          to label %bb3.i.i unwind label %cleanup.i.i, !dbg !3551, !noalias !3383

cleanup.i.i:                                      ; preds = %bb7.i.i
  %11 = landingpad { ptr, i32 }
          cleanup
; invoke core::ptr::drop_in_place<std::process::Command>
  invoke fastcc void @"_ZN4core3ptr42drop_in_place$LT$std..process..Command$GT$17he542d218c43c328fE"(ptr noalias noundef align 8 dereferenceable(200) %cmd.i.i) #21
          to label %cleanup.body.i unwind label %terminate.i.i, !dbg !3552, !noalias !3383

bb3.i.i:                                          ; preds = %bb7.i.i
  %_37.i.i = getelementptr inbounds nuw i8, ptr %iter.sroa.0.013.i.i, i64 48, !dbg !3553
    #dbg_value(ptr %_37.i.i, !3365, !DIExpression(DW_OP_LLVM_fragment, 0, 64), !3509)
    #dbg_value(ptr undef, !3347, !DIExpression(), !3370)
    #dbg_value(ptr %_37.i.i, !3348, !DIExpression(), !3510)
    #dbg_value(ptr %_37.i.i, !3379, !DIExpression(), !3380)
    #dbg_value(ptr %_21.i.i, !3349, !DIExpression(), !3511)
    #dbg_value(ptr undef, !3317, !DIExpression(), !3318)
    #dbg_value(ptr undef, !3306, !DIExpression(), !3318)
  %_27.i.i = icmp eq ptr %_37.i.i, %_21.i.i, !dbg !3512
  br i1 %_27.i.i, label %"_ZN15find_msvc_tools10find_tools4find28_$u7b$$u7b$closure$u7d$$u7d$17h087b6883e13f2befE.exit", label %bb7.i.i, !dbg !3513

terminate.i.i:                                    ; preds = %cleanup.i.i
  %12 = landingpad { ptr, i32 }
          filter [0 x ptr] zeroinitializer
; call core::panicking::panic_in_cleanup
  call void @_ZN4core9panicking16panic_in_cleanup17h8f68387bb6cbbf54E() #22, !dbg !3554, !noalias !3383
  unreachable, !dbg !3554

cleanup.i:                                        ; preds = %bb5
  %13 = landingpad { ptr, i32 }
          cleanup
  br label %cleanup.body.i, !dbg !3555

cleanup.body.i:                                   ; preds = %cleanup.i, %cleanup.i.i
  %eh.lpad-body.i = phi { ptr, i32 } [ %13, %cleanup.i ], [ %11, %cleanup.i.i ]
; call core::ptr::drop_in_place<find_msvc_tools::tool::Tool>
  call fastcc void @"_ZN4core3ptr48drop_in_place$LT$find_msvc_tools..tool..Tool$GT$17h0362b84bcf86fde4E"(ptr noalias noundef nonnull readonly align 8 dereferenceable(56) %self) #21, !dbg !3555
  resume { ptr, i32 } %eh.lpad-body.i, !dbg !3299

"_ZN15find_msvc_tools10find_tools4find28_$u7b$$u7b$closure$u7d$$u7d$17h087b6883e13f2befE.exit": ; preds = %bb3.i.i, %.noexc.i
  call void @llvm.memcpy.p0.p0.i64(ptr noundef nonnull align 8 dereferenceable(200) %_6, ptr noundef nonnull align 8 dereferenceable(200) %cmd.i.i, i64 200, i1 false), !dbg !3556, !noalias !3466
  call void @llvm.lifetime.end.p0(i64 200, ptr nonnull %cmd.i.i), !dbg !3552, !noalias !3383
  call void @llvm.experimental.noalias.scope.decl(metadata !3557), !dbg !3555
    #dbg_value(ptr %_7, !3560, !DIExpression(), !3566)
  %_1.val.i = load i64, ptr %_7, align 8, !dbg !3568, !alias.scope !3557, !noalias !3569
    #dbg_value(ptr poison, !3570, !DIExpression(), !3577)
    #dbg_value(ptr poison, !2118, !DIExpression(), !3579)
    #dbg_value(ptr poison, !2109, !DIExpression(), !3581)
    #dbg_value(ptr poison, !1353, !DIExpression(), !3583)
    #dbg_value(ptr poison, !1363, !DIExpression(), !3585)
    #dbg_value(ptr poison, !1373, !DIExpression(), !3587)
    #dbg_value(ptr poison, !1382, !DIExpression(), !3589)
    #dbg_value(i64 1, !1389, !DIExpression(DW_OP_LLVM_fragment, 0, 64), !3589)
    #dbg_value(i64 1, !1389, !DIExpression(DW_OP_LLVM_fragment, 64, 64), !3589)
    #dbg_value(i64 1, !1395, !DIExpression(DW_OP_LLVM_fragment, 0, 64), !3591)
    #dbg_value(i64 1, !1395, !DIExpression(DW_OP_LLVM_fragment, 64, 64), !3591)
    #dbg_value(ptr poison, !1419, !DIExpression(), !3591)
  %14 = icmp eq i64 %_1.val.i, 0, !dbg !3593
  br i1 %14, label %bb4.i1, label %bb2.i.i.i4.i.i.i.i.i, !dbg !3593

bb2.i.i.i4.i.i.i.i.i:                             ; preds = %"_ZN15find_msvc_tools10find_tools4find28_$u7b$$u7b$closure$u7d$$u7d$17h087b6883e13f2befE.exit"
    #dbg_value(ptr %_2.val.i.i.i.i, !1390, !DIExpression(), !3594)
    #dbg_value(i64 1, !1392, !DIExpression(DW_OP_LLVM_fragment, 0, 64), !3594)
    #dbg_value(i64 %_1.val.i, !1392, !DIExpression(DW_OP_LLVM_fragment, 64, 64), !3594)
    #dbg_value(i64 1, !1428, !DIExpression(DW_OP_LLVM_fragment, 0, 64), !3595)
    #dbg_value(i64 %_1.val.i, !1428, !DIExpression(DW_OP_LLVM_fragment, 64, 64), !3595)
    #dbg_value(ptr poison, !1433, !DIExpression(), !3595)
    #dbg_value(ptr %_2.val.i.i.i.i, !1434, !DIExpression(), !3595)
    #dbg_value(ptr %_2.val.i.i.i.i, !1437, !DIExpression(), !3597)
    #dbg_value(i64 1, !1442, !DIExpression(DW_OP_LLVM_fragment, 0, 64), !3597)
    #dbg_value(i64 %_1.val.i, !1442, !DIExpression(DW_OP_LLVM_fragment, 64, 64), !3597)
; call __rustc::__rust_dealloc
  call void @_RNvCsj3IbkTTFM3W_7___rustc14___rust_dealloc(ptr noundef nonnull %_2.val.i.i.i.i, i64 noundef %_1.val.i, i64 noundef range(i64 1, -9223372036854775807) 1) #19, !dbg !3599, !noalias !3600
  br label %bb4.i1, !dbg !3601

bb4.i1:                                           ; preds = %bb2.i.i.i4.i.i.i.i.i, %"_ZN15find_msvc_tools10find_tools4find28_$u7b$$u7b$closure$u7d$$u7d$17h087b6883e13f2befE.exit"
  %15 = getelementptr inbounds nuw i8, ptr %_7, i64 24, !dbg !3568
  call void @llvm.experimental.noalias.scope.decl(metadata !3602), !dbg !3568, !noalias !3569
    #dbg_value(ptr %15, !3605, !DIExpression(), !3613)
    #dbg_value(ptr poison, !3615, !DIExpression(), !3622)
  call void @llvm.experimental.noalias.scope.decl(metadata !3624), !dbg !3627, !noalias !3569
    #dbg_value(ptr %_17.i.i, !3628, !DIExpression(DW_OP_LLVM_fragment, 0, 64), !3637)
    #dbg_value(i64 %len.i.i, !3628, !DIExpression(DW_OP_LLVM_fragment, 64, 64), !3637)
  br i1 %_2712.i.i, label %bb4.i.i, label %bb5.i.i.i.i, !dbg !3639

bb5.i.i.i.i:                                      ; preds = %bb4.i1, %"_ZN4core3ptr84drop_in_place$LT$$LP$std..ffi..os_str..OsString$C$std..ffi..os_str..OsString$RP$$GT$17hea1d70f32df32a83E.exit.i.i.i.i"
  %_3.sroa.0.07.i.i.i.i = phi i64 [ %16, %"_ZN4core3ptr84drop_in_place$LT$$LP$std..ffi..os_str..OsString$C$std..ffi..os_str..OsString$RP$$GT$17hea1d70f32df32a83E.exit.i.i.i.i" ], [ 0, %bb4.i1 ]
  %_6.i.i.i.i = getelementptr inbounds nuw { %"std::ffi::os_str::OsString", %"std::ffi::os_str::OsString" }, ptr %_17.i.i, i64 %_3.sroa.0.07.i.i.i.i, !dbg !3639
  %16 = add nuw i64 %_3.sroa.0.07.i.i.i.i, 1, !dbg !3639
  call void @llvm.experimental.noalias.scope.decl(metadata !3640), !dbg !3639, !noalias !3569
    #dbg_value(ptr %_6.i.i.i.i, !3643, !DIExpression(), !3648)
  %_1.val.i.i.i.i.i = load i64, ptr %_6.i.i.i.i, align 8, !dbg !3650, !alias.scope !3651, !noalias !3652
    #dbg_value(ptr poison, !2118, !DIExpression(), !3653)
    #dbg_value(ptr poison, !2109, !DIExpression(), !3655)
    #dbg_value(ptr poison, !1353, !DIExpression(), !3657)
    #dbg_value(ptr poison, !1363, !DIExpression(), !3659)
    #dbg_value(ptr poison, !1373, !DIExpression(), !3661)
    #dbg_value(ptr poison, !1382, !DIExpression(), !3663)
    #dbg_value(i64 1, !1389, !DIExpression(DW_OP_LLVM_fragment, 0, 64), !3663)
    #dbg_value(i64 1, !1389, !DIExpression(DW_OP_LLVM_fragment, 64, 64), !3663)
    #dbg_value(i64 1, !1395, !DIExpression(DW_OP_LLVM_fragment, 0, 64), !3665)
    #dbg_value(i64 1, !1395, !DIExpression(DW_OP_LLVM_fragment, 64, 64), !3665)
    #dbg_value(ptr poison, !1419, !DIExpression(), !3665)
  %17 = icmp eq i64 %_1.val.i.i.i.i.i, 0, !dbg !3667
  br i1 %17, label %bb4.i.i.i.i.i, label %bb2.i.i.i4.i.i.i.i.i.i.i.i, !dbg !3667

bb2.i.i.i4.i.i.i.i.i.i.i.i:                       ; preds = %bb5.i.i.i.i
  %18 = getelementptr inbounds nuw i8, ptr %_6.i.i.i.i, i64 8, !dbg !3650
  %_1.val4.i.i.i.i.i = load ptr, ptr %18, align 8, !dbg !3650, !alias.scope !3651, !noalias !3652, !nonnull !15, !noundef !15
    #dbg_value(ptr %_1.val4.i.i.i.i.i, !1390, !DIExpression(), !3668)
    #dbg_value(i64 1, !1392, !DIExpression(DW_OP_LLVM_fragment, 0, 64), !3668)
    #dbg_value(i64 %_1.val.i.i.i.i.i, !1392, !DIExpression(DW_OP_LLVM_fragment, 64, 64), !3668)
    #dbg_value(i64 1, !1428, !DIExpression(DW_OP_LLVM_fragment, 0, 64), !3669)
    #dbg_value(i64 %_1.val.i.i.i.i.i, !1428, !DIExpression(DW_OP_LLVM_fragment, 64, 64), !3669)
    #dbg_value(ptr poison, !1433, !DIExpression(), !3669)
    #dbg_value(ptr %_1.val4.i.i.i.i.i, !1434, !DIExpression(), !3669)
    #dbg_value(ptr %_1.val4.i.i.i.i.i, !1437, !DIExpression(), !3671)
    #dbg_value(i64 1, !1442, !DIExpression(DW_OP_LLVM_fragment, 0, 64), !3671)
    #dbg_value(i64 %_1.val.i.i.i.i.i, !1442, !DIExpression(DW_OP_LLVM_fragment, 64, 64), !3671)
; call __rustc::__rust_dealloc
  call void @_RNvCsj3IbkTTFM3W_7___rustc14___rust_dealloc(ptr noundef nonnull %_1.val4.i.i.i.i.i, i64 noundef %_1.val.i.i.i.i.i, i64 noundef range(i64 1, -9223372036854775807) 1) #19, !dbg !3673, !noalias !3674
  br label %bb4.i.i.i.i.i, !dbg !3675

bb4.i.i.i.i.i:                                    ; preds = %bb2.i.i.i4.i.i.i.i.i.i.i.i, %bb5.i.i.i.i
  %19 = getelementptr inbounds nuw i8, ptr %_6.i.i.i.i, i64 24, !dbg !3650
  %.val2.i.i.i.i.i = load i64, ptr %19, align 8, !dbg !3650, !alias.scope !3651, !noalias !3652
    #dbg_value(ptr poison, !2118, !DIExpression(), !3676)
    #dbg_value(ptr poison, !2109, !DIExpression(), !3678)
    #dbg_value(ptr poison, !1353, !DIExpression(), !3680)
    #dbg_value(ptr poison, !1363, !DIExpression(), !3682)
    #dbg_value(ptr poison, !1373, !DIExpression(), !3684)
    #dbg_value(ptr poison, !1382, !DIExpression(), !3686)
    #dbg_value(i64 1, !1389, !DIExpression(DW_OP_LLVM_fragment, 0, 64), !3686)
    #dbg_value(i64 1, !1389, !DIExpression(DW_OP_LLVM_fragment, 64, 64), !3686)
    #dbg_value(i64 1, !1395, !DIExpression(DW_OP_LLVM_fragment, 0, 64), !3688)
    #dbg_value(i64 1, !1395, !DIExpression(DW_OP_LLVM_fragment, 64, 64), !3688)
    #dbg_value(ptr poison, !1419, !DIExpression(), !3688)
  %20 = icmp eq i64 %.val2.i.i.i.i.i, 0, !dbg !3690
  br i1 %20, label %"_ZN4core3ptr84drop_in_place$LT$$LP$std..ffi..os_str..OsString$C$std..ffi..os_str..OsString$RP$$GT$17hea1d70f32df32a83E.exit.i.i.i.i", label %bb2.i.i.i4.i.i.i7.i.i.i.i.i, !dbg !3690

bb2.i.i.i4.i.i.i7.i.i.i.i.i:                      ; preds = %bb4.i.i.i.i.i
  %21 = getelementptr inbounds nuw i8, ptr %_6.i.i.i.i, i64 32, !dbg !3650
  %.val3.i.i.i.i.i = load ptr, ptr %21, align 8, !dbg !3650, !alias.scope !3651, !noalias !3652, !nonnull !15, !noundef !15
    #dbg_value(ptr %.val3.i.i.i.i.i, !1390, !DIExpression(), !3691)
    #dbg_value(i64 1, !1392, !DIExpression(DW_OP_LLVM_fragment, 0, 64), !3691)
    #dbg_value(i64 %.val2.i.i.i.i.i, !1392, !DIExpression(DW_OP_LLVM_fragment, 64, 64), !3691)
    #dbg_value(i64 1, !1428, !DIExpression(DW_OP_LLVM_fragment, 0, 64), !3692)
    #dbg_value(i64 %.val2.i.i.i.i.i, !1428, !DIExpression(DW_OP_LLVM_fragment, 64, 64), !3692)
    #dbg_value(ptr poison, !1433, !DIExpression(), !3692)
    #dbg_value(ptr %.val3.i.i.i.i.i, !1434, !DIExpression(), !3692)
    #dbg_value(ptr %.val3.i.i.i.i.i, !1437, !DIExpression(), !3694)
    #dbg_value(i64 1, !1442, !DIExpression(DW_OP_LLVM_fragment, 0, 64), !3694)
    #dbg_value(i64 %.val2.i.i.i.i.i, !1442, !DIExpression(DW_OP_LLVM_fragment, 64, 64), !3694)
; call __rustc::__rust_dealloc
  call void @_RNvCsj3IbkTTFM3W_7___rustc14___rust_dealloc(ptr noundef nonnull %.val3.i.i.i.i.i, i64 noundef %.val2.i.i.i.i.i, i64 noundef range(i64 1, -9223372036854775807) 1) #19, !dbg !3696, !noalias !3674
  br label %"_ZN4core3ptr84drop_in_place$LT$$LP$std..ffi..os_str..OsString$C$std..ffi..os_str..OsString$RP$$GT$17hea1d70f32df32a83E.exit.i.i.i.i", !dbg !3697

"_ZN4core3ptr84drop_in_place$LT$$LP$std..ffi..os_str..OsString$C$std..ffi..os_str..OsString$RP$$GT$17hea1d70f32df32a83E.exit.i.i.i.i": ; preds = %bb2.i.i.i4.i.i.i7.i.i.i.i.i, %bb4.i.i.i.i.i
  %_7.i.i.i.i = icmp eq i64 %16, %len.i.i, !dbg !3639
  br i1 %_7.i.i.i.i, label %bb4.i.i, label %bb5.i.i.i.i, !dbg !3639

bb4.i.i:                                          ; preds = %"_ZN4core3ptr84drop_in_place$LT$$LP$std..ffi..os_str..OsString$C$std..ffi..os_str..OsString$RP$$GT$17hea1d70f32df32a83E.exit.i.i.i.i", %bb4.i1
  %_1.val4.i.i = load i64, ptr %15, align 8, !dbg !3698, !range !3699, !alias.scope !3700, !noalias !3569, !noundef !15
    #dbg_value(ptr poison, !3701, !DIExpression(), !3709)
    #dbg_value(ptr poison, !3711, !DIExpression(), !3717)
    #dbg_value(ptr poison, !1382, !DIExpression(), !3719)
    #dbg_value(i64 8, !1389, !DIExpression(DW_OP_LLVM_fragment, 0, 64), !3719)
    #dbg_value(i64 48, !1389, !DIExpression(DW_OP_LLVM_fragment, 64, 64), !3719)
    #dbg_value(i64 8, !1395, !DIExpression(DW_OP_LLVM_fragment, 0, 64), !3721)
    #dbg_value(i64 48, !1395, !DIExpression(DW_OP_LLVM_fragment, 64, 64), !3721)
    #dbg_value(ptr poison, !1419, !DIExpression(), !3721)
    #dbg_value(i64 48, !3723, !DIExpression(), !3729)
  %22 = icmp eq i64 %_1.val4.i.i, 0, !dbg !3731
  br i1 %22, label %"_ZN4core3ptr48drop_in_place$LT$find_msvc_tools..tool..Tool$GT$17h0362b84bcf86fde4E.exit", label %bb2.i.i.i6.i.i, !dbg !3731

bb2.i.i.i6.i.i:                                   ; preds = %bb4.i.i
    #dbg_value(i64 %_1.val4.i.i, !3728, !DIExpression(), !3729)
  %23 = mul nuw i64 %_1.val4.i.i, 48, !dbg !3732
    #dbg_value(ptr %_17.i.i, !1390, !DIExpression(), !3733)
    #dbg_value(i64 8, !1392, !DIExpression(DW_OP_LLVM_fragment, 0, 64), !3733)
    #dbg_value(i64 %23, !1392, !DIExpression(DW_OP_LLVM_fragment, 64, 64), !3733)
    #dbg_value(i64 8, !1428, !DIExpression(DW_OP_LLVM_fragment, 0, 64), !3734)
    #dbg_value(i64 %23, !1428, !DIExpression(DW_OP_LLVM_fragment, 64, 64), !3734)
    #dbg_value(ptr poison, !1433, !DIExpression(), !3734)
    #dbg_value(ptr %_17.i.i, !1434, !DIExpression(), !3734)
    #dbg_value(ptr %_17.i.i, !1437, !DIExpression(), !3736)
    #dbg_value(i64 8, !1442, !DIExpression(DW_OP_LLVM_fragment, 0, 64), !3736)
    #dbg_value(i64 %23, !1442, !DIExpression(DW_OP_LLVM_fragment, 64, 64), !3736)
; call __rustc::__rust_dealloc
  call void @_RNvCsj3IbkTTFM3W_7___rustc14___rust_dealloc(ptr noundef nonnull %_17.i.i, i64 noundef %23, i64 noundef range(i64 1, -9223372036854775807) 8) #19, !dbg !3738, !noalias !3652
  br label %"_ZN4core3ptr48drop_in_place$LT$find_msvc_tools..tool..Tool$GT$17h0362b84bcf86fde4E.exit", !dbg !3739

"_ZN4core3ptr48drop_in_place$LT$find_msvc_tools..tool..Tool$GT$17h0362b84bcf86fde4E.exit": ; preds = %bb4.i.i, %bb2.i.i.i6.i.i
  call void @llvm.lifetime.end.p0(i64 56, ptr nonnull %_7), !dbg !3740
  call void @llvm.memcpy.p0.p0.i64(ptr noundef nonnull align 8 dereferenceable(200) %_0, ptr noundef nonnull align 8 dereferenceable(200) %_6, i64 200, i1 false), !dbg !3741
  call void @llvm.lifetime.end.p0(i64 200, ptr nonnull %_6), !dbg !3742
  br label %bb2, !dbg !3743

bb4:                                              ; preds = %_ZN15find_msvc_tools10find_tools9find_tool17hd332079c3fb38992E.exit.thread, %_ZN15find_msvc_tools10find_tools9find_tool17hd332079c3fb38992E.exit
  store i64 -9223372036854775808, ptr %_0, align 8, !dbg !3744
  br label %bb2, !dbg !3745

bb2:                                              ; preds = %"_ZN4core3ptr48drop_in_place$LT$find_msvc_tools..tool..Tool$GT$17h0362b84bcf86fde4E.exit", %bb4
  call void @llvm.lifetime.end.p0(i64 56, ptr nonnull %self), !dbg !3746
  ret void, !dbg !3747
}

; find_msvc_tools::find_tools::impl_::find_msvc_environment::{{closure}}
; Function Attrs: inlinehint nonlazybind uwtable
define internal fastcc void @"_ZN15find_msvc_tools10find_tools5impl_21find_msvc_environment28_$u7b$$u7b$closure$u7d$$u7d$17h1cedd8d1b27b44f4E"(ptr dead_on_unwind noalias noundef nonnull writable writeonly align 8 captures(none) dereferenceable(56) %_0, ptr %_1.0.val, ptr noalias noundef nonnull readonly align 1 captures(address, read_provenance) %install_dir.0, i64 noundef %install_dir.1) unnamed_addr #1 personality ptr @rust_eh_personality !dbg !3748 {
start:
  %self.i.i.i.i.i = alloca [176 x i8], align 8
  %_7.i.i = alloca [24 x i8], align 8
  %_5.i = alloca [24 x i8], align 8
  %_5 = alloca [32 x i8], align 8
    #dbg_value(ptr poison, !3753, !DIExpression(DW_OP_deref, DW_OP_deref, DW_OP_LLVM_fragment, 0, 64), !3754)
    #dbg_value(ptr %install_dir.0, !3752, !DIExpression(DW_OP_LLVM_fragment, 0, 64), !3754)
    #dbg_value(i64 %install_dir.1, !3752, !DIExpression(DW_OP_LLVM_fragment, 64, 64), !3754)
    #dbg_declare(ptr poison, !3755, !DIExpression(), !3819)
    #dbg_declare(ptr poison, !3821, !DIExpression(), !3855)
    #dbg_declare(ptr poison, !3850, !DIExpression(), !3857)
    #dbg_declare(ptr poison, !3858, !DIExpression(), !3870)
  call void @llvm.lifetime.start.p0(i64 32, ptr nonnull %_5), !dbg !3872
    #dbg_value(ptr %install_dir.0, !3873, !DIExpression(DW_OP_LLVM_fragment, 0, 64), !3881)
    #dbg_value(i64 %install_dir.1, !3873, !DIExpression(DW_OP_LLVM_fragment, 64, 64), !3881)
    #dbg_value(i8 0, !3873, !DIExpression(DW_OP_LLVM_fragment, 128, 8), !3881)
  %0 = icmp ne ptr %_1.0.val, null
  tail call void @llvm.assume(i1 %0)
    #dbg_value(ptr %_1.0.val, !3878, !DIExpression(), !3881)
  %1 = getelementptr inbounds nuw i8, ptr %_5, i64 8, !dbg !3883
  store ptr %install_dir.0, ptr %1, align 8, !dbg !3883
  %self1.sroa.4.0..sroa_idx = getelementptr inbounds nuw i8, ptr %_5, i64 16, !dbg !3883
  store i64 %install_dir.1, ptr %self1.sroa.4.0..sroa_idx, align 8, !dbg !3883
  %self1.sroa.5.0..sroa_idx = getelementptr inbounds nuw i8, ptr %_5, i64 24, !dbg !3883
  store i8 0, ptr %self1.sroa.5.0..sroa_idx, align 8, !dbg !3883
  store ptr %_1.0.val, ptr %_5, align 8, !dbg !3883
    #dbg_value(ptr %_5, !3815, !DIExpression(), !3888)
    #dbg_value(ptr %_5, !3849, !DIExpression(), !3889)
    #dbg_value(ptr %_5, !3890, !DIExpression(), !3929)
    #dbg_value(ptr %1, !3902, !DIExpression(), !3929)
    #dbg_declare(ptr poison, !3903, !DIExpression(), !3931)
    #dbg_declare(ptr poison, !3904, !DIExpression(), !3932)
  %x.sroa.2.0._5.sroa_idx.i = getelementptr inbounds nuw i8, ptr %_5.i, i64 8
  %x.sroa.3.0._5.sroa_idx.i = getelementptr inbounds nuw i8, ptr %_5.i, i64 16
  %2 = getelementptr inbounds nuw i8, ptr %_1.0.val, i64 8
  %_5.sroa.6.0._7.sroa_idx.i.i = getelementptr inbounds nuw i8, ptr %_7.i.i, i64 8
  %_5.sroa.7.0._7.sroa_idx.i.i = getelementptr inbounds nuw i8, ptr %_7.i.i, i64 16
  %3 = getelementptr inbounds nuw i8, ptr %self.i.i.i.i.i, i64 8
  br label %bb1.i, !dbg !3933

bb1.i:                                            ; preds = %bb7.i, %start
    #dbg_value(ptr poison, !3934, !DIExpression(DW_OP_LLVM_fragment, 64, 64), !3960)
    #dbg_value(i64 poison, !3934, !DIExpression(DW_OP_LLVM_fragment, 128, 64), !3960)
  call void @llvm.lifetime.start.p0(i64 24, ptr nonnull %_5.i), !dbg !3962, !noalias !3963
; call <std::env::SplitPaths as core::iter::traits::iterator::Iterator>::next
  call void @"_ZN79_$LT$std..env..SplitPaths$u20$as$u20$core..iter..traits..iterator..Iterator$GT$4next17h004850b71f6619d4E"(ptr noalias noundef nonnull sret([24 x i8]) align 8 captures(address) dereferenceable(24) %_5.i, ptr noalias noundef nonnull align 8 dereferenceable(24) %1), !dbg !3968, !noalias !3969
  %4 = load i64, ptr %_5.i, align 8, !dbg !3962, !range !371, !noalias !3963, !noundef !15
  %.not.i = icmp eq i64 %4, -9223372036854775808, !dbg !3962
  br i1 %.not.i, label %"_ZN4core3ptr83drop_in_place$LT$core..ops..control_flow..ControlFlow$LT$std..path..PathBuf$GT$$GT$17h2f492ffc8344daeeE.exit", label %bb3.i, !dbg !3970

bb3.i:                                            ; preds = %bb1.i
    #dbg_value(i64 %4, !3906, !DIExpression(DW_OP_LLVM_fragment, 0, 64), !3971)
  %x.sroa.2.0.copyload.i = load ptr, ptr %x.sroa.2.0._5.sroa_idx.i, align 8, !dbg !3972, !noalias !3963, !nonnull !15, !noundef !15
    #dbg_value(ptr %x.sroa.2.0.copyload.i, !3906, !DIExpression(DW_OP_LLVM_fragment, 64, 64), !3971)
  %x.sroa.3.0.copyload.i = load i64, ptr %x.sroa.3.0._5.sroa_idx.i, align 8, !dbg !3972, !noalias !3963
    #dbg_value(i64 %x.sroa.3.0.copyload.i, !3906, !DIExpression(DW_OP_LLVM_fragment, 128, 64), !3971)
    #dbg_value(i64 %4, !3973, !DIExpression(DW_OP_LLVM_fragment, 0, 64), !3985)
    #dbg_value(ptr %x.sroa.2.0.copyload.i, !3973, !DIExpression(DW_OP_LLVM_fragment, 64, 64), !3985)
    #dbg_value(i64 %x.sroa.3.0.copyload.i, !3973, !DIExpression(DW_OP_LLVM_fragment, 128, 64), !3985)
    #dbg_value(ptr poison, !3981, !DIExpression(DW_OP_deref), !3985)
    #dbg_declare(ptr poison, !3979, !DIExpression(), !3987)
  call void @llvm.lifetime.start.p0(i64 24, ptr nonnull %_7.i.i), !dbg !3988, !noalias !3989
    #dbg_value(i64 %4, !3993, !DIExpression(DW_OP_LLVM_fragment, 0, 64), !3999)
    #dbg_value(ptr %x.sroa.2.0.copyload.i, !3993, !DIExpression(DW_OP_LLVM_fragment, 64, 64), !3999)
    #dbg_value(i64 %x.sroa.3.0.copyload.i, !3993, !DIExpression(DW_OP_LLVM_fragment, 128, 64), !3999)
    #dbg_value(ptr poison, !3998, !DIExpression(DW_OP_deref, DW_OP_deref, DW_OP_LLVM_fragment, 0, 64), !3999)
  %_5.0.i.i.i = load ptr, ptr %_1.0.val, align 8, !dbg !4001, !noalias !4002, !nonnull !15, !align !4006, !noundef !15
  %_5.1.i.i.i = load i64, ptr %2, align 8, !dbg !4001, !noalias !4002, !noundef !15
    #dbg_value(ptr %_5.0.i.i.i, !4007, !DIExpression(DW_OP_LLVM_fragment, 0, 64), !4022)
    #dbg_value(i64 %_5.1.i.i.i, !4007, !DIExpression(DW_OP_LLVM_fragment, 64, 64), !4022)
    #dbg_value(ptr %x.sroa.2.0.copyload.i, !4021, !DIExpression(DW_OP_LLVM_fragment, 0, 64), !4022)
    #dbg_value(i64 %x.sroa.3.0.copyload.i, !4021, !DIExpression(DW_OP_LLVM_fragment, 64, 64), !4022)
; invoke std::path::Path::_join
  invoke void @_ZN3std4path4Path5_join17h96514ed9b2766f89E(ptr noalias noundef nonnull sret([24 x i8]) align 8 captures(address) dereferenceable(24) %_7.i.i, ptr noalias noundef nonnull readonly align 1 captures(address, read_provenance) %x.sroa.2.0.copyload.i, i64 noundef %x.sroa.3.0.copyload.i, ptr noalias noundef nonnull readonly align 1 captures(address, read_provenance) %_5.0.i.i.i, i64 noundef %_5.1.i.i.i)
          to label %bb1.i.i.i unwind label %cleanup.i.i.i, !dbg !4024, !noalias !4025

cleanup.i.i.i:                                    ; preds = %bb3.i
  %5 = landingpad { ptr, i32 }
          cleanup
    #dbg_value(ptr poison, !3570, !DIExpression(), !4026)
    #dbg_value(ptr poison, !2118, !DIExpression(), !4028)
    #dbg_value(ptr poison, !2109, !DIExpression(), !4030)
    #dbg_value(ptr poison, !1353, !DIExpression(), !4032)
    #dbg_value(ptr poison, !1363, !DIExpression(), !4034)
    #dbg_value(ptr poison, !1373, !DIExpression(), !4036)
    #dbg_value(ptr poison, !1382, !DIExpression(), !4038)
    #dbg_value(i64 1, !1389, !DIExpression(DW_OP_LLVM_fragment, 0, 64), !4038)
    #dbg_value(i64 1, !1389, !DIExpression(DW_OP_LLVM_fragment, 64, 64), !4038)
    #dbg_value(i64 1, !1395, !DIExpression(DW_OP_LLVM_fragment, 0, 64), !4040)
    #dbg_value(i64 1, !1395, !DIExpression(DW_OP_LLVM_fragment, 64, 64), !4040)
    #dbg_value(ptr poison, !1419, !DIExpression(), !4040)
  %6 = icmp eq i64 %4, 0, !dbg !4042
  br i1 %6, label %common.resume.i.i, label %bb2.i.i.i4.i.i.i.i.i.i.i, !dbg !4042

bb2.i.i.i4.i.i.i.i.i.i.i:                         ; preds = %cleanup.i.i.i
    #dbg_value(ptr %x.sroa.2.0.copyload.i, !1390, !DIExpression(), !4043)
    #dbg_value(i64 1, !1392, !DIExpression(DW_OP_LLVM_fragment, 0, 64), !4043)
    #dbg_value(i64 %4, !1392, !DIExpression(DW_OP_LLVM_fragment, 64, 64), !4043)
    #dbg_value(i64 1, !1428, !DIExpression(DW_OP_LLVM_fragment, 0, 64), !4044)
    #dbg_value(i64 %4, !1428, !DIExpression(DW_OP_LLVM_fragment, 64, 64), !4044)
    #dbg_value(ptr poison, !1433, !DIExpression(), !4044)
    #dbg_value(ptr %x.sroa.2.0.copyload.i, !1434, !DIExpression(), !4044)
    #dbg_value(ptr %x.sroa.2.0.copyload.i, !1437, !DIExpression(), !4046)
    #dbg_value(i64 1, !1442, !DIExpression(DW_OP_LLVM_fragment, 0, 64), !4046)
    #dbg_value(i64 %4, !1442, !DIExpression(DW_OP_LLVM_fragment, 64, 64), !4046)
; call __rustc::__rust_dealloc
  call void @_RNvCsj3IbkTTFM3W_7___rustc14___rust_dealloc(ptr noundef nonnull %x.sroa.2.0.copyload.i, i64 noundef %4, i64 noundef range(i64 1, -9223372036854775807) 1) #19, !dbg !4048, !noalias !4002
  br label %common.resume.i.i, !dbg !4049

bb1.i.i.i:                                        ; preds = %bb3.i
    #dbg_value(ptr poison, !3570, !DIExpression(), !4050)
    #dbg_value(ptr poison, !2118, !DIExpression(), !4052)
    #dbg_value(ptr poison, !2109, !DIExpression(), !4054)
    #dbg_value(ptr poison, !1353, !DIExpression(), !4056)
    #dbg_value(ptr poison, !1363, !DIExpression(), !4058)
    #dbg_value(ptr poison, !1373, !DIExpression(), !4060)
    #dbg_value(ptr poison, !1382, !DIExpression(), !4062)
    #dbg_value(i64 1, !1389, !DIExpression(DW_OP_LLVM_fragment, 0, 64), !4062)
    #dbg_value(i64 1, !1389, !DIExpression(DW_OP_LLVM_fragment, 64, 64), !4062)
    #dbg_value(i64 1, !1395, !DIExpression(DW_OP_LLVM_fragment, 0, 64), !4064)
    #dbg_value(i64 1, !1395, !DIExpression(DW_OP_LLVM_fragment, 64, 64), !4064)
    #dbg_value(ptr poison, !1419, !DIExpression(), !4064)
  %7 = icmp eq i64 %4, 0, !dbg !4066
  br i1 %7, label %"_ZN15find_msvc_tools10find_tools5impl_21find_msvc_environment28_$u7b$$u7b$closure$u7d$$u7d$28_$u7b$$u7b$closure$u7d$$u7d$17hea19e8ae7fbbebe6E.exit.i.i", label %bb2.i.i.i4.i.i.i.i6.i.i.i, !dbg !4066

bb2.i.i.i4.i.i.i.i6.i.i.i:                        ; preds = %bb1.i.i.i
    #dbg_value(ptr %x.sroa.2.0.copyload.i, !1390, !DIExpression(), !4067)
    #dbg_value(i64 1, !1392, !DIExpression(DW_OP_LLVM_fragment, 0, 64), !4067)
    #dbg_value(i64 %4, !1392, !DIExpression(DW_OP_LLVM_fragment, 64, 64), !4067)
    #dbg_value(i64 1, !1428, !DIExpression(DW_OP_LLVM_fragment, 0, 64), !4068)
    #dbg_value(i64 %4, !1428, !DIExpression(DW_OP_LLVM_fragment, 64, 64), !4068)
    #dbg_value(ptr poison, !1433, !DIExpression(), !4068)
    #dbg_value(ptr %x.sroa.2.0.copyload.i, !1434, !DIExpression(), !4068)
    #dbg_value(ptr %x.sroa.2.0.copyload.i, !1437, !DIExpression(), !4070)
    #dbg_value(i64 1, !1442, !DIExpression(DW_OP_LLVM_fragment, 0, 64), !4070)
    #dbg_value(i64 %4, !1442, !DIExpression(DW_OP_LLVM_fragment, 64, 64), !4070)
; call __rustc::__rust_dealloc
  call void @_RNvCsj3IbkTTFM3W_7___rustc14___rust_dealloc(ptr noundef nonnull %x.sroa.2.0.copyload.i, i64 noundef %4, i64 noundef range(i64 1, -9223372036854775807) 1) #19, !dbg !4072, !noalias !4002
  br label %"_ZN15find_msvc_tools10find_tools5impl_21find_msvc_environment28_$u7b$$u7b$closure$u7d$$u7d$28_$u7b$$u7b$closure$u7d$$u7d$17hea19e8ae7fbbebe6E.exit.i.i", !dbg !4073

common.resume.i.i:                                ; preds = %bb2.i.i.i4.i.i.i.i.i2.i.i, %cleanup.body.i.i.i, %bb2.i.i.i4.i.i.i.i.i.i.i, %cleanup.i.i.i
  %common.resume.op.i.i = phi { ptr, i32 } [ %5, %bb2.i.i.i4.i.i.i.i.i.i.i ], [ %5, %cleanup.i.i.i ], [ %eh.lpad-body.i.i.i, %bb2.i.i.i4.i.i.i.i.i2.i.i ], [ %eh.lpad-body.i.i.i, %cleanup.body.i.i.i ]
  resume { ptr, i32 } %common.resume.op.i.i, !dbg !4074

"_ZN15find_msvc_tools10find_tools5impl_21find_msvc_environment28_$u7b$$u7b$closure$u7d$$u7d$28_$u7b$$u7b$closure$u7d$$u7d$17hea19e8ae7fbbebe6E.exit.i.i": ; preds = %bb2.i.i.i4.i.i.i.i6.i.i.i, %bb1.i.i.i
  %_5.sroa.0.0.copyload.i.i = load i64, ptr %_7.i.i, align 8, !dbg !4075, !noalias !3989
    #dbg_value(i64 %_5.sroa.0.0.copyload.i.i, !4076, !DIExpression(DW_OP_LLVM_fragment, 0, 64), !4086)
  %_5.sroa.6.0.copyload.i.i = load ptr, ptr %_5.sroa.6.0._7.sroa_idx.i.i, align 8, !dbg !4075, !noalias !3989, !nonnull !15, !noundef !15
    #dbg_value(ptr %_5.sroa.6.0.copyload.i.i, !4076, !DIExpression(DW_OP_LLVM_fragment, 64, 64), !4086)
  %_5.sroa.7.0.copyload.i.i = load i64, ptr %_5.sroa.7.0._7.sroa_idx.i.i, align 8, !dbg !4075, !noalias !3989
    #dbg_value(i64 %_5.sroa.7.0.copyload.i.i, !4076, !DIExpression(DW_OP_LLVM_fragment, 128, 64), !4086)
    #dbg_declare(ptr poison, !4083, !DIExpression(), !4088)
    #dbg_value(ptr poison, !4089, !DIExpression(), !4096)
    #dbg_value(ptr poison, !4095, !DIExpression(), !4096)
    #dbg_value(ptr %_5.sroa.6.0.copyload.i.i, !4098, !DIExpression(DW_OP_LLVM_fragment, 0, 64), !4108)
    #dbg_value(i64 %_5.sroa.7.0.copyload.i.i, !4098, !DIExpression(DW_OP_LLVM_fragment, 64, 64), !4108)
    #dbg_value(ptr %_5.sroa.6.0.copyload.i.i, !4110, !DIExpression(DW_OP_LLVM_fragment, 0, 64), !4252)
    #dbg_value(i64 %_5.sroa.7.0.copyload.i.i, !4110, !DIExpression(DW_OP_LLVM_fragment, 64, 64), !4252)
    #dbg_declare(ptr %self.i.i.i.i.i, !4254, !DIExpression(), !4287)
    #dbg_declare(ptr poison, !4282, !DIExpression(), !4289)
  call void @llvm.lifetime.start.p0(i64 176, ptr nonnull %self.i.i.i.i.i), !dbg !4290, !noalias !4291
; invoke std::sys::fs::metadata
  invoke void @_ZN3std3sys2fs8metadata17h955c686d31c5e8cbE(ptr noalias noundef nonnull sret([176 x i8]) align 8 captures(address) dereferenceable(176) %self.i.i.i.i.i, ptr noalias noundef nonnull readonly align 1 captures(address, read_provenance) %_5.sroa.6.0.copyload.i.i, i64 noundef %_5.sroa.7.0.copyload.i.i)
          to label %.noexc.i.i.i unwind label %cleanup.i1.i.i, !dbg !4290, !noalias !4298

.noexc.i.i.i:                                     ; preds = %"_ZN15find_msvc_tools10find_tools5impl_21find_msvc_environment28_$u7b$$u7b$closure$u7d$$u7d$28_$u7b$$u7b$closure$u7d$$u7d$17hea19e8ae7fbbebe6E.exit.i.i"
  %8 = load i64, ptr %self.i.i.i.i.i, align 8, !dbg !4299, !range !4300, !noalias !4291, !noundef !15
  %.not.i.i.i = icmp eq i64 %8, 2, !dbg !4299
  br i1 %.not.i.i.i, label %bb2.i.i.i.i.i, label %"_ZN4core4iter8adapters3map12map_try_fold28_$u7b$$u7b$closure$u7d$$u7d$17h2f82d0c40971d648E.exit.i", !dbg !4301

bb2.i.i.i.i.i:                                    ; preds = %.noexc.i.i.i
  %e.i.i.i.i.i = load ptr, ptr %3, align 8, !dbg !4302, !noalias !4291, !nonnull !15, !noundef !15
  call void @llvm.lifetime.end.p0(i64 176, ptr nonnull %self.i.i.i.i.i), !dbg !4303, !noalias !4291
    #dbg_value(ptr poison, !4304, !DIExpression(), !4312)
    #dbg_value(ptr poison, !4314, !DIExpression(), !4322)
    #dbg_value(ptr poison, !4324, !DIExpression(), !4332)
    #dbg_value(ptr poison, !4334, !DIExpression(), !4342)
    #dbg_value(ptr %e.i.i.i.i.i, !4344, !DIExpression(), !4365)
    #dbg_declare(ptr poison, !4351, !DIExpression(), !4367)
    #dbg_value(i64 1, !4368, !DIExpression(), !4375)
    #dbg_value(i64 1, !4377, !DIExpression(), !4383)
    #dbg_value(i64 -1, !4385, !DIExpression(), !4392)
    #dbg_value(ptr %e.i.i.i.i.i, !4394, !DIExpression(), !4399)
    #dbg_value(ptr %e.i.i.i.i.i, !4374, !DIExpression(), !4375)
  %9 = ptrtoint ptr %e.i.i.i.i.i to i64, !dbg !4401
    #dbg_value(i64 %9, !4352, !DIExpression(), !4402)
  %_5.i.i.i.i.i.i.i.i.i = and i64 %9, 3, !dbg !4403
  %switch.i.i.i.i.i.i.i.i = icmp eq i64 %_5.i.i.i.i.i.i.i.i.i, 1, !dbg !4404
  br i1 %switch.i.i.i.i.i.i.i.i, label %bb2.i2.i.i.i.i.i.i.i.i, label %bb3.i.i.i, !dbg !4404, !prof !4405

bb2.i2.i.i.i.i.i.i.i.i:                           ; preds = %bb2.i.i.i.i.i
    #dbg_value(ptr %e.i.i.i.i.i, !4382, !DIExpression(), !4383)
    #dbg_value(ptr %e.i.i.i.i.i, !4391, !DIExpression(), !4392)
  %10 = getelementptr i8, ptr %e.i.i.i.i.i, i64 -1, !dbg !4406
    #dbg_value(ptr poison, !4407, !DIExpression(), !4413)
  %11 = icmp ne ptr %10, null
  call void @llvm.assume(i1 %11)
    #dbg_value(ptr poison, !4415, !DIExpression(), !4423)
  %_6.val.i.i.i.i.i.i.i.i.i.i = load ptr, ptr %10, align 8, !dbg !4425, !noalias !4298
  %12 = getelementptr i8, ptr %e.i.i.i.i.i, i64 7, !dbg !4425
  %_6.val1.i.i.i.i.i.i.i.i.i.i = load ptr, ptr %12, align 8, !dbg !4425, !noalias !4298, !nonnull !15, !align !4426, !noundef !15
    #dbg_value(ptr poison, !4427, !DIExpression(), !4434)
    #dbg_value(ptr poison, !4436, !DIExpression(), !4444)
  %13 = load ptr, ptr %_6.val1.i.i.i.i.i.i.i.i.i.i, align 8, !dbg !4446, !invariant.load !15, !noalias !4298
  %.not.i.i.i.i.i.i.i.i.i.i.i.i = icmp eq ptr %13, null, !dbg !4446
  br i1 %.not.i.i.i.i.i.i.i.i.i.i.i.i, label %bb3.i.i.i.i.i.i.i.i.i.i.i.i, label %is_not_null.i.i.i.i.i.i.i.i.i.i.i.i, !dbg !4446

is_not_null.i.i.i.i.i.i.i.i.i.i.i.i:              ; preds = %bb2.i2.i.i.i.i.i.i.i.i
  %14 = icmp ne ptr %_6.val.i.i.i.i.i.i.i.i.i.i, null
  call void @llvm.assume(i1 %14)
  invoke void %13(ptr noundef nonnull %_6.val.i.i.i.i.i.i.i.i.i.i)
          to label %bb3.i.i.i.i.i.i.i.i.i.i.i.i unwind label %cleanup.i.i.i.i.i.i.i.i.i.i.i.i, !dbg !4446, !noalias !4298

bb3.i.i.i.i.i.i.i.i.i.i.i.i:                      ; preds = %is_not_null.i.i.i.i.i.i.i.i.i.i.i.i, %bb2.i2.i.i.i.i.i.i.i.i
  %15 = icmp ne ptr %_6.val.i.i.i.i.i.i.i.i.i.i, null
  call void @llvm.assume(i1 %15)
    #dbg_value(ptr poison, !4447, !DIExpression(), !4475)
    #dbg_value(ptr %_6.val.i.i.i.i.i.i.i.i.i.i, !4456, !DIExpression(DW_OP_LLVM_fragment, 0, 64), !4477)
    #dbg_value(ptr %_6.val1.i.i.i.i.i.i.i.i.i.i, !4456, !DIExpression(DW_OP_LLVM_fragment, 64, 64), !4477)
    #dbg_value(ptr %_6.val.i.i.i.i.i.i.i.i.i.i, !4478, !DIExpression(DW_OP_LLVM_fragment, 0, 64), !4487)
    #dbg_value(ptr %_6.val.i.i.i.i.i.i.i.i.i.i, !4489, !DIExpression(DW_OP_LLVM_fragment, 0, 64), !4495)
    #dbg_value(ptr %_6.val.i.i.i.i.i.i.i.i.i.i, !4497, !DIExpression(DW_OP_LLVM_fragment, 0, 64), !4500)
    #dbg_value(ptr %_6.val1.i.i.i.i.i.i.i.i.i.i, !4478, !DIExpression(DW_OP_LLVM_fragment, 64, 64), !4487)
    #dbg_value(ptr %_6.val1.i.i.i.i.i.i.i.i.i.i, !4489, !DIExpression(DW_OP_LLVM_fragment, 64, 64), !4495)
    #dbg_value(ptr %_6.val1.i.i.i.i.i.i.i.i.i.i, !4497, !DIExpression(DW_OP_LLVM_fragment, 64, 64), !4500)
  %16 = getelementptr inbounds nuw i8, ptr %_6.val1.i.i.i.i.i.i.i.i.i.i, i64 8, !dbg !4502
  %17 = load i64, ptr %16, align 8, !dbg !4502, !range !3699, !invariant.load !15, !noalias !4298
  %18 = getelementptr inbounds nuw i8, ptr %_6.val1.i.i.i.i.i.i.i.i.i.i, i64 16, !dbg !4502
    #dbg_value(i64 %17, !4484, !DIExpression(), !4503)
    #dbg_value(i64 %17, !4504, !DIExpression(), !4511)
  %19 = load i64, ptr %18, align 8, !dbg !4513, !range !4514, !invariant.load !15, !noalias !4298
    #dbg_value(i64 %19, !4486, !DIExpression(), !4503)
    #dbg_value(i64 %19, !4510, !DIExpression(), !4511)
  %20 = add i64 %19, -1, !dbg !4515
  %21 = icmp sgt i64 %20, -1, !dbg !4515
  call void @llvm.assume(i1 %21), !dbg !4515
    #dbg_value(i64 %17, !4472, !DIExpression(DW_OP_LLVM_fragment, 64, 64), !4516)
    #dbg_value(i64 %19, !4472, !DIExpression(DW_OP_LLVM_fragment, 0, 64), !4516)
  %22 = icmp eq i64 %17, 0, !dbg !4517
  br i1 %22, label %"_ZN4core3ptr68drop_in_place$LT$alloc..boxed..Box$LT$std..io..error..Custom$GT$$GT$17h9f38b9356835bdeeE.exit.i.i.i.i.i.i.i.i.i", label %"_ZN63_$LT$alloc..alloc..Global$u20$as$u20$core..alloc..Allocator$GT$10deallocate17h2c1b7023ba670f79E.exit.i.i.i.i.i.i.i.i.i.i.i.i.i", !dbg !4517

"_ZN63_$LT$alloc..alloc..Global$u20$as$u20$core..alloc..Allocator$GT$10deallocate17h2c1b7023ba670f79E.exit.i.i.i.i.i.i.i.i.i.i.i.i.i": ; preds = %bb3.i.i.i.i.i.i.i.i.i.i.i.i
    #dbg_value(i64 %19, !1428, !DIExpression(DW_OP_LLVM_fragment, 0, 64), !4518)
    #dbg_value(i64 %17, !1428, !DIExpression(DW_OP_LLVM_fragment, 64, 64), !4518)
    #dbg_value(ptr poison, !1433, !DIExpression(), !4518)
    #dbg_value(ptr %_6.val.i.i.i.i.i.i.i.i.i.i, !1434, !DIExpression(), !4518)
    #dbg_value(ptr %_6.val.i.i.i.i.i.i.i.i.i.i, !1437, !DIExpression(), !4520)
    #dbg_value(i64 %19, !1442, !DIExpression(DW_OP_LLVM_fragment, 0, 64), !4520)
    #dbg_value(i64 %17, !1442, !DIExpression(DW_OP_LLVM_fragment, 64, 64), !4520)
; call __rustc::__rust_dealloc
  call void @_RNvCsj3IbkTTFM3W_7___rustc14___rust_dealloc(ptr noundef nonnull %_6.val.i.i.i.i.i.i.i.i.i.i, i64 noundef %17, i64 noundef range(i64 1, -9223372036854775807) %19) #19, !dbg !4522, !noalias !4298
  br label %"_ZN4core3ptr68drop_in_place$LT$alloc..boxed..Box$LT$std..io..error..Custom$GT$$GT$17h9f38b9356835bdeeE.exit.i.i.i.i.i.i.i.i.i", !dbg !4523

cleanup.i.i.i.i.i.i.i.i.i.i.i.i:                  ; preds = %is_not_null.i.i.i.i.i.i.i.i.i.i.i.i
  %23 = landingpad { ptr, i32 }
          cleanup
    #dbg_value(ptr poison, !4447, !DIExpression(), !4524)
    #dbg_value(ptr %_6.val.i.i.i.i.i.i.i.i.i.i, !4456, !DIExpression(DW_OP_LLVM_fragment, 0, 64), !4526)
    #dbg_value(ptr %_6.val1.i.i.i.i.i.i.i.i.i.i, !4456, !DIExpression(DW_OP_LLVM_fragment, 64, 64), !4526)
    #dbg_value(ptr %_6.val.i.i.i.i.i.i.i.i.i.i, !4478, !DIExpression(DW_OP_LLVM_fragment, 0, 64), !4527)
    #dbg_value(ptr %_6.val.i.i.i.i.i.i.i.i.i.i, !4489, !DIExpression(DW_OP_LLVM_fragment, 0, 64), !4529)
    #dbg_value(ptr %_6.val.i.i.i.i.i.i.i.i.i.i, !4497, !DIExpression(DW_OP_LLVM_fragment, 0, 64), !4531)
    #dbg_value(ptr %_6.val1.i.i.i.i.i.i.i.i.i.i, !4478, !DIExpression(DW_OP_LLVM_fragment, 64, 64), !4527)
    #dbg_value(ptr %_6.val1.i.i.i.i.i.i.i.i.i.i, !4489, !DIExpression(DW_OP_LLVM_fragment, 64, 64), !4529)
    #dbg_value(ptr %_6.val1.i.i.i.i.i.i.i.i.i.i, !4497, !DIExpression(DW_OP_LLVM_fragment, 64, 64), !4531)
  %24 = getelementptr inbounds nuw i8, ptr %_6.val1.i.i.i.i.i.i.i.i.i.i, i64 8, !dbg !4533
  %25 = load i64, ptr %24, align 8, !dbg !4533, !range !3699, !invariant.load !15, !noalias !4298
  %26 = getelementptr inbounds nuw i8, ptr %_6.val1.i.i.i.i.i.i.i.i.i.i, i64 16, !dbg !4533
    #dbg_value(i64 %25, !4484, !DIExpression(), !4534)
    #dbg_value(i64 %25, !4504, !DIExpression(), !4535)
  %27 = load i64, ptr %26, align 8, !dbg !4537, !range !4514, !invariant.load !15, !noalias !4298
    #dbg_value(i64 %27, !4486, !DIExpression(), !4534)
    #dbg_value(i64 %27, !4510, !DIExpression(), !4535)
  %28 = add i64 %27, -1, !dbg !4538
  %29 = icmp sgt i64 %28, -1, !dbg !4538
  call void @llvm.assume(i1 %29), !dbg !4538
    #dbg_value(i64 %25, !4472, !DIExpression(DW_OP_LLVM_fragment, 64, 64), !4539)
    #dbg_value(i64 %27, !4472, !DIExpression(DW_OP_LLVM_fragment, 0, 64), !4539)
  %30 = icmp eq i64 %25, 0, !dbg !4540
  br i1 %30, label %bb1.i.i.i.i.i.i.i.i.i.i, label %"_ZN63_$LT$alloc..alloc..Global$u20$as$u20$core..alloc..Allocator$GT$10deallocate17h2c1b7023ba670f79E.exit.i4.i.i.i.i.i.i.i.i.i.i.i.i", !dbg !4540

"_ZN63_$LT$alloc..alloc..Global$u20$as$u20$core..alloc..Allocator$GT$10deallocate17h2c1b7023ba670f79E.exit.i4.i.i.i.i.i.i.i.i.i.i.i.i": ; preds = %cleanup.i.i.i.i.i.i.i.i.i.i.i.i
    #dbg_value(i64 %27, !1428, !DIExpression(DW_OP_LLVM_fragment, 0, 64), !4541)
    #dbg_value(i64 %25, !1428, !DIExpression(DW_OP_LLVM_fragment, 64, 64), !4541)
    #dbg_value(ptr poison, !1433, !DIExpression(), !4541)
    #dbg_value(ptr %_6.val.i.i.i.i.i.i.i.i.i.i, !1434, !DIExpression(), !4541)
    #dbg_value(ptr %_6.val.i.i.i.i.i.i.i.i.i.i, !1437, !DIExpression(), !4543)
    #dbg_value(i64 %27, !1442, !DIExpression(DW_OP_LLVM_fragment, 0, 64), !4543)
    #dbg_value(i64 %25, !1442, !DIExpression(DW_OP_LLVM_fragment, 64, 64), !4543)
; call __rustc::__rust_dealloc
  call void @_RNvCsj3IbkTTFM3W_7___rustc14___rust_dealloc(ptr noundef nonnull %_6.val.i.i.i.i.i.i.i.i.i.i, i64 noundef %25, i64 noundef range(i64 1, -9223372036854775807) %27) #19, !dbg !4545, !noalias !4298
  br label %bb1.i.i.i.i.i.i.i.i.i.i, !dbg !4546

bb1.i.i.i.i.i.i.i.i.i.i:                          ; preds = %"_ZN63_$LT$alloc..alloc..Global$u20$as$u20$core..alloc..Allocator$GT$10deallocate17h2c1b7023ba670f79E.exit.i4.i.i.i.i.i.i.i.i.i.i.i.i", %cleanup.i.i.i.i.i.i.i.i.i.i.i.i
    #dbg_value(ptr poison, !4547, !DIExpression(), !4567)
    #dbg_value(i64 24, !4564, !DIExpression(DW_OP_LLVM_fragment, 64, 64), !4569)
    #dbg_value(i64 8, !4564, !DIExpression(DW_OP_LLVM_fragment, 0, 64), !4569)
    #dbg_value(ptr %10, !4553, !DIExpression(), !4570)
    #dbg_value(i64 8, !1428, !DIExpression(DW_OP_LLVM_fragment, 0, 64), !4571)
    #dbg_value(i64 24, !1428, !DIExpression(DW_OP_LLVM_fragment, 64, 64), !4571)
    #dbg_value(ptr poison, !1433, !DIExpression(), !4571)
    #dbg_value(ptr %10, !1434, !DIExpression(), !4571)
    #dbg_value(ptr %10, !1437, !DIExpression(), !4573)
    #dbg_value(i64 8, !1442, !DIExpression(DW_OP_LLVM_fragment, 0, 64), !4573)
    #dbg_value(i64 24, !1442, !DIExpression(DW_OP_LLVM_fragment, 64, 64), !4573)
; call __rustc::__rust_dealloc
  call void @_RNvCsj3IbkTTFM3W_7___rustc14___rust_dealloc(ptr noundef nonnull %10, i64 noundef 24, i64 noundef 8) #19, !dbg !4575, !noalias !4298
  br label %cleanup.body.i.i.i, !dbg !4425

"_ZN4core3ptr68drop_in_place$LT$alloc..boxed..Box$LT$std..io..error..Custom$GT$$GT$17h9f38b9356835bdeeE.exit.i.i.i.i.i.i.i.i.i": ; preds = %"_ZN63_$LT$alloc..alloc..Global$u20$as$u20$core..alloc..Allocator$GT$10deallocate17h2c1b7023ba670f79E.exit.i.i.i.i.i.i.i.i.i.i.i.i.i", %bb3.i.i.i.i.i.i.i.i.i.i.i.i
    #dbg_value(ptr poison, !4547, !DIExpression(), !4576)
    #dbg_value(i64 24, !4564, !DIExpression(DW_OP_LLVM_fragment, 64, 64), !4578)
    #dbg_value(i64 8, !4564, !DIExpression(DW_OP_LLVM_fragment, 0, 64), !4578)
    #dbg_value(ptr %10, !4553, !DIExpression(), !4579)
    #dbg_value(i64 8, !1428, !DIExpression(DW_OP_LLVM_fragment, 0, 64), !4580)
    #dbg_value(i64 24, !1428, !DIExpression(DW_OP_LLVM_fragment, 64, 64), !4580)
    #dbg_value(ptr poison, !1433, !DIExpression(), !4580)
    #dbg_value(ptr %10, !1434, !DIExpression(), !4580)
    #dbg_value(ptr %10, !1437, !DIExpression(), !4582)
    #dbg_value(i64 8, !1442, !DIExpression(DW_OP_LLVM_fragment, 0, 64), !4582)
    #dbg_value(i64 24, !1442, !DIExpression(DW_OP_LLVM_fragment, 64, 64), !4582)
; call __rustc::__rust_dealloc
  call void @_RNvCsj3IbkTTFM3W_7___rustc14___rust_dealloc(ptr noundef nonnull %10, i64 noundef 24, i64 noundef 8) #19, !dbg !4584, !noalias !4298
  br label %bb3.i.i.i, !dbg !4585

cleanup.i1.i.i:                                   ; preds = %"_ZN15find_msvc_tools10find_tools5impl_21find_msvc_environment28_$u7b$$u7b$closure$u7d$$u7d$28_$u7b$$u7b$closure$u7d$$u7d$17hea19e8ae7fbbebe6E.exit.i.i"
  %31 = landingpad { ptr, i32 }
          cleanup
  br label %cleanup.body.i.i.i, !dbg !4586

cleanup.body.i.i.i:                               ; preds = %cleanup.i1.i.i, %bb1.i.i.i.i.i.i.i.i.i.i
  %eh.lpad-body.i.i.i = phi { ptr, i32 } [ %31, %cleanup.i1.i.i ], [ %23, %bb1.i.i.i.i.i.i.i.i.i.i ]
    #dbg_value(ptr poison, !3570, !DIExpression(), !4587)
    #dbg_value(ptr poison, !2118, !DIExpression(), !4589)
    #dbg_value(ptr poison, !2109, !DIExpression(), !4591)
    #dbg_value(ptr poison, !1353, !DIExpression(), !4593)
    #dbg_value(ptr poison, !1363, !DIExpression(), !4595)
    #dbg_value(ptr poison, !1373, !DIExpression(), !4597)
    #dbg_value(ptr poison, !1382, !DIExpression(), !4599)
    #dbg_value(i64 1, !1389, !DIExpression(DW_OP_LLVM_fragment, 0, 64), !4599)
    #dbg_value(i64 1, !1389, !DIExpression(DW_OP_LLVM_fragment, 64, 64), !4599)
    #dbg_value(i64 1, !1395, !DIExpression(DW_OP_LLVM_fragment, 0, 64), !4601)
    #dbg_value(i64 1, !1395, !DIExpression(DW_OP_LLVM_fragment, 64, 64), !4601)
    #dbg_value(ptr poison, !1419, !DIExpression(), !4601)
  %32 = icmp eq i64 %_5.sroa.0.0.copyload.i.i, 0, !dbg !4603
  br i1 %32, label %common.resume.i.i, label %bb2.i.i.i4.i.i.i.i.i2.i.i, !dbg !4603

bb2.i.i.i4.i.i.i.i.i2.i.i:                        ; preds = %cleanup.body.i.i.i
    #dbg_value(ptr %_5.sroa.6.0.copyload.i.i, !1390, !DIExpression(), !4604)
    #dbg_value(i64 1, !1392, !DIExpression(DW_OP_LLVM_fragment, 0, 64), !4604)
    #dbg_value(i64 %_5.sroa.0.0.copyload.i.i, !1392, !DIExpression(DW_OP_LLVM_fragment, 64, 64), !4604)
    #dbg_value(i64 1, !1428, !DIExpression(DW_OP_LLVM_fragment, 0, 64), !4605)
    #dbg_value(i64 %_5.sroa.0.0.copyload.i.i, !1428, !DIExpression(DW_OP_LLVM_fragment, 64, 64), !4605)
    #dbg_value(ptr poison, !1433, !DIExpression(), !4605)
    #dbg_value(ptr %_5.sroa.6.0.copyload.i.i, !1434, !DIExpression(), !4605)
    #dbg_value(ptr %_5.sroa.6.0.copyload.i.i, !1437, !DIExpression(), !4607)
    #dbg_value(i64 1, !1442, !DIExpression(DW_OP_LLVM_fragment, 0, 64), !4607)
    #dbg_value(i64 %_5.sroa.0.0.copyload.i.i, !1442, !DIExpression(DW_OP_LLVM_fragment, 64, 64), !4607)
; call __rustc::__rust_dealloc
  call void @_RNvCsj3IbkTTFM3W_7___rustc14___rust_dealloc(ptr noundef nonnull %_5.sroa.6.0.copyload.i.i, i64 noundef %_5.sroa.0.0.copyload.i.i, i64 noundef range(i64 1, -9223372036854775807) 1) #19, !dbg !4609, !noalias !4298
  br label %common.resume.i.i, !dbg !4610

bb3.i.i.i:                                        ; preds = %"_ZN4core3ptr68drop_in_place$LT$alloc..boxed..Box$LT$std..io..error..Custom$GT$$GT$17h9f38b9356835bdeeE.exit.i.i.i.i.i.i.i.i.i", %bb2.i.i.i.i.i
    #dbg_value(i64 -9223372036854775808, !3934, !DIExpression(DW_OP_LLVM_fragment, 0, 64), !3960)
    #dbg_value(ptr poison, !3570, !DIExpression(), !4611)
    #dbg_value(ptr poison, !2118, !DIExpression(), !4613)
    #dbg_value(ptr poison, !2109, !DIExpression(), !4615)
    #dbg_value(ptr poison, !1353, !DIExpression(), !4617)
    #dbg_value(ptr poison, !1363, !DIExpression(), !4619)
    #dbg_value(ptr poison, !1373, !DIExpression(), !4621)
    #dbg_value(ptr poison, !1382, !DIExpression(), !4623)
    #dbg_value(i64 1, !1389, !DIExpression(DW_OP_LLVM_fragment, 0, 64), !4623)
    #dbg_value(i64 1, !1389, !DIExpression(DW_OP_LLVM_fragment, 64, 64), !4623)
    #dbg_value(i64 1, !1395, !DIExpression(DW_OP_LLVM_fragment, 0, 64), !4625)
    #dbg_value(i64 1, !1395, !DIExpression(DW_OP_LLVM_fragment, 64, 64), !4625)
    #dbg_value(ptr poison, !1419, !DIExpression(), !4625)
  %33 = icmp eq i64 %_5.sroa.0.0.copyload.i.i, 0, !dbg !4627
  br i1 %33, label %"_ZN4core4iter8adapters3map12map_try_fold28_$u7b$$u7b$closure$u7d$$u7d$17h2f82d0c40971d648E.exit.thread.i", label %bb2.i.i.i4.i.i.i.i6.i4.i.i, !dbg !4627

bb2.i.i.i4.i.i.i.i6.i4.i.i:                       ; preds = %bb3.i.i.i
    #dbg_value(ptr %_5.sroa.6.0.copyload.i.i, !1390, !DIExpression(), !4628)
    #dbg_value(i64 1, !1392, !DIExpression(DW_OP_LLVM_fragment, 0, 64), !4628)
    #dbg_value(i64 %_5.sroa.0.0.copyload.i.i, !1392, !DIExpression(DW_OP_LLVM_fragment, 64, 64), !4628)
    #dbg_value(i64 1, !1428, !DIExpression(DW_OP_LLVM_fragment, 0, 64), !4629)
    #dbg_value(i64 %_5.sroa.0.0.copyload.i.i, !1428, !DIExpression(DW_OP_LLVM_fragment, 64, 64), !4629)
    #dbg_value(ptr poison, !1433, !DIExpression(), !4629)
    #dbg_value(ptr %_5.sroa.6.0.copyload.i.i, !1434, !DIExpression(), !4629)
    #dbg_value(ptr %_5.sroa.6.0.copyload.i.i, !1437, !DIExpression(), !4631)
    #dbg_value(i64 1, !1442, !DIExpression(DW_OP_LLVM_fragment, 0, 64), !4631)
    #dbg_value(i64 %_5.sroa.0.0.copyload.i.i, !1442, !DIExpression(DW_OP_LLVM_fragment, 64, 64), !4631)
; call __rustc::__rust_dealloc
  call void @_RNvCsj3IbkTTFM3W_7___rustc14___rust_dealloc(ptr noundef nonnull %_5.sroa.6.0.copyload.i.i, i64 noundef %_5.sroa.0.0.copyload.i.i, i64 noundef range(i64 1, -9223372036854775807) 1) #19, !dbg !4633, !noalias !4298
  br label %"_ZN4core4iter8adapters3map12map_try_fold28_$u7b$$u7b$closure$u7d$$u7d$17h2f82d0c40971d648E.exit.thread.i", !dbg !4634

"_ZN4core4iter8adapters3map12map_try_fold28_$u7b$$u7b$closure$u7d$$u7d$17h2f82d0c40971d648E.exit.thread.i": ; preds = %bb2.i.i.i4.i.i.i.i6.i4.i.i, %bb3.i.i.i
    #dbg_value(i64 -9223372036854775808, !3934, !DIExpression(DW_OP_LLVM_fragment, 0, 64), !3960)
    #dbg_value(ptr poison, !3934, !DIExpression(DW_OP_LLVM_fragment, 64, 64), !3960)
    #dbg_value(i64 poison, !3934, !DIExpression(DW_OP_LLVM_fragment, 128, 64), !3960)
  call void @llvm.lifetime.end.p0(i64 24, ptr nonnull %_7.i.i), !dbg !4635, !noalias !3989
  br label %bb7.i, !dbg !4636

"_ZN4core4iter8adapters3map12map_try_fold28_$u7b$$u7b$closure$u7d$$u7d$17h2f82d0c40971d648E.exit.i": ; preds = %.noexc.i.i.i
  call void @llvm.lifetime.end.p0(i64 176, ptr nonnull %self.i.i.i.i.i), !dbg !4303, !noalias !4291
    #dbg_value(ptr poison, !4304, !DIExpression(), !4312)
    #dbg_value(i64 %_5.sroa.0.0.copyload.i.i, !3934, !DIExpression(DW_OP_LLVM_fragment, 0, 64), !3960)
    #dbg_value(ptr %_5.sroa.6.0.copyload.i.i, !3934, !DIExpression(DW_OP_LLVM_fragment, 64, 64), !3960)
    #dbg_value(i64 %_5.sroa.7.0.copyload.i.i, !3934, !DIExpression(DW_OP_LLVM_fragment, 128, 64), !3960)
  call void @llvm.lifetime.end.p0(i64 24, ptr nonnull %_7.i.i), !dbg !4635, !noalias !3989
  %.not.i.i = icmp eq i64 %_5.sroa.0.0.copyload.i.i, -9223372036854775808, !dbg !4637
  br i1 %.not.i.i, label %bb7.i, label %bb9, !dbg !4636

bb7.i:                                            ; preds = %"_ZN4core4iter8adapters3map12map_try_fold28_$u7b$$u7b$closure$u7d$$u7d$17h2f82d0c40971d648E.exit.i", %"_ZN4core4iter8adapters3map12map_try_fold28_$u7b$$u7b$closure$u7d$$u7d$17h2f82d0c40971d648E.exit.thread.i"
  call void @llvm.lifetime.end.p0(i64 24, ptr nonnull %_5.i), !dbg !4638, !noalias !3963
  br label %bb1.i, !dbg !3933

"_ZN4core3ptr83drop_in_place$LT$core..ops..control_flow..ControlFlow$LT$std..path..PathBuf$GT$$GT$17h2f492ffc8344daeeE.exit": ; preds = %bb1.i
  call void @llvm.lifetime.end.p0(i64 24, ptr nonnull %_5.i), !dbg !4638, !noalias !3963
    #dbg_value(i64 -9223372036854775808, !3867, !DIExpression(DW_OP_LLVM_fragment, 0, 64), !4639)
  store i64 -9223372036854775808, ptr %_0, align 8, !dbg !4640
  br label %bb7, !dbg !4641

bb9:                                              ; preds = %"_ZN4core4iter8adapters3map12map_try_fold28_$u7b$$u7b$closure$u7d$$u7d$17h2f82d0c40971d648E.exit.i"
  call void @llvm.lifetime.end.p0(i64 24, ptr nonnull %_5.i), !dbg !4638, !noalias !3963
    #dbg_value(ptr %_5.sroa.6.0.copyload.i.i, !3867, !DIExpression(DW_OP_LLVM_fragment, 64, 64), !4639)
    #dbg_value(i64 %_5.sroa.7.0.copyload.i.i, !3867, !DIExpression(DW_OP_LLVM_fragment, 128, 64), !4639)
    #dbg_value(i64 %_5.sroa.0.0.copyload.i.i, !3867, !DIExpression(DW_OP_LLVM_fragment, 0, 64), !4639)
    #dbg_value(i64 %_5.sroa.0.0.copyload.i.i, !3868, !DIExpression(DW_OP_LLVM_fragment, 0, 64), !4642)
    #dbg_value(ptr %_5.sroa.6.0.copyload.i.i, !3868, !DIExpression(DW_OP_LLVM_fragment, 64, 64), !4642)
    #dbg_value(i64 %_5.sroa.7.0.copyload.i.i, !3868, !DIExpression(DW_OP_LLVM_fragment, 128, 64), !4642)
  store i64 %_5.sroa.0.0.copyload.i.i, ptr %_0, align 8, !dbg !4643
  %_21.sroa.4.0._0.sroa_idx = getelementptr inbounds nuw i8, ptr %_0, i64 8, !dbg !4643
  store ptr %_5.sroa.6.0.copyload.i.i, ptr %_21.sroa.4.0._0.sroa_idx, align 8, !dbg !4643
  %_21.sroa.4.sroa.4.0._21.sroa.4.0._0.sroa_idx.sroa_idx = getelementptr inbounds nuw i8, ptr %_0, i64 16, !dbg !4643
  store i64 %_5.sroa.7.0.copyload.i.i, ptr %_21.sroa.4.sroa.4.0._21.sroa.4.0._0.sroa_idx.sroa_idx, align 8, !dbg !4643
  %_21.sroa.5.0._0.sroa_idx = getelementptr inbounds nuw i8, ptr %_0, i64 24, !dbg !4643
  store i64 0, ptr %_21.sroa.5.0._0.sroa_idx, align 8, !dbg !4643
  %_21.sroa.5.sroa.4.0._21.sroa.5.0._0.sroa_idx.sroa_idx = getelementptr inbounds nuw i8, ptr %_0, i64 32, !dbg !4643
  store ptr inttoptr (i64 8 to ptr), ptr %_21.sroa.5.sroa.4.0._21.sroa.5.0._0.sroa_idx.sroa_idx, align 8, !dbg !4643
  %_21.sroa.5.sroa.5.0._21.sroa.5.0._0.sroa_idx.sroa_idx = getelementptr inbounds nuw i8, ptr %_0, i64 40, !dbg !4643
  store i64 0, ptr %_21.sroa.5.sroa.5.0._21.sroa.5.0._0.sroa_idx.sroa_idx, align 8, !dbg !4643
  %_21.sroa.6.0._0.sroa_idx = getelementptr inbounds nuw i8, ptr %_0, i64 48, !dbg !4643
  store i8 0, ptr %_21.sroa.6.0._0.sroa_idx, align 8, !dbg !4643
  br label %bb7, !dbg !4644

bb7:                                              ; preds = %bb9, %"_ZN4core3ptr83drop_in_place$LT$core..ops..control_flow..ControlFlow$LT$std..path..PathBuf$GT$$GT$17h2f492ffc8344daeeE.exit"
  call void @llvm.lifetime.end.p0(i64 32, ptr nonnull %_5), !dbg !4645
  ret void, !dbg !4646
}

; find_msvc_tools::find_tools::find_tool
; Function Attrs: nonlazybind uwtable
define void @_ZN15find_msvc_tools10find_tools9find_tool17hd332079c3fb38992E(ptr dead_on_unwind noalias noundef writable writeonly sret([56 x i8]) align 8 captures(none) dereferenceable(56) %_0, ptr noalias noundef nonnull readonly align 1 captures(address, read_provenance) %arch_or_target.0, i64 noundef %arch_or_target.1, ptr noalias noundef nonnull readonly align 1 captures(address, read_provenance) %tool.0, i64 noundef %tool.1) unnamed_addr #0 personality ptr @rust_eh_personality !dbg !3037 {
start:
  %_6.i = alloca [104 x i8], align 8
  %self.i = alloca [24 x i8], align 8
    #dbg_value(ptr %arch_or_target.0, !3036, !DIExpression(DW_OP_LLVM_fragment, 0, 64), !4647)
    #dbg_value(i64 %arch_or_target.1, !3036, !DIExpression(DW_OP_LLVM_fragment, 64, 64), !4647)
    #dbg_value(ptr %tool.0, !3041, !DIExpression(DW_OP_LLVM_fragment, 0, 64), !4647)
    #dbg_value(i64 %tool.1, !3041, !DIExpression(DW_OP_LLVM_fragment, 64, 64), !4647)
    #dbg_value(ptr @alloc_0b31f4562230d243936ff2637ae71e88, !3049, !DIExpression(DW_OP_LLVM_fragment, 0, 64), !4648)
    #dbg_value(i64 4, !3049, !DIExpression(DW_OP_LLVM_fragment, 64, 64), !4648)
    #dbg_value(ptr %arch_or_target.0, !3055, !DIExpression(DW_OP_LLVM_fragment, 0, 64), !4650)
    #dbg_value(ptr %arch_or_target.0, !3091, !DIExpression(DW_OP_LLVM_fragment, 0, 64), !4652)
    #dbg_value(ptr %arch_or_target.0, !3134, !DIExpression(DW_OP_LLVM_fragment, 0, 64), !4656)
    #dbg_value(ptr %arch_or_target.0, !3147, !DIExpression(DW_OP_LLVM_fragment, 0, 64), !4658)
    #dbg_value(ptr %arch_or_target.0, !3091, !DIExpression(DW_OP_LLVM_fragment, 0, 64), !4660)
    #dbg_value(i64 %arch_or_target.1, !3055, !DIExpression(DW_OP_LLVM_fragment, 64, 64), !4650)
    #dbg_value(i64 %arch_or_target.1, !3091, !DIExpression(DW_OP_LLVM_fragment, 64, 64), !4652)
    #dbg_value(i64 %arch_or_target.1, !3134, !DIExpression(DW_OP_LLVM_fragment, 64, 64), !4656)
    #dbg_value(i64 %arch_or_target.1, !3147, !DIExpression(DW_OP_LLVM_fragment, 64, 64), !4658)
    #dbg_value(i64 %arch_or_target.1, !3091, !DIExpression(DW_OP_LLVM_fragment, 64, 64), !4660)
    #dbg_value(ptr @alloc_3bb2650aa074fcfb8c10a9c40791bfbc, !3077, !DIExpression(DW_OP_LLVM_fragment, 0, 64), !4650)
    #dbg_value(i64 1, !3077, !DIExpression(DW_OP_LLVM_fragment, 64, 64), !4650)
    #dbg_declare(ptr %self.i, !3161, !DIExpression(), !4662)
    #dbg_value(i64 0, !3103, !DIExpression(DW_OP_LLVM_fragment, 0, 64), !4652)
    #dbg_value(i64 0, !3198, !DIExpression(), !4664)
  call void @llvm.lifetime.start.p0(i64 24, ptr nonnull %self.i), !dbg !4666, !noalias !4667
  call void @llvm.lifetime.start.p0(i64 104, ptr nonnull %_6.i), !dbg !4666, !noalias !4667
    #dbg_value(ptr @alloc_3bb2650aa074fcfb8c10a9c40791bfbc, !3216, !DIExpression(DW_OP_LLVM_fragment, 0, 64), !4671)
    #dbg_value(i64 1, !3216, !DIExpression(DW_OP_LLVM_fragment, 64, 64), !4671)
    #dbg_value(ptr %arch_or_target.0, !3259, !DIExpression(DW_OP_LLVM_fragment, 0, 64), !4671)
    #dbg_value(i64 %arch_or_target.1, !3259, !DIExpression(DW_OP_LLVM_fragment, 64, 64), !4671)
; call core::str::pattern::StrSearcher::new
  call void @_ZN4core3str7pattern11StrSearcher3new17h53f2c5adf0926cf2E(ptr noalias noundef nonnull sret([104 x i8]) align 8 captures(address) dereferenceable(104) %_6.i, ptr noalias noundef nonnull readonly align 1 captures(address, read_provenance) %arch_or_target.0, i64 noundef %arch_or_target.1, ptr noalias noundef nonnull readonly align 1 captures(address, read_provenance) @alloc_3bb2650aa074fcfb8c10a9c40791bfbc, i64 noundef 1), !dbg !4673, !noalias !4674
; call <core::str::pattern::StrSearcher as core::str::pattern::Searcher>::next_match
  call fastcc void @"_ZN80_$LT$core..str..pattern..StrSearcher$u20$as$u20$core..str..pattern..Searcher$GT$10next_match17h154ed0f121d3153eE"(ptr noalias noundef align 8 captures(address) dereferenceable(24) %self.i, ptr noalias noundef align 8 dereferenceable(104) %_6.i), !dbg !4675, !noalias !4674
  %_10.i = load i64, ptr %self.i, align 8, !dbg !4676, !range !1262, !noalias !4667, !noundef !15
  %0 = trunc nuw i64 %_10.i to i1, !dbg !4677
  br i1 %0, label %bb2, label %"_ZN4core3str21_$LT$impl$u20$str$GT$10split_once17h2f4e4dae0e41d74cE.exit.thread", !dbg !4677

"_ZN4core3str21_$LT$impl$u20$str$GT$10split_once17h2f4e4dae0e41d74cE.exit.thread": ; preds = %start
  call void @llvm.lifetime.end.p0(i64 24, ptr nonnull %self.i), !dbg !4678, !noalias !4667
  call void @llvm.lifetime.end.p0(i64 104, ptr nonnull %_6.i), !dbg !4679, !noalias !4667
  br label %bb6, !dbg !4680

bb2:                                              ; preds = %start
  %1 = getelementptr inbounds nuw i8, ptr %self.i, i64 8, !dbg !4681
  %v.0.i = load i64, ptr %1, align 8, !dbg !4681, !noalias !4667, !noundef !15
  %2 = getelementptr inbounds nuw i8, ptr %self.i, i64 16, !dbg !4681
  %v.1.i = load i64, ptr %2, align 8, !dbg !4681, !noalias !4667, !noundef !15
  call void @llvm.lifetime.end.p0(i64 24, ptr nonnull %self.i), !dbg !4678, !noalias !4667
    #dbg_value(i64 %v.0.i, !3078, !DIExpression(), !4682)
    #dbg_value(i64 %v.0.i, !3103, !DIExpression(DW_OP_LLVM_fragment, 64, 64), !4652)
    #dbg_value(i64 %v.1.i, !3080, !DIExpression(), !4682)
  call void @llvm.lifetime.end.p0(i64 104, ptr nonnull %_6.i), !dbg !4679, !noalias !4667
    #dbg_value(ptr %arch_or_target.0, !3203, !DIExpression(), !4664)
    #dbg_value(i64 %v.1.i, !3142, !DIExpression(), !4656)
    #dbg_value(i64 %v.1.i, !3153, !DIExpression(), !4658)
    #dbg_value(ptr %arch_or_target.0, !3108, !DIExpression(DW_OP_LLVM_fragment, 0, 64), !4683)
    #dbg_value(i64 %arch_or_target.1, !3108, !DIExpression(DW_OP_LLVM_fragment, 64, 64), !4683)
    #dbg_value(i64 %arch_or_target.1, !3154, !DIExpression(), !4684)
    #dbg_value(i64 %arch_or_target.1, !3103, !DIExpression(DW_OP_LLVM_fragment, 64, 64), !4660)
    #dbg_value(i64 %v.1.i, !3103, !DIExpression(DW_OP_LLVM_fragment, 0, 64), !4660)
    #dbg_value(i64 %v.1.i, !3204, !DIExpression(), !4685)
  %new_len.i = sub nuw i64 %arch_or_target.1, %v.1.i, !dbg !4687
    #dbg_value(i64 %new_len.i, !3110, !DIExpression(), !4688)
    #dbg_value(ptr %arch_or_target.0, !3203, !DIExpression(), !4685)
  %data.i = getelementptr inbounds nuw i8, ptr %arch_or_target.0, i64 %v.1.i, !dbg !4689
    #dbg_value(ptr %arch_or_target.0, !3044, !DIExpression(DW_OP_LLVM_fragment, 0, 64), !4690)
    #dbg_value(i64 %v.0.i, !3044, !DIExpression(DW_OP_LLVM_fragment, 64, 64), !4690)
    #dbg_value(ptr %data.i, !3046, !DIExpression(DW_OP_LLVM_fragment, 0, 64), !4690)
    #dbg_value(ptr %data.i, !3052, !DIExpression(DW_OP_LLVM_fragment, 0, 64), !4648)
    #dbg_value(i64 %new_len.i, !3046, !DIExpression(DW_OP_LLVM_fragment, 64, 64), !4690)
    #dbg_value(i64 %new_len.i, !3052, !DIExpression(DW_OP_LLVM_fragment, 64, 64), !4648)
; call <&str as core::str::pattern::Pattern>::is_contained_in
  %_8 = call fastcc noundef zeroext i1 @"_ZN55_$LT$$RF$str$u20$as$u20$core..str..pattern..Pattern$GT$15is_contained_in17h33bb93430b08c5ceE"(ptr noalias noundef nonnull readonly align 1 captures(address, read_provenance) @alloc_0b31f4562230d243936ff2637ae71e88, i64 noundef 4, ptr noalias noundef nonnull readonly align 1 captures(address, read_provenance) %data.i, i64 noundef %new_len.i), !dbg !4691
  br i1 %_8, label %bb6, label %bb4, !dbg !4692

bb4:                                              ; preds = %bb2
  store i64 -9223372036854775808, ptr %_0, align 8, !dbg !4693
  br label %bb8, !dbg !4694

bb8:                                              ; preds = %bb6, %bb4
  ret void, !dbg !4694

bb6:                                              ; preds = %"_ZN4core3str21_$LT$impl$u20$str$GT$10split_once17h2f4e4dae0e41d74cE.exit.thread", %bb2
  %full_arch.sroa.6.0 = phi i64 [ %v.0.i, %bb2 ], [ %arch_or_target.1, %"_ZN4core3str21_$LT$impl$u20$str$GT$10split_once17h2f4e4dae0e41d74cE.exit.thread" ], !dbg !4647
    #dbg_value(ptr %arch_or_target.0, !3042, !DIExpression(DW_OP_LLVM_fragment, 0, 64), !4695)
    #dbg_value(i64 %full_arch.sroa.6.0, !3042, !DIExpression(DW_OP_LLVM_fragment, 64, 64), !4695)
; call find_msvc_tools::find_tools::find_tool_with_env
  call void @_ZN15find_msvc_tools10find_tools18find_tool_with_env17h90d4fb796ce5f272E(ptr noalias noundef nonnull sret([56 x i8]) align 8 captures(address) dereferenceable(56) %_0, ptr noalias noundef nonnull readonly align 1 captures(address, read_provenance) %arch_or_target.0, i64 noundef %full_arch.sroa.6.0, ptr noalias noundef nonnull readonly align 1 captures(address, read_provenance) %tool.0, i64 noundef %tool.1, ptr noundef nonnull align 1 inttoptr (i64 1 to ptr), ptr noalias noundef readonly align 8 captures(address, read_provenance) dereferenceable(32) @vtable.0), !dbg !4696
  br label %bb8, !dbg !4694
}

; find_msvc_tools::tool::Tool::to_command
; Function Attrs: nonlazybind uwtable
define void @_ZN15find_msvc_tools4tool4Tool10to_command17he0fb8cd4fd6321beE(ptr dead_on_unwind noalias noundef writable writeonly sret([200 x i8]) align 8 captures(none) dereferenceable(200) %_0, ptr noalias noundef readonly align 8 captures(none) dereferenceable(56) %self) unnamed_addr #0 personality ptr @rust_eh_personality !dbg !3357 {
start:
    #dbg_value(ptr poison, !3306, !DIExpression(), !4697)
    #dbg_value(ptr poison, !3317, !DIExpression(), !4697)
    #dbg_value(ptr poison, !3347, !DIExpression(), !4700)
  %cmd = alloca [200 x i8], align 8
    #dbg_value(ptr %self, !3363, !DIExpression(), !4701)
    #dbg_declare(ptr %cmd, !3364, !DIExpression(), !4702)
    #dbg_value(i64 1, !3373, !DIExpression(), !4703)
  call void @llvm.lifetime.start.p0(i64 200, ptr nonnull %cmd), !dbg !4705
  tail call void @llvm.experimental.noalias.scope.decl(metadata !4706), !dbg !4709
    #dbg_value(ptr %self, !3386, !DIExpression(), !4710)
    #dbg_value(ptr poison, !3398, !DIExpression(), !4712)
  %0 = getelementptr inbounds nuw i8, ptr %self, i64 8, !dbg !4714
  %_2.val.i.i = load ptr, ptr %0, align 8, !dbg !4714, !alias.scope !4706, !noalias !4715, !nonnull !15, !noundef !15
  %1 = getelementptr inbounds nuw i8, ptr %self, i64 16, !dbg !4714
  %_2.val1.i.i = load i64, ptr %1, align 8, !dbg !4714, !alias.scope !4706, !noalias !4715, !noundef !15
; call std::sys::process::unix::common::Command::new
  call void @_ZN3std3sys7process4unix6common7Command3new17hd085411f617aeca8E(ptr noalias noundef nonnull sret([200 x i8]) align 8 captures(address) dereferenceable(200) %cmd, ptr noalias noundef nonnull readonly align 1 captures(address, read_provenance) %_2.val.i.i, i64 noundef %_2.val1.i.i), !dbg !4717, !noalias !4706
    #dbg_value(ptr %self, !3419, !DIExpression(DW_OP_plus_uconst, 24, DW_OP_stack_value), !4718)
    #dbg_value(ptr %self, !3433, !DIExpression(DW_OP_plus_uconst, 24, DW_OP_stack_value), !4720)
    #dbg_value(ptr %self, !3439, !DIExpression(DW_OP_plus_uconst, 24, DW_OP_stack_value), !4722)
  %2 = getelementptr inbounds nuw i8, ptr %self, i64 32, !dbg !4724
  %_17 = load ptr, ptr %2, align 8, !dbg !4724, !nonnull !15, !noundef !15
  %3 = getelementptr inbounds nuw i8, ptr %self, i64 40, !dbg !4728
  %len = load i64, ptr %3, align 8, !dbg !4728, !noundef !15
    #dbg_value(i64 %len, !3469, !DIExpression(), !4729)
    #dbg_value(i64 %len, !3494, !DIExpression(), !4732)
    #dbg_value(ptr %_17, !3492, !DIExpression(DW_OP_LLVM_fragment, 0, 64), !4734)
    #dbg_value(ptr %_17, !3477, !DIExpression(DW_OP_LLVM_fragment, 0, 64), !4735)
    #dbg_value(i64 %len, !3492, !DIExpression(DW_OP_LLVM_fragment, 64, 64), !4734)
    #dbg_value(i64 %len, !3477, !DIExpression(DW_OP_LLVM_fragment, 64, 64), !4735)
    #dbg_value(ptr %_17, !3482, !DIExpression(), !4736)
    #dbg_value(ptr %_17, !3502, !DIExpression(), !4732)
  %_21.idx = mul nuw nsw i64 %len, 48, !dbg !4737
  %_21 = getelementptr inbounds nuw i8, ptr %_17, i64 %_21.idx, !dbg !4737
    #dbg_value(ptr %_17, !3365, !DIExpression(DW_OP_LLVM_fragment, 0, 64), !4738)
    #dbg_value(ptr %_21, !3365, !DIExpression(DW_OP_LLVM_fragment, 64, 64), !4738)
    #dbg_value(ptr undef, !3347, !DIExpression(), !4700)
    #dbg_value(ptr %_17, !3348, !DIExpression(), !4739)
    #dbg_value(ptr %_17, !3379, !DIExpression(), !4703)
    #dbg_value(ptr %_21, !3349, !DIExpression(), !4740)
    #dbg_value(ptr undef, !3317, !DIExpression(), !4697)
    #dbg_value(ptr undef, !3306, !DIExpression(), !4697)
  %_2712 = icmp eq i64 %len, 0, !dbg !4741
  br i1 %_2712, label %bb6, label %bb7.lr.ph, !dbg !4698

bb7.lr.ph:                                        ; preds = %start
  %_5.i = getelementptr inbounds nuw i8, ptr %cmd, i64 96
  br label %bb7, !dbg !4698

bb7:                                              ; preds = %bb7.lr.ph, %bb3
  %iter.sroa.0.013 = phi ptr [ %_17, %bb7.lr.ph ], [ %_37, %bb3 ]
    #dbg_value(ptr %iter.sroa.0.013, !3365, !DIExpression(DW_OP_plus_uconst, 48, DW_OP_stack_value, DW_OP_LLVM_fragment, 0, 64), !4738)
    #dbg_value(ptr %iter.sroa.0.013, !3366, !DIExpression(), !4742)
    #dbg_value(ptr %iter.sroa.0.013, !3368, !DIExpression(DW_OP_plus_uconst, 24, DW_OP_stack_value), !4742)
  call void @llvm.experimental.noalias.scope.decl(metadata !4743), !dbg !4746
  call void @llvm.experimental.noalias.scope.decl(metadata !4747), !dbg !4746
    #dbg_value(ptr %iter.sroa.0.013, !3521, !DIExpression(), !4749)
    #dbg_value(ptr %iter.sroa.0.013, !3532, !DIExpression(DW_OP_plus_uconst, 24, DW_OP_stack_value), !4749)
    #dbg_value(ptr %cmd, !3531, !DIExpression(), !4749)
    #dbg_value(ptr poison, !3535, !DIExpression(), !4751)
  %4 = getelementptr inbounds nuw i8, ptr %iter.sroa.0.013, i64 8, !dbg !4753
  %_2.val.i.i10 = load ptr, ptr %4, align 8, !dbg !4753, !alias.scope !4743, !noalias !4754, !nonnull !15, !noundef !15
  %5 = getelementptr inbounds nuw i8, ptr %iter.sroa.0.013, i64 16, !dbg !4753
  %_2.val1.i.i11 = load i64, ptr %5, align 8, !dbg !4753, !alias.scope !4743, !noalias !4754, !noundef !15
    #dbg_value(ptr poison, !3535, !DIExpression(), !4756)
  %6 = getelementptr inbounds nuw i8, ptr %iter.sroa.0.013, i64 32, !dbg !4758
  %_2.val.i2.i = load ptr, ptr %6, align 8, !dbg !4758, !alias.scope !4747, !noalias !4759, !nonnull !15, !noundef !15
  %7 = getelementptr inbounds nuw i8, ptr %iter.sroa.0.013, i64 40, !dbg !4758
  %_2.val1.i3.i = load i64, ptr %7, align 8, !dbg !4758, !alias.scope !4747, !noalias !4759, !noundef !15
; invoke std::sys::process::env::CommandEnv::set
  invoke void @_ZN3std3sys7process3env10CommandEnv3set17hfa04cebfa582fe1bE(ptr noalias noundef nonnull align 8 dereferenceable(32) %_5.i, ptr noalias noundef nonnull readonly align 1 captures(address, read_provenance) %_2.val.i.i10, i64 noundef %_2.val1.i.i11, ptr noalias noundef nonnull readonly align 1 captures(address, read_provenance) %_2.val.i2.i, i64 noundef %_2.val1.i3.i)
          to label %bb3 unwind label %cleanup, !dbg !4760

bb6:                                              ; preds = %bb3, %start
  call void @llvm.memcpy.p0.p0.i64(ptr noundef nonnull align 8 dereferenceable(200) %_0, ptr noundef nonnull align 8 dereferenceable(200) %cmd, i64 200, i1 false), !dbg !4761
  call void @llvm.lifetime.end.p0(i64 200, ptr nonnull %cmd), !dbg !4762
  ret void, !dbg !4763

cleanup:                                          ; preds = %bb7
  %8 = landingpad { ptr, i32 }
          cleanup
; invoke core::ptr::drop_in_place<std::process::Command>
  invoke fastcc void @"_ZN4core3ptr42drop_in_place$LT$std..process..Command$GT$17he542d218c43c328fE"(ptr noalias noundef align 8 dereferenceable(200) %cmd) #21
          to label %bb5 unwind label %terminate, !dbg !4762

bb3:                                              ; preds = %bb7
  %_37 = getelementptr inbounds nuw i8, ptr %iter.sroa.0.013, i64 48, !dbg !4764
    #dbg_value(ptr %_37, !3365, !DIExpression(DW_OP_LLVM_fragment, 0, 64), !4738)
    #dbg_value(ptr undef, !3347, !DIExpression(), !4700)
    #dbg_value(ptr %_37, !3348, !DIExpression(), !4739)
    #dbg_value(ptr %_37, !3379, !DIExpression(), !4703)
    #dbg_value(ptr %_21, !3349, !DIExpression(), !4740)
    #dbg_value(ptr undef, !3317, !DIExpression(), !4697)
    #dbg_value(ptr undef, !3306, !DIExpression(), !4697)
  %_27 = icmp eq ptr %_37, %_21, !dbg !4741
  br i1 %_27, label %bb6, label %bb7, !dbg !4698

terminate:                                        ; preds = %cleanup
  %9 = landingpad { ptr, i32 }
          filter [0 x ptr] zeroinitializer
; call core::panicking::panic_in_cleanup
  call void @_ZN4core9panicking16panic_in_cleanup17h8f68387bb6cbbf54E() #22, !dbg !4765
  unreachable, !dbg !4765

bb5:                                              ; preds = %cleanup
  resume { ptr, i32 } %8, !dbg !4765
}

; <&T as core::fmt::Display>::fmt
; Function Attrs: nonlazybind uwtable
define internal noundef zeroext i1 @"_ZN44_$LT$$RF$T$u20$as$u20$core..fmt..Display$GT$3fmt17h66f239f46630cdbcE"(ptr noalias noundef readonly align 8 captures(none) dereferenceable(16) %self, ptr noalias noundef align 8 dereferenceable(24) %f) unnamed_addr #0 !dbg !4766 {
start:
    #dbg_value(ptr %self, !4772, !DIExpression(), !4774)
    #dbg_value(ptr %f, !4773, !DIExpression(), !4774)
  %_3.0 = load ptr, ptr %self, align 8, !dbg !4775, !nonnull !15, !align !4006, !noundef !15
  %0 = getelementptr inbounds nuw i8, ptr %self, i64 8, !dbg !4775
  %_3.1 = load i64, ptr %0, align 8, !dbg !4775, !noundef !15
; call <str as core::fmt::Display>::fmt
  %_0 = tail call noundef zeroext i1 @"_ZN42_$LT$str$u20$as$u20$core..fmt..Display$GT$3fmt17h78d63bbb72e7fdedE"(ptr noalias noundef nonnull readonly align 1 captures(address, read_provenance) %_3.0, i64 noundef %_3.1, ptr noalias noundef nonnull align 8 dereferenceable(24) %f), !dbg !4776
  ret i1 %_0, !dbg !4777
}

; core::ptr::drop_in_place<alloc::boxed::Box<dyn core::ops::function::FnMut<()>+Output = core::result::Result<(),std::io::error::Error>+core::marker::Sync+core::marker::Send>>
; Function Attrs: nonlazybind uwtable
define internal fastcc void @"_ZN4core3ptr228drop_in_place$LT$alloc..boxed..Box$LT$dyn$u20$core..ops..function..FnMut$LT$$LP$$RP$$GT$$u2b$Output$u20$$u3d$$u20$core..result..Result$LT$$LP$$RP$$C$std..io..error..Error$GT$$u2b$core..marker..Sync$u2b$core..marker..Send$GT$$GT$17h49079b65491ae77cE"(ptr %_1.0.val, ptr readonly captures(address_is_null) %_1.8.val) unnamed_addr #0 personality ptr @rust_eh_personality !dbg !4778 {
start:
    #dbg_value(ptr poison, !4783, !DIExpression(), !4784)
  %0 = icmp ne ptr %_1.8.val, null
  tail call void @llvm.assume(i1 %0)
  %1 = load ptr, ptr %_1.8.val, align 8, !dbg !4785, !invariant.load !15
  %.not = icmp eq ptr %1, null, !dbg !4785
  br i1 %.not, label %bb3, label %is_not_null, !dbg !4785

is_not_null:                                      ; preds = %start
  %2 = icmp ne ptr %_1.0.val, null
  tail call void @llvm.assume(i1 %2)
  invoke void %1(ptr noundef nonnull %_1.0.val)
          to label %bb3 unwind label %cleanup, !dbg !4785

bb3:                                              ; preds = %is_not_null, %start
  %3 = icmp ne ptr %_1.0.val, null
  tail call void @llvm.assume(i1 %3)
    #dbg_value(ptr poison, !4786, !DIExpression(), !4811)
    #dbg_value(ptr %_1.0.val, !4792, !DIExpression(DW_OP_LLVM_fragment, 0, 64), !4813)
    #dbg_value(ptr %_1.8.val, !4792, !DIExpression(DW_OP_LLVM_fragment, 64, 64), !4813)
    #dbg_value(ptr %_1.0.val, !4814, !DIExpression(DW_OP_LLVM_fragment, 0, 64), !4823)
    #dbg_value(ptr %_1.0.val, !4825, !DIExpression(DW_OP_LLVM_fragment, 0, 64), !4830)
    #dbg_value(ptr %_1.0.val, !4832, !DIExpression(DW_OP_LLVM_fragment, 0, 64), !4835)
    #dbg_value(ptr %_1.8.val, !4814, !DIExpression(DW_OP_LLVM_fragment, 64, 64), !4823)
    #dbg_value(ptr %_1.8.val, !4825, !DIExpression(DW_OP_LLVM_fragment, 64, 64), !4830)
    #dbg_value(ptr %_1.8.val, !4832, !DIExpression(DW_OP_LLVM_fragment, 64, 64), !4835)
  %4 = getelementptr inbounds nuw i8, ptr %_1.8.val, i64 8, !dbg !4837
  %5 = load i64, ptr %4, align 8, !dbg !4837, !range !3699, !invariant.load !15
  %6 = getelementptr inbounds nuw i8, ptr %_1.8.val, i64 16, !dbg !4837
    #dbg_value(i64 %5, !4820, !DIExpression(), !4838)
    #dbg_value(i64 %5, !4839, !DIExpression(), !4843)
  %7 = load i64, ptr %6, align 8, !dbg !4845, !range !4514, !invariant.load !15
    #dbg_value(i64 %7, !4822, !DIExpression(), !4838)
    #dbg_value(i64 %7, !4842, !DIExpression(), !4843)
  %8 = add i64 %7, -1, !dbg !4846
  %9 = icmp sgt i64 %8, -1, !dbg !4846
  tail call void @llvm.assume(i1 %9), !dbg !4846
    #dbg_value(i64 %5, !4808, !DIExpression(DW_OP_LLVM_fragment, 64, 64), !4847)
    #dbg_value(i64 %7, !4808, !DIExpression(DW_OP_LLVM_fragment, 0, 64), !4847)
  %10 = icmp eq i64 %5, 0, !dbg !4848
  br i1 %10, label %"_ZN72_$LT$alloc..boxed..Box$LT$T$C$A$GT$$u20$as$u20$core..ops..drop..Drop$GT$4drop17hc277340f760d3ba7E.exit", label %"_ZN63_$LT$alloc..alloc..Global$u20$as$u20$core..alloc..Allocator$GT$10deallocate17h2c1b7023ba670f79E.exit.i", !dbg !4848

"_ZN63_$LT$alloc..alloc..Global$u20$as$u20$core..alloc..Allocator$GT$10deallocate17h2c1b7023ba670f79E.exit.i": ; preds = %bb3
    #dbg_value(i64 %7, !1428, !DIExpression(DW_OP_LLVM_fragment, 0, 64), !4849)
    #dbg_value(i64 %5, !1428, !DIExpression(DW_OP_LLVM_fragment, 64, 64), !4849)
    #dbg_value(ptr poison, !1433, !DIExpression(), !4849)
    #dbg_value(ptr %_1.0.val, !1434, !DIExpression(), !4849)
    #dbg_value(ptr %_1.0.val, !1437, !DIExpression(), !4851)
    #dbg_value(i64 %7, !1442, !DIExpression(DW_OP_LLVM_fragment, 0, 64), !4851)
    #dbg_value(i64 %5, !1442, !DIExpression(DW_OP_LLVM_fragment, 64, 64), !4851)
; call __rustc::__rust_dealloc
  tail call void @_RNvCsj3IbkTTFM3W_7___rustc14___rust_dealloc(ptr noundef nonnull %_1.0.val, i64 noundef %5, i64 noundef range(i64 1, -9223372036854775807) %7) #19, !dbg !4853
  br label %"_ZN72_$LT$alloc..boxed..Box$LT$T$C$A$GT$$u20$as$u20$core..ops..drop..Drop$GT$4drop17hc277340f760d3ba7E.exit", !dbg !4854

"_ZN72_$LT$alloc..boxed..Box$LT$T$C$A$GT$$u20$as$u20$core..ops..drop..Drop$GT$4drop17hc277340f760d3ba7E.exit": ; preds = %bb3, %"_ZN63_$LT$alloc..alloc..Global$u20$as$u20$core..alloc..Allocator$GT$10deallocate17h2c1b7023ba670f79E.exit.i"
  ret void, !dbg !4785

cleanup:                                          ; preds = %is_not_null
  %11 = landingpad { ptr, i32 }
          cleanup
    #dbg_value(ptr poison, !4786, !DIExpression(), !4855)
    #dbg_value(ptr %_1.0.val, !4792, !DIExpression(DW_OP_LLVM_fragment, 0, 64), !4857)
    #dbg_value(ptr %_1.8.val, !4792, !DIExpression(DW_OP_LLVM_fragment, 64, 64), !4857)
    #dbg_value(ptr %_1.0.val, !4814, !DIExpression(DW_OP_LLVM_fragment, 0, 64), !4858)
    #dbg_value(ptr %_1.0.val, !4825, !DIExpression(DW_OP_LLVM_fragment, 0, 64), !4860)
    #dbg_value(ptr %_1.0.val, !4832, !DIExpression(DW_OP_LLVM_fragment, 0, 64), !4862)
    #dbg_value(ptr %_1.8.val, !4814, !DIExpression(DW_OP_LLVM_fragment, 64, 64), !4858)
    #dbg_value(ptr %_1.8.val, !4825, !DIExpression(DW_OP_LLVM_fragment, 64, 64), !4860)
    #dbg_value(ptr %_1.8.val, !4832, !DIExpression(DW_OP_LLVM_fragment, 64, 64), !4862)
  %12 = getelementptr inbounds nuw i8, ptr %_1.8.val, i64 8, !dbg !4864
  %13 = load i64, ptr %12, align 8, !dbg !4864, !range !3699, !invariant.load !15
  %14 = getelementptr inbounds nuw i8, ptr %_1.8.val, i64 16, !dbg !4864
    #dbg_value(i64 %13, !4820, !DIExpression(), !4865)
    #dbg_value(i64 %13, !4839, !DIExpression(), !4866)
  %15 = load i64, ptr %14, align 8, !dbg !4868, !range !4514, !invariant.load !15
    #dbg_value(i64 %15, !4822, !DIExpression(), !4865)
    #dbg_value(i64 %15, !4842, !DIExpression(), !4866)
  %16 = add i64 %15, -1, !dbg !4869
  %17 = icmp sgt i64 %16, -1, !dbg !4869
  tail call void @llvm.assume(i1 %17), !dbg !4869
    #dbg_value(i64 %13, !4808, !DIExpression(DW_OP_LLVM_fragment, 64, 64), !4870)
    #dbg_value(i64 %15, !4808, !DIExpression(DW_OP_LLVM_fragment, 0, 64), !4870)
  %18 = icmp eq i64 %13, 0, !dbg !4871
  br i1 %18, label %bb1, label %"_ZN63_$LT$alloc..alloc..Global$u20$as$u20$core..alloc..Allocator$GT$10deallocate17h2c1b7023ba670f79E.exit.i4", !dbg !4871

"_ZN63_$LT$alloc..alloc..Global$u20$as$u20$core..alloc..Allocator$GT$10deallocate17h2c1b7023ba670f79E.exit.i4": ; preds = %cleanup
    #dbg_value(i64 %15, !1428, !DIExpression(DW_OP_LLVM_fragment, 0, 64), !4872)
    #dbg_value(i64 %13, !1428, !DIExpression(DW_OP_LLVM_fragment, 64, 64), !4872)
    #dbg_value(ptr poison, !1433, !DIExpression(), !4872)
    #dbg_value(ptr %_1.0.val, !1434, !DIExpression(), !4872)
    #dbg_value(ptr %_1.0.val, !1437, !DIExpression(), !4874)
    #dbg_value(i64 %15, !1442, !DIExpression(DW_OP_LLVM_fragment, 0, 64), !4874)
    #dbg_value(i64 %13, !1442, !DIExpression(DW_OP_LLVM_fragment, 64, 64), !4874)
; call __rustc::__rust_dealloc
  tail call void @_RNvCsj3IbkTTFM3W_7___rustc14___rust_dealloc(ptr noundef nonnull %_1.0.val, i64 noundef %13, i64 noundef range(i64 1, -9223372036854775807) %15) #19, !dbg !4876
  br label %bb1, !dbg !4877

bb1:                                              ; preds = %"_ZN63_$LT$alloc..alloc..Global$u20$as$u20$core..alloc..Allocator$GT$10deallocate17h2c1b7023ba670f79E.exit.i4", %cleanup
  resume { ptr, i32 } %11, !dbg !4785
}

; core::ptr::drop_in_place<alloc::vec::Vec<alloc::boxed::Box<dyn core::ops::function::FnMut<()>+Output = core::result::Result<(),std::io::error::Error>+core::marker::Sync+core::marker::Send>>>
; Function Attrs: nonlazybind uwtable
define internal fastcc void @"_ZN4core3ptr251drop_in_place$LT$alloc..vec..Vec$LT$alloc..boxed..Box$LT$dyn$u20$core..ops..function..FnMut$LT$$LP$$RP$$GT$$u2b$Output$u20$$u3d$$u20$core..result..Result$LT$$LP$$RP$$C$std..io..error..Error$GT$$u2b$core..marker..Sync$u2b$core..marker..Send$GT$$GT$$GT$17hcf5ccaf96f508066E"(ptr noalias noundef nonnull readonly align 8 captures(none) dereferenceable(24) %_1) unnamed_addr #0 personality ptr @rust_eh_personality !dbg !4878 {
start:
    #dbg_value(ptr %_1, !4883, !DIExpression(), !4886)
  %0 = getelementptr inbounds nuw i8, ptr %_1, i64 8, !dbg !4887
  %_1.val = load ptr, ptr %0, align 8, !dbg !4887, !nonnull !15, !noundef !15
  %1 = getelementptr inbounds nuw i8, ptr %_1, i64 16, !dbg !4887
  %_1.val1 = load i64, ptr %1, align 8, !dbg !4887, !noundef !15
    #dbg_value(ptr poison, !4888, !DIExpression(), !4894)
  tail call void @llvm.experimental.noalias.scope.decl(metadata !4896), !dbg !4899
    #dbg_value(ptr %_1.val, !4900, !DIExpression(DW_OP_LLVM_fragment, 0, 64), !4910)
    #dbg_value(i64 %_1.val1, !4900, !DIExpression(DW_OP_LLVM_fragment, 64, 64), !4910)
  %_78.i.i = icmp eq i64 %_1.val1, 0, !dbg !4912
  br i1 %_78.i.i, label %bb4, label %bb5.i.i, !dbg !4912

bb5.i.i:                                          ; preds = %start, %"_ZN4core3ptr228drop_in_place$LT$alloc..boxed..Box$LT$dyn$u20$core..ops..function..FnMut$LT$$LP$$RP$$GT$$u2b$Output$u20$$u3d$$u20$core..result..Result$LT$$LP$$RP$$C$std..io..error..Error$GT$$u2b$core..marker..Sync$u2b$core..marker..Send$GT$$GT$17h49079b65491ae77cE.exit.i.i"
  %_3.sroa.0.09.i.i = phi i64 [ %2, %"_ZN4core3ptr228drop_in_place$LT$alloc..boxed..Box$LT$dyn$u20$core..ops..function..FnMut$LT$$LP$$RP$$GT$$u2b$Output$u20$$u3d$$u20$core..result..Result$LT$$LP$$RP$$C$std..io..error..Error$GT$$u2b$core..marker..Sync$u2b$core..marker..Send$GT$$GT$17h49079b65491ae77cE.exit.i.i" ], [ 0, %start ]
  %_6.i.i = getelementptr inbounds nuw %"alloc::boxed::Box<dyn core::ops::function::FnMut() -> core::result::Result<(), std::io::error::Error> + core::marker::Send + core::marker::Sync>", ptr %_1.val, i64 %_3.sroa.0.09.i.i, !dbg !4912
  %2 = add nuw i64 %_3.sroa.0.09.i.i, 1, !dbg !4912
  %_6.val.i.i = load ptr, ptr %_6.i.i, align 8, !dbg !4912, !alias.scope !4896
  %3 = getelementptr i8, ptr %_6.i.i, i64 8, !dbg !4912
  %_6.val7.i.i = load ptr, ptr %3, align 8, !dbg !4912, !alias.scope !4896, !nonnull !15, !align !4426, !noundef !15
    #dbg_value(ptr poison, !4783, !DIExpression(), !4913)
  %4 = load ptr, ptr %_6.val7.i.i, align 8, !dbg !4915, !invariant.load !15, !noalias !4896
  %.not.i.i.i = icmp eq ptr %4, null, !dbg !4915
  br i1 %.not.i.i.i, label %bb3.i.i.i, label %is_not_null.i.i.i, !dbg !4915

is_not_null.i.i.i:                                ; preds = %bb5.i.i
  %5 = icmp ne ptr %_6.val.i.i, null
  tail call void @llvm.assume(i1 %5)
  invoke void %4(ptr noundef nonnull %_6.val.i.i)
          to label %bb3.i.i.i unwind label %cleanup.i.i.i, !dbg !4915, !noalias !4896

bb3.i.i.i:                                        ; preds = %is_not_null.i.i.i, %bb5.i.i
  %6 = icmp ne ptr %_6.val.i.i, null
  tail call void @llvm.assume(i1 %6)
    #dbg_value(ptr poison, !4786, !DIExpression(), !4916)
    #dbg_value(ptr %_6.val.i.i, !4792, !DIExpression(DW_OP_LLVM_fragment, 0, 64), !4918)
    #dbg_value(ptr %_6.val7.i.i, !4792, !DIExpression(DW_OP_LLVM_fragment, 64, 64), !4918)
    #dbg_value(ptr %_6.val.i.i, !4814, !DIExpression(DW_OP_LLVM_fragment, 0, 64), !4919)
    #dbg_value(ptr %_6.val.i.i, !4825, !DIExpression(DW_OP_LLVM_fragment, 0, 64), !4921)
    #dbg_value(ptr %_6.val.i.i, !4832, !DIExpression(DW_OP_LLVM_fragment, 0, 64), !4923)
    #dbg_value(ptr %_6.val7.i.i, !4814, !DIExpression(DW_OP_LLVM_fragment, 64, 64), !4919)
    #dbg_value(ptr %_6.val7.i.i, !4825, !DIExpression(DW_OP_LLVM_fragment, 64, 64), !4921)
    #dbg_value(ptr %_6.val7.i.i, !4832, !DIExpression(DW_OP_LLVM_fragment, 64, 64), !4923)
  %7 = getelementptr inbounds nuw i8, ptr %_6.val7.i.i, i64 8, !dbg !4925
  %8 = load i64, ptr %7, align 8, !dbg !4925, !range !3699, !invariant.load !15, !noalias !4896
  %9 = getelementptr inbounds nuw i8, ptr %_6.val7.i.i, i64 16, !dbg !4925
    #dbg_value(i64 %8, !4820, !DIExpression(), !4926)
    #dbg_value(i64 %8, !4839, !DIExpression(), !4927)
  %10 = load i64, ptr %9, align 8, !dbg !4929, !range !4514, !invariant.load !15, !noalias !4896
    #dbg_value(i64 %10, !4822, !DIExpression(), !4926)
    #dbg_value(i64 %10, !4842, !DIExpression(), !4927)
  %11 = add i64 %10, -1, !dbg !4930
  %12 = icmp sgt i64 %11, -1, !dbg !4930
  tail call void @llvm.assume(i1 %12), !dbg !4930
    #dbg_value(i64 %8, !4808, !DIExpression(DW_OP_LLVM_fragment, 64, 64), !4931)
    #dbg_value(i64 %10, !4808, !DIExpression(DW_OP_LLVM_fragment, 0, 64), !4931)
  %13 = icmp eq i64 %8, 0, !dbg !4932
  br i1 %13, label %"_ZN4core3ptr228drop_in_place$LT$alloc..boxed..Box$LT$dyn$u20$core..ops..function..FnMut$LT$$LP$$RP$$GT$$u2b$Output$u20$$u3d$$u20$core..result..Result$LT$$LP$$RP$$C$std..io..error..Error$GT$$u2b$core..marker..Sync$u2b$core..marker..Send$GT$$GT$17h49079b65491ae77cE.exit.i.i", label %"_ZN63_$LT$alloc..alloc..Global$u20$as$u20$core..alloc..Allocator$GT$10deallocate17h2c1b7023ba670f79E.exit.i.i.i.i", !dbg !4932

"_ZN63_$LT$alloc..alloc..Global$u20$as$u20$core..alloc..Allocator$GT$10deallocate17h2c1b7023ba670f79E.exit.i.i.i.i": ; preds = %bb3.i.i.i
    #dbg_value(i64 %10, !1428, !DIExpression(DW_OP_LLVM_fragment, 0, 64), !4933)
    #dbg_value(i64 %8, !1428, !DIExpression(DW_OP_LLVM_fragment, 64, 64), !4933)
    #dbg_value(ptr poison, !1433, !DIExpression(), !4933)
    #dbg_value(ptr %_6.val.i.i, !1434, !DIExpression(), !4933)
    #dbg_value(ptr %_6.val.i.i, !1437, !DIExpression(), !4935)
    #dbg_value(i64 %10, !1442, !DIExpression(DW_OP_LLVM_fragment, 0, 64), !4935)
    #dbg_value(i64 %8, !1442, !DIExpression(DW_OP_LLVM_fragment, 64, 64), !4935)
; call __rustc::__rust_dealloc
  tail call void @_RNvCsj3IbkTTFM3W_7___rustc14___rust_dealloc(ptr noundef nonnull %_6.val.i.i, i64 noundef %8, i64 noundef range(i64 1, -9223372036854775807) %10) #19, !dbg !4937, !noalias !4896
  br label %"_ZN4core3ptr228drop_in_place$LT$alloc..boxed..Box$LT$dyn$u20$core..ops..function..FnMut$LT$$LP$$RP$$GT$$u2b$Output$u20$$u3d$$u20$core..result..Result$LT$$LP$$RP$$C$std..io..error..Error$GT$$u2b$core..marker..Sync$u2b$core..marker..Send$GT$$GT$17h49079b65491ae77cE.exit.i.i", !dbg !4938

cleanup.i.i.i:                                    ; preds = %is_not_null.i.i.i
  %14 = landingpad { ptr, i32 }
          cleanup
    #dbg_value(ptr poison, !4786, !DIExpression(), !4939)
    #dbg_value(ptr %_6.val.i.i, !4792, !DIExpression(DW_OP_LLVM_fragment, 0, 64), !4941)
    #dbg_value(ptr %_6.val7.i.i, !4792, !DIExpression(DW_OP_LLVM_fragment, 64, 64), !4941)
    #dbg_value(ptr %_6.val.i.i, !4814, !DIExpression(DW_OP_LLVM_fragment, 0, 64), !4942)
    #dbg_value(ptr %_6.val.i.i, !4825, !DIExpression(DW_OP_LLVM_fragment, 0, 64), !4944)
    #dbg_value(ptr %_6.val.i.i, !4832, !DIExpression(DW_OP_LLVM_fragment, 0, 64), !4946)
    #dbg_value(ptr %_6.val7.i.i, !4814, !DIExpression(DW_OP_LLVM_fragment, 64, 64), !4942)
    #dbg_value(ptr %_6.val7.i.i, !4825, !DIExpression(DW_OP_LLVM_fragment, 64, 64), !4944)
    #dbg_value(ptr %_6.val7.i.i, !4832, !DIExpression(DW_OP_LLVM_fragment, 64, 64), !4946)
  %15 = getelementptr inbounds nuw i8, ptr %_6.val7.i.i, i64 8, !dbg !4948
  %16 = load i64, ptr %15, align 8, !dbg !4948, !range !3699, !invariant.load !15, !noalias !4896
  %17 = getelementptr inbounds nuw i8, ptr %_6.val7.i.i, i64 16, !dbg !4948
    #dbg_value(i64 %16, !4820, !DIExpression(), !4949)
    #dbg_value(i64 %16, !4839, !DIExpression(), !4950)
  %18 = load i64, ptr %17, align 8, !dbg !4952, !range !4514, !invariant.load !15, !noalias !4896
    #dbg_value(i64 %18, !4822, !DIExpression(), !4949)
    #dbg_value(i64 %18, !4842, !DIExpression(), !4950)
  %19 = add i64 %18, -1, !dbg !4953
  %20 = icmp sgt i64 %19, -1, !dbg !4953
  tail call void @llvm.assume(i1 %20), !dbg !4953
    #dbg_value(i64 %16, !4808, !DIExpression(DW_OP_LLVM_fragment, 64, 64), !4954)
    #dbg_value(i64 %18, !4808, !DIExpression(DW_OP_LLVM_fragment, 0, 64), !4954)
  %21 = icmp eq i64 %16, 0, !dbg !4955
  br i1 %21, label %cleanup.body.i.i, label %"_ZN63_$LT$alloc..alloc..Global$u20$as$u20$core..alloc..Allocator$GT$10deallocate17h2c1b7023ba670f79E.exit.i4.i.i.i", !dbg !4955

"_ZN63_$LT$alloc..alloc..Global$u20$as$u20$core..alloc..Allocator$GT$10deallocate17h2c1b7023ba670f79E.exit.i4.i.i.i": ; preds = %cleanup.i.i.i
    #dbg_value(i64 %18, !1428, !DIExpression(DW_OP_LLVM_fragment, 0, 64), !4956)
    #dbg_value(i64 %16, !1428, !DIExpression(DW_OP_LLVM_fragment, 64, 64), !4956)
    #dbg_value(ptr poison, !1433, !DIExpression(), !4956)
    #dbg_value(ptr %_6.val.i.i, !1434, !DIExpression(), !4956)
    #dbg_value(ptr %_6.val.i.i, !1437, !DIExpression(), !4958)
    #dbg_value(i64 %18, !1442, !DIExpression(DW_OP_LLVM_fragment, 0, 64), !4958)
    #dbg_value(i64 %16, !1442, !DIExpression(DW_OP_LLVM_fragment, 64, 64), !4958)
; call __rustc::__rust_dealloc
  tail call void @_RNvCsj3IbkTTFM3W_7___rustc14___rust_dealloc(ptr noundef nonnull %_6.val.i.i, i64 noundef %16, i64 noundef range(i64 1, -9223372036854775807) %18) #19, !dbg !4960, !noalias !4896
  br label %cleanup.body.i.i, !dbg !4961

"_ZN4core3ptr228drop_in_place$LT$alloc..boxed..Box$LT$dyn$u20$core..ops..function..FnMut$LT$$LP$$RP$$GT$$u2b$Output$u20$$u3d$$u20$core..result..Result$LT$$LP$$RP$$C$std..io..error..Error$GT$$u2b$core..marker..Sync$u2b$core..marker..Send$GT$$GT$17h49079b65491ae77cE.exit.i.i": ; preds = %"_ZN63_$LT$alloc..alloc..Global$u20$as$u20$core..alloc..Allocator$GT$10deallocate17h2c1b7023ba670f79E.exit.i.i.i.i", %bb3.i.i.i
  %_7.i.i = icmp eq i64 %2, %_1.val1, !dbg !4912
  br i1 %_7.i.i, label %bb4, label %bb5.i.i, !dbg !4912

bb4.i.i:                                          ; preds = %bb3.i.i, %cleanup.body.i.i
  %_3.sroa.0.1.i.i = phi i64 [ %2, %cleanup.body.i.i ], [ %22, %bb3.i.i ], !dbg !4912
  %_5.i.i = icmp eq i64 %_3.sroa.0.1.i.i, %_1.val1, !dbg !4912
  br i1 %_5.i.i, label %cleanup.body, label %bb3.i.i, !dbg !4912

cleanup.body.i.i:                                 ; preds = %"_ZN63_$LT$alloc..alloc..Global$u20$as$u20$core..alloc..Allocator$GT$10deallocate17h2c1b7023ba670f79E.exit.i4.i.i.i", %cleanup.i.i.i
  br label %bb4.i.i

bb3.i.i:                                          ; preds = %bb4.i.i
  %_4.i.i = getelementptr inbounds nuw %"alloc::boxed::Box<dyn core::ops::function::FnMut() -> core::result::Result<(), std::io::error::Error> + core::marker::Send + core::marker::Sync>", ptr %_1.val, i64 %_3.sroa.0.1.i.i, !dbg !4912
  %22 = add i64 %_3.sroa.0.1.i.i, 1, !dbg !4912
  %_4.val.i.i = load ptr, ptr %_4.i.i, align 8, !dbg !4912, !alias.scope !4896
  %23 = getelementptr i8, ptr %_4.i.i, i64 8, !dbg !4912
  %_4.val6.i.i = load ptr, ptr %23, align 8, !dbg !4912, !alias.scope !4896, !nonnull !15, !align !4426, !noundef !15
; invoke core::ptr::drop_in_place<alloc::boxed::Box<dyn core::ops::function::FnMut<()>+Output = core::result::Result<(),std::io::error::Error>+core::marker::Sync+core::marker::Send>>
  invoke fastcc void @"_ZN4core3ptr228drop_in_place$LT$alloc..boxed..Box$LT$dyn$u20$core..ops..function..FnMut$LT$$LP$$RP$$GT$$u2b$Output$u20$$u3d$$u20$core..result..Result$LT$$LP$$RP$$C$std..io..error..Error$GT$$u2b$core..marker..Sync$u2b$core..marker..Send$GT$$GT$17h49079b65491ae77cE"(ptr %_4.val.i.i, ptr nonnull %_4.val6.i.i) #21
          to label %bb4.i.i unwind label %terminate.i.i, !dbg !4912, !noalias !4896

terminate.i.i:                                    ; preds = %bb3.i.i
  %24 = landingpad { ptr, i32 }
          filter [0 x ptr] zeroinitializer
; call core::panicking::panic_in_cleanup
  tail call void @_ZN4core9panicking16panic_in_cleanup17h8f68387bb6cbbf54E() #22, !dbg !4912, !noalias !4896
  unreachable, !dbg !4912

cleanup.body:                                     ; preds = %bb4.i.i
  %_1.val2 = load i64, ptr %_1, align 8, !dbg !4887, !range !3699, !noundef !15
    #dbg_value(ptr poison, !4962, !DIExpression(), !4970)
    #dbg_value(ptr poison, !4972, !DIExpression(), !4978)
    #dbg_value(ptr poison, !1382, !DIExpression(), !4980)
    #dbg_value(i64 8, !1389, !DIExpression(DW_OP_LLVM_fragment, 0, 64), !4980)
    #dbg_value(i64 16, !1389, !DIExpression(DW_OP_LLVM_fragment, 64, 64), !4980)
    #dbg_value(i64 8, !1395, !DIExpression(DW_OP_LLVM_fragment, 0, 64), !4982)
    #dbg_value(i64 16, !1395, !DIExpression(DW_OP_LLVM_fragment, 64, 64), !4982)
    #dbg_value(ptr poison, !1419, !DIExpression(), !4982)
    #dbg_value(i64 16, !3723, !DIExpression(), !4984)
  %25 = icmp eq i64 %_1.val2, 0, !dbg !4986
  br i1 %25, label %bb1, label %bb2.i.i.i, !dbg !4986

bb2.i.i.i:                                        ; preds = %cleanup.body
    #dbg_value(i64 %_1.val2, !3728, !DIExpression(), !4984)
  %26 = shl nuw i64 %_1.val2, 4, !dbg !4987
    #dbg_value(ptr %_1.val, !1390, !DIExpression(), !4988)
    #dbg_value(i64 8, !1392, !DIExpression(DW_OP_LLVM_fragment, 0, 64), !4988)
    #dbg_value(i64 %26, !1392, !DIExpression(DW_OP_LLVM_fragment, 64, 64), !4988)
    #dbg_value(i64 8, !1428, !DIExpression(DW_OP_LLVM_fragment, 0, 64), !4989)
    #dbg_value(i64 %26, !1428, !DIExpression(DW_OP_LLVM_fragment, 64, 64), !4989)
    #dbg_value(ptr poison, !1433, !DIExpression(), !4989)
    #dbg_value(ptr %_1.val, !1434, !DIExpression(), !4989)
    #dbg_value(ptr %_1.val, !1437, !DIExpression(), !4991)
    #dbg_value(i64 8, !1442, !DIExpression(DW_OP_LLVM_fragment, 0, 64), !4991)
    #dbg_value(i64 %26, !1442, !DIExpression(DW_OP_LLVM_fragment, 64, 64), !4991)
; call __rustc::__rust_dealloc
  tail call void @_RNvCsj3IbkTTFM3W_7___rustc14___rust_dealloc(ptr noundef nonnull %_1.val, i64 noundef %26, i64 noundef range(i64 1, -9223372036854775807) 8) #19, !dbg !4993
  br label %bb1, !dbg !4994

bb4:                                              ; preds = %"_ZN4core3ptr228drop_in_place$LT$alloc..boxed..Box$LT$dyn$u20$core..ops..function..FnMut$LT$$LP$$RP$$GT$$u2b$Output$u20$$u3d$$u20$core..result..Result$LT$$LP$$RP$$C$std..io..error..Error$GT$$u2b$core..marker..Sync$u2b$core..marker..Send$GT$$GT$17h49079b65491ae77cE.exit.i.i", %start
  %_1.val4 = load i64, ptr %_1, align 8, !dbg !4887, !range !3699, !noundef !15
    #dbg_value(ptr poison, !4962, !DIExpression(), !4995)
    #dbg_value(ptr poison, !4972, !DIExpression(), !4997)
    #dbg_value(ptr poison, !1382, !DIExpression(), !4999)
    #dbg_value(i64 8, !1389, !DIExpression(DW_OP_LLVM_fragment, 0, 64), !4999)
    #dbg_value(i64 16, !1389, !DIExpression(DW_OP_LLVM_fragment, 64, 64), !4999)
    #dbg_value(i64 8, !1395, !DIExpression(DW_OP_LLVM_fragment, 0, 64), !5001)
    #dbg_value(i64 16, !1395, !DIExpression(DW_OP_LLVM_fragment, 64, 64), !5001)
    #dbg_value(ptr poison, !1419, !DIExpression(), !5001)
    #dbg_value(i64 16, !3723, !DIExpression(), !5003)
  %27 = icmp eq i64 %_1.val4, 0, !dbg !5005
  br i1 %27, label %"_ZN4core3ptr258drop_in_place$LT$alloc..raw_vec..RawVec$LT$alloc..boxed..Box$LT$dyn$u20$core..ops..function..FnMut$LT$$LP$$RP$$GT$$u2b$Output$u20$$u3d$$u20$core..result..Result$LT$$LP$$RP$$C$std..io..error..Error$GT$$u2b$core..marker..Sync$u2b$core..marker..Send$GT$$GT$$GT$17he9ae3e6ecb3e4aa7E.exit7", label %bb2.i.i.i6, !dbg !5005

bb2.i.i.i6:                                       ; preds = %bb4
    #dbg_value(i64 %_1.val4, !3728, !DIExpression(), !5003)
  %28 = shl nuw i64 %_1.val4, 4, !dbg !5006
    #dbg_value(ptr %_1.val, !1390, !DIExpression(), !5007)
    #dbg_value(i64 8, !1392, !DIExpression(DW_OP_LLVM_fragment, 0, 64), !5007)
    #dbg_value(i64 %28, !1392, !DIExpression(DW_OP_LLVM_fragment, 64, 64), !5007)
    #dbg_value(i64 8, !1428, !DIExpression(DW_OP_LLVM_fragment, 0, 64), !5008)
    #dbg_value(i64 %28, !1428, !DIExpression(DW_OP_LLVM_fragment, 64, 64), !5008)
    #dbg_value(ptr poison, !1433, !DIExpression(), !5008)
    #dbg_value(ptr %_1.val, !1434, !DIExpression(), !5008)
    #dbg_value(ptr %_1.val, !1437, !DIExpression(), !5010)
    #dbg_value(i64 8, !1442, !DIExpression(DW_OP_LLVM_fragment, 0, 64), !5010)
    #dbg_value(i64 %28, !1442, !DIExpression(DW_OP_LLVM_fragment, 64, 64), !5010)
; call __rustc::__rust_dealloc
  tail call void @_RNvCsj3IbkTTFM3W_7___rustc14___rust_dealloc(ptr noundef nonnull %_1.val, i64 noundef %28, i64 noundef range(i64 1, -9223372036854775807) 8) #19, !dbg !5012
  br label %"_ZN4core3ptr258drop_in_place$LT$alloc..raw_vec..RawVec$LT$alloc..boxed..Box$LT$dyn$u20$core..ops..function..FnMut$LT$$LP$$RP$$GT$$u2b$Output$u20$$u3d$$u20$core..result..Result$LT$$LP$$RP$$C$std..io..error..Error$GT$$u2b$core..marker..Sync$u2b$core..marker..Send$GT$$GT$$GT$17he9ae3e6ecb3e4aa7E.exit7", !dbg !5013

"_ZN4core3ptr258drop_in_place$LT$alloc..raw_vec..RawVec$LT$alloc..boxed..Box$LT$dyn$u20$core..ops..function..FnMut$LT$$LP$$RP$$GT$$u2b$Output$u20$$u3d$$u20$core..result..Result$LT$$LP$$RP$$C$std..io..error..Error$GT$$u2b$core..marker..Sync$u2b$core..marker..Send$GT$$GT$$GT$17he9ae3e6ecb3e4aa7E.exit7": ; preds = %bb4, %bb2.i.i.i6
  ret void, !dbg !4887

bb1:                                              ; preds = %bb2.i.i.i, %cleanup.body
  resume { ptr, i32 } %14, !dbg !4887
}

; core::ptr::drop_in_place<std::process::Command>
; Function Attrs: nonlazybind uwtable
define internal fastcc void @"_ZN4core3ptr42drop_in_place$LT$std..process..Command$GT$17he542d218c43c328fE"(ptr noalias noundef nonnull align 8 dereferenceable(200) %_1) unnamed_addr #0 personality ptr @rust_eh_personality !dbg !5014 {
start:
    #dbg_value(ptr %_1, !5019, !DIExpression(), !5020)
  tail call void @llvm.experimental.noalias.scope.decl(metadata !5021), !dbg !5024
    #dbg_value(ptr %_1, !5025, !DIExpression(), !5033)
  %0 = getelementptr inbounds nuw i8, ptr %_1, i64 128, !dbg !5035
  %.val.i = load ptr, ptr %0, align 8, !dbg !5035, !alias.scope !5021, !nonnull !15, !align !4006, !noundef !15
  %1 = getelementptr inbounds nuw i8, ptr %_1, i64 136, !dbg !5035
  %.val24.i = load i64, ptr %1, align 8, !dbg !5035, !alias.scope !5021
    #dbg_value(ptr poison, !5036, !DIExpression(), !5042)
    #dbg_value(ptr poison, !5044, !DIExpression(), !5052)
  store i8 0, ptr %.val.i, align 1, !dbg !5054, !noalias !5021
    #dbg_value(ptr poison, !5055, !DIExpression(), !5063)
    #dbg_value(ptr poison, !5065, !DIExpression(), !5080)
    #dbg_value(ptr poison, !5071, !DIExpression(DW_OP_LLVM_fragment, 0, 64), !5082)
    #dbg_value(i64 %.val24.i, !5071, !DIExpression(DW_OP_LLVM_fragment, 64, 64), !5082)
    #dbg_value(i64 %.val24.i, !5078, !DIExpression(DW_OP_LLVM_fragment, 64, 64), !5083)
    #dbg_value(i64 1, !5078, !DIExpression(DW_OP_LLVM_fragment, 0, 64), !5083)
  %2 = icmp eq i64 %.val24.i, 0, !dbg !5084
  br i1 %2, label %bb20.i, label %"_ZN63_$LT$alloc..alloc..Global$u20$as$u20$core..alloc..Allocator$GT$10deallocate17h2c1b7023ba670f79E.exit.i.i5.i.i", !dbg !5084

"_ZN63_$LT$alloc..alloc..Global$u20$as$u20$core..alloc..Allocator$GT$10deallocate17h2c1b7023ba670f79E.exit.i.i5.i.i": ; preds = %start
    #dbg_value(ptr %.val.i, !5071, !DIExpression(DW_OP_LLVM_fragment, 0, 64), !5082)
    #dbg_value(i64 1, !1428, !DIExpression(DW_OP_LLVM_fragment, 0, 64), !5085)
    #dbg_value(i64 %.val24.i, !1428, !DIExpression(DW_OP_LLVM_fragment, 64, 64), !5085)
    #dbg_value(ptr poison, !1433, !DIExpression(), !5085)
    #dbg_value(ptr %.val.i, !1434, !DIExpression(), !5085)
    #dbg_value(ptr %.val.i, !1437, !DIExpression(), !5087)
    #dbg_value(i64 1, !1442, !DIExpression(DW_OP_LLVM_fragment, 0, 64), !5087)
    #dbg_value(i64 %.val24.i, !1442, !DIExpression(DW_OP_LLVM_fragment, 64, 64), !5087)
; call __rustc::__rust_dealloc
  tail call void @_RNvCsj3IbkTTFM3W_7___rustc14___rust_dealloc(ptr noundef nonnull %.val.i, i64 noundef %.val24.i, i64 noundef 1) #19, !dbg !5089
  br label %bb20.i, !dbg !5090

bb20.i:                                           ; preds = %"_ZN63_$LT$alloc..alloc..Global$u20$as$u20$core..alloc..Allocator$GT$10deallocate17h2c1b7023ba670f79E.exit.i.i5.i.i", %start
    #dbg_value(ptr %_1, !5091, !DIExpression(), !5099)
; invoke <std::sys::process::unix::common::cstring_array::CStringArray as core::ops::drop::Drop>::drop
  invoke void @"_ZN102_$LT$std..sys..process..unix..common..cstring_array..CStringArray$u20$as$u20$core..ops..drop..Drop$GT$4drop17h5cc472e2114c5800E"(ptr noalias noundef nonnull align 8 dereferenceable(200) %_1)
          to label %bb4.i.i unwind label %cleanup.i.i, !dbg !5101

cleanup.i.i:                                      ; preds = %bb20.i
  %3 = landingpad { ptr, i32 }
          cleanup
  %_1.val.i.i = load i64, ptr %_1, align 8, !dbg !5101, !alias.scope !5102
    #dbg_value(ptr poison, !5105, !DIExpression(), !5113)
    #dbg_value(ptr poison, !5115, !DIExpression(), !5123)
    #dbg_value(ptr poison, !5125, !DIExpression(), !5131)
    #dbg_value(ptr poison, !1382, !DIExpression(), !5133)
    #dbg_value(i64 8, !1389, !DIExpression(DW_OP_LLVM_fragment, 0, 64), !5133)
    #dbg_value(i64 8, !1389, !DIExpression(DW_OP_LLVM_fragment, 64, 64), !5133)
    #dbg_value(i64 8, !1395, !DIExpression(DW_OP_LLVM_fragment, 0, 64), !5135)
    #dbg_value(i64 8, !1395, !DIExpression(DW_OP_LLVM_fragment, 64, 64), !5135)
    #dbg_value(ptr poison, !1419, !DIExpression(), !5135)
    #dbg_value(i64 8, !3723, !DIExpression(), !5137)
  %4 = icmp eq i64 %_1.val.i.i, 0, !dbg !5139
  br i1 %4, label %bb10.i, label %bb2.i.i.i4.i.i.i, !dbg !5139

bb2.i.i.i4.i.i.i:                                 ; preds = %cleanup.i.i
  %5 = getelementptr inbounds nuw i8, ptr %_1, i64 8, !dbg !5101
  %_1.val1.i.i = load ptr, ptr %5, align 8, !dbg !5101, !alias.scope !5102, !nonnull !15, !noundef !15
    #dbg_value(i64 %_1.val.i.i, !3728, !DIExpression(), !5137)
  %6 = shl nuw i64 %_1.val.i.i, 3, !dbg !5140
    #dbg_value(ptr %_1.val1.i.i, !1390, !DIExpression(), !5141)
    #dbg_value(i64 8, !1392, !DIExpression(DW_OP_LLVM_fragment, 0, 64), !5141)
    #dbg_value(i64 %6, !1392, !DIExpression(DW_OP_LLVM_fragment, 64, 64), !5141)
    #dbg_value(i64 8, !1428, !DIExpression(DW_OP_LLVM_fragment, 0, 64), !5142)
    #dbg_value(i64 %6, !1428, !DIExpression(DW_OP_LLVM_fragment, 64, 64), !5142)
    #dbg_value(ptr poison, !1433, !DIExpression(), !5142)
    #dbg_value(ptr %_1.val1.i.i, !1434, !DIExpression(), !5142)
    #dbg_value(ptr %_1.val1.i.i, !1437, !DIExpression(), !5144)
    #dbg_value(i64 8, !1442, !DIExpression(DW_OP_LLVM_fragment, 0, 64), !5144)
    #dbg_value(i64 %6, !1442, !DIExpression(DW_OP_LLVM_fragment, 64, 64), !5144)
; call __rustc::__rust_dealloc
  tail call void @_RNvCsj3IbkTTFM3W_7___rustc14___rust_dealloc(ptr noundef nonnull %_1.val1.i.i, i64 noundef %6, i64 noundef range(i64 1, -9223372036854775807) 8) #19, !dbg !5146
  br label %bb10.i, !dbg !5147

bb4.i.i:                                          ; preds = %bb20.i
  %_1.val2.i.i = load i64, ptr %_1, align 8, !dbg !5101, !alias.scope !5102
    #dbg_value(ptr poison, !5105, !DIExpression(), !5148)
    #dbg_value(ptr poison, !5115, !DIExpression(), !5150)
    #dbg_value(ptr poison, !5125, !DIExpression(), !5152)
    #dbg_value(ptr poison, !1382, !DIExpression(), !5154)
    #dbg_value(i64 8, !1389, !DIExpression(DW_OP_LLVM_fragment, 0, 64), !5154)
    #dbg_value(i64 8, !1389, !DIExpression(DW_OP_LLVM_fragment, 64, 64), !5154)
    #dbg_value(i64 8, !1395, !DIExpression(DW_OP_LLVM_fragment, 0, 64), !5156)
    #dbg_value(i64 8, !1395, !DIExpression(DW_OP_LLVM_fragment, 64, 64), !5156)
    #dbg_value(ptr poison, !1419, !DIExpression(), !5156)
    #dbg_value(i64 8, !3723, !DIExpression(), !5158)
  %7 = icmp eq i64 %_1.val2.i.i, 0, !dbg !5160
  br i1 %7, label %bb19.i, label %bb2.i.i.i4.i4.i.i, !dbg !5160

bb2.i.i.i4.i4.i.i:                                ; preds = %bb4.i.i
  %8 = getelementptr inbounds nuw i8, ptr %_1, i64 8, !dbg !5101
  %_1.val3.i.i = load ptr, ptr %8, align 8, !dbg !5101, !alias.scope !5102, !nonnull !15, !noundef !15
    #dbg_value(i64 %_1.val2.i.i, !3728, !DIExpression(), !5158)
  %9 = shl nuw i64 %_1.val2.i.i, 3, !dbg !5161
    #dbg_value(ptr %_1.val3.i.i, !1390, !DIExpression(), !5162)
    #dbg_value(i64 8, !1392, !DIExpression(DW_OP_LLVM_fragment, 0, 64), !5162)
    #dbg_value(i64 %9, !1392, !DIExpression(DW_OP_LLVM_fragment, 64, 64), !5162)
    #dbg_value(i64 8, !1428, !DIExpression(DW_OP_LLVM_fragment, 0, 64), !5163)
    #dbg_value(i64 %9, !1428, !DIExpression(DW_OP_LLVM_fragment, 64, 64), !5163)
    #dbg_value(ptr poison, !1433, !DIExpression(), !5163)
    #dbg_value(ptr %_1.val3.i.i, !1434, !DIExpression(), !5163)
    #dbg_value(ptr %_1.val3.i.i, !1437, !DIExpression(), !5165)
    #dbg_value(i64 8, !1442, !DIExpression(DW_OP_LLVM_fragment, 0, 64), !5165)
    #dbg_value(i64 %9, !1442, !DIExpression(DW_OP_LLVM_fragment, 64, 64), !5165)
; call __rustc::__rust_dealloc
  tail call void @_RNvCsj3IbkTTFM3W_7___rustc14___rust_dealloc(ptr noundef nonnull %_1.val3.i.i, i64 noundef %9, i64 noundef range(i64 1, -9223372036854775807) 8) #19, !dbg !5167
  br label %bb19.i, !dbg !5168

bb10.i:                                           ; preds = %bb2.i.i.i4.i.i.i, %cleanup.i.i
  %10 = getelementptr inbounds nuw i8, ptr %_1, i64 96, !dbg !5035
; invoke core::ptr::drop_in_place<std::sys::process::env::CommandEnv>
  invoke fastcc void @"_ZN4core3ptr55drop_in_place$LT$std..sys..process..env..CommandEnv$GT$17h22681cee4dd1234eE"(ptr noalias noundef align 8 dereferenceable(32) %10) #21
          to label %bb9.i unwind label %terminate.i, !dbg !5035

bb19.i:                                           ; preds = %bb2.i.i.i4.i4.i.i, %bb4.i.i
  %11 = getelementptr inbounds nuw i8, ptr %_1, i64 96, !dbg !5035
; invoke core::ptr::drop_in_place<std::sys::process::env::CommandEnv>
  invoke fastcc void @"_ZN4core3ptr55drop_in_place$LT$std..sys..process..env..CommandEnv$GT$17h22681cee4dd1234eE"(ptr noalias noundef align 8 dereferenceable(32) %11)
          to label %bb18.i unwind label %cleanup2.i, !dbg !5035

bb9.i:                                            ; preds = %cleanup2.i, %bb10.i
  %.pn10.i = phi { ptr, i32 } [ %16, %cleanup2.i ], [ %3, %bb10.i ]
  %12 = getelementptr inbounds nuw i8, ptr %_1, i64 144, !dbg !5035
  %.val27.i = load ptr, ptr %12, align 8, !dbg !5035, !alias.scope !5021, !align !4006, !noundef !15
  %13 = getelementptr inbounds nuw i8, ptr %_1, i64 152, !dbg !5035
  %.val28.i = load i64, ptr %13, align 8, !dbg !5035, !alias.scope !5021
    #dbg_value(ptr poison, !5169, !DIExpression(), !5177)
  %14 = icmp eq ptr %.val27.i, null, !dbg !5179
  br i1 %14, label %bb8.i, label %bb2.i.i, !dbg !5179

bb2.i.i:                                          ; preds = %bb9.i
    #dbg_value(ptr poison, !5036, !DIExpression(), !5180)
    #dbg_value(ptr poison, !5044, !DIExpression(), !5182)
  store i8 0, ptr %.val27.i, align 1, !dbg !5184
    #dbg_value(ptr poison, !5055, !DIExpression(), !5185)
    #dbg_value(ptr poison, !5065, !DIExpression(), !5187)
    #dbg_value(ptr poison, !5071, !DIExpression(DW_OP_LLVM_fragment, 0, 64), !5189)
    #dbg_value(i64 %.val28.i, !5071, !DIExpression(DW_OP_LLVM_fragment, 64, 64), !5189)
    #dbg_value(i64 %.val28.i, !5078, !DIExpression(DW_OP_LLVM_fragment, 64, 64), !5190)
    #dbg_value(i64 1, !5078, !DIExpression(DW_OP_LLVM_fragment, 0, 64), !5190)
  %15 = icmp eq i64 %.val28.i, 0, !dbg !5191
  br i1 %15, label %bb8.i, label %"_ZN63_$LT$alloc..alloc..Global$u20$as$u20$core..alloc..Allocator$GT$10deallocate17h2c1b7023ba670f79E.exit.i.i5.i.i.i", !dbg !5191

"_ZN63_$LT$alloc..alloc..Global$u20$as$u20$core..alloc..Allocator$GT$10deallocate17h2c1b7023ba670f79E.exit.i.i5.i.i.i": ; preds = %bb2.i.i
    #dbg_value(ptr %.val27.i, !5071, !DIExpression(DW_OP_LLVM_fragment, 0, 64), !5189)
    #dbg_value(i64 1, !1428, !DIExpression(DW_OP_LLVM_fragment, 0, 64), !5192)
    #dbg_value(i64 %.val28.i, !1428, !DIExpression(DW_OP_LLVM_fragment, 64, 64), !5192)
    #dbg_value(ptr poison, !1433, !DIExpression(), !5192)
    #dbg_value(ptr %.val27.i, !1434, !DIExpression(), !5192)
    #dbg_value(ptr %.val27.i, !1437, !DIExpression(), !5194)
    #dbg_value(i64 1, !1442, !DIExpression(DW_OP_LLVM_fragment, 0, 64), !5194)
    #dbg_value(i64 %.val28.i, !1442, !DIExpression(DW_OP_LLVM_fragment, 64, 64), !5194)
; call __rustc::__rust_dealloc
  tail call void @_RNvCsj3IbkTTFM3W_7___rustc14___rust_dealloc(ptr noundef nonnull %.val27.i, i64 noundef %.val28.i, i64 noundef 1) #19, !dbg !5196
  br label %bb8.i, !dbg !5197

cleanup2.i:                                       ; preds = %bb19.i
  %16 = landingpad { ptr, i32 }
          cleanup
  br label %bb9.i

bb18.i:                                           ; preds = %bb19.i
  %17 = getelementptr inbounds nuw i8, ptr %_1, i64 144, !dbg !5035
  %.val31.i = load ptr, ptr %17, align 8, !dbg !5035, !alias.scope !5021, !align !4006, !noundef !15
  %18 = getelementptr inbounds nuw i8, ptr %_1, i64 152, !dbg !5035
  %.val32.i = load i64, ptr %18, align 8, !dbg !5035, !alias.scope !5021
    #dbg_value(ptr poison, !5169, !DIExpression(), !5198)
  %19 = icmp eq ptr %.val31.i, null, !dbg !5200
  br i1 %19, label %bb17.i, label %bb2.i50.i, !dbg !5200

bb2.i50.i:                                        ; preds = %bb18.i
    #dbg_value(ptr poison, !5036, !DIExpression(), !5201)
    #dbg_value(ptr poison, !5044, !DIExpression(), !5203)
  store i8 0, ptr %.val31.i, align 1, !dbg !5205
    #dbg_value(ptr poison, !5055, !DIExpression(), !5206)
    #dbg_value(ptr poison, !5065, !DIExpression(), !5208)
    #dbg_value(ptr poison, !5071, !DIExpression(DW_OP_LLVM_fragment, 0, 64), !5210)
    #dbg_value(i64 %.val32.i, !5071, !DIExpression(DW_OP_LLVM_fragment, 64, 64), !5210)
    #dbg_value(i64 %.val32.i, !5078, !DIExpression(DW_OP_LLVM_fragment, 64, 64), !5211)
    #dbg_value(i64 1, !5078, !DIExpression(DW_OP_LLVM_fragment, 0, 64), !5211)
  %20 = icmp eq i64 %.val32.i, 0, !dbg !5212
  br i1 %20, label %bb17.i, label %"_ZN63_$LT$alloc..alloc..Global$u20$as$u20$core..alloc..Allocator$GT$10deallocate17h2c1b7023ba670f79E.exit.i.i5.i.i51.i", !dbg !5212

"_ZN63_$LT$alloc..alloc..Global$u20$as$u20$core..alloc..Allocator$GT$10deallocate17h2c1b7023ba670f79E.exit.i.i5.i.i51.i": ; preds = %bb2.i50.i
    #dbg_value(ptr %.val31.i, !5071, !DIExpression(DW_OP_LLVM_fragment, 0, 64), !5210)
    #dbg_value(i64 1, !1428, !DIExpression(DW_OP_LLVM_fragment, 0, 64), !5213)
    #dbg_value(i64 %.val32.i, !1428, !DIExpression(DW_OP_LLVM_fragment, 64, 64), !5213)
    #dbg_value(ptr poison, !1433, !DIExpression(), !5213)
    #dbg_value(ptr %.val31.i, !1434, !DIExpression(), !5213)
    #dbg_value(ptr %.val31.i, !1437, !DIExpression(), !5215)
    #dbg_value(i64 1, !1442, !DIExpression(DW_OP_LLVM_fragment, 0, 64), !5215)
    #dbg_value(i64 %.val32.i, !1442, !DIExpression(DW_OP_LLVM_fragment, 64, 64), !5215)
; call __rustc::__rust_dealloc
  tail call void @_RNvCsj3IbkTTFM3W_7___rustc14___rust_dealloc(ptr noundef nonnull %.val31.i, i64 noundef %.val32.i, i64 noundef 1) #19, !dbg !5217
  br label %bb17.i, !dbg !5218

bb8.i:                                            ; preds = %"_ZN63_$LT$alloc..alloc..Global$u20$as$u20$core..alloc..Allocator$GT$10deallocate17h2c1b7023ba670f79E.exit.i.i5.i.i.i", %bb2.i.i, %bb9.i
  %21 = getelementptr inbounds nuw i8, ptr %_1, i64 160, !dbg !5035
  %.val25.i = load ptr, ptr %21, align 8, !dbg !5035, !alias.scope !5021, !align !4006, !noundef !15
  %22 = getelementptr inbounds nuw i8, ptr %_1, i64 168, !dbg !5035
  %.val26.i = load i64, ptr %22, align 8, !dbg !5035, !alias.scope !5021
    #dbg_value(ptr poison, !5169, !DIExpression(), !5219)
  %23 = icmp eq ptr %.val25.i, null, !dbg !5221
  br i1 %23, label %bb7.i, label %bb2.i54.i, !dbg !5221

bb2.i54.i:                                        ; preds = %bb8.i
    #dbg_value(ptr poison, !5036, !DIExpression(), !5222)
    #dbg_value(ptr poison, !5044, !DIExpression(), !5224)
  store i8 0, ptr %.val25.i, align 1, !dbg !5226
    #dbg_value(ptr poison, !5055, !DIExpression(), !5227)
    #dbg_value(ptr poison, !5065, !DIExpression(), !5229)
    #dbg_value(ptr poison, !5071, !DIExpression(DW_OP_LLVM_fragment, 0, 64), !5231)
    #dbg_value(i64 %.val26.i, !5071, !DIExpression(DW_OP_LLVM_fragment, 64, 64), !5231)
    #dbg_value(i64 %.val26.i, !5078, !DIExpression(DW_OP_LLVM_fragment, 64, 64), !5232)
    #dbg_value(i64 1, !5078, !DIExpression(DW_OP_LLVM_fragment, 0, 64), !5232)
  %24 = icmp eq i64 %.val26.i, 0, !dbg !5233
  br i1 %24, label %bb7.i, label %"_ZN63_$LT$alloc..alloc..Global$u20$as$u20$core..alloc..Allocator$GT$10deallocate17h2c1b7023ba670f79E.exit.i.i5.i.i55.i", !dbg !5233

"_ZN63_$LT$alloc..alloc..Global$u20$as$u20$core..alloc..Allocator$GT$10deallocate17h2c1b7023ba670f79E.exit.i.i5.i.i55.i": ; preds = %bb2.i54.i
    #dbg_value(ptr %.val25.i, !5071, !DIExpression(DW_OP_LLVM_fragment, 0, 64), !5231)
    #dbg_value(i64 1, !1428, !DIExpression(DW_OP_LLVM_fragment, 0, 64), !5234)
    #dbg_value(i64 %.val26.i, !1428, !DIExpression(DW_OP_LLVM_fragment, 64, 64), !5234)
    #dbg_value(ptr poison, !1433, !DIExpression(), !5234)
    #dbg_value(ptr %.val25.i, !1434, !DIExpression(), !5234)
    #dbg_value(ptr %.val25.i, !1437, !DIExpression(), !5236)
    #dbg_value(i64 1, !1442, !DIExpression(DW_OP_LLVM_fragment, 0, 64), !5236)
    #dbg_value(i64 %.val26.i, !1442, !DIExpression(DW_OP_LLVM_fragment, 64, 64), !5236)
; call __rustc::__rust_dealloc
  tail call void @_RNvCsj3IbkTTFM3W_7___rustc14___rust_dealloc(ptr noundef nonnull %.val25.i, i64 noundef %.val26.i, i64 noundef 1) #19, !dbg !5238
  br label %bb7.i, !dbg !5239

bb17.i:                                           ; preds = %"_ZN63_$LT$alloc..alloc..Global$u20$as$u20$core..alloc..Allocator$GT$10deallocate17h2c1b7023ba670f79E.exit.i.i5.i.i51.i", %bb2.i50.i, %bb18.i
  %25 = getelementptr inbounds nuw i8, ptr %_1, i64 160, !dbg !5035
  %.val29.i = load ptr, ptr %25, align 8, !dbg !5035, !alias.scope !5021, !align !4006, !noundef !15
  %26 = getelementptr inbounds nuw i8, ptr %_1, i64 168, !dbg !5035
  %.val30.i = load i64, ptr %26, align 8, !dbg !5035, !alias.scope !5021
    #dbg_value(ptr poison, !5169, !DIExpression(), !5240)
  %27 = icmp eq ptr %.val29.i, null, !dbg !5242
  br i1 %27, label %bb16.i, label %bb2.i58.i, !dbg !5242

bb2.i58.i:                                        ; preds = %bb17.i
    #dbg_value(ptr poison, !5036, !DIExpression(), !5243)
    #dbg_value(ptr poison, !5044, !DIExpression(), !5245)
  store i8 0, ptr %.val29.i, align 1, !dbg !5247
    #dbg_value(ptr poison, !5055, !DIExpression(), !5248)
    #dbg_value(ptr poison, !5065, !DIExpression(), !5250)
    #dbg_value(ptr poison, !5071, !DIExpression(DW_OP_LLVM_fragment, 0, 64), !5252)
    #dbg_value(i64 %.val30.i, !5071, !DIExpression(DW_OP_LLVM_fragment, 64, 64), !5252)
    #dbg_value(i64 %.val30.i, !5078, !DIExpression(DW_OP_LLVM_fragment, 64, 64), !5253)
    #dbg_value(i64 1, !5078, !DIExpression(DW_OP_LLVM_fragment, 0, 64), !5253)
  %28 = icmp eq i64 %.val30.i, 0, !dbg !5254
  br i1 %28, label %bb16.i, label %"_ZN63_$LT$alloc..alloc..Global$u20$as$u20$core..alloc..Allocator$GT$10deallocate17h2c1b7023ba670f79E.exit.i.i5.i.i59.i", !dbg !5254

"_ZN63_$LT$alloc..alloc..Global$u20$as$u20$core..alloc..Allocator$GT$10deallocate17h2c1b7023ba670f79E.exit.i.i5.i.i59.i": ; preds = %bb2.i58.i
    #dbg_value(ptr %.val29.i, !5071, !DIExpression(DW_OP_LLVM_fragment, 0, 64), !5252)
    #dbg_value(i64 1, !1428, !DIExpression(DW_OP_LLVM_fragment, 0, 64), !5255)
    #dbg_value(i64 %.val30.i, !1428, !DIExpression(DW_OP_LLVM_fragment, 64, 64), !5255)
    #dbg_value(ptr poison, !1433, !DIExpression(), !5255)
    #dbg_value(ptr %.val29.i, !1434, !DIExpression(), !5255)
    #dbg_value(ptr %.val29.i, !1437, !DIExpression(), !5257)
    #dbg_value(i64 1, !1442, !DIExpression(DW_OP_LLVM_fragment, 0, 64), !5257)
    #dbg_value(i64 %.val30.i, !1442, !DIExpression(DW_OP_LLVM_fragment, 64, 64), !5257)
; call __rustc::__rust_dealloc
  tail call void @_RNvCsj3IbkTTFM3W_7___rustc14___rust_dealloc(ptr noundef nonnull %.val29.i, i64 noundef %.val30.i, i64 noundef 1) #19, !dbg !5259
  br label %bb16.i, !dbg !5260

bb7.i:                                            ; preds = %"_ZN63_$LT$alloc..alloc..Global$u20$as$u20$core..alloc..Allocator$GT$10deallocate17h2c1b7023ba670f79E.exit.i.i5.i.i55.i", %bb2.i54.i, %bb8.i
  %29 = getelementptr inbounds nuw i8, ptr %_1, i64 24, !dbg !5035
; invoke core::ptr::drop_in_place<alloc::vec::Vec<alloc::boxed::Box<dyn core::ops::function::FnMut<()>+Output = core::result::Result<(),std::io::error::Error>+core::marker::Sync+core::marker::Send>>>
  invoke fastcc void @"_ZN4core3ptr251drop_in_place$LT$alloc..vec..Vec$LT$alloc..boxed..Box$LT$dyn$u20$core..ops..function..FnMut$LT$$LP$$RP$$GT$$u2b$Output$u20$$u3d$$u20$core..result..Result$LT$$LP$$RP$$C$std..io..error..Error$GT$$u2b$core..marker..Sync$u2b$core..marker..Send$GT$$GT$$GT$17hcf5ccaf96f508066E"(ptr noalias noundef align 8 dereferenceable(24) %29) #21
          to label %bb6.i unwind label %terminate.i, !dbg !5035

bb16.i:                                           ; preds = %"_ZN63_$LT$alloc..alloc..Global$u20$as$u20$core..alloc..Allocator$GT$10deallocate17h2c1b7023ba670f79E.exit.i.i5.i.i59.i", %bb2.i58.i, %bb17.i
  %30 = getelementptr inbounds nuw i8, ptr %_1, i64 24, !dbg !5035
; invoke core::ptr::drop_in_place<alloc::vec::Vec<alloc::boxed::Box<dyn core::ops::function::FnMut<()>+Output = core::result::Result<(),std::io::error::Error>+core::marker::Sync+core::marker::Send>>>
  invoke fastcc void @"_ZN4core3ptr251drop_in_place$LT$alloc..vec..Vec$LT$alloc..boxed..Box$LT$dyn$u20$core..ops..function..FnMut$LT$$LP$$RP$$GT$$u2b$Output$u20$$u3d$$u20$core..result..Result$LT$$LP$$RP$$C$std..io..error..Error$GT$$u2b$core..marker..Sync$u2b$core..marker..Send$GT$$GT$$GT$17hcf5ccaf96f508066E"(ptr noalias noundef align 8 dereferenceable(24) %30)
          to label %bb15.i unwind label %cleanup5.i, !dbg !5035

bb6.i:                                            ; preds = %cleanup5.i, %bb7.i
  %.pn16.i = phi { ptr, i32 } [ %36, %cleanup5.i ], [ %.pn10.i, %bb7.i ]
  %31 = getelementptr inbounds nuw i8, ptr %_1, i64 176, !dbg !5035
  %.val33.i = load ptr, ptr %31, align 8, !dbg !5035, !alias.scope !5021, !align !5261, !noundef !15
  %32 = getelementptr inbounds nuw i8, ptr %_1, i64 184, !dbg !5035
  %.val34.i = load i64, ptr %32, align 8, !dbg !5035, !alias.scope !5021
    #dbg_value(ptr poison, !5262, !DIExpression(), !5270)
  %33 = icmp eq ptr %.val33.i, null, !dbg !5272
    #dbg_value(ptr poison, !5273, !DIExpression(), !5279)
    #dbg_value(ptr poison, !5281, !DIExpression(), !5304)
    #dbg_value(ptr poison, !5287, !DIExpression(DW_OP_LLVM_fragment, 0, 64), !5306)
    #dbg_value(i64 %.val34.i, !5287, !DIExpression(DW_OP_LLVM_fragment, 64, 64), !5306)
    #dbg_value(ptr poison, !5307, !DIExpression(DW_OP_LLVM_fragment, 0, 64), !5316)
    #dbg_value(ptr poison, !5318, !DIExpression(DW_OP_LLVM_fragment, 0, 64), !5323)
    #dbg_value(i64 %.val34.i, !5307, !DIExpression(DW_OP_LLVM_fragment, 64, 64), !5316)
    #dbg_value(i64 %.val34.i, !5318, !DIExpression(DW_OP_LLVM_fragment, 64, 64), !5323)
    #dbg_value(i64 %.val34.i, !5301, !DIExpression(DW_OP_constu, 2, DW_OP_shl, DW_OP_stack_value, DW_OP_LLVM_fragment, 64, 64), !5325)
    #dbg_value(i64 4, !5301, !DIExpression(DW_OP_LLVM_fragment, 0, 64), !5325)
  %34 = icmp eq i64 %.val34.i, 0
  %or.cond.i.i = select i1 %33, i1 true, i1 %34, !dbg !5272
  br i1 %or.cond.i.i, label %bb5.i, label %"_ZN63_$LT$alloc..alloc..Global$u20$as$u20$core..alloc..Allocator$GT$10deallocate17h2c1b7023ba670f79E.exit.i.i.i.i", !dbg !5272

"_ZN63_$LT$alloc..alloc..Global$u20$as$u20$core..alloc..Allocator$GT$10deallocate17h2c1b7023ba670f79E.exit.i.i.i.i": ; preds = %bb6.i
  %35 = shl nuw nsw i64 %.val34.i, 2, !dbg !5326
    #dbg_value(i64 %35, !5301, !DIExpression(DW_OP_LLVM_fragment, 64, 64), !5325)
    #dbg_value(ptr %.val33.i, !5307, !DIExpression(DW_OP_LLVM_fragment, 0, 64), !5316)
    #dbg_value(ptr %.val33.i, !5318, !DIExpression(DW_OP_LLVM_fragment, 0, 64), !5323)
    #dbg_value(ptr %.val33.i, !5287, !DIExpression(DW_OP_LLVM_fragment, 0, 64), !5306)
    #dbg_value(i64 4, !1428, !DIExpression(DW_OP_LLVM_fragment, 0, 64), !5327)
    #dbg_value(i64 %35, !1428, !DIExpression(DW_OP_LLVM_fragment, 64, 64), !5327)
    #dbg_value(ptr poison, !1433, !DIExpression(), !5327)
    #dbg_value(ptr %.val33.i, !1434, !DIExpression(), !5327)
    #dbg_value(ptr %.val33.i, !1437, !DIExpression(), !5329)
    #dbg_value(i64 4, !1442, !DIExpression(DW_OP_LLVM_fragment, 0, 64), !5329)
    #dbg_value(i64 %35, !1442, !DIExpression(DW_OP_LLVM_fragment, 64, 64), !5329)
; call __rustc::__rust_dealloc
  tail call void @_RNvCsj3IbkTTFM3W_7___rustc14___rust_dealloc(ptr noundef nonnull %.val33.i, i64 noundef %35, i64 noundef 4) #19, !dbg !5331
  br label %bb5.i, !dbg !5332

cleanup5.i:                                       ; preds = %bb16.i
  %36 = landingpad { ptr, i32 }
          cleanup
  br label %bb6.i

bb15.i:                                           ; preds = %bb16.i
  %37 = getelementptr inbounds nuw i8, ptr %_1, i64 176, !dbg !5035
  %.val35.i = load ptr, ptr %37, align 8, !dbg !5035, !alias.scope !5021, !align !5261, !noundef !15
  %38 = getelementptr inbounds nuw i8, ptr %_1, i64 184, !dbg !5035
  %.val36.i = load i64, ptr %38, align 8, !dbg !5035, !alias.scope !5021
