; ModuleID = 'shlex.8d78357b9092b99e-cgu.0'
source_filename = "shlex.8d78357b9092b99e-cgu.0"
target datalayout = "e-m:e-p270:32:32-p271:32:32-p272:64:64-i64:64-i128:128-f80:128-n8:16:32:64-S128"
target triple = "x86_64-unknown-linux-gnu"

%"alloc::string::String" = type { %"alloc::vec::Vec<u8>" }
%"alloc::vec::Vec<u8>" = type { %"alloc::raw_vec::RawVec<u8>", i64 }
%"alloc::raw_vec::RawVec<u8>" = type { %"alloc::raw_vec::RawVecInner", %"core::marker::PhantomData<u8>" }
%"alloc::raw_vec::RawVecInner" = type { i64, ptr, %"alloc::alloc::Global" }
%"alloc::alloc::Global" = type {}
%"core::marker::PhantomData<u8>" = type {}

@alloc_1b90a8cbe0097a31af71a621c2fa47df = private unnamed_addr constant [89 x i8] c"/rustc/f8297e351a40c1439a467bbbb6879088047f50b3/library/core/src/iter/traits/iterator.rs\00", align 1
@alloc_0812e2023ea62627bf66418dfce20832 = private unnamed_addr constant <{ ptr, [16 x i8] }> <{ ptr @alloc_1b90a8cbe0097a31af71a621c2fa47df, [16 x i8] c"X\00\00\00\00\00\00\00\EB\07\00\00\09\00\00\00" }>, align 8
@vtable.0 = private constant <{ [24 x i8], ptr }> <{ [24 x i8] c"\00\00\00\00\00\00\00\00\00\00\00\00\00\00\00\00\01\00\00\00\00\00\00\00", ptr @"_ZN54_$LT$shlex..QuoteError$u20$as$u20$core..fmt..Debug$GT$3fmt17h56530af370efa4feE" }>, align 8, !dbg !0
@alloc_00ae4b301f7fab8ac9617c03fcbd7274 = private unnamed_addr constant [43 x i8] c"called `Result::unwrap()` on an `Err` value", align 1
@alloc_15f2a96ac929ebecf76fbf42b0c01fc2 = private unnamed_addr constant [3 x i8] c"Nul", align 1
@alloc_cf178fabc0b32dd2787bb881a0177358 = private unnamed_addr constant [45 x i8] c"cannot shell-quote string containing nul byte", align 1
@alloc_9ff6678e36a249842bfa8d7c272d00c1 = private unnamed_addr constant [81 x i8] c"/rustc/f8297e351a40c1439a467bbbb6879088047f50b3/library/alloc/src/raw_vec/mod.rs\00", align 1
@alloc_ab6d55d2a65ad1e0dafc1ec4726e7b65 = private unnamed_addr constant <{ ptr, [16 x i8] }> <{ ptr @alloc_9ff6678e36a249842bfa8d7c272d00c1, [16 x i8] c"P\00\00\00\00\00\00\00*\02\00\00\11\00\00\00" }>, align 8
@alloc_262eadddaa164ec59d632aac3ef755f9 = private unnamed_addr constant [94 x i8] c"/users/ddavis65/.cargo/registry/src/index.crates.io-1949cf8c6b5b557f/shlex-1.3.0/src/bytes.rs\00", align 1
@alloc_a500d906b91607583596fa15e63c2ada = private unnamed_addr constant [40 x i8] c"internal error: entered unreachable code", align 1
@alloc_46b319092c8d68f8a9bf77f516e44f62 = private unnamed_addr constant <{ ptr, [16 x i8] }> <{ ptr @alloc_262eadddaa164ec59d632aac3ef755f9, [16 x i8] c"]\00\00\00\00\00\00\00\9A\01\00\00\09\00\00\00" }>, align 8
@alloc_2a490a889365d4f981ef8c8914683ac2 = private unnamed_addr constant <{ ptr, [16 x i8] }> <{ ptr @alloc_262eadddaa164ec59d632aac3ef755f9, [16 x i8] c"]\00\00\00\00\00\00\00\A7\01\00\00\11\00\00\00" }>, align 8
@alloc_ea7968050c397c4977ea470a13e1c100 = private unnamed_addr constant <{ ptr, [16 x i8] }> <{ ptr @alloc_262eadddaa164ec59d632aac3ef755f9, [16 x i8] c"]\00\00\00\00\00\00\00\A9\01\00\00\11\00\00\00" }>, align 8
@alloc_c842f1f22e6edc06259d4a9e2cf9ecd4 = private unnamed_addr constant <{ ptr, [16 x i8] }> <{ ptr @alloc_262eadddaa164ec59d632aac3ef755f9, [16 x i8] c"]\00\00\00\00\00\00\00\AD\01\00\00\11\00\00\00" }>, align 8
@alloc_3139a9567ad6b467f454dc24fc65043e = private unnamed_addr constant <{ ptr, [16 x i8] }> <{ ptr @alloc_262eadddaa164ec59d632aac3ef755f9, [16 x i8] c"]\00\00\00\00\00\00\00\B3\01\00\00\19\00\00\00" }>, align 8
@alloc_f151f67448ddd5a221f8aff63f6b3a3d = private unnamed_addr constant <{ ptr, [16 x i8] }> <{ ptr @alloc_262eadddaa164ec59d632aac3ef755f9, [16 x i8] c"]\00\00\00\00\00\00\00\B6\01\00\00\15\00\00\00" }>, align 8
@alloc_51b9d839c51a1261862ac96b657ddef2 = private unnamed_addr constant <{ ptr, [16 x i8] }> <{ ptr @alloc_262eadddaa164ec59d632aac3ef755f9, [16 x i8] c"]\00\00\00\00\00\00\00\B8\01\00\00\11\00\00\00" }>, align 8
@alloc_072e6c7ad9faa5ad2c2912dc04fdc595 = private unnamed_addr constant <{ ptr, [16 x i8] }> <{ ptr @alloc_262eadddaa164ec59d632aac3ef755f9, [16 x i8] c"]\00\00\00\00\00\00\00I\00\00\003\00\00\00" }>, align 8
@alloc_7595e72aa3a5565d97f5d5faf752f4e6 = private unnamed_addr constant <{ ptr, [16 x i8] }> <{ ptr @alloc_262eadddaa164ec59d632aac3ef755f9, [16 x i8] c"]\00\00\00\00\00\00\00O\00\00\00\1F\00\00\00" }>, align 8
@alloc_2f8cc1e99e5d9f57d27545c19cd5eafd = private unnamed_addr constant <{ ptr, [16 x i8] }> <{ ptr @alloc_262eadddaa164ec59d632aac3ef755f9, [16 x i8] c"]\00\00\00\00\00\00\00^\00\00\00D\00\00\00" }>, align 8
@alloc_377831452e60a695e5bd75c03294c2ed = private unnamed_addr constant <{ ptr, [16 x i8] }> <{ ptr @alloc_262eadddaa164ec59d632aac3ef755f9, [16 x i8] c"]\00\00\00\00\00\00\00b\00\00\00/\00\00\00" }>, align 8
@alloc_ec6a80774cd7736a74aa938ef7950fe7 = private unnamed_addr constant <{ ptr, [16 x i8] }> <{ ptr @alloc_262eadddaa164ec59d632aac3ef755f9, [16 x i8] c"]\00\00\00\00\00\00\00b\00\00\00H\00\00\00" }>, align 8
@alloc_dbe3c58c8d62bc9960dfbc45d1778044 = private unnamed_addr constant <{ ptr, [16 x i8] }> <{ ptr @alloc_262eadddaa164ec59d632aac3ef755f9, [16 x i8] c"]\00\00\00\00\00\00\00i\00\00\00#\00\00\00" }>, align 8
@alloc_59a339dbd111ec027d9ab2f1bff78eba = private unnamed_addr constant <{ ptr, [16 x i8] }> <{ ptr @alloc_262eadddaa164ec59d632aac3ef755f9, [16 x i8] c"]\00\00\00\00\00\00\00v\00\00\00#\00\00\00" }>, align 8
@alloc_9a3db82574254cb2247deba127f91861 = private unnamed_addr constant <{ ptr, [16 x i8] }> <{ ptr @alloc_262eadddaa164ec59d632aac3ef755f9, [16 x i8] c"]\00\00\00\00\00\00\00\E5\01\00\003\00\00\00" }>, align 8
@alloc_e797d586220fda5a2300a964bc8fc9e6 = private unnamed_addr constant [2 x i8] c"''", align 1
@alloc_d1084648e479974e70c9329824bf76f9 = private unnamed_addr constant [9 x i8] c"mid > len", align 1
@alloc_716ff0773fff869d3b6edfdef8f974a4 = private unnamed_addr constant <{ ptr, [8 x i8] }> <{ ptr @alloc_d1084648e479974e70c9329824bf76f9, [8 x i8] c"\09\00\00\00\00\00\00\00" }>, align 8
@alloc_8332c5506b6310f6eb4efcc52f7ddf4a = private unnamed_addr constant <{ ptr, [16 x i8] }> <{ ptr @alloc_262eadddaa164ec59d632aac3ef755f9, [16 x i8] c"]\00\00\00\00\00\00\00\E0\00\00\00.\00\00\00" }>, align 8
@alloc_f641c37e8871501a10bb4b45ae9002b7 = private unnamed_addr constant [45 x i8] c"assertion failed: rest.len() < in_bytes.len()", align 1
@alloc_53237169eef45a8fa9272d3f6f203b49 = private unnamed_addr constant <{ ptr, [16 x i8] }> <{ ptr @alloc_262eadddaa164ec59d632aac3ef755f9, [16 x i8] c"]\00\00\00\00\00\00\00\E1\00\00\00\0D\00\00\00" }>, align 8
@alloc_1a8f4481e99b52bc84e1b74726406058 = private unnamed_addr constant [92 x i8] c"/users/ddavis65/.cargo/registry/src/index.crates.io-1949cf8c6b5b557f/shlex-1.3.0/src/lib.rs\00", align 1
@alloc_ea8728dbeb13c4d23fa8f3cc9f72f102 = private unnamed_addr constant <{ ptr, [16 x i8] }> <{ ptr @alloc_1a8f4481e99b52bc84e1b74726406058, [16 x i8] c"[\00\00\00\00\00\00\00\E5\00\00\001\00\00\00" }>, align 8

; core::ptr::drop_in_place<alloc::vec::Vec<alloc::string::String>>
; Function Attrs: nounwind nonlazybind uwtable
define internal fastcc void @"_ZN4core3ptr65drop_in_place$LT$alloc..vec..Vec$LT$alloc..string..String$GT$$GT$17h6789dda638ad4a02E"(ptr noalias noundef nonnull readonly align 8 captures(none) dereferenceable(24) %_1) unnamed_addr #0 personality ptr @rust_eh_personality !dbg !118 {
start:
    #dbg_value(ptr %_1, !178, !DIExpression(), !181)
  %0 = getelementptr inbounds nuw i8, ptr %_1, i64 8, !dbg !182
  %_1.val = load ptr, ptr %0, align 8, !dbg !182, !nonnull !19, !noundef !19
  %1 = getelementptr inbounds nuw i8, ptr %_1, i64 16, !dbg !182
  %_1.val1 = load i64, ptr %1, align 8, !dbg !182, !noundef !19
    #dbg_value(ptr poison, !183, !DIExpression(), !191)
  tail call void @llvm.experimental.noalias.scope.decl(metadata !193), !dbg !196
    #dbg_value(ptr %_1.val, !197, !DIExpression(DW_OP_LLVM_fragment, 0, 64), !207)
    #dbg_value(i64 %_1.val1, !197, !DIExpression(DW_OP_LLVM_fragment, 64, 64), !207)
  %_710.i.i = icmp eq i64 %_1.val1, 0, !dbg !209
  br i1 %_710.i.i, label %bb4, label %bb5.i.i, !dbg !209

bb5.i.i:                                          ; preds = %start, %"_ZN4core3ptr42drop_in_place$LT$alloc..string..String$GT$17hcc95db1cc3db3ae3E.exit.i.i"
  %_3.sroa.0.011.i.i = phi i64 [ %2, %"_ZN4core3ptr42drop_in_place$LT$alloc..string..String$GT$17hcc95db1cc3db3ae3E.exit.i.i" ], [ 0, %start ]
  %_6.i.i = getelementptr inbounds nuw %"alloc::string::String", ptr %_1.val, i64 %_3.sroa.0.011.i.i, !dbg !209
  %2 = add nuw i64 %_3.sroa.0.011.i.i, 1, !dbg !209
  %_6.val.i.i = load i64, ptr %_6.i.i, align 8, !dbg !209, !alias.scope !193
    #dbg_value(ptr poison, !210, !DIExpression(), !216)
    #dbg_value(ptr poison, !218, !DIExpression(), !226)
    #dbg_value(ptr poison, !228, !DIExpression(), !236)
    #dbg_value(ptr poison, !238, !DIExpression(), !246)
    #dbg_value(ptr poison, !248, !DIExpression(), !268)
    #dbg_value(i64 1, !264, !DIExpression(DW_OP_LLVM_fragment, 0, 64), !268)
    #dbg_value(i64 1, !264, !DIExpression(DW_OP_LLVM_fragment, 64, 64), !268)
    #dbg_value(i64 1, !270, !DIExpression(DW_OP_LLVM_fragment, 0, 64), !300)
    #dbg_value(i64 1, !270, !DIExpression(DW_OP_LLVM_fragment, 64, 64), !300)
    #dbg_value(ptr poison, !295, !DIExpression(), !300)
  %3 = icmp eq i64 %_6.val.i.i, 0, !dbg !302
  br i1 %3, label %"_ZN4core3ptr42drop_in_place$LT$alloc..string..String$GT$17hcc95db1cc3db3ae3E.exit.i.i", label %bb2.i.i.i4.i.i.i.i, !dbg !302

bb2.i.i.i4.i.i.i.i:                               ; preds = %bb5.i.i
  %4 = getelementptr i8, ptr %_6.i.i, i64 8, !dbg !209
  %_6.val7.i.i = load ptr, ptr %4, align 8, !dbg !209, !alias.scope !193, !nonnull !19, !noundef !19
    #dbg_value(ptr %_6.val7.i.i, !265, !DIExpression(), !303)
    #dbg_value(i64 1, !267, !DIExpression(DW_OP_LLVM_fragment, 0, 64), !303)
    #dbg_value(i64 %_6.val.i.i, !267, !DIExpression(DW_OP_LLVM_fragment, 64, 64), !303)
    #dbg_value(i64 1, !304, !DIExpression(DW_OP_LLVM_fragment, 0, 64), !314)
    #dbg_value(i64 %_6.val.i.i, !304, !DIExpression(DW_OP_LLVM_fragment, 64, 64), !314)
    #dbg_value(ptr poison, !312, !DIExpression(), !314)
    #dbg_value(ptr %_6.val7.i.i, !313, !DIExpression(), !314)
    #dbg_value(ptr %_6.val7.i.i, !316, !DIExpression(), !323)
    #dbg_value(i64 1, !322, !DIExpression(DW_OP_LLVM_fragment, 0, 64), !323)
    #dbg_value(i64 %_6.val.i.i, !322, !DIExpression(DW_OP_LLVM_fragment, 64, 64), !323)
; call __rustc::__rust_dealloc
  tail call void @_RNvCsj3IbkTTFM3W_7___rustc14___rust_dealloc(ptr noundef nonnull %_6.val7.i.i, i64 noundef %_6.val.i.i, i64 noundef range(i64 1, -9223372036854775807) 1) #17, !dbg !325, !noalias !193
  br label %"_ZN4core3ptr42drop_in_place$LT$alloc..string..String$GT$17hcc95db1cc3db3ae3E.exit.i.i", !dbg !326

"_ZN4core3ptr42drop_in_place$LT$alloc..string..String$GT$17hcc95db1cc3db3ae3E.exit.i.i": ; preds = %bb2.i.i.i4.i.i.i.i, %bb5.i.i
  %_7.i.i = icmp eq i64 %2, %_1.val1, !dbg !209
  br i1 %_7.i.i, label %bb4, label %bb5.i.i, !dbg !209

bb4:                                              ; preds = %"_ZN4core3ptr42drop_in_place$LT$alloc..string..String$GT$17hcc95db1cc3db3ae3E.exit.i.i", %start
  %_1.val4 = load i64, ptr %_1, align 8, !dbg !182, !range !327, !noundef !19
    #dbg_value(ptr poison, !328, !DIExpression(), !336)
    #dbg_value(ptr poison, !338, !DIExpression(), !344)
    #dbg_value(ptr poison, !248, !DIExpression(), !346)
    #dbg_value(i64 8, !264, !DIExpression(DW_OP_LLVM_fragment, 0, 64), !346)
    #dbg_value(i64 24, !264, !DIExpression(DW_OP_LLVM_fragment, 64, 64), !346)
    #dbg_value(i64 8, !270, !DIExpression(DW_OP_LLVM_fragment, 0, 64), !348)
    #dbg_value(i64 24, !270, !DIExpression(DW_OP_LLVM_fragment, 64, 64), !348)
    #dbg_value(ptr poison, !295, !DIExpression(), !348)
    #dbg_value(i64 24, !350, !DIExpression(), !383)
  %5 = icmp eq i64 %_1.val4, 0, !dbg !385
  br i1 %5, label %"_ZN4core3ptr72drop_in_place$LT$alloc..raw_vec..RawVec$LT$alloc..string..String$GT$$GT$17h842a7df03bf8b125E.exit7", label %bb2.i.i.i6, !dbg !385

bb2.i.i.i6:                                       ; preds = %bb4
    #dbg_value(i64 %_1.val4, !382, !DIExpression(), !383)
  %6 = mul nuw i64 %_1.val4, 24, !dbg !386
    #dbg_value(ptr %_1.val, !265, !DIExpression(), !387)
    #dbg_value(i64 8, !267, !DIExpression(DW_OP_LLVM_fragment, 0, 64), !387)
    #dbg_value(i64 %6, !267, !DIExpression(DW_OP_LLVM_fragment, 64, 64), !387)
    #dbg_value(i64 8, !304, !DIExpression(DW_OP_LLVM_fragment, 0, 64), !388)
    #dbg_value(i64 %6, !304, !DIExpression(DW_OP_LLVM_fragment, 64, 64), !388)
    #dbg_value(ptr poison, !312, !DIExpression(), !388)
    #dbg_value(ptr %_1.val, !313, !DIExpression(), !388)
    #dbg_value(ptr %_1.val, !316, !DIExpression(), !390)
    #dbg_value(i64 8, !322, !DIExpression(DW_OP_LLVM_fragment, 0, 64), !390)
    #dbg_value(i64 %6, !322, !DIExpression(DW_OP_LLVM_fragment, 64, 64), !390)
; call __rustc::__rust_dealloc
  tail call void @_RNvCsj3IbkTTFM3W_7___rustc14___rust_dealloc(ptr noundef nonnull %_1.val, i64 noundef %6, i64 noundef range(i64 1, -9223372036854775807) 8) #17, !dbg !392
  br label %"_ZN4core3ptr72drop_in_place$LT$alloc..raw_vec..RawVec$LT$alloc..string..String$GT$$GT$17h842a7df03bf8b125E.exit7", !dbg !393

"_ZN4core3ptr72drop_in_place$LT$alloc..raw_vec..RawVec$LT$alloc..string..String$GT$$GT$17h842a7df03bf8b125E.exit7": ; preds = %bb4, %bb2.i.i.i6
  ret void, !dbg !182
}

; core::ptr::drop_in_place<alloc::vec::Vec<alloc::vec::Vec<u8>>>
; Function Attrs: nounwind nonlazybind uwtable
define internal fastcc void @"_ZN4core3ptr69drop_in_place$LT$alloc..vec..Vec$LT$alloc..vec..Vec$LT$u8$GT$$GT$$GT$17h91a8ae23c938c9c1E"(ptr noalias noundef nonnull readonly align 8 captures(none) dereferenceable(24) %_1) unnamed_addr #0 personality ptr @rust_eh_personality !dbg !394 {
start:
    #dbg_value(ptr %_1, !409, !DIExpression(), !412)
  %0 = getelementptr inbounds nuw i8, ptr %_1, i64 8, !dbg !413
  %_1.val = load ptr, ptr %0, align 8, !dbg !413, !nonnull !19, !noundef !19
  %1 = getelementptr inbounds nuw i8, ptr %_1, i64 16, !dbg !413
  %_1.val1 = load i64, ptr %1, align 8, !dbg !413, !noundef !19
    #dbg_value(ptr poison, !414, !DIExpression(), !420)
  tail call void @llvm.experimental.noalias.scope.decl(metadata !422), !dbg !425
    #dbg_value(ptr %_1.val, !426, !DIExpression(DW_OP_LLVM_fragment, 0, 64), !436)
    #dbg_value(i64 %_1.val1, !426, !DIExpression(DW_OP_LLVM_fragment, 64, 64), !436)
  %_710.i.i = icmp eq i64 %_1.val1, 0, !dbg !438
  br i1 %_710.i.i, label %bb4, label %bb5.i.i, !dbg !438

bb5.i.i:                                          ; preds = %start, %"_ZN4core3ptr46drop_in_place$LT$alloc..vec..Vec$LT$u8$GT$$GT$17h178eba42b44059d9E.exit.i.i"
  %_3.sroa.0.011.i.i = phi i64 [ %2, %"_ZN4core3ptr46drop_in_place$LT$alloc..vec..Vec$LT$u8$GT$$GT$17h178eba42b44059d9E.exit.i.i" ], [ 0, %start ]
  %_6.i.i = getelementptr inbounds nuw %"alloc::vec::Vec<u8>", ptr %_1.val, i64 %_3.sroa.0.011.i.i, !dbg !438
  %2 = add nuw i64 %_3.sroa.0.011.i.i, 1, !dbg !438
  %_6.val.i.i = load i64, ptr %_6.i.i, align 8, !dbg !438, !alias.scope !422
    #dbg_value(ptr poison, !218, !DIExpression(), !439)
    #dbg_value(ptr poison, !228, !DIExpression(), !441)
    #dbg_value(ptr poison, !238, !DIExpression(), !443)
    #dbg_value(ptr poison, !248, !DIExpression(), !445)
    #dbg_value(i64 1, !264, !DIExpression(DW_OP_LLVM_fragment, 0, 64), !445)
    #dbg_value(i64 1, !264, !DIExpression(DW_OP_LLVM_fragment, 64, 64), !445)
    #dbg_value(i64 1, !270, !DIExpression(DW_OP_LLVM_fragment, 0, 64), !447)
    #dbg_value(i64 1, !270, !DIExpression(DW_OP_LLVM_fragment, 64, 64), !447)
    #dbg_value(ptr poison, !295, !DIExpression(), !447)
  %3 = icmp eq i64 %_6.val.i.i, 0, !dbg !449
  br i1 %3, label %"_ZN4core3ptr46drop_in_place$LT$alloc..vec..Vec$LT$u8$GT$$GT$17h178eba42b44059d9E.exit.i.i", label %bb2.i.i.i4.i.i.i, !dbg !449

bb2.i.i.i4.i.i.i:                                 ; preds = %bb5.i.i
  %4 = getelementptr i8, ptr %_6.i.i, i64 8, !dbg !438
  %_6.val7.i.i = load ptr, ptr %4, align 8, !dbg !438, !alias.scope !422, !nonnull !19, !noundef !19
    #dbg_value(ptr %_6.val7.i.i, !265, !DIExpression(), !450)
    #dbg_value(i64 1, !267, !DIExpression(DW_OP_LLVM_fragment, 0, 64), !450)
    #dbg_value(i64 %_6.val.i.i, !267, !DIExpression(DW_OP_LLVM_fragment, 64, 64), !450)
    #dbg_value(i64 1, !304, !DIExpression(DW_OP_LLVM_fragment, 0, 64), !451)
    #dbg_value(i64 %_6.val.i.i, !304, !DIExpression(DW_OP_LLVM_fragment, 64, 64), !451)
    #dbg_value(ptr poison, !312, !DIExpression(), !451)
    #dbg_value(ptr %_6.val7.i.i, !313, !DIExpression(), !451)
    #dbg_value(ptr %_6.val7.i.i, !316, !DIExpression(), !453)
    #dbg_value(i64 1, !322, !DIExpression(DW_OP_LLVM_fragment, 0, 64), !453)
    #dbg_value(i64 %_6.val.i.i, !322, !DIExpression(DW_OP_LLVM_fragment, 64, 64), !453)
; call __rustc::__rust_dealloc
  tail call void @_RNvCsj3IbkTTFM3W_7___rustc14___rust_dealloc(ptr noundef nonnull %_6.val7.i.i, i64 noundef %_6.val.i.i, i64 noundef range(i64 1, -9223372036854775807) 1) #17, !dbg !455, !noalias !422
  br label %"_ZN4core3ptr46drop_in_place$LT$alloc..vec..Vec$LT$u8$GT$$GT$17h178eba42b44059d9E.exit.i.i", !dbg !456

"_ZN4core3ptr46drop_in_place$LT$alloc..vec..Vec$LT$u8$GT$$GT$17h178eba42b44059d9E.exit.i.i": ; preds = %bb2.i.i.i4.i.i.i, %bb5.i.i
  %_7.i.i = icmp eq i64 %2, %_1.val1, !dbg !438
  br i1 %_7.i.i, label %bb4, label %bb5.i.i, !dbg !438

bb4:                                              ; preds = %"_ZN4core3ptr46drop_in_place$LT$alloc..vec..Vec$LT$u8$GT$$GT$17h178eba42b44059d9E.exit.i.i", %start
  %_1.val4 = load i64, ptr %_1, align 8, !dbg !413, !range !327, !noundef !19
    #dbg_value(ptr poison, !457, !DIExpression(), !465)
    #dbg_value(ptr poison, !467, !DIExpression(), !473)
    #dbg_value(ptr poison, !248, !DIExpression(), !475)
    #dbg_value(i64 8, !264, !DIExpression(DW_OP_LLVM_fragment, 0, 64), !475)
    #dbg_value(i64 24, !264, !DIExpression(DW_OP_LLVM_fragment, 64, 64), !475)
    #dbg_value(i64 8, !270, !DIExpression(DW_OP_LLVM_fragment, 0, 64), !477)
    #dbg_value(i64 24, !270, !DIExpression(DW_OP_LLVM_fragment, 64, 64), !477)
    #dbg_value(ptr poison, !295, !DIExpression(), !477)
    #dbg_value(i64 24, !350, !DIExpression(), !479)
  %5 = icmp eq i64 %_1.val4, 0, !dbg !481
  br i1 %5, label %"_ZN4core3ptr76drop_in_place$LT$alloc..raw_vec..RawVec$LT$alloc..vec..Vec$LT$u8$GT$$GT$$GT$17hc1fceef296f64aa1E.exit7", label %bb2.i.i.i6, !dbg !481

bb2.i.i.i6:                                       ; preds = %bb4
    #dbg_value(i64 %_1.val4, !382, !DIExpression(), !479)
  %6 = mul nuw i64 %_1.val4, 24, !dbg !482
    #dbg_value(ptr %_1.val, !265, !DIExpression(), !483)
    #dbg_value(i64 8, !267, !DIExpression(DW_OP_LLVM_fragment, 0, 64), !483)
    #dbg_value(i64 %6, !267, !DIExpression(DW_OP_LLVM_fragment, 64, 64), !483)
    #dbg_value(i64 8, !304, !DIExpression(DW_OP_LLVM_fragment, 0, 64), !484)
    #dbg_value(i64 %6, !304, !DIExpression(DW_OP_LLVM_fragment, 64, 64), !484)
    #dbg_value(ptr poison, !312, !DIExpression(), !484)
    #dbg_value(ptr %_1.val, !313, !DIExpression(), !484)
    #dbg_value(ptr %_1.val, !316, !DIExpression(), !486)
    #dbg_value(i64 8, !322, !DIExpression(DW_OP_LLVM_fragment, 0, 64), !486)
    #dbg_value(i64 %6, !322, !DIExpression(DW_OP_LLVM_fragment, 64, 64), !486)
; call __rustc::__rust_dealloc
  tail call void @_RNvCsj3IbkTTFM3W_7___rustc14___rust_dealloc(ptr noundef nonnull %_1.val, i64 noundef %6, i64 noundef range(i64 1, -9223372036854775807) 8) #17, !dbg !488
  br label %"_ZN4core3ptr76drop_in_place$LT$alloc..raw_vec..RawVec$LT$alloc..vec..Vec$LT$u8$GT$$GT$$GT$17hc1fceef296f64aa1E.exit7", !dbg !489

"_ZN4core3ptr76drop_in_place$LT$alloc..raw_vec..RawVec$LT$alloc..vec..Vec$LT$u8$GT$$GT$$GT$17hc1fceef296f64aa1E.exit7": ; preds = %bb4, %bb2.i.i.i6
  ret void, !dbg !413
}

; <shlex::QuoteError as core::fmt::Debug>::fmt
; Function Attrs: inlinehint nonlazybind uwtable
define internal noundef zeroext i1 @"_ZN54_$LT$shlex..QuoteError$u20$as$u20$core..fmt..Debug$GT$3fmt17h56530af370efa4feE"(ptr noalias nonnull readonly align 1 captures(none) %self, ptr noalias noundef align 8 dereferenceable(24) %f) unnamed_addr #1 !dbg !490 {
start:
    #dbg_value(ptr poison, !537, !DIExpression(), !539)
    #dbg_value(ptr %f, !538, !DIExpression(), !539)
; call core::fmt::Formatter::write_str
  %_0 = tail call noundef zeroext i1 @_ZN4core3fmt9Formatter9write_str17h237fd59854368856E(ptr noalias noundef nonnull align 8 dereferenceable(24) %f, ptr noalias noundef nonnull readonly align 1 captures(address, read_provenance) @alloc_15f2a96ac929ebecf76fbf42b0c01fc2, i64 noundef 3), !dbg !540
  ret i1 %_0, !dbg !541
}

; <shlex::QuoteError as core::fmt::Display>::fmt
; Function Attrs: nonlazybind uwtable
define noundef zeroext i1 @"_ZN56_$LT$shlex..QuoteError$u20$as$u20$core..fmt..Display$GT$3fmt17hd1edc11a2b1f1e20E"(ptr noalias noundef nonnull readonly align 1 captures(none) %self, ptr noalias noundef align 8 dereferenceable(24) %f) unnamed_addr #2 !dbg !542 {
start:
    #dbg_value(ptr %self, !545, !DIExpression(), !547)
    #dbg_value(ptr %f, !546, !DIExpression(), !547)
; call core::fmt::Formatter::write_str
  %_0 = tail call noundef zeroext i1 @_ZN4core3fmt9Formatter9write_str17h237fd59854368856E(ptr noalias noundef nonnull align 8 dereferenceable(24) %f, ptr noalias noundef nonnull readonly align 1 captures(address, read_provenance) @alloc_cf178fabc0b32dd2787bb881a0177358, i64 noundef 45), !dbg !548
  ret i1 %_0, !dbg !549
}

; alloc::raw_vec::finish_grow
; Function Attrs: cold nounwind nonlazybind uwtable
define internal fastcc void @_ZN5alloc7raw_vec11finish_grow17hc42b3572ac67c029E(ptr dead_on_unwind noalias noundef nonnull writable writeonly align 8 captures(none) dereferenceable(24) initializes((0, 24)) %_0, i64 noundef range(i64 1, -9223372036854775807) %0, i64 noundef %1, ptr dead_on_return noalias noundef nonnull readonly align 8 captures(none) dereferenceable(24) %current_memory) unnamed_addr #3 !dbg !550 {
start:
    #dbg_value(ptr poison, !627, !DIExpression(), !647)
    #dbg_value(i64 %0, !594, !DIExpression(DW_OP_LLVM_fragment, 0, 64), !649)
    #dbg_value(i64 %1, !594, !DIExpression(DW_OP_LLVM_fragment, 64, 64), !649)
    #dbg_declare(ptr %current_memory, !595, !DIExpression(), !650)
    #dbg_value(ptr poison, !596, !DIExpression(), !649)
  %2 = getelementptr inbounds nuw i8, ptr %current_memory, i64 8, !dbg !651
  %3 = load i64, ptr %2, align 8, !dbg !651, !range !652, !noundef !19
  %.not = icmp eq i64 %3, 0, !dbg !651
  br i1 %.not, label %bb3, label %bb1, !dbg !653

bb1:                                              ; preds = %start
  %ptr = load ptr, ptr %current_memory, align 8, !dbg !654, !nonnull !19, !noundef !19
    #dbg_value(ptr %ptr, !615, !DIExpression(), !655)
  %4 = getelementptr inbounds nuw i8, ptr %current_memory, i64 16, !dbg !656
  %5 = load i64, ptr %4, align 8, !dbg !656, !noundef !19
    #dbg_value(i64 %3, !617, !DIExpression(DW_OP_LLVM_fragment, 0, 64), !655)
    #dbg_value(i64 %5, !617, !DIExpression(DW_OP_LLVM_fragment, 64, 64), !655)
  %cond = icmp eq i64 %3, %0, !dbg !657
    #dbg_value(i1 true, !658, !DIExpression(DW_OP_LLVM_convert, 1, DW_ATE_unsigned, DW_OP_LLVM_convert, 8, DW_ATE_unsigned, DW_OP_stack_value), !666)
  tail call void @llvm.assume(i1 %cond), !dbg !668
    #dbg_value(ptr poison, !669, !DIExpression(), !677)
    #dbg_value(ptr %ptr, !674, !DIExpression(), !677)
    #dbg_value(i64 %3, !675, !DIExpression(DW_OP_LLVM_fragment, 0, 64), !677)
    #dbg_value(i64 %5, !675, !DIExpression(DW_OP_LLVM_fragment, 64, 64), !677)
    #dbg_value(i64 %0, !676, !DIExpression(DW_OP_LLVM_fragment, 0, 64), !677)
    #dbg_value(i64 %1, !676, !DIExpression(DW_OP_LLVM_fragment, 64, 64), !677)
    #dbg_value(ptr poison, !679, !DIExpression(), !728)
    #dbg_value(i64 %3, !688, !DIExpression(DW_OP_LLVM_fragment, 0, 64), !730)
    #dbg_value(i64 %5, !688, !DIExpression(DW_OP_LLVM_fragment, 64, 64), !730)
    #dbg_value(i64 %0, !689, !DIExpression(DW_OP_LLVM_fragment, 0, 64), !730)
    #dbg_value(i64 %1, !689, !DIExpression(DW_OP_LLVM_fragment, 64, 64), !730)
    #dbg_value(ptr poison, !686, !DIExpression(), !730)
    #dbg_value(ptr %ptr, !687, !DIExpression(), !730)
    #dbg_value(i1 false, !690, !DIExpression(DW_OP_LLVM_convert, 1, DW_ATE_unsigned, DW_OP_LLVM_convert, 8, DW_ATE_unsigned, DW_OP_stack_value), !730)
    #dbg_value(i64 %5, !691, !DIExpression(), !728)
  %6 = icmp eq i64 %5, 0, !dbg !731
  br i1 %6, label %bb2.i.i, label %bb3.i.i, !dbg !731

bb2.i.i:                                          ; preds = %bb1
    #dbg_value(ptr poison, !732, !DIExpression(), !739)
    #dbg_value(i64 %0, !747, !DIExpression(DW_OP_LLVM_fragment, 0, 64), !760)
    #dbg_value(i64 %1, !747, !DIExpression(DW_OP_LLVM_fragment, 64, 64), !760)
    #dbg_value(ptr poison, !746, !DIExpression(), !760)
    #dbg_value(i1 false, !748, !DIExpression(DW_OP_LLVM_convert, 1, DW_ATE_unsigned, DW_OP_LLVM_convert, 8, DW_ATE_unsigned, DW_OP_stack_value), !760)
    #dbg_value(i64 %1, !749, !DIExpression(), !761)
  %7 = icmp eq i64 %1, 0, !dbg !762
  br i1 %7, label %bb2.i.i.i, label %bb4.i.i.i, !dbg !762

bb2.i.i.i:                                        ; preds = %bb2.i.i
    #dbg_value(ptr undef, !732, !DIExpression(), !739)
  %_20.i.i.i = inttoptr i64 %0 to ptr, !dbg !763
  br label %bb8, !dbg !783

bb4.i.i.i:                                        ; preds = %bb2.i.i
    #dbg_value(i64 %0, !784, !DIExpression(DW_OP_LLVM_fragment, 0, 64), !789)
    #dbg_value(i64 %1, !784, !DIExpression(DW_OP_LLVM_fragment, 64, 64), !789)
; call __rustc::__rust_no_alloc_shim_is_unstable_v2
  tail call void @_RNvCsj3IbkTTFM3W_7___rustc35___rust_no_alloc_shim_is_unstable_v2() #17, !dbg !791
; call __rustc::__rust_alloc
  %8 = tail call noundef ptr @_RNvCsj3IbkTTFM3W_7___rustc12___rust_alloc(i64 noundef %1, i64 noundef range(i64 1, -9223372036854775807) %0) #17, !dbg !792
    #dbg_value(ptr %8, !751, !DIExpression(), !793)
    #dbg_value(ptr %8, !794, !DIExpression(), !813)
  br label %bb5, !dbg !815

bb3.i.i:                                          ; preds = %bb1
    #dbg_value(ptr undef, !679, !DIExpression(), !728)
    #dbg_value(i64 %1, !692, !DIExpression(), !816)
  %cond.i.i = icmp uge i64 %1, %5, !dbg !817
    #dbg_value(i1 true, !818, !DIExpression(DW_OP_LLVM_convert, 1, DW_ATE_unsigned, DW_OP_LLVM_convert, 8, DW_ATE_unsigned, DW_OP_stack_value), !821)
  tail call void @llvm.assume(i1 %cond.i.i), !dbg !823
    #dbg_value(ptr %ptr, !824, !DIExpression(), !831)
    #dbg_value(i64 %3, !829, !DIExpression(DW_OP_LLVM_fragment, 0, 64), !831)
    #dbg_value(i64 %5, !829, !DIExpression(DW_OP_LLVM_fragment, 64, 64), !831)
    #dbg_value(i64 %1, !830, !DIExpression(), !831)
; call __rustc::__rust_realloc
  %9 = tail call noundef ptr @_RNvCsj3IbkTTFM3W_7___rustc14___rust_realloc(ptr noundef nonnull %ptr, i64 noundef %5, i64 noundef range(i64 1, -9223372036854775807) %0, i64 noundef %1) #17, !dbg !833
    #dbg_value(ptr %9, !694, !DIExpression(), !834)
    #dbg_value(ptr %9, !835, !DIExpression(), !838)
  br label %bb5, !dbg !840

bb3:                                              ; preds = %start
    #dbg_value(ptr poison, !841, !DIExpression(), !847)
    #dbg_value(i64 %0, !846, !DIExpression(DW_OP_LLVM_fragment, 0, 64), !847)
    #dbg_value(i64 %1, !846, !DIExpression(DW_OP_LLVM_fragment, 64, 64), !847)
    #dbg_value(ptr poison, !732, !DIExpression(), !849)
    #dbg_value(i64 %0, !747, !DIExpression(DW_OP_LLVM_fragment, 0, 64), !852)
    #dbg_value(i64 %1, !747, !DIExpression(DW_OP_LLVM_fragment, 64, 64), !852)
    #dbg_value(ptr poison, !746, !DIExpression(), !852)
    #dbg_value(i1 false, !748, !DIExpression(DW_OP_LLVM_convert, 1, DW_ATE_unsigned, DW_OP_LLVM_convert, 8, DW_ATE_unsigned, DW_OP_stack_value), !852)
    #dbg_value(i64 %1, !749, !DIExpression(), !853)
  %10 = icmp eq i64 %1, 0, !dbg !854
  br i1 %10, label %bb2.i.i12, label %bb4.i.i10, !dbg !854

bb2.i.i12:                                        ; preds = %bb3
    #dbg_value(ptr undef, !732, !DIExpression(), !849)
  %_20.i.i = inttoptr i64 %0 to ptr, !dbg !855
  br label %bb8, !dbg !858

bb4.i.i10:                                        ; preds = %bb3
    #dbg_value(i64 %0, !784, !DIExpression(DW_OP_LLVM_fragment, 0, 64), !859)
    #dbg_value(i64 %1, !784, !DIExpression(DW_OP_LLVM_fragment, 64, 64), !859)
; call __rustc::__rust_no_alloc_shim_is_unstable_v2
  tail call void @_RNvCsj3IbkTTFM3W_7___rustc35___rust_no_alloc_shim_is_unstable_v2() #17, !dbg !861
; call __rustc::__rust_alloc
  %11 = tail call noundef ptr @_RNvCsj3IbkTTFM3W_7___rustc12___rust_alloc(i64 noundef %1, i64 noundef range(i64 1, -9223372036854775807) %0) #17, !dbg !862
    #dbg_value(ptr %11, !751, !DIExpression(), !863)
    #dbg_value(ptr %11, !794, !DIExpression(), !864)
  br label %bb5, !dbg !866

bb5:                                              ; preds = %bb4.i.i10, %bb3.i.i, %bb4.i.i.i
  %_0.sroa.0.0.i.i.pn = phi ptr [ %9, %bb3.i.i ], [ %8, %bb4.i.i.i ], [ %11, %bb4.i.i10 ]
    #dbg_value(ptr %_0.sroa.0.0.i.i.pn, !597, !DIExpression(DW_OP_LLVM_fragment, 0, 64), !867)
    #dbg_value(i64 poison, !597, !DIExpression(DW_OP_LLVM_fragment, 64, 64), !867)
    #dbg_value(ptr %_0.sroa.0.0.i.i.pn, !642, !DIExpression(DW_OP_LLVM_fragment, 0, 64), !647)
    #dbg_value(i64 poison, !642, !DIExpression(DW_OP_LLVM_fragment, 64, 64), !647)
    #dbg_value(ptr undef, !627, !DIExpression(), !647)
  %12 = icmp eq ptr %_0.sroa.0.0.i.i.pn, null, !dbg !868
  %13 = inttoptr i64 %0 to ptr
  %spec.select = select i1 %12, ptr %13, ptr %_0.sroa.0.0.i.i.pn, !dbg !869
  %spec.select6 = zext i1 %12 to i64, !dbg !869
  br label %bb8, !dbg !869

bb8:                                              ; preds = %bb5, %bb2.i.i12, %bb2.i.i.i
  %_0.sroa.0.0.i.i.pn.sink = phi ptr [ %_20.i.i, %bb2.i.i12 ], [ %_20.i.i.i, %bb2.i.i.i ], [ %spec.select, %bb5 ], !dbg !647
  %storemerge = phi i64 [ 0, %bb2.i.i12 ], [ 0, %bb2.i.i.i ], [ %spec.select6, %bb5 ], !dbg !647
  %14 = getelementptr inbounds nuw i8, ptr %_0, i64 8, !dbg !647
  store ptr %_0.sroa.0.0.i.i.pn.sink, ptr %14, align 8, !dbg !647
  %15 = getelementptr inbounds nuw i8, ptr %_0, i64 16, !dbg !647
  store i64 %1, ptr %15, align 8, !dbg !647
  store i64 %storemerge, ptr %_0, align 8, !dbg !647
  ret void, !dbg !870
}

; alloc::raw_vec::RawVecInner<A>::reserve::do_reserve_and_handle
; Function Attrs: cold nonlazybind uwtable
define internal fastcc void @"_ZN5alloc7raw_vec20RawVecInner$LT$A$GT$7reserve21do_reserve_and_handle17h0218d577ac94f8e8E"(ptr noalias noundef nonnull align 8 captures(none) dereferenceable(16) %slf, i64 noundef %len, i64 noundef %additional, i64 noundef range(i64 1, 9) %elem_layout.0, i64 noundef range(i64 1, 25) %elem_layout.1) unnamed_addr #4 personality ptr @rust_eh_personality !dbg !871 {
start:
  %_26.i = alloca [24 x i8], align 8
  %self5.i = alloca [24 x i8], align 8
    #dbg_value(ptr %slf, !877, !DIExpression(), !883)
    #dbg_value(i64 %len, !878, !DIExpression(), !883)
    #dbg_value(i64 %additional, !879, !DIExpression(), !883)
    #dbg_value(i64 %elem_layout.0, !880, !DIExpression(DW_OP_LLVM_fragment, 0, 64), !883)
    #dbg_value(i64 %elem_layout.1, !880, !DIExpression(DW_OP_LLVM_fragment, 64, 64), !883)
  tail call void @llvm.experimental.noalias.scope.decl(metadata !884), !dbg !887
    #dbg_value(i64 %elem_layout.0, !888, !DIExpression(DW_OP_LLVM_fragment, 0, 64), !960)
    #dbg_value(i64 %elem_layout.1, !888, !DIExpression(DW_OP_LLVM_fragment, 64, 64), !960)
    #dbg_value(ptr %slf, !908, !DIExpression(), !960)
    #dbg_value(ptr %slf, !962, !DIExpression(), !970)
    #dbg_value(i64 %len, !909, !DIExpression(), !960)
    #dbg_value(i64 %len, !972, !DIExpression(), !989)
    #dbg_value(i64 %additional, !910, !DIExpression(), !960)
    #dbg_value(i64 %additional, !988, !DIExpression(), !989)
    #dbg_declare(ptr %self5.i, !991, !DIExpression(), !1019)
    #dbg_value(i64 %elem_layout.1, !1021, !DIExpression(), !1026)
  %_32.0.i = add i64 %additional, %len, !dbg !1028
  %_32.1.i = icmp ult i64 %_32.0.i, %len, !dbg !1028
    #dbg_value(i1 %_32.1.i, !1029, !DIExpression(DW_OP_LLVM_convert, 1, DW_ATE_unsigned, DW_OP_LLVM_convert, 8, DW_ATE_unsigned, DW_OP_stack_value), !1036)
  br i1 %_32.1.i, label %bb2, label %bb11.i, !dbg !1038, !prof !1039

bb11.i:                                           ; preds = %start
    #dbg_value(i64 %_32.0.i, !911, !DIExpression(), !1040)
    #dbg_value(i64 %_32.0.i, !1041, !DIExpression(), !1049)
  %self14.i = load i64, ptr %slf, align 8, !dbg !1051, !range !327, !alias.scope !884, !noundef !19
  %v116.i = shl nuw i64 %self14.i, 1, !dbg !1051
    #dbg_value(i64 %v116.i, !1048, !DIExpression(), !1049)
    #dbg_value(i64 %v116.i, !1052, !DIExpression(), !1059)
    #dbg_value(i64 %_32.0.i, !1056, !DIExpression(), !1059)
  %_0.sroa.0.0.i.i = tail call noundef i64 @llvm.umax.i64(i64 %_32.0.i, i64 range(i64 0, -1) %v116.i), !dbg !1061
    #dbg_value(i64 %_0.sroa.0.0.i.i, !931, !DIExpression(), !1062)
    #dbg_value(i64 %_0.sroa.0.0.i.i, !1041, !DIExpression(), !1063)
  %0 = icmp eq i64 %elem_layout.1, 1, !dbg !1065
  %v1.sroa.0.0.i = select i1 %0, i64 8, i64 4, !dbg !1065
    #dbg_value(i64 %v1.sroa.0.0.i, !1048, !DIExpression(), !1063)
    #dbg_value(i64 %v1.sroa.0.0.i, !1052, !DIExpression(), !1066)
    #dbg_value(i64 %_0.sroa.0.0.i.i, !1056, !DIExpression(), !1066)
  %_0.sroa.0.0.i56.i = tail call noundef i64 @llvm.umax.i64(i64 %_0.sroa.0.0.i.i, i64 range(i64 0, -1) %v1.sroa.0.0.i), !dbg !1068
    #dbg_value(i64 %_0.sroa.0.0.i56.i, !933, !DIExpression(), !1069)
    #dbg_value(i64 %_0.sroa.0.0.i56.i, !1070, !DIExpression(), !1091)
    #dbg_value(i64 %_0.sroa.0.0.i56.i, !969, !DIExpression(), !970)
    #dbg_value(i64 %elem_layout.0, !1090, !DIExpression(DW_OP_LLVM_fragment, 0, 64), !1091)
    #dbg_value(i64 %elem_layout.1, !1090, !DIExpression(DW_OP_LLVM_fragment, 64, 64), !1091)
    #dbg_value(ptr poison, !1093, !DIExpression(), !1118)
    #dbg_value(ptr poison, !1146, !DIExpression(), !1151)
    #dbg_value(ptr poison, !1152, !DIExpression(), !1160)
    #dbg_value(ptr poison, !1162, !DIExpression(), !1169)
    #dbg_value(i64 %_0.sroa.0.0.i56.i, !1147, !DIExpression(), !1151)
    #dbg_value(i64 %_0.sroa.0.0.i56.i, !1115, !DIExpression(), !1118)
    #dbg_value(i64 %_0.sroa.0.0.i56.i, !1171, !DIExpression(), !1178)
    #dbg_value(i64 %_0.sroa.0.0.i56.i, !1180, !DIExpression(), !1190)
    #dbg_value(i64 %elem_layout.0, !1168, !DIExpression(), !1169)
  %_10.i.i = add nsw i64 %elem_layout.0, -1, !dbg !1192
  %_12.i.i = add nuw nsw i64 %_10.i.i, %elem_layout.1, !dbg !1193
  %_14.i.i = sub nsw i64 0, %elem_layout.0, !dbg !1194
  %new_size.i.i = and i64 %_12.i.i, %_14.i.i, !dbg !1193
    #dbg_value(i64 %new_size.i.i, !1174, !DIExpression(), !1178)
    #dbg_value(i64 %new_size.i.i, !1189, !DIExpression(), !1190)
    #dbg_value(i64 %new_size.i.i, !1148, !DIExpression(DW_OP_LLVM_fragment, 64, 64), !1195)
    #dbg_value(i64 %elem_layout.0, !1148, !DIExpression(DW_OP_LLVM_fragment, 0, 64), !1195)
    #dbg_value(ptr undef, !1093, !DIExpression(), !1118)
  %1 = tail call { i64, i1 } @llvm.umul.with.overflow.i64(i64 %new_size.i.i, i64 %_0.sroa.0.0.i56.i), !dbg !1196
  %_21.0.i.i = extractvalue { i64, i1 } %1, 0, !dbg !1196
  %_21.1.i.i = extractvalue { i64, i1 } %1, 1, !dbg !1196
    #dbg_value(i1 %_21.1.i.i, !1177, !DIExpression(DW_OP_LLVM_convert, 1, DW_ATE_unsigned, DW_OP_LLVM_convert, 8, DW_ATE_unsigned, DW_OP_stack_value), !1197)
    #dbg_value(i1 %_21.1.i.i, !1198, !DIExpression(DW_OP_LLVM_convert, 1, DW_ATE_unsigned, DW_OP_LLVM_convert, 8, DW_ATE_unsigned, DW_OP_stack_value), !1201)
    #dbg_value(i64 %_21.0.i.i, !1116, !DIExpression(), !1203)
    #dbg_value(i64 %_21.0.i.i, !1175, !DIExpression(), !1197)
  %_27.i.i = sub nuw i64 -9223372036854775808, %elem_layout.0
  %_26.i.i = icmp ugt i64 %_21.0.i.i, %_27.i.i
  %or.cond.i.i = select i1 %_21.1.i.i, i1 true, i1 %_26.i.i, !dbg !1204
  br i1 %or.cond.i.i, label %bb2, label %bb22.i, !dbg !1204, !prof !1205

bb22.i:                                           ; preds = %bb11.i
    #dbg_value(i64 %elem_layout.0, !1149, !DIExpression(DW_OP_LLVM_fragment, 0, 64), !1206)
    #dbg_value(i64 %_21.0.i.i, !1149, !DIExpression(DW_OP_LLVM_fragment, 64, 64), !1206)
    #dbg_value(i64 %elem_layout.0, !935, !DIExpression(DW_OP_LLVM_fragment, 0, 64), !1207)
    #dbg_value(i64 %_21.0.i.i, !935, !DIExpression(DW_OP_LLVM_fragment, 64, 64), !1207)
  call void @llvm.lifetime.start.p0(i64 24, ptr nonnull %self5.i), !dbg !1208, !noalias !884
  call void @llvm.lifetime.start.p0(i64 24, ptr nonnull %_26.i), !dbg !1209, !noalias !884
  %2 = getelementptr inbounds nuw i8, ptr %slf, i64 8, !dbg !1210
    #dbg_value(i64 %elem_layout.0, !270, !DIExpression(DW_OP_LLVM_fragment, 0, 64), !1211)
    #dbg_value(i64 %elem_layout.1, !270, !DIExpression(DW_OP_LLVM_fragment, 64, 64), !1211)
    #dbg_value(ptr poison, !295, !DIExpression(), !1211)
    #dbg_value(i64 %elem_layout.1, !350, !DIExpression(), !1213)
  %3 = icmp eq i64 %self14.i, 0, !dbg !1215
  br i1 %3, label %"_ZN5alloc7raw_vec20RawVecInner$LT$A$GT$14current_memory17h76038fd88f5d521fE.exit.i", label %bb4.i.i, !dbg !1215

bb4.i.i:                                          ; preds = %bb22.i
  %self.val54.i = load ptr, ptr %2, align 8, !dbg !1210, !alias.scope !884, !nonnull !19, !noundef !19
    #dbg_value(i64 %self14.i, !382, !DIExpression(), !1213)
  %4 = mul nuw i64 %self14.i, %elem_layout.1, !dbg !1216
    #dbg_value(i64 %4, !296, !DIExpression(), !1217)
    #dbg_value(i64 %elem_layout.0, !298, !DIExpression(DW_OP_LLVM_fragment, 0, 64), !1218)
    #dbg_value(i64 %4, !298, !DIExpression(DW_OP_LLVM_fragment, 64, 64), !1218)
  store ptr %self.val54.i, ptr %_26.i, align 8, !dbg !1219, !alias.scope !1220, !noalias !884
  %_15.sroa.5.0._0.sroa_idx.i.i = getelementptr inbounds nuw i8, ptr %_26.i, i64 16, !dbg !1219
  store i64 %4, ptr %_15.sroa.5.0._0.sroa_idx.i.i, align 8, !dbg !1219, !alias.scope !1220, !noalias !884
  br label %"_ZN5alloc7raw_vec20RawVecInner$LT$A$GT$14current_memory17h76038fd88f5d521fE.exit.i", !dbg !1223

"_ZN5alloc7raw_vec20RawVecInner$LT$A$GT$14current_memory17h76038fd88f5d521fE.exit.i": ; preds = %bb4.i.i, %bb22.i
  %.sink.i.i = phi i64 [ %elem_layout.0, %bb4.i.i ], [ 0, %bb22.i ], !dbg !1211
  %5 = getelementptr inbounds nuw i8, ptr %_26.i, i64 8, !dbg !1211
  store i64 %.sink.i.i, ptr %5, align 8, !dbg !1211, !alias.scope !1220, !noalias !884
; call alloc::raw_vec::finish_grow
  call fastcc void @_ZN5alloc7raw_vec11finish_grow17hc42b3572ac67c029E(ptr noalias noundef align 8 captures(address) dereferenceable(24) %self5.i, i64 noundef range(i64 1, 9) %elem_layout.0, i64 noundef %_21.0.i.i, ptr noalias noundef readonly align 8 captures(address) dereferenceable(24) %_26.i), !dbg !1208, !noalias !884
  call void @llvm.lifetime.end.p0(i64 24, ptr nonnull %_26.i), !dbg !1224, !noalias !884
  %_53.i = load i64, ptr %self5.i, align 8, !dbg !1225, !range !1226, !noalias !884, !noundef !19
  %6 = trunc nuw i64 %_53.i to i1, !dbg !1227
  %7 = getelementptr inbounds nuw i8, ptr %self5.i, i64 8, !dbg !1228
  br i1 %6, label %bb23.i, label %bb3, !dbg !1227

bb23.i:                                           ; preds = %"_ZN5alloc7raw_vec20RawVecInner$LT$A$GT$14current_memory17h76038fd88f5d521fE.exit.i"
  %e.0.i = load i64, ptr %7, align 8, !dbg !1229, !range !652, !noalias !884, !noundef !19
  %8 = getelementptr inbounds nuw i8, ptr %self5.i, i64 16, !dbg !1229
  %e.1.i = load i64, ptr %8, align 8, !dbg !1229, !noalias !884
  call void @llvm.lifetime.end.p0(i64 24, ptr nonnull %self5.i), !dbg !1230, !noalias !884
  br label %bb2, !dbg !1231

bb2:                                              ; preds = %bb23.i, %start, %bb11.i
  %_0.sroa.6.0.i.ph = phi i64 [ undef, %bb11.i ], [ undef, %start ], [ %e.1.i, %bb23.i ]
  %_0.sroa.0.0.i.ph = phi i64 [ 0, %bb11.i ], [ 0, %start ], [ %e.0.i, %bb23.i ]
    #dbg_value(i64 %_0.sroa.0.0.i.ph, !881, !DIExpression(DW_OP_LLVM_fragment, 0, 64), !1233)
    #dbg_value(i64 %_0.sroa.6.0.i.ph, !881, !DIExpression(DW_OP_LLVM_fragment, 64, 64), !1233)
; call alloc::raw_vec::handle_error
  tail call void @_ZN5alloc7raw_vec12handle_error17h44cc7051d170a168E(i64 noundef %_0.sroa.0.0.i.ph, i64 %_0.sroa.6.0.i.ph, ptr noalias noundef readonly align 8 captures(address, read_provenance) dereferenceable(24) @alloc_ab6d55d2a65ad1e0dafc1ec4726e7b65) #18, !dbg !1234
  unreachable, !dbg !1234

bb3:                                              ; preds = %"_ZN5alloc7raw_vec20RawVecInner$LT$A$GT$14current_memory17h76038fd88f5d521fE.exit.i"
  %v.025.i = load ptr, ptr %7, align 8, !dbg !1235, !noalias !884, !nonnull !19, !noundef !19
  call void @llvm.lifetime.end.p0(i64 24, ptr nonnull %self5.i), !dbg !1230, !noalias !884
    #dbg_value(ptr %v.025.i, !954, !DIExpression(DW_OP_LLVM_fragment, 0, 64), !1236)
    #dbg_value(ptr %v.025.i, !968, !DIExpression(DW_OP_LLVM_fragment, 0, 64), !970)
    #dbg_value(i64 poison, !954, !DIExpression(DW_OP_LLVM_fragment, 64, 64), !1236)
    #dbg_value(i64 poison, !968, !DIExpression(DW_OP_LLVM_fragment, 64, 64), !970)
  store ptr %v.025.i, ptr %2, align 8, !dbg !1237, !alias.scope !884
  %9 = icmp sgt i64 %_0.sroa.0.0.i56.i, -1, !dbg !1238
  tail call void @llvm.assume(i1 %9), !dbg !1238
  store i64 %_0.sroa.0.0.i56.i, ptr %slf, align 8, !dbg !1245, !alias.scope !884
  ret void, !dbg !1246
}

; shlex::bytes::quote
; Function Attrs: nonlazybind uwtable
define void @_ZN5shlex5bytes5quote17h1e666af0c28c830bE(ptr dead_on_unwind noalias noundef writable writeonly sret([24 x i8]) align 8 captures(none) dereferenceable(24) %_0, ptr noalias noundef nonnull readonly align 1 captures(address, read_provenance) %in_bytes.0, i64 noundef %in_bytes.1) unnamed_addr #2 personality ptr @rust_eh_personality !dbg !1247 {
start:
  %e.i = alloca [0 x i8], align 1
  %_4 = alloca [1 x i8], align 1
  %_2 = alloca [24 x i8], align 8
    #dbg_value(ptr %in_bytes.0, !1272, !DIExpression(DW_OP_LLVM_fragment, 0, 64), !1273)
    #dbg_value(i64 %in_bytes.1, !1272, !DIExpression(DW_OP_LLVM_fragment, 64, 64), !1273)
    #dbg_value(i8 1, !1274, !DIExpression(), !1284)
  call void @llvm.lifetime.start.p0(i64 24, ptr nonnull %_2), !dbg !1286
  call void @llvm.lifetime.start.p0(i64 1, ptr nonnull %_4), !dbg !1286
    #dbg_value(i8 0, !1283, !DIExpression(), !1284)
    #dbg_value(i8 1, !1283, !DIExpression(), !1284)
  store i8 1, ptr %_4, align 1, !dbg !1287
; call shlex::bytes::Quoter::quote
  call void @_ZN5shlex5bytes6Quoter5quote17h3b9f44e850740b23E(ptr noalias noundef nonnull sret([24 x i8]) align 8 captures(address) dereferenceable(24) %_2, ptr noalias noundef nonnull readonly align 1 captures(address, read_provenance) dereferenceable(1) %_4, ptr noalias noundef nonnull readonly align 1 captures(address, read_provenance) %in_bytes.0, i64 noundef %in_bytes.1), !dbg !1288
  tail call void @llvm.experimental.noalias.scope.decl(metadata !1289), !dbg !1292
  tail call void @llvm.experimental.noalias.scope.decl(metadata !1293), !dbg !1292
  call void @llvm.lifetime.start.p0(i64 0, ptr nonnull %e.i), !dbg !1295
    #dbg_declare(ptr %_2, !1317, !DIExpression(), !1323)
    #dbg_declare(ptr %e.i, !1320, !DIExpression(), !1324)
  %0 = load i64, ptr %_2, align 8, !dbg !1295, !range !1325, !alias.scope !1293, !noalias !1289, !noundef !19
  %1 = icmp eq i64 %0, -9223372036854775807, !dbg !1295
  br i1 %1, label %bb2.i, label %"_ZN4core6result19Result$LT$T$C$E$GT$6unwrap17hf843ae8ac900b8d3E.exit", !dbg !1326, !prof !1039

bb2.i:                                            ; preds = %start
; call core::result::unwrap_failed
  call void @_ZN4core6result13unwrap_failed17h5d9b16b0b732a2acE(ptr noalias noundef nonnull readonly align 1 captures(address, read_provenance) @alloc_00ae4b301f7fab8ac9617c03fcbd7274, i64 noundef 43, ptr noundef nonnull align 1 %e.i, ptr noalias noundef readonly align 8 captures(address, read_provenance) dereferenceable(32) @vtable.0, ptr noalias noundef readonly align 8 captures(address, read_provenance) dereferenceable(24) @alloc_9a3db82574254cb2247deba127f91861) #18, !dbg !1327, !noalias !1328
  unreachable

"_ZN4core6result19Result$LT$T$C$E$GT$6unwrap17hf843ae8ac900b8d3E.exit": ; preds = %start
  call void @llvm.memcpy.p0.p0.i64(ptr noundef nonnull align 8 dereferenceable(24) %_0, ptr noundef nonnull align 8 dereferenceable(24) %_2, i64 24, i1 false), !dbg !1329, !alias.scope !1328
  call void @llvm.lifetime.end.p0(i64 0, ptr nonnull %e.i), !dbg !1330
  call void @llvm.lifetime.end.p0(i64 24, ptr nonnull %_2), !dbg !1331
  call void @llvm.lifetime.end.p0(i64 1, ptr nonnull %_4), !dbg !1332
  ret void, !dbg !1333
}

; shlex::bytes::split
; Function Attrs: nonlazybind uwtable
define void @_ZN5shlex5bytes5split17hd3551ff3f69687adE(ptr dead_on_unwind noalias noundef writable writeonly sret([24 x i8]) align 8 captures(none) dereferenceable(24) %_0, ptr noalias noundef nonnull readonly align 1 captures(address, read_provenance) %in_bytes.0, i64 noundef %in_bytes.1) unnamed_addr #2 personality ptr @rust_eh_personality !dbg !1334 {
start:
  %_3.i.i.i.i.i.i = alloca [24 x i8], align 8
  %_3.i.i.i.i = alloca [24 x i8], align 8
  %vector.i.i.i.i = alloca [24 x i8], align 8
    #dbg_value(ptr poison, !409, !DIExpression(), !1370)
  %shl = alloca [32 x i8], align 8
    #dbg_value(ptr %in_bytes.0, !1349, !DIExpression(DW_OP_LLVM_fragment, 0, 64), !1372)
    #dbg_value(ptr %in_bytes.0, !1373, !DIExpression(DW_OP_LLVM_fragment, 0, 64), !1379)
    #dbg_value(ptr %in_bytes.0, !1381, !DIExpression(DW_OP_LLVM_fragment, 0, 64), !1388)
    #dbg_value(ptr %in_bytes.0, !1390, !DIExpression(DW_OP_LLVM_fragment, 0, 64), !1401)
    #dbg_value(i64 %in_bytes.1, !1349, !DIExpression(DW_OP_LLVM_fragment, 64, 64), !1372)
    #dbg_value(i64 %in_bytes.1, !1373, !DIExpression(DW_OP_LLVM_fragment, 64, 64), !1379)
    #dbg_value(i64 %in_bytes.1, !1381, !DIExpression(DW_OP_LLVM_fragment, 64, 64), !1388)
    #dbg_value(i64 %in_bytes.1, !1390, !DIExpression(DW_OP_LLVM_fragment, 64, 64), !1401)
    #dbg_declare(ptr %shl, !1350, !DIExpression(), !1403)
  call void @llvm.lifetime.start.p0(i64 32, ptr nonnull %shl), !dbg !1404
    #dbg_value(i64 %in_bytes.1, !1395, !DIExpression(), !1405)
    #dbg_value(i64 %in_bytes.1, !1406, !DIExpression(), !1415)
    #dbg_value(ptr %in_bytes.0, !1397, !DIExpression(), !1417)
    #dbg_value(ptr %in_bytes.0, !1414, !DIExpression(), !1415)
  %_11 = getelementptr inbounds nuw i8, ptr %in_bytes.0, i64 %in_bytes.1, !dbg !1418
  store ptr %in_bytes.0, ptr %shl, align 8, !dbg !1419
  %0 = getelementptr inbounds nuw i8, ptr %shl, i64 8, !dbg !1419
  store ptr %_11, ptr %0, align 8, !dbg !1419
  %1 = getelementptr inbounds nuw i8, ptr %shl, i64 16, !dbg !1419
  store i64 1, ptr %1, align 8, !dbg !1419
  %2 = getelementptr inbounds nuw i8, ptr %shl, i64 24, !dbg !1419
  store i8 0, ptr %2, align 8, !dbg !1419
    #dbg_value(ptr %shl, !1420, !DIExpression(), !1477)
    #dbg_value(ptr %shl, !1479, !DIExpression(), !1487)
    #dbg_value(ptr %shl, !1489, !DIExpression(), !1495)
    #dbg_value(ptr %shl, !1497, !DIExpression(), !1513)
    #dbg_declare(ptr %vector.i.i.i.i, !1503, !DIExpression(), !1515)
    #dbg_declare(ptr poison, !1516, !DIExpression(), !1523)
    #dbg_declare(ptr poison, !1532, !DIExpression(), !1539)
  call void @llvm.lifetime.start.p0(i64 24, ptr nonnull %vector.i.i.i.i), !dbg !1541, !noalias !1542
  call void @llvm.lifetime.start.p0(i64 24, ptr nonnull %_3.i.i.i.i), !dbg !1555, !noalias !1542
    #dbg_value(ptr poison, !1556, !DIExpression(), !1576)
; call <shlex::bytes::Shlex as core::iter::traits::iterator::Iterator>::next
  call void @"_ZN78_$LT$shlex..bytes..Shlex$u20$as$u20$core..iter..traits..iterator..Iterator$GT$4next17hf7fa350fff80e22aE"(ptr noalias noundef nonnull sret([24 x i8]) align 8 captures(address) dereferenceable(24) %_3.i.i.i.i, ptr noalias noundef nonnull align 8 dereferenceable(32) %shl), !dbg !1578, !noalias !1579
  %3 = load i64, ptr %_3.i.i.i.i, align 8, !dbg !1555, !range !652, !noalias !1542, !noundef !19
  %.not.i.i.i.i = icmp eq i64 %3, -9223372036854775808, !dbg !1555
  br i1 %.not.i.i.i.i, label %_ZN4core4iter6traits8iterator8Iterator7collect17hdcb684ff91fcbd5bE.exit.thread, label %"_ZN63_$LT$alloc..alloc..Global$u20$as$u20$core..alloc..Allocator$GT$8allocate17h383ac9545c81f9b4E.exit.i.i.i.i.i.i", !dbg !1580

cleanup3.i.i.i.i:                                 ; preds = %bb3.i.i.i.i.i
  %4 = landingpad { ptr, i32 }
          cleanup
    #dbg_value(ptr poison, !218, !DIExpression(), !1581)
    #dbg_value(ptr poison, !228, !DIExpression(), !1583)
    #dbg_value(ptr poison, !238, !DIExpression(), !1585)
    #dbg_value(ptr poison, !248, !DIExpression(), !1587)
    #dbg_value(i64 1, !264, !DIExpression(DW_OP_LLVM_fragment, 0, 64), !1587)
    #dbg_value(i64 1, !264, !DIExpression(DW_OP_LLVM_fragment, 64, 64), !1587)
    #dbg_value(i64 1, !270, !DIExpression(DW_OP_LLVM_fragment, 0, 64), !1589)
    #dbg_value(i64 1, !270, !DIExpression(DW_OP_LLVM_fragment, 64, 64), !1589)
    #dbg_value(ptr poison, !295, !DIExpression(), !1589)
  %5 = icmp eq i64 %3, 0, !dbg !1591
  br i1 %5, label %bb8.i.i.i.i, label %bb2.i.i.i4.i.i.i.i.i, !dbg !1591

bb2.i.i.i4.i.i.i.i.i:                             ; preds = %cleanup3.i.i.i.i
  %6 = icmp ne ptr %element.sroa.5.0.copyload.i.i.i.i, null
  tail call void @llvm.assume(i1 %6)
    #dbg_value(ptr %element.sroa.5.0.copyload.i.i.i.i, !265, !DIExpression(), !1592)
    #dbg_value(i64 1, !267, !DIExpression(DW_OP_LLVM_fragment, 0, 64), !1592)
    #dbg_value(i64 %3, !267, !DIExpression(DW_OP_LLVM_fragment, 64, 64), !1592)
    #dbg_value(i64 1, !304, !DIExpression(DW_OP_LLVM_fragment, 0, 64), !1593)
    #dbg_value(i64 %3, !304, !DIExpression(DW_OP_LLVM_fragment, 64, 64), !1593)
    #dbg_value(ptr poison, !312, !DIExpression(), !1593)
    #dbg_value(ptr %element.sroa.5.0.copyload.i.i.i.i, !313, !DIExpression(), !1593)
    #dbg_value(ptr %element.sroa.5.0.copyload.i.i.i.i, !316, !DIExpression(), !1595)
    #dbg_value(i64 1, !322, !DIExpression(DW_OP_LLVM_fragment, 0, 64), !1595)
    #dbg_value(i64 %3, !322, !DIExpression(DW_OP_LLVM_fragment, 64, 64), !1595)
; call __rustc::__rust_dealloc
  tail call void @_RNvCsj3IbkTTFM3W_7___rustc14___rust_dealloc(ptr noundef nonnull %element.sroa.5.0.copyload.i.i.i.i, i64 noundef %3, i64 noundef range(i64 1, -9223372036854775807) 1) #17, !dbg !1597, !noalias !1542
  br label %bb8.i.i.i.i, !dbg !1598

"_ZN63_$LT$alloc..alloc..Global$u20$as$u20$core..alloc..Allocator$GT$8allocate17h383ac9545c81f9b4E.exit.i.i.i.i.i.i": ; preds = %start
    #dbg_value(i64 %3, !1505, !DIExpression(DW_OP_LLVM_fragment, 0, 64), !1599)
  %element.sroa.5.0._3.sroa_idx.i.i.i.i = getelementptr inbounds nuw i8, ptr %_3.i.i.i.i, i64 8, !dbg !1600
  %element.sroa.5.0.copyload.i.i.i.i = load ptr, ptr %element.sroa.5.0._3.sroa_idx.i.i.i.i, align 8, !dbg !1600, !noalias !1542
    #dbg_value(ptr %element.sroa.5.0.copyload.i.i.i.i, !1505, !DIExpression(DW_OP_LLVM_fragment, 64, 64), !1599)
  %element.sroa.6.0._3.sroa_idx.i.i.i.i = getelementptr inbounds nuw i8, ptr %_3.i.i.i.i, i64 16, !dbg !1600
  %element.sroa.6.0.copyload.i.i.i.i = load i64, ptr %element.sroa.6.0._3.sroa_idx.i.i.i.i, align 8, !dbg !1600, !noalias !1542
    #dbg_value(i64 %element.sroa.6.0.copyload.i.i.i.i, !1505, !DIExpression(DW_OP_LLVM_fragment, 128, 64), !1599)
    #dbg_value(i64 0, !1507, !DIExpression(), !1601)
    #dbg_value(i64 4, !1509, !DIExpression(), !1602)
    #dbg_value(i64 4, !1530, !DIExpression(), !1603)
    #dbg_value(i64 4, !1522, !DIExpression(), !1604)
    #dbg_value(i64 4, !1538, !DIExpression(), !1605)
    #dbg_value(i64 4, !1606, !DIExpression(), !1618)
    #dbg_declare(ptr poison, !1612, !DIExpression(), !1620)
    #dbg_value(i64 8, !1613, !DIExpression(DW_OP_LLVM_fragment, 0, 64), !1618)
    #dbg_value(i64 24, !1613, !DIExpression(DW_OP_LLVM_fragment, 64, 64), !1618)
    #dbg_value(i64 8, !1621, !DIExpression(DW_OP_LLVM_fragment, 0, 64), !1655)
    #dbg_value(i64 24, !1621, !DIExpression(DW_OP_LLVM_fragment, 64, 64), !1655)
    #dbg_value(i64 4, !1642, !DIExpression(), !1655)
    #dbg_value(i1 false, !1643, !DIExpression(DW_OP_LLVM_convert, 1, DW_ATE_unsigned, DW_OP_LLVM_convert, 8, DW_ATE_unsigned, DW_OP_stack_value), !1655)
    #dbg_declare(ptr poison, !1644, !DIExpression(), !1657)
    #dbg_value(i64 8, !1645, !DIExpression(DW_OP_LLVM_fragment, 0, 64), !1658)
    #dbg_value(i64 96, !1645, !DIExpression(DW_OP_LLVM_fragment, 64, 64), !1658)
    #dbg_value(ptr poison, !841, !DIExpression(), !1659)
    #dbg_value(i64 8, !846, !DIExpression(DW_OP_LLVM_fragment, 0, 64), !1659)
    #dbg_value(i64 96, !846, !DIExpression(DW_OP_LLVM_fragment, 64, 64), !1659)
    #dbg_value(i64 8, !747, !DIExpression(DW_OP_LLVM_fragment, 0, 64), !1661)
    #dbg_value(i64 96, !747, !DIExpression(DW_OP_LLVM_fragment, 64, 64), !1661)
    #dbg_value(ptr poison, !746, !DIExpression(), !1661)
    #dbg_value(i1 false, !748, !DIExpression(DW_OP_LLVM_convert, 1, DW_ATE_unsigned, DW_OP_LLVM_convert, 8, DW_ATE_unsigned, DW_OP_stack_value), !1661)
    #dbg_value(i64 96, !749, !DIExpression(), !1663)
    #dbg_value(i64 8, !784, !DIExpression(DW_OP_LLVM_fragment, 0, 64), !1664)
    #dbg_value(i64 96, !784, !DIExpression(DW_OP_LLVM_fragment, 64, 64), !1664)
; call __rustc::__rust_no_alloc_shim_is_unstable_v2
  tail call void @_RNvCsj3IbkTTFM3W_7___rustc35___rust_no_alloc_shim_is_unstable_v2() #17, !dbg !1666, !noalias !1667
; call __rustc::__rust_alloc
  %7 = tail call noundef align 8 dereferenceable_or_null(96) ptr @_RNvCsj3IbkTTFM3W_7___rustc12___rust_alloc(i64 noundef 96, i64 noundef range(i64 1, -9223372036854775807) 8) #17, !dbg !1670, !noalias !1667
    #dbg_value(i64 poison, !1649, !DIExpression(DW_OP_LLVM_fragment, 64, 64), !1671)
    #dbg_value(ptr %7, !1649, !DIExpression(DW_OP_LLVM_fragment, 0, 64), !1671)
  %8 = icmp eq ptr %7, null, !dbg !1672
  br i1 %8, label %bb3.i.i.i.i.i, label %bb15.i.i.i.i, !dbg !1673

bb3.i.i.i.i.i:                                    ; preds = %"_ZN63_$LT$alloc..alloc..Global$u20$as$u20$core..alloc..Allocator$GT$8allocate17h383ac9545c81f9b4E.exit.i.i.i.i.i.i"
    #dbg_value(i64 8, !1616, !DIExpression(DW_OP_LLVM_fragment, 0, 64), !1674)
    #dbg_value(i64 96, !1616, !DIExpression(DW_OP_LLVM_fragment, 64, 64), !1674)
; invoke alloc::raw_vec::handle_error
  invoke void @_ZN5alloc7raw_vec12handle_error17h44cc7051d170a168E(i64 noundef 8, i64 96, ptr noalias noundef readonly align 8 captures(address, read_provenance) dereferenceable(24) @alloc_0812e2023ea62627bf66418dfce20832) #18
          to label %.noexc.i.i.i.i unwind label %cleanup3.i.i.i.i, !dbg !1675, !noalias !1542

.noexc.i.i.i.i:                                   ; preds = %bb3.i.i.i.i.i
  unreachable, !dbg !1675

bb15.i.i.i.i:                                     ; preds = %"_ZN63_$LT$alloc..alloc..Global$u20$as$u20$core..alloc..Allocator$GT$8allocate17h383ac9545c81f9b4E.exit.i.i.i.i.i.i"
    #dbg_value(i64 4, !1511, !DIExpression(DW_OP_LLVM_fragment, 0, 64), !1676)
    #dbg_value(ptr %7, !1511, !DIExpression(DW_OP_LLVM_fragment, 64, 64), !1676)
    #dbg_value(i64 0, !1511, !DIExpression(DW_OP_LLVM_fragment, 128, 64), !1676)
    #dbg_value(ptr %7, !1677, !DIExpression(), !1683)
    #dbg_value(i64 %3, !1682, !DIExpression(DW_OP_LLVM_fragment, 0, 64), !1683)
    #dbg_value(ptr %element.sroa.5.0.copyload.i.i.i.i, !1682, !DIExpression(DW_OP_LLVM_fragment, 64, 64), !1683)
    #dbg_value(i64 %element.sroa.6.0.copyload.i.i.i.i, !1682, !DIExpression(DW_OP_LLVM_fragment, 128, 64), !1683)
  store i64 %3, ptr %7, align 8, !dbg !1685, !noalias !1542
  %src.sroa.4.0._28.1.sroa_idx.i.i.i.i = getelementptr inbounds nuw i8, ptr %7, i64 8, !dbg !1685
  store ptr %element.sroa.5.0.copyload.i.i.i.i, ptr %src.sroa.4.0._28.1.sroa_idx.i.i.i.i, align 8, !dbg !1685, !noalias !1542
  %src.sroa.5.0._28.1.sroa_idx.i.i.i.i = getelementptr inbounds nuw i8, ptr %7, i64 16, !dbg !1685
  store i64 %element.sroa.6.0.copyload.i.i.i.i, ptr %src.sroa.5.0._28.1.sroa_idx.i.i.i.i, align 8, !dbg !1685, !noalias !1542
    #dbg_value(i64 1, !1511, !DIExpression(DW_OP_LLVM_fragment, 128, 64), !1676)
  store i64 4, ptr %vector.i.i.i.i, align 8, !dbg !1686, !noalias !1542
  %vector1.sroa.4.0.vector.sroa_idx.i.i.i.i = getelementptr inbounds nuw i8, ptr %vector.i.i.i.i, i64 8, !dbg !1686
  store ptr %7, ptr %vector1.sroa.4.0.vector.sroa_idx.i.i.i.i, align 8, !dbg !1686, !noalias !1542
  %vector1.sroa.6.0.vector.sroa_idx.i.i.i.i = getelementptr inbounds nuw i8, ptr %vector.i.i.i.i, i64 16, !dbg !1686
  store i64 1, ptr %vector1.sroa.6.0.vector.sroa_idx.i.i.i.i, align 8, !dbg !1686, !noalias !1542
  call void @llvm.lifetime.end.p0(i64 24, ptr nonnull %_3.i.i.i.i), !dbg !1687, !noalias !1542
  tail call void @llvm.experimental.noalias.scope.decl(metadata !1688), !dbg !1691
    #dbg_value(ptr %vector.i.i.i.i, !1692, !DIExpression(), !1702)
    #dbg_value(ptr %shl, !1700, !DIExpression(), !1702)
  tail call void @llvm.experimental.noalias.scope.decl(metadata !1704), !dbg !1707
    #dbg_value(ptr %shl, !1708, !DIExpression(), !1720)
    #dbg_value(ptr %vector.i.i.i.i, !1713, !DIExpression(), !1720)
    #dbg_value(ptr %vector.i.i.i.i, !1722, !DIExpression(), !1729)
    #dbg_value(ptr %vector.i.i.i.i, !1731, !DIExpression(), !1735)
    #dbg_value(ptr %vector.i.i.i.i, !1737, !DIExpression(), !1743)
    #dbg_value(ptr %vector.i.i.i.i, !1745, !DIExpression(), !1752)
    #dbg_value(ptr %vector.i.i.i.i, !1731, !DIExpression(), !1754)
  %element.sroa.5.0._3.sroa_idx.i.i.i.i.i.i = getelementptr inbounds nuw i8, ptr %_3.i.i.i.i.i.i, i64 8
  %element.sroa.6.0._3.sroa_idx.i.i.i.i.i.i = getelementptr inbounds nuw i8, ptr %_3.i.i.i.i.i.i, i64 16
  br label %bb1.i.i.i.i.i.i, !dbg !1756

bb1.i.i.i.i.i.i:                                  ; preds = %bb8.i.i.i.i.i.i, %bb15.i.i.i.i
  %_24.i.i7.i.i.i.i = phi ptr [ %_24.i.i.i.i.i.i, %bb8.i.i.i.i.i.i ], [ %7, %bb15.i.i.i.i ]
  %res.sroa.8.0.copyload4 = phi i64 [ %new_len.i.i.i.i.i.i, %bb8.i.i.i.i.i.i ], [ 1, %bb15.i.i.i.i ]
  call void @llvm.lifetime.start.p0(i64 24, ptr nonnull %_3.i.i.i.i.i.i), !dbg !1757, !noalias !1758
    #dbg_value(ptr poison, !1556, !DIExpression(), !1761)
; invoke <shlex::bytes::Shlex as core::iter::traits::iterator::Iterator>::next
  invoke void @"_ZN78_$LT$shlex..bytes..Shlex$u20$as$u20$core..iter..traits..iterator..Iterator$GT$4next17hf7fa350fff80e22aE"(ptr noalias noundef nonnull sret([24 x i8]) align 8 captures(address) dereferenceable(24) %_3.i.i.i.i.i.i, ptr noalias noundef nonnull align 8 dereferenceable(32) %shl)
          to label %.noexc9.i.i.i.i unwind label %cleanup5.i.i.i.i, !dbg !1763, !noalias !1579

.noexc9.i.i.i.i:                                  ; preds = %bb1.i.i.i.i.i.i
  %9 = load i64, ptr %_3.i.i.i.i.i.i, align 8, !dbg !1757, !range !652, !noalias !1758, !noundef !19
  %.not.i.i.i.i.i.i = icmp eq i64 %9, -9223372036854775808, !dbg !1757
  br i1 %.not.i.i.i.i.i.i, label %_ZN4core4iter6traits8iterator8Iterator7collect17hdcb684ff91fcbd5bE.exit, label %bb3.i.i.i.i.i.i, !dbg !1764

bb3.i.i.i.i.i.i:                                  ; preds = %.noexc9.i.i.i.i
    #dbg_value(i64 %9, !1714, !DIExpression(DW_OP_LLVM_fragment, 0, 64), !1765)
  %element.sroa.5.0.copyload.i.i.i.i.i.i = load ptr, ptr %element.sroa.5.0._3.sroa_idx.i.i.i.i.i.i, align 8, !dbg !1766, !noalias !1758
    #dbg_value(ptr %element.sroa.5.0.copyload.i.i.i.i.i.i, !1714, !DIExpression(DW_OP_LLVM_fragment, 64, 64), !1765)
  %element.sroa.6.0.copyload.i.i.i.i.i.i = load i64, ptr %element.sroa.6.0._3.sroa_idx.i.i.i.i.i.i, align 8, !dbg !1766, !noalias !1758
    #dbg_value(i64 %element.sroa.6.0.copyload.i.i.i.i.i.i, !1714, !DIExpression(DW_OP_LLVM_fragment, 128, 64), !1765)
    #dbg_value(i64 %res.sroa.8.0.copyload4, !1716, !DIExpression(), !1767)
    #dbg_value(i64 %res.sroa.8.0.copyload4, !1768, !DIExpression(), !1774)
  %_19.i.i.i.i.i.i = icmp samesign ult i64 %res.sroa.8.0.copyload4, 384307168202282326, !dbg !1776
  tail call void @llvm.assume(i1 %_19.i.i.i.i.i.i), !dbg !1777
    #dbg_value(ptr %vector.i.i.i.i, !1778, !DIExpression(), !1785)
    #dbg_value(ptr %vector.i.i.i.i, !1787, !DIExpression(), !1794)
    #dbg_value(i64 24, !1793, !DIExpression(), !1794)
    #dbg_value(i64 24, !1793, !DIExpression(), !1796)
  %self3.i.i.i.i.i.i = load i64, ptr %vector.i.i.i.i, align 8, !dbg !1801, !range !327, !alias.scope !1802, !noalias !1803, !noundef !19
  %_8.i.i.i.i.i.i = icmp eq i64 %res.sroa.8.0.copyload4, %self3.i.i.i.i.i.i, !dbg !1804
  br i1 %_8.i.i.i.i.i.i, label %bb1.i.i.i.i.i.i.i, label %bb8.i.i.i.i.i.i, !dbg !1804

bb8.i.i.i.i.i.i:                                  ; preds = %bb1.i.i.i.bb8.i.i_crit_edge.i.i.i.i, %bb3.i.i.i.i.i.i
  %_24.i.i.i.i.i.i = phi ptr [ %_24.i.i.pre.i.i.i.i, %bb1.i.i.i.bb8.i.i_crit_edge.i.i.i.i ], [ %_24.i.i7.i.i.i.i, %bb3.i.i.i.i.i.i ], !dbg !1805
    #dbg_value(ptr %_24.i.i.i.i.i.i, !1773, !DIExpression(), !1774)
  %dst.i.i.i.i.i.i = getelementptr inbounds nuw %"alloc::vec::Vec<u8>", ptr %_24.i.i.i.i.i.i, i64 %res.sroa.8.0.copyload4, !dbg !1826
    #dbg_value(ptr %dst.i.i.i.i.i.i, !1827, !DIExpression(), !1831)
    #dbg_value(i64 %9, !1830, !DIExpression(DW_OP_LLVM_fragment, 0, 64), !1831)
    #dbg_value(ptr %element.sroa.5.0.copyload.i.i.i.i.i.i, !1830, !DIExpression(DW_OP_LLVM_fragment, 64, 64), !1831)
    #dbg_value(i64 %element.sroa.6.0.copyload.i.i.i.i.i.i, !1830, !DIExpression(DW_OP_LLVM_fragment, 128, 64), !1831)
  store i64 %9, ptr %dst.i.i.i.i.i.i, align 8, !dbg !1833, !noalias !1758
  %src.sroa.4.0.dst.sroa_idx.i.i.i.i.i.i = getelementptr inbounds nuw i8, ptr %dst.i.i.i.i.i.i, i64 8, !dbg !1833
  store ptr %element.sroa.5.0.copyload.i.i.i.i.i.i, ptr %src.sroa.4.0.dst.sroa_idx.i.i.i.i.i.i, align 8, !dbg !1833, !noalias !1758
  %src.sroa.5.0.dst.sroa_idx.i.i.i.i.i.i = getelementptr inbounds nuw i8, ptr %dst.i.i.i.i.i.i, i64 16, !dbg !1833
  store i64 %element.sroa.6.0.copyload.i.i.i.i.i.i, ptr %src.sroa.5.0.dst.sroa_idx.i.i.i.i.i.i, align 8, !dbg !1833, !noalias !1758
  %new_len.i.i.i.i.i.i = add nuw nsw i64 %res.sroa.8.0.copyload4, 1, !dbg !1834
    #dbg_value(i64 %new_len.i.i.i.i.i.i, !1751, !DIExpression(), !1752)
  store i64 %new_len.i.i.i.i.i.i, ptr %vector1.sroa.6.0.vector.sroa_idx.i.i.i.i, align 8, !dbg !1835, !alias.scope !1802, !noalias !1803
  call void @llvm.lifetime.end.p0(i64 24, ptr nonnull %_3.i.i.i.i.i.i), !dbg !1836, !noalias !1758
  br label %bb1.i.i.i.i.i.i, !dbg !1756

cleanup5.i.i.i.i.i.i:                             ; preds = %bb1.i.i.i.i.i.i.i
  %10 = landingpad { ptr, i32 }
          cleanup
    #dbg_value(ptr poison, !218, !DIExpression(), !1837)
    #dbg_value(ptr poison, !228, !DIExpression(), !1839)
    #dbg_value(ptr poison, !238, !DIExpression(), !1841)
    #dbg_value(ptr poison, !248, !DIExpression(), !1843)
    #dbg_value(i64 1, !264, !DIExpression(DW_OP_LLVM_fragment, 0, 64), !1843)
    #dbg_value(i64 1, !264, !DIExpression(DW_OP_LLVM_fragment, 64, 64), !1843)
    #dbg_value(i64 1, !270, !DIExpression(DW_OP_LLVM_fragment, 0, 64), !1845)
    #dbg_value(i64 1, !270, !DIExpression(DW_OP_LLVM_fragment, 64, 64), !1845)
    #dbg_value(ptr poison, !295, !DIExpression(), !1845)
  %11 = icmp eq i64 %9, 0, !dbg !1847
  br i1 %11, label %cleanup5.body.i.i.i.i, label %bb2.i.i.i4.i.i.i.i.i.i.i, !dbg !1847

bb2.i.i.i4.i.i.i.i.i.i.i:                         ; preds = %cleanup5.i.i.i.i.i.i
  %12 = icmp ne ptr %element.sroa.5.0.copyload.i.i.i.i.i.i, null
  tail call void @llvm.assume(i1 %12)
    #dbg_value(ptr %element.sroa.5.0.copyload.i.i.i.i.i.i, !265, !DIExpression(), !1848)
    #dbg_value(i64 1, !267, !DIExpression(DW_OP_LLVM_fragment, 0, 64), !1848)
    #dbg_value(i64 %9, !267, !DIExpression(DW_OP_LLVM_fragment, 64, 64), !1848)
    #dbg_value(i64 1, !304, !DIExpression(DW_OP_LLVM_fragment, 0, 64), !1849)
    #dbg_value(i64 %9, !304, !DIExpression(DW_OP_LLVM_fragment, 64, 64), !1849)
    #dbg_value(ptr poison, !312, !DIExpression(), !1849)
    #dbg_value(ptr %element.sroa.5.0.copyload.i.i.i.i.i.i, !313, !DIExpression(), !1849)
    #dbg_value(ptr %element.sroa.5.0.copyload.i.i.i.i.i.i, !316, !DIExpression(), !1851)
    #dbg_value(i64 1, !322, !DIExpression(DW_OP_LLVM_fragment, 0, 64), !1851)
    #dbg_value(i64 %9, !322, !DIExpression(DW_OP_LLVM_fragment, 64, 64), !1851)
; call __rustc::__rust_dealloc
  tail call void @_RNvCsj3IbkTTFM3W_7___rustc14___rust_dealloc(ptr noundef nonnull %element.sroa.5.0.copyload.i.i.i.i.i.i, i64 noundef %9, i64 noundef range(i64 1, -9223372036854775807) 1) #17, !dbg !1853, !noalias !1758
  br label %cleanup5.body.i.i.i.i, !dbg !1854

bb1.i.i.i.i.i.i.i:                                ; preds = %bb3.i.i.i.i.i.i
    #dbg_value(i64 0, !1718, !DIExpression(), !1855)
    #dbg_value(ptr %vector.i.i.i.i, !1856, !DIExpression(), !1863)
    #dbg_value(i64 1, !1862, !DIExpression(), !1863)
    #dbg_value(i64 1, !1865, !DIExpression(), !1873)
    #dbg_value(i64 1, !1875, !DIExpression(), !1884)
    #dbg_value(ptr %vector.i.i.i.i, !1871, !DIExpression(), !1873)
    #dbg_value(i64 %res.sroa.8.0.copyload4, !1872, !DIExpression(), !1873)
    #dbg_value(i64 %res.sroa.8.0.copyload4, !1882, !DIExpression(), !1884)
    #dbg_value(ptr %vector.i.i.i.i, !1881, !DIExpression(), !1884)
    #dbg_value(i64 8, !1883, !DIExpression(DW_OP_LLVM_fragment, 0, 64), !1884)
    #dbg_value(i64 24, !1883, !DIExpression(DW_OP_LLVM_fragment, 64, 64), !1884)
; invoke alloc::raw_vec::RawVecInner<A>::reserve::do_reserve_and_handle
  invoke fastcc void @"_ZN5alloc7raw_vec20RawVecInner$LT$A$GT$7reserve21do_reserve_and_handle17h0218d577ac94f8e8E"(ptr noalias noundef nonnull align 8 dereferenceable(24) %vector.i.i.i.i, i64 noundef %res.sroa.8.0.copyload4, i64 noundef range(i64 1, 0) 1, i64 noundef 8, i64 noundef 24)
          to label %bb1.i.i.i.bb8.i.i_crit_edge.i.i.i.i unwind label %cleanup5.i.i.i.i.i.i, !dbg !1886, !noalias !1803

bb1.i.i.i.bb8.i.i_crit_edge.i.i.i.i:              ; preds = %bb1.i.i.i.i.i.i.i
  %_24.i.i.pre.i.i.i.i = load ptr, ptr %vector1.sroa.4.0.vector.sroa_idx.i.i.i.i, align 8, !dbg !1805, !alias.scope !1802, !noalias !1803
  br label %bb8.i.i.i.i.i.i, !dbg !1886

cleanup5.i.i.i.i:                                 ; preds = %bb1.i.i.i.i.i.i
  %13 = landingpad { ptr, i32 }
          cleanup
  br label %cleanup5.body.i.i.i.i, !dbg !1887

cleanup5.body.i.i.i.i:                            ; preds = %cleanup5.i.i.i.i, %bb2.i.i.i4.i.i.i.i.i.i.i, %cleanup5.i.i.i.i.i.i
  %eh.lpad-body.i.i.i.i = phi { ptr, i32 } [ %13, %cleanup5.i.i.i.i ], [ %10, %bb2.i.i.i4.i.i.i.i.i.i.i ], [ %10, %cleanup5.i.i.i.i.i.i ]
; call core::ptr::drop_in_place<alloc::vec::Vec<alloc::vec::Vec<u8>>>
  call fastcc void @"_ZN4core3ptr69drop_in_place$LT$alloc..vec..Vec$LT$alloc..vec..Vec$LT$u8$GT$$GT$$GT$17h91a8ae23c938c9c1E"(ptr noalias noundef align 8 dereferenceable(24) %vector.i.i.i.i) #19, !dbg !1887, !noalias !1542
  br label %bb8.i.i.i.i, !dbg !1887

bb8.i.i.i.i:                                      ; preds = %cleanup5.body.i.i.i.i, %bb2.i.i.i4.i.i.i.i.i, %cleanup3.i.i.i.i
  %.pn.i.i.i.i = phi { ptr, i32 } [ %eh.lpad-body.i.i.i.i, %cleanup5.body.i.i.i.i ], [ %4, %cleanup3.i.i.i.i ], [ %4, %bb2.i.i.i4.i.i.i.i.i ]
  resume { ptr, i32 } %.pn.i.i.i.i, !dbg !1888

_ZN4core4iter6traits8iterator8Iterator7collect17hdcb684ff91fcbd5bE.exit: ; preds = %.noexc9.i.i.i.i
  call void @llvm.lifetime.end.p0(i64 24, ptr nonnull %_3.i.i.i.i.i.i), !dbg !1836, !noalias !1758
  %res.sroa.0.0.copyload2 = load i64, ptr %vector.i.i.i.i, align 8, !dbg !1889, !noalias !1890
    #dbg_value(i64 %res.sroa.0.0.copyload2, !1368, !DIExpression(DW_OP_LLVM_fragment, 0, 64), !1891)
  %res.sroa.6.0.copyload3 = load ptr, ptr %vector1.sroa.4.0.vector.sroa_idx.i.i.i.i, align 8, !dbg !1889, !noalias !1890
    #dbg_value(ptr %res.sroa.6.0.copyload3, !1368, !DIExpression(DW_OP_LLVM_fragment, 64, 64), !1891)
    #dbg_value(i64 %res.sroa.8.0.copyload4, !1368, !DIExpression(DW_OP_LLVM_fragment, 128, 64), !1891)
  call void @llvm.lifetime.end.p0(i64 24, ptr nonnull %vector.i.i.i.i), !dbg !1887, !noalias !1542
  %14 = load i8, ptr %2, align 8, !dbg !1892, !range !1893, !noundef !19
  %_5 = trunc nuw i8 %14 to i1, !dbg !1892
  br i1 %_5, label %bb5.i.i.i.preheader, label %bb3, !dbg !1892

_ZN4core4iter6traits8iterator8Iterator7collect17hdcb684ff91fcbd5bE.exit.thread: ; preds = %start
    #dbg_value(i64 0, !1368, !DIExpression(DW_OP_LLVM_fragment, 0, 64), !1891)
    #dbg_value(ptr inttoptr (i64 8 to ptr), !1368, !DIExpression(DW_OP_LLVM_fragment, 64, 64), !1891)
    #dbg_value(i64 0, !1368, !DIExpression(DW_OP_LLVM_fragment, 128, 64), !1891)
  call void @llvm.lifetime.end.p0(i64 24, ptr nonnull %_3.i.i.i.i), !dbg !1687, !noalias !1542
    #dbg_value(i64 0, !1368, !DIExpression(DW_OP_LLVM_fragment, 0, 64), !1891)
    #dbg_value(ptr inttoptr (i64 8 to ptr), !1368, !DIExpression(DW_OP_LLVM_fragment, 64, 64), !1891)
    #dbg_value(i64 0, !1368, !DIExpression(DW_OP_LLVM_fragment, 128, 64), !1891)
  call void @llvm.lifetime.end.p0(i64 24, ptr nonnull %vector.i.i.i.i), !dbg !1887, !noalias !1542
  %15 = load i8, ptr %2, align 8, !dbg !1892, !range !1893, !noundef !19
  %_58 = trunc nuw i8 %15 to i1, !dbg !1892
  br i1 %_58, label %bb4.i.thread, label %bb3, !dbg !1892

bb4.i.thread:                                     ; preds = %_ZN4core4iter6traits8iterator8Iterator7collect17hdcb684ff91fcbd5bE.exit.thread
  store i64 -9223372036854775808, ptr %_0, align 8, !dbg !1894
    #dbg_value(ptr undef, !409, !DIExpression(), !1370)
    #dbg_value(ptr poison, !414, !DIExpression(), !1895)
    #dbg_value(ptr inttoptr (i64 8 to ptr), !426, !DIExpression(DW_OP_LLVM_fragment, 0, 64), !1897)
    #dbg_value(i64 0, !426, !DIExpression(DW_OP_LLVM_fragment, 64, 64), !1897)
    #dbg_value(ptr poison, !457, !DIExpression(), !1899)
    #dbg_value(ptr poison, !467, !DIExpression(), !1901)
    #dbg_value(ptr poison, !248, !DIExpression(), !1903)
    #dbg_value(i64 8, !264, !DIExpression(DW_OP_LLVM_fragment, 0, 64), !1903)
    #dbg_value(i64 24, !264, !DIExpression(DW_OP_LLVM_fragment, 64, 64), !1903)
    #dbg_value(i64 8, !270, !DIExpression(DW_OP_LLVM_fragment, 0, 64), !1905)
    #dbg_value(i64 24, !270, !DIExpression(DW_OP_LLVM_fragment, 64, 64), !1905)
    #dbg_value(ptr poison, !295, !DIExpression(), !1905)
    #dbg_value(i64 24, !350, !DIExpression(), !1907)
  br label %bb4, !dbg !1909

bb3:                                              ; preds = %_ZN4core4iter6traits8iterator8Iterator7collect17hdcb684ff91fcbd5bE.exit.thread, %_ZN4core4iter6traits8iterator8Iterator7collect17hdcb684ff91fcbd5bE.exit
  %res.sroa.0.014 = phi i64 [ 0, %_ZN4core4iter6traits8iterator8Iterator7collect17hdcb684ff91fcbd5bE.exit.thread ], [ %res.sroa.0.0.copyload2, %_ZN4core4iter6traits8iterator8Iterator7collect17hdcb684ff91fcbd5bE.exit ]
  %res.sroa.6.012 = phi ptr [ inttoptr (i64 8 to ptr), %_ZN4core4iter6traits8iterator8Iterator7collect17hdcb684ff91fcbd5bE.exit.thread ], [ %res.sroa.6.0.copyload3, %_ZN4core4iter6traits8iterator8Iterator7collect17hdcb684ff91fcbd5bE.exit ]
  %res.sroa.8.010 = phi i64 [ 0, %_ZN4core4iter6traits8iterator8Iterator7collect17hdcb684ff91fcbd5bE.exit.thread ], [ %res.sroa.8.0.copyload4, %_ZN4core4iter6traits8iterator8Iterator7collect17hdcb684ff91fcbd5bE.exit ]
  store i64 %res.sroa.0.014, ptr %_0, align 8, !dbg !1910
  %_6.sroa.4.0._0.sroa_idx = getelementptr inbounds nuw i8, ptr %_0, i64 8, !dbg !1910
  store ptr %res.sroa.6.012, ptr %_6.sroa.4.0._0.sroa_idx, align 8, !dbg !1910
  %_6.sroa.5.0._0.sroa_idx = getelementptr inbounds nuw i8, ptr %_0, i64 16, !dbg !1910
  store i64 %res.sroa.8.010, ptr %_6.sroa.5.0._0.sroa_idx, align 8, !dbg !1910
  br label %bb4, !dbg !1911

bb5.i.i.i.preheader:                              ; preds = %_ZN4core4iter6traits8iterator8Iterator7collect17hdcb684ff91fcbd5bE.exit
  store i64 -9223372036854775808, ptr %_0, align 8, !dbg !1894
    #dbg_value(ptr undef, !409, !DIExpression(), !1370)
    #dbg_value(ptr poison, !414, !DIExpression(), !1895)
  tail call void @llvm.experimental.noalias.scope.decl(metadata !1912), !dbg !1915
    #dbg_value(ptr %res.sroa.6.0.copyload3, !426, !DIExpression(DW_OP_LLVM_fragment, 0, 64), !1897)
    #dbg_value(i64 %res.sroa.8.0.copyload4, !426, !DIExpression(DW_OP_LLVM_fragment, 64, 64), !1897)
  br label %bb5.i.i.i, !dbg !1916

bb5.i.i.i:                                        ; preds = %bb5.i.i.i.preheader, %"_ZN4core3ptr46drop_in_place$LT$alloc..vec..Vec$LT$u8$GT$$GT$17h178eba42b44059d9E.exit.i.i.i"
  %_3.sroa.0.011.i.i.i = phi i64 [ %16, %"_ZN4core3ptr46drop_in_place$LT$alloc..vec..Vec$LT$u8$GT$$GT$17h178eba42b44059d9E.exit.i.i.i" ], [ 0, %bb5.i.i.i.preheader ]
  %_6.i.i.i = getelementptr inbounds nuw %"alloc::vec::Vec<u8>", ptr %res.sroa.6.0.copyload3, i64 %_3.sroa.0.011.i.i.i, !dbg !1922
  %16 = add nuw i64 %_3.sroa.0.011.i.i.i, 1, !dbg !1922
  %_6.val.i.i.i = load i64, ptr %_6.i.i.i, align 8, !dbg !1922, !alias.scope !1912, !noalias !1923
    #dbg_value(ptr poison, !218, !DIExpression(), !1926)
    #dbg_value(ptr poison, !228, !DIExpression(), !1927)
    #dbg_value(ptr poison, !238, !DIExpression(), !1928)
    #dbg_value(ptr poison, !248, !DIExpression(), !1929)
    #dbg_value(i64 1, !264, !DIExpression(DW_OP_LLVM_fragment, 0, 64), !1929)
    #dbg_value(i64 1, !264, !DIExpression(DW_OP_LLVM_fragment, 64, 64), !1929)
    #dbg_value(i64 1, !270, !DIExpression(DW_OP_LLVM_fragment, 0, 64), !1930)
    #dbg_value(i64 1, !270, !DIExpression(DW_OP_LLVM_fragment, 64, 64), !1930)
    #dbg_value(ptr poison, !295, !DIExpression(), !1930)
  %17 = icmp eq i64 %_6.val.i.i.i, 0, !dbg !1916
  br i1 %17, label %"_ZN4core3ptr46drop_in_place$LT$alloc..vec..Vec$LT$u8$GT$$GT$17h178eba42b44059d9E.exit.i.i.i", label %bb2.i.i.i4.i.i.i.i, !dbg !1916

bb2.i.i.i4.i.i.i.i:                               ; preds = %bb5.i.i.i
  %18 = getelementptr i8, ptr %_6.i.i.i, i64 8, !dbg !1922
  %_6.val7.i.i.i = load ptr, ptr %18, align 8, !dbg !1922, !alias.scope !1912, !noalias !1923, !nonnull !19, !noundef !19
    #dbg_value(ptr %_6.val7.i.i.i, !265, !DIExpression(), !1931)
    #dbg_value(i64 1, !267, !DIExpression(DW_OP_LLVM_fragment, 0, 64), !1931)
    #dbg_value(i64 %_6.val.i.i.i, !267, !DIExpression(DW_OP_LLVM_fragment, 64, 64), !1931)
    #dbg_value(i64 1, !304, !DIExpression(DW_OP_LLVM_fragment, 0, 64), !1932)
    #dbg_value(i64 %_6.val.i.i.i, !304, !DIExpression(DW_OP_LLVM_fragment, 64, 64), !1932)
    #dbg_value(ptr poison, !312, !DIExpression(), !1932)
    #dbg_value(ptr %_6.val7.i.i.i, !313, !DIExpression(), !1932)
    #dbg_value(ptr %_6.val7.i.i.i, !316, !DIExpression(), !1934)
    #dbg_value(i64 1, !322, !DIExpression(DW_OP_LLVM_fragment, 0, 64), !1934)
    #dbg_value(i64 %_6.val.i.i.i, !322, !DIExpression(DW_OP_LLVM_fragment, 64, 64), !1934)
; call __rustc::__rust_dealloc
  tail call void @_RNvCsj3IbkTTFM3W_7___rustc14___rust_dealloc(ptr noundef nonnull %_6.val7.i.i.i, i64 noundef %_6.val.i.i.i, i64 noundef range(i64 1, -9223372036854775807) 1) #17, !dbg !1936, !noalias !1937
  br label %"_ZN4core3ptr46drop_in_place$LT$alloc..vec..Vec$LT$u8$GT$$GT$17h178eba42b44059d9E.exit.i.i.i", !dbg !1938

"_ZN4core3ptr46drop_in_place$LT$alloc..vec..Vec$LT$u8$GT$$GT$17h178eba42b44059d9E.exit.i.i.i": ; preds = %bb2.i.i.i4.i.i.i.i, %bb5.i.i.i
  %_7.i.i.i = icmp eq i64 %16, %res.sroa.8.0.copyload4, !dbg !1922
  br i1 %_7.i.i.i, label %bb4.i, label %bb5.i.i.i, !dbg !1922

bb4.i:                                            ; preds = %"_ZN4core3ptr46drop_in_place$LT$alloc..vec..Vec$LT$u8$GT$$GT$17h178eba42b44059d9E.exit.i.i.i"
    #dbg_value(ptr poison, !457, !DIExpression(), !1899)
    #dbg_value(ptr poison, !467, !DIExpression(), !1901)
    #dbg_value(ptr poison, !248, !DIExpression(), !1903)
    #dbg_value(i64 8, !264, !DIExpression(DW_OP_LLVM_fragment, 0, 64), !1903)
    #dbg_value(i64 24, !264, !DIExpression(DW_OP_LLVM_fragment, 64, 64), !1903)
    #dbg_value(i64 8, !270, !DIExpression(DW_OP_LLVM_fragment, 0, 64), !1905)
    #dbg_value(i64 24, !270, !DIExpression(DW_OP_LLVM_fragment, 64, 64), !1905)
    #dbg_value(ptr poison, !295, !DIExpression(), !1905)
    #dbg_value(i64 24, !350, !DIExpression(), !1907)
  %19 = icmp eq i64 %res.sroa.0.0.copyload2, 0, !dbg !1909
  br i1 %19, label %bb4, label %bb2.i.i.i6.i, !dbg !1909

bb2.i.i.i6.i:                                     ; preds = %bb4.i
    #dbg_value(i64 %res.sroa.0.0.copyload2, !382, !DIExpression(), !1907)
  %20 = mul nuw i64 %res.sroa.0.0.copyload2, 24, !dbg !1939
    #dbg_value(ptr %res.sroa.6.0.copyload3, !265, !DIExpression(), !1940)
    #dbg_value(i64 8, !267, !DIExpression(DW_OP_LLVM_fragment, 0, 64), !1940)
    #dbg_value(i64 %20, !267, !DIExpression(DW_OP_LLVM_fragment, 64, 64), !1940)
    #dbg_value(i64 8, !304, !DIExpression(DW_OP_LLVM_fragment, 0, 64), !1941)
    #dbg_value(i64 %20, !304, !DIExpression(DW_OP_LLVM_fragment, 64, 64), !1941)
    #dbg_value(ptr poison, !312, !DIExpression(), !1941)
    #dbg_value(ptr %res.sroa.6.0.copyload3, !313, !DIExpression(), !1941)
    #dbg_value(ptr %res.sroa.6.0.copyload3, !316, !DIExpression(), !1943)
    #dbg_value(i64 8, !322, !DIExpression(DW_OP_LLVM_fragment, 0, 64), !1943)
    #dbg_value(i64 %20, !322, !DIExpression(DW_OP_LLVM_fragment, 64, 64), !1943)
; call __rustc::__rust_dealloc
  tail call void @_RNvCsj3IbkTTFM3W_7___rustc14___rust_dealloc(ptr noundef nonnull %res.sroa.6.0.copyload3, i64 noundef %20, i64 noundef range(i64 1, -9223372036854775807) 8) #17, !dbg !1945, !noalias !1923
  br label %bb4, !dbg !1946

bb4:                                              ; preds = %bb2.i.i.i6.i, %bb4.i, %bb4.i.thread, %bb3
  call void @llvm.lifetime.end.p0(i64 32, ptr nonnull %shl), !dbg !1947
  ret void, !dbg !1948
}

; shlex::bytes::Quoter::quote
; Function Attrs: nonlazybind uwtable
define void @_ZN5shlex5bytes6Quoter5quote17h3b9f44e850740b23E(ptr dead_on_unwind noalias noundef writable writeonly sret([24 x i8]) align 8 captures(none) dereferenceable(24) %_0, ptr noalias noundef readonly align 1 captures(none) dereferenceable(1) %self, ptr noalias noundef nonnull readonly align 1 captures(address, read_provenance) %0, i64 noundef %1) unnamed_addr #2 personality ptr @rust_eh_personality !dbg !1949 {
start:
  %_47 = alloca [48 x i8], align 8
  %out = alloca [24 x i8], align 8
    #dbg_value(ptr poison, !1965, !DIExpression(), !1990)
    #dbg_value(ptr poison, !2000, !DIExpression(), !2006)
    #dbg_value(ptr %0, !1956, !DIExpression(DW_OP_LLVM_fragment, 0, 64), !2007)
    #dbg_value(i64 %1, !1956, !DIExpression(DW_OP_LLVM_fragment, 64, 64), !2007)
    #dbg_value(ptr %self, !1955, !DIExpression(), !2007)
    #dbg_declare(ptr %out, !1957, !DIExpression(), !2008)
    #dbg_declare(ptr poison, !2009, !DIExpression(), !2018)
    #dbg_declare(ptr poison, !2020, !DIExpression(), !2028)
    #dbg_value(ptr @alloc_716ff0773fff869d3b6edfdef8f974a4, !2031, !DIExpression(), !2094)
  %2 = icmp eq i64 %1, 0, !dbg !2109
  br i1 %2, label %bb1, label %bb2, !dbg !2109

bb1:                                              ; preds = %start
  store i64 -9223372036854775808, ptr %_0, align 8, !dbg !2110
  %_4.sroa.4.0._0.sroa_idx = getelementptr inbounds nuw i8, ptr %_0, i64 8, !dbg !2110
  store ptr @alloc_e797d586220fda5a2300a964bc8fc9e6, ptr %_4.sroa.4.0._0.sroa_idx, align 8, !dbg !2110
  %_4.sroa.5.0._0.sroa_idx = getelementptr inbounds nuw i8, ptr %_0, i64 16, !dbg !2110
  store i64 2, ptr %_4.sroa.5.0._0.sroa_idx, align 8, !dbg !2110
  br label %bb23, !dbg !2111

bb2:                                              ; preds = %start
  %3 = load i8, ptr %self, align 1, !dbg !2113, !range !1893, !noundef !19
  %_5 = trunc nuw i8 %3 to i1, !dbg !2113
  br i1 %_5, label %bb7, label %bb3, !dbg !2113

bb23:                                             ; preds = %"_ZN4core3ptr46drop_in_place$LT$alloc..vec..Vec$LT$u8$GT$$GT$17h178eba42b44059d9E.exit34", %bb9, %bb5, %bb1
  ret void, !dbg !2114

bb3:                                              ; preds = %bb2
    #dbg_value(ptr %0, !2115, !DIExpression(DW_OP_LLVM_fragment, 0, 64), !2118)
    #dbg_value(ptr %0, !2120, !DIExpression(DW_OP_LLVM_fragment, 0, 64), !2129)
    #dbg_value(i64 %1, !2115, !DIExpression(DW_OP_LLVM_fragment, 64, 64), !2118)
    #dbg_value(i64 %1, !2120, !DIExpression(DW_OP_LLVM_fragment, 64, 64), !2129)
    #dbg_value(i64 %1, !2123, !DIExpression(), !2131)
    #dbg_value(i64 %1, !2132, !DIExpression(), !2136)
    #dbg_value(ptr %0, !2125, !DIExpression(), !2138)
    #dbg_value(ptr %0, !2135, !DIExpression(), !2136)
  %_38 = getelementptr inbounds nuw i8, ptr %0, i64 %1, !dbg !2139
    #dbg_value(ptr undef, !2000, !DIExpression(), !2006)
    #dbg_declare(ptr poison, !2001, !DIExpression(), !2140)
  br label %bb1.i, !dbg !2141

bb1.i:                                            ; preds = %bb3.i, %bb3
  %_18.i6.i = phi ptr [ %_18.i.i, %bb3.i ], [ %0, %bb3 ]
    #dbg_value(ptr undef, !1965, !DIExpression(), !1990)
    #dbg_value(i64 1, !2142, !DIExpression(), !2149)
    #dbg_value(ptr %_18.i6.i, !1984, !DIExpression(), !2151)
    #dbg_value(ptr %_18.i6.i, !2148, !DIExpression(), !2149)
    #dbg_value(ptr %_38, !1986, !DIExpression(), !2152)
    #dbg_value(ptr undef, !2153, !DIExpression(), !2161)
    #dbg_value(ptr undef, !2160, !DIExpression(), !2161)
  %_6.i.not.not.not.i.not = icmp eq ptr %_18.i6.i, %_38, !dbg !2163
  br i1 %_6.i.not.not.not.i.not, label %bb7, label %bb3.i, !dbg !2164

bb3.i:                                            ; preds = %bb1.i
  %_18.i.i = getelementptr inbounds nuw i8, ptr %_18.i6.i, i64 1, !dbg !2165
    #dbg_value(ptr %_18.i6.i, !2002, !DIExpression(), !2166)
  %.val.i = load i8, ptr %_18.i6.i, align 1, !dbg !2167, !noalias !2168, !noundef !19
    #dbg_value(ptr poison, !2171, !DIExpression(), !2180)
    #dbg_value(ptr poison, !2179, !DIExpression(), !2180)
    #dbg_value(i8 %.val.i, !2177, !DIExpression(), !2182)
  %_0.i.i = icmp eq i8 %.val.i, 0, !dbg !2183
  br i1 %_0.i.i, label %bb5, label %bb1.i, !dbg !2167

bb7:                                              ; preds = %bb1.i, %bb2
  call void @llvm.lifetime.start.p0(i64 24, ptr nonnull %out), !dbg !2184
  store i64 0, ptr %out, align 8, !dbg !2185
  %4 = getelementptr inbounds nuw i8, ptr %out, i64 8, !dbg !2185
  store ptr inttoptr (i64 1 to ptr), ptr %4, align 8, !dbg !2185
  %5 = getelementptr inbounds nuw i8, ptr %out, i64 16, !dbg !2185
  store i64 0, ptr %5, align 8, !dbg !2185
    #dbg_value(ptr %0, !1956, !DIExpression(DW_OP_LLVM_fragment, 0, 64), !2007)
    #dbg_value(i64 %1, !1956, !DIExpression(DW_OP_LLVM_fragment, 64, 64), !2007)
  br label %bb10, !dbg !2191

bb5:                                              ; preds = %bb3.i
  store i64 -9223372036854775807, ptr %_0, align 8, !dbg !2192
  br label %bb23, !dbg !2111

bb9:                                              ; preds = %_ZN5shlex5bytes19append_quoted_chunk17h3bac3e6bb5739f4eE.exit
  call void @llvm.memcpy.p0.p0.i64(ptr noundef nonnull align 8 dereferenceable(24) %_0, ptr noundef nonnull align 8 dereferenceable(24) %out, i64 24, i1 false), !dbg !2193
  call void @llvm.lifetime.end.p0(i64 24, ptr nonnull %out), !dbg !2194
  br label %bb23, !dbg !2114

bb10:                                             ; preds = %bb7, %_ZN5shlex5bytes19append_quoted_chunk17h3bac3e6bb5739f4eE.exit
  %len.i.i.i.i = phi i64 [ 0, %bb7 ], [ %.sink, %_ZN5shlex5bytes19append_quoted_chunk17h3bac3e6bb5739f4eE.exit ]
  %in_bytes.sroa.0.072 = phi ptr [ %0, %bb7 ], [ %31, %_ZN5shlex5bytes19append_quoted_chunk17h3bac3e6bb5739f4eE.exit ]
  %in_bytes.sroa.10.071 = phi i64 [ %1, %bb7 ], [ %32, %_ZN5shlex5bytes19append_quoted_chunk17h3bac3e6bb5739f4eE.exit ]
    #dbg_value(ptr %in_bytes.sroa.0.072, !1956, !DIExpression(DW_OP_LLVM_fragment, 0, 64), !2007)
    #dbg_value(i64 %in_bytes.sroa.10.071, !1956, !DIExpression(DW_OP_LLVM_fragment, 64, 64), !2007)
    #dbg_value(ptr %in_bytes.sroa.0.072, !2195, !DIExpression(DW_OP_LLVM_fragment, 0, 64), !2214)
    #dbg_value(i64 %in_bytes.sroa.10.071, !2195, !DIExpression(DW_OP_LLVM_fragment, 64, 64), !2214)
    #dbg_value(i8 7, !2204, !DIExpression(), !2216)
    #dbg_value(i64 0, !2206, !DIExpression(), !2217)
  %_4.i = load i8, ptr %in_bytes.sroa.0.072, align 1, !dbg !2218, !alias.scope !2219, !noundef !19
  %6 = icmp eq i8 %_4.i, 94, !dbg !2218
  %i.sroa.0.0.i = zext i1 %6 to i64, !dbg !2218
  %prev_ok.sroa.0.0.i = select i1 %6, i8 2, i8 7, !dbg !2218
    #dbg_value(i8 %prev_ok.sroa.0.0.i, !2204, !DIExpression(), !2216)
    #dbg_value(i64 %i.sroa.0.0.i, !2206, !DIExpression(), !2217)
  %_713.i = icmp ugt i64 %in_bytes.sroa.10.071, %i.sroa.0.0.i, !dbg !2222
  br i1 %_713.i, label %bb7.i, label %bb21.i, !dbg !2222

bb21.i:                                           ; preds = %bb19.i, %bb17.i, %bb10
  %i.sroa.0.1.lcssa.i = phi i64 [ 1, %bb10 ], [ %in_bytes.sroa.10.071, %bb19.i ], [ %i.sroa.0.114.i, %bb17.i ], !dbg !2217
  %prev_ok.sroa.0.1.lcssa.i = phi i8 [ %prev_ok.sroa.0.0.i, %bb10 ], [ %cur_ok.sroa.0.2.i, %bb19.i ], [ %prev_ok.sroa.0.115.i, %bb17.i ], !dbg !2217
  %_17.i = and i8 %prev_ok.sroa.0.1.lcssa.i, 1, !dbg !2223
  %7 = icmp eq i8 %_17.i, 0, !dbg !2223
  br i1 %7, label %bb23.i, label %bb11, !dbg !2223

bb7.i:                                            ; preds = %bb10, %bb19.i
  %prev_ok.sroa.0.115.i = phi i8 [ %cur_ok.sroa.0.2.i, %bb19.i ], [ %prev_ok.sroa.0.0.i, %bb10 ]
  %i.sroa.0.114.i = phi i64 [ %18, %bb19.i ], [ %i.sroa.0.0.i, %bb10 ]
    #dbg_value(i8 %prev_ok.sroa.0.115.i, !2204, !DIExpression(), !2216)
    #dbg_value(i64 %i.sroa.0.114.i, !2206, !DIExpression(), !2217)
  %8 = getelementptr inbounds nuw i8, ptr %in_bytes.sroa.0.072, i64 %i.sroa.0.114.i, !dbg !2224
  %c.i = load i8, ptr %8, align 1, !dbg !2224, !alias.scope !2219, !noundef !19
    #dbg_value(i8 %c.i, !2208, !DIExpression(), !2225)
    #dbg_value(i8 %c.i, !2226, !DIExpression(), !2231)
    #dbg_value(i8 %c.i, !2233, !DIExpression(), !2236)
    #dbg_value(i8 %c.i, !2238, !DIExpression(), !2241)
    #dbg_value(i8 %prev_ok.sroa.0.115.i, !2210, !DIExpression(), !2243)
  %_13.i = icmp slt i8 %c.i, 0, !dbg !2244
  br i1 %_13.i, label %bb8.i, label %bb9.i, !dbg !2244

bb9.i:                                            ; preds = %bb7.i
  %9 = zext nneg i8 %c.i to i128, !dbg !2245
  %10 = shl nuw i128 1, %9, !dbg !2246
  %11 = and i128 %10, 10633823859816483586817443131232878592, !dbg !2246
  %12 = icmp eq i128 %11, 0, !dbg !2246
  %13 = and i8 %prev_ok.sroa.0.115.i, -2
  %spec.select.i = select i1 %12, i8 %13, i8 %prev_ok.sroa.0.115.i, !dbg !2246
    #dbg_value(i8 %spec.select.i, !2210, !DIExpression(), !2243)
  switch i8 %c.i, label %bb17.i [
    i8 39, label %bb13.i
    i8 94, label %bb13.i
    i8 92, label %bb13.i
    i8 96, label %bb15.i
    i8 36, label %bb15.i
    i8 33, label %bb15.i
  ], !dbg !2247

bb8.i:                                            ; preds = %bb7.i
  %14 = and i8 %prev_ok.sroa.0.115.i, -2, !dbg !2248
    #dbg_value(i8 %14, !2210, !DIExpression(), !2243)
  br label %bb17.i, !dbg !2249

bb13.i:                                           ; preds = %bb9.i, %bb9.i, %bb9.i
  %15 = and i8 %spec.select.i, -3, !dbg !2250
    #dbg_value(i8 %15, !2210, !DIExpression(), !2243)
  %cond.i = icmp eq i8 %c.i, 94, !dbg !2251
  br i1 %cond.i, label %bb15.i, label %bb17.i, !dbg !2251

bb15.i:                                           ; preds = %bb13.i, %bb9.i, %bb9.i, %bb9.i
  %cur_ok.sroa.0.1.i = phi i8 [ %15, %bb13.i ], [ %spec.select.i, %bb9.i ], [ %spec.select.i, %bb9.i ], [ %spec.select.i, %bb9.i ], !dbg !2243
    #dbg_value(i8 %cur_ok.sroa.0.1.i, !2210, !DIExpression(), !2243)
  %16 = and i8 %cur_ok.sroa.0.1.i, -5, !dbg !2252
    #dbg_value(i8 %16, !2210, !DIExpression(), !2243)
  br label %bb17.i, !dbg !2253

bb17.i:                                           ; preds = %bb15.i, %bb13.i, %bb8.i, %bb9.i
  %cur_ok.sroa.0.2.i = phi i8 [ %14, %bb8.i ], [ %spec.select.i, %bb9.i ], [ %15, %bb13.i ], [ %16, %bb15.i ], !dbg !2243
    #dbg_value(i8 %cur_ok.sroa.0.2.i, !2210, !DIExpression(), !2243)
  %17 = icmp eq i8 %cur_ok.sroa.0.2.i, 0, !dbg !2254
  br i1 %17, label %bb21.i, label %bb19.i, !dbg !2254

bb19.i:                                           ; preds = %bb17.i
    #dbg_value(i8 %cur_ok.sroa.0.2.i, !2204, !DIExpression(), !2216)
  %18 = add i64 %i.sroa.0.114.i, 1, !dbg !2255
    #dbg_value(i64 %18, !2206, !DIExpression(), !2217)
  %exitcond.not.i = icmp eq i64 %18, %in_bytes.sroa.10.071, !dbg !2222
  br i1 %exitcond.not.i, label %bb21.i, label %bb7.i, !dbg !2222

bb23.i:                                           ; preds = %bb21.i
  %_19.i = and i8 %prev_ok.sroa.0.1.lcssa.i, 2, !dbg !2256
  %19 = icmp eq i8 %_19.i, 0, !dbg !2256
  br i1 %19, label %bb25.i, label %bb18, !dbg !2256

bb25.i:                                           ; preds = %bb23.i
  %_21.i = and i8 %prev_ok.sroa.0.1.lcssa.i, 4, !dbg !2257
  %20 = icmp eq i8 %_21.i, 0, !dbg !2257
  br i1 %20, label %bb27.i.invoke, label %bb18, !dbg !2257, !prof !1039

bb27.i.invoke:                                    ; preds = %bb25.i, %bb27
  %21 = phi ptr [ @alloc_f641c37e8871501a10bb4b45ae9002b7, %bb27 ], [ @alloc_a500d906b91607583596fa15e63c2ada, %bb25.i ]
  %22 = phi i64 [ 45, %bb27 ], [ 40, %bb25.i ]
  %23 = phi ptr [ @alloc_53237169eef45a8fa9272d3f6f203b49, %bb27 ], [ @alloc_46b319092c8d68f8a9bf77f516e44f62, %bb25.i ]
; invoke core::panicking::panic
  invoke void @_ZN4core9panicking5panic17hb515f22c0e98143aE(ptr noalias noundef nonnull readonly align 1 captures(address, read_provenance) %21, i64 noundef %22, ptr noalias noundef readonly align 8 captures(address, read_provenance) dereferenceable(24) %23) #18
          to label %bb27.i.cont unwind label %cleanup.loopexit.split-lp.loopexit.split-lp, !dbg !2258

bb27.i.cont:                                      ; preds = %bb27.i.invoke
  unreachable

cleanup.loopexit:                                 ; preds = %bb1.i63.i, %bb1.i70.i
  %lpad.loopexit = landingpad { ptr, i32 }
          cleanup
  br label %cleanup

cleanup.loopexit.split-lp.loopexit:               ; preds = %bb1.i56.i, %bb1.i49.i, %bb1.i42.i, %bb1.i36.i, %bb1.i.i.i28.i, %bb1.i19.i, %bb1.i.i, %bb1.i.i.i.i
  %lpad.loopexit54 = landingpad { ptr, i32 }
          cleanup
  br label %cleanup

cleanup.loopexit.split-lp.loopexit.split-lp:      ; preds = %bb27.i.invoke, %bb28
  %lpad.loopexit.split-lp55 = landingpad { ptr, i32 }
          cleanup
  br label %cleanup

cleanup:                                          ; preds = %cleanup.loopexit.split-lp.loopexit, %cleanup.loopexit.split-lp.loopexit.split-lp, %cleanup.loopexit
  %lpad.phi = phi { ptr, i32 } [ %lpad.loopexit, %cleanup.loopexit ], [ %lpad.loopexit54, %cleanup.loopexit.split-lp.loopexit ], [ %lpad.loopexit.split-lp55, %cleanup.loopexit.split-lp.loopexit.split-lp ]
  %out.val = load i64, ptr %out, align 8, !dbg !2194
    #dbg_value(ptr poison, !218, !DIExpression(), !2259)
    #dbg_value(ptr poison, !228, !DIExpression(), !2261)
    #dbg_value(ptr poison, !238, !DIExpression(), !2263)
    #dbg_value(ptr poison, !248, !DIExpression(), !2265)
    #dbg_value(i64 1, !264, !DIExpression(DW_OP_LLVM_fragment, 0, 64), !2265)
    #dbg_value(i64 1, !264, !DIExpression(DW_OP_LLVM_fragment, 64, 64), !2265)
    #dbg_value(i64 1, !270, !DIExpression(DW_OP_LLVM_fragment, 0, 64), !2267)
    #dbg_value(i64 1, !270, !DIExpression(DW_OP_LLVM_fragment, 64, 64), !2267)
    #dbg_value(ptr poison, !295, !DIExpression(), !2267)
  %24 = icmp eq i64 %out.val, 0, !dbg !2269
  br i1 %24, label %bb24, label %bb2.i.i.i4.i, !dbg !2269

bb2.i.i.i4.i:                                     ; preds = %cleanup
  %out.val30 = load ptr, ptr %4, align 8, !dbg !2194, !nonnull !19, !noundef !19
    #dbg_value(ptr %out.val30, !265, !DIExpression(), !2270)
    #dbg_value(i64 1, !267, !DIExpression(DW_OP_LLVM_fragment, 0, 64), !2270)
    #dbg_value(i64 %out.val, !267, !DIExpression(DW_OP_LLVM_fragment, 64, 64), !2270)
    #dbg_value(i64 1, !304, !DIExpression(DW_OP_LLVM_fragment, 0, 64), !2271)
    #dbg_value(i64 %out.val, !304, !DIExpression(DW_OP_LLVM_fragment, 64, 64), !2271)
    #dbg_value(ptr poison, !312, !DIExpression(), !2271)
    #dbg_value(ptr %out.val30, !313, !DIExpression(), !2271)
    #dbg_value(ptr %out.val30, !316, !DIExpression(), !2273)
    #dbg_value(i64 1, !322, !DIExpression(DW_OP_LLVM_fragment, 0, 64), !2273)
    #dbg_value(i64 %out.val, !322, !DIExpression(DW_OP_LLVM_fragment, 64, 64), !2273)
; call __rustc::__rust_dealloc
  call void @_RNvCsj3IbkTTFM3W_7___rustc14___rust_dealloc(ptr noundef nonnull %out.val30, i64 noundef %out.val, i64 noundef range(i64 1, -9223372036854775807) 1) #17, !dbg !2275
  br label %bb24, !dbg !2276

bb11:                                             ; preds = %bb21.i
    #dbg_value(i64 %i.sroa.0.1.lcssa.i, !1959, !DIExpression(), !2277)
    #dbg_value(i64 %i.sroa.0.1.lcssa.i, !2105, !DIExpression(), !2278)
    #dbg_value(i64 %i.sroa.0.1.lcssa.i, !2279, !DIExpression(), !2298)
    #dbg_value(i8 0, !1961, !DIExpression(), !2277)
  %_16 = icmp eq i64 %i.sroa.0.1.lcssa.i, %in_bytes.sroa.10.071, !dbg !2300
  br i1 %_16, label %bb13, label %bb18, !dbg !2300

bb18:                                             ; preds = %bb25.i, %bb23.i, %bb13, %bb11
  %strategy.sroa.0.0.i53 = phi i8 [ 0, %bb13 ], [ 0, %bb11 ], [ 2, %bb25.i ], [ 1, %bb23.i ]
    #dbg_value(ptr %in_bytes.sroa.0.072, !2104, !DIExpression(DW_OP_LLVM_fragment, 0, 64), !2278)
    #dbg_value(ptr %in_bytes.sroa.0.072, !2297, !DIExpression(DW_OP_LLVM_fragment, 0, 64), !2298)
    #dbg_value(i64 %in_bytes.sroa.10.071, !2104, !DIExpression(DW_OP_LLVM_fragment, 64, 64), !2278)
    #dbg_value(i64 %in_bytes.sroa.10.071, !2297, !DIExpression(DW_OP_LLVM_fragment, 64, 64), !2298)
  %_48.not = icmp ugt i64 %i.sroa.0.1.lcssa.i, %in_bytes.sroa.10.071, !dbg !2301
  br i1 %_48.not, label %bb28, label %bb27, !dbg !2301, !prof !1039

bb13:                                             ; preds = %bb11
    #dbg_value(ptr %out, !2302, !DIExpression(), !2309)
    #dbg_value(ptr %out, !2311, !DIExpression(), !2317)
  %_45 = icmp sgt i64 %len.i.i.i.i, -1, !dbg !2319
  call void @llvm.assume(i1 %_45), !dbg !2320
  %25 = icmp eq i64 %len.i.i.i.i, 0, !dbg !2321
  br i1 %25, label %bb14, label %bb18, !dbg !2321

bb14:                                             ; preds = %bb13
  store i64 -9223372036854775808, ptr %_0, align 8, !dbg !2322
  %_21.sroa.4.0._0.sroa_idx = getelementptr inbounds nuw i8, ptr %_0, i64 8, !dbg !2322
  store ptr %in_bytes.sroa.0.072, ptr %_21.sroa.4.0._0.sroa_idx, align 8, !dbg !2322
  %_21.sroa.5.0._0.sroa_idx = getelementptr inbounds nuw i8, ptr %_0, i64 16, !dbg !2322
  store i64 %in_bytes.sroa.10.071, ptr %_21.sroa.5.0._0.sroa_idx, align 8, !dbg !2322
  %out.val31 = load i64, ptr %out, align 8, !dbg !2194
    #dbg_value(ptr poison, !218, !DIExpression(), !2323)
    #dbg_value(ptr poison, !228, !DIExpression(), !2325)
    #dbg_value(ptr poison, !238, !DIExpression(), !2327)
    #dbg_value(ptr poison, !248, !DIExpression(), !2329)
    #dbg_value(i64 1, !264, !DIExpression(DW_OP_LLVM_fragment, 0, 64), !2329)
    #dbg_value(i64 1, !264, !DIExpression(DW_OP_LLVM_fragment, 64, 64), !2329)
    #dbg_value(i64 1, !270, !DIExpression(DW_OP_LLVM_fragment, 0, 64), !2331)
    #dbg_value(i64 1, !270, !DIExpression(DW_OP_LLVM_fragment, 64, 64), !2331)
    #dbg_value(ptr poison, !295, !DIExpression(), !2331)
  %26 = icmp eq i64 %out.val31, 0, !dbg !2333
  br i1 %26, label %"_ZN4core3ptr46drop_in_place$LT$alloc..vec..Vec$LT$u8$GT$$GT$17h178eba42b44059d9E.exit34", label %bb2.i.i.i4.i33, !dbg !2333

bb2.i.i.i4.i33:                                   ; preds = %bb14
  %out.val32 = load ptr, ptr %4, align 8, !dbg !2194, !nonnull !19, !noundef !19
    #dbg_value(ptr %out.val32, !265, !DIExpression(), !2334)
    #dbg_value(i64 1, !267, !DIExpression(DW_OP_LLVM_fragment, 0, 64), !2334)
    #dbg_value(i64 %out.val31, !267, !DIExpression(DW_OP_LLVM_fragment, 64, 64), !2334)
    #dbg_value(i64 1, !304, !DIExpression(DW_OP_LLVM_fragment, 0, 64), !2335)
    #dbg_value(i64 %out.val31, !304, !DIExpression(DW_OP_LLVM_fragment, 64, 64), !2335)
    #dbg_value(ptr poison, !312, !DIExpression(), !2335)
    #dbg_value(ptr %out.val32, !313, !DIExpression(), !2335)
    #dbg_value(ptr %out.val32, !316, !DIExpression(), !2337)
    #dbg_value(i64 1, !322, !DIExpression(DW_OP_LLVM_fragment, 0, 64), !2337)
    #dbg_value(i64 %out.val31, !322, !DIExpression(DW_OP_LLVM_fragment, 64, 64), !2337)
; call __rustc::__rust_dealloc
  call void @_RNvCsj3IbkTTFM3W_7___rustc14___rust_dealloc(ptr noundef nonnull %out.val32, i64 noundef %out.val31, i64 noundef range(i64 1, -9223372036854775807) 1) #17, !dbg !2339
  br label %"_ZN4core3ptr46drop_in_place$LT$alloc..vec..Vec$LT$u8$GT$$GT$17h178eba42b44059d9E.exit34", !dbg !2340

"_ZN4core3ptr46drop_in_place$LT$alloc..vec..Vec$LT$u8$GT$$GT$17h178eba42b44059d9E.exit34": ; preds = %bb14, %bb2.i.i.i4.i33
  call void @llvm.lifetime.end.p0(i64 24, ptr nonnull %out), !dbg !2194
  br label %bb23, !dbg !2111

bb28:                                             ; preds = %bb18
  call void @llvm.lifetime.start.p0(i64 48, ptr nonnull %_47), !dbg !2095
  store ptr @alloc_716ff0773fff869d3b6edfdef8f974a4, ptr %_47, align 8, !dbg !2341
  %27 = getelementptr inbounds nuw i8, ptr %_47, i64 8, !dbg !2341
  store i64 1, ptr %27, align 8, !dbg !2341
  %28 = getelementptr inbounds nuw i8, ptr %_47, i64 32, !dbg !2341
  store ptr null, ptr %28, align 8, !dbg !2341
  %29 = getelementptr inbounds nuw i8, ptr %_47, i64 16, !dbg !2341
  store ptr inttoptr (i64 8 to ptr), ptr %29, align 8, !dbg !2341
  %30 = getelementptr inbounds nuw i8, ptr %_47, i64 24, !dbg !2341
  store i64 0, ptr %30, align 8, !dbg !2341
; invoke core::panicking::panic_fmt
  invoke void @_ZN4core9panicking9panic_fmt17h5138da2ef87be35bE(ptr noalias noundef nonnull readonly align 8 captures(address) dereferenceable(48) %_47, ptr noalias noundef readonly align 8 captures(address, read_provenance) dereferenceable(24) @alloc_8332c5506b6310f6eb4efcc52f7ddf4a) #18
          to label %unreachable unwind label %cleanup.loopexit.split-lp.loopexit.split-lp, !dbg !2095

unreachable:                                      ; preds = %bb28
  unreachable

bb27:                                             ; preds = %bb18
    #dbg_value(ptr %in_bytes.sroa.0.072, !2342, !DIExpression(DW_OP_LLVM_fragment, 0, 64), !2350)
    #dbg_value(i64 %in_bytes.sroa.10.071, !2342, !DIExpression(DW_OP_LLVM_fragment, 64, 64), !2350)
    #dbg_value(i64 %i.sroa.0.1.lcssa.i, !2345, !DIExpression(), !2350)
    #dbg_value(i64 %in_bytes.sroa.10.071, !2346, !DIExpression(), !2352)
    #dbg_value(ptr %in_bytes.sroa.0.072, !2348, !DIExpression(), !2353)
    #dbg_value(ptr %in_bytes.sroa.0.072, !2354, !DIExpression(), !2363)
    #dbg_value(i64 %i.sroa.0.1.lcssa.i, !2362, !DIExpression(), !2363)
  %31 = getelementptr inbounds nuw i8, ptr %in_bytes.sroa.0.072, i64 %i.sroa.0.1.lcssa.i, !dbg !2365
  %32 = sub nuw i64 %in_bytes.sroa.10.071, %i.sroa.0.1.lcssa.i, !dbg !2366
    #dbg_value(ptr poison, !1962, !DIExpression(DW_OP_LLVM_fragment, 0, 64), !2367)
    #dbg_value(i64 poison, !1962, !DIExpression(DW_OP_LLVM_fragment, 64, 64), !2367)
    #dbg_value(ptr poison, !1964, !DIExpression(DW_OP_LLVM_fragment, 0, 64), !2367)
    #dbg_value(i64 %32, !1964, !DIExpression(DW_OP_LLVM_fragment, 64, 64), !2367)
  %_24.not = icmp eq i64 %i.sroa.0.1.lcssa.i, 0, !dbg !2368
  br i1 %_24.not, label %bb27.i.invoke, label %bb19, !dbg !2368, !prof !1039

bb19:                                             ; preds = %bb27
    #dbg_value(ptr %31, !1964, !DIExpression(DW_OP_LLVM_fragment, 0, 64), !2367)
    #dbg_value(i64 %i.sroa.0.1.lcssa.i, !1962, !DIExpression(DW_OP_LLVM_fragment, 64, 64), !2367)
    #dbg_value(ptr %in_bytes.sroa.0.072, !1962, !DIExpression(DW_OP_LLVM_fragment, 0, 64), !2367)
    #dbg_value(ptr %31, !1956, !DIExpression(DW_OP_LLVM_fragment, 0, 64), !2007)
    #dbg_value(i64 %32, !1956, !DIExpression(DW_OP_LLVM_fragment, 64, 64), !2007)
  call void @llvm.experimental.noalias.scope.decl(metadata !2369), !dbg !2372
  call void @llvm.experimental.noalias.scope.decl(metadata !2373), !dbg !2372
    #dbg_value(ptr poison, !2375, !DIExpression(), !2379)
    #dbg_value(ptr poison, !2378, !DIExpression(), !2379)
    #dbg_value(ptr poison, !2385, !DIExpression(), !2405)
    #dbg_value(ptr %out, !2398, !DIExpression(), !2406)
    #dbg_value(ptr %out, !2407, !DIExpression(), !2414)
    #dbg_value(ptr %out, !2416, !DIExpression(), !2424)
    #dbg_value(ptr %out, !2407, !DIExpression(), !2426)
    #dbg_value(ptr %out, !2416, !DIExpression(), !2428)
    #dbg_value(ptr %out, !2416, !DIExpression(), !2430)
    #dbg_value(ptr %out, !2416, !DIExpression(), !2432)
    #dbg_value(ptr %out, !2416, !DIExpression(), !2434)
    #dbg_value(ptr %out, !2416, !DIExpression(), !2436)
    #dbg_value(ptr %in_bytes.sroa.0.072, !2399, !DIExpression(DW_OP_LLVM_fragment, 0, 64), !2406)
    #dbg_value(ptr %in_bytes.sroa.0.072, !2413, !DIExpression(DW_OP_LLVM_fragment, 0, 64), !2414)
    #dbg_value(ptr %in_bytes.sroa.0.072, !2413, !DIExpression(DW_OP_LLVM_fragment, 0, 64), !2426)
    #dbg_value(i64 %i.sroa.0.1.lcssa.i, !2399, !DIExpression(DW_OP_LLVM_fragment, 64, 64), !2406)
    #dbg_value(i64 %i.sroa.0.1.lcssa.i, !2413, !DIExpression(DW_OP_LLVM_fragment, 64, 64), !2414)
    #dbg_value(i64 %i.sroa.0.1.lcssa.i, !2413, !DIExpression(DW_OP_LLVM_fragment, 64, 64), !2426)
    #dbg_value(i8 %strategy.sroa.0.0.i53, !2400, !DIExpression(), !2406)
    #dbg_value(i8 39, !2422, !DIExpression(), !2424)
    #dbg_value(i8 39, !2422, !DIExpression(), !2428)
    #dbg_value(i8 34, !2422, !DIExpression(), !2430)
    #dbg_value(i64 1, !2438, !DIExpression(), !2442)
    #dbg_value(i8 34, !2422, !DIExpression(), !2432)
    #dbg_value(i8 92, !2422, !DIExpression(), !2434)
  switch i8 %strategy.sroa.0.0.i53, label %default.unreachable [
    i8 0, label %bb4.i
    i8 1, label %bb3.i39
    i8 2, label %bb2.i
  ], !dbg !2444

default.unreachable:                              ; preds = %bb19
  unreachable

bb4.i:                                            ; preds = %bb19
  call void @llvm.experimental.noalias.scope.decl(metadata !2445), !dbg !2448
    #dbg_value(ptr %in_bytes.sroa.0.072, !2449, !DIExpression(DW_OP_LLVM_fragment, 0, 64), !2458)
    #dbg_value(!DIArgList(ptr %in_bytes.sroa.0.072, i64 %i.sroa.0.1.lcssa.i), !2449, !DIExpression(DW_OP_LLVM_arg, 0, DW_OP_LLVM_arg, 1, DW_OP_plus, DW_OP_stack_value, DW_OP_LLVM_fragment, 64, 64), !2458)
    #dbg_value(ptr %out, !2455, !DIExpression(), !2458)
    #dbg_value(ptr %in_bytes.sroa.0.072, !2456, !DIExpression(DW_OP_LLVM_fragment, 0, 64), !2460)
    #dbg_value(i64 %i.sroa.0.1.lcssa.i, !2456, !DIExpression(DW_OP_LLVM_fragment, 64, 64), !2460)
  call void @llvm.experimental.noalias.scope.decl(metadata !2461), !dbg !2464
    #dbg_value(ptr %out, !2465, !DIExpression(), !2476)
    #dbg_value(ptr %out, !2478, !DIExpression(), !2481)
    #dbg_value(ptr %out, !2483, !DIExpression(), !2489)
    #dbg_value(ptr %in_bytes.sroa.0.072, !2471, !DIExpression(DW_OP_LLVM_fragment, 0, 64), !2476)
    #dbg_value(i64 %i.sroa.0.1.lcssa.i, !2471, !DIExpression(DW_OP_LLVM_fragment, 64, 64), !2476)
    #dbg_value(i64 %i.sroa.0.1.lcssa.i, !2472, !DIExpression(), !2491)
    #dbg_value(i64 %i.sroa.0.1.lcssa.i, !2492, !DIExpression(), !2499)
    #dbg_value(ptr %out, !2501, !DIExpression(), !2508)
    #dbg_value(i64 %i.sroa.0.1.lcssa.i, !2507, !DIExpression(), !2508)
    #dbg_value(i64 %i.sroa.0.1.lcssa.i, !2510, !DIExpression(), !2518)
    #dbg_value(i64 %i.sroa.0.1.lcssa.i, !2520, !DIExpression(), !2526)
    #dbg_value(i64 %i.sroa.0.1.lcssa.i, !2528, !DIExpression(), !2537)
    #dbg_value(ptr %out, !2516, !DIExpression(), !2518)
    #dbg_value(i64 %len.i.i.i.i, !2517, !DIExpression(), !2518)
    #dbg_value(i64 %len.i.i.i.i, !2524, !DIExpression(), !2526)
    #dbg_value(i64 %len.i.i.i.i, !2535, !DIExpression(), !2537)
    #dbg_value(i64 %len.i.i.i.i, !2539, !DIExpression(), !2543)
    #dbg_value(ptr %out, !2523, !DIExpression(), !2526)
    #dbg_value(ptr %out, !2534, !DIExpression(), !2537)
    #dbg_value(ptr %out, !2545, !DIExpression(), !2549)
    #dbg_value(i64 1, !2525, !DIExpression(DW_OP_LLVM_fragment, 0, 64), !2526)
    #dbg_value(i64 1, !2525, !DIExpression(DW_OP_LLVM_fragment, 64, 64), !2526)
    #dbg_value(i64 1, !2536, !DIExpression(DW_OP_LLVM_fragment, 0, 64), !2537)
    #dbg_value(i64 1, !2536, !DIExpression(DW_OP_LLVM_fragment, 64, 64), !2537)
    #dbg_value(i64 1, !2548, !DIExpression(), !2549)
  %self5.i.i.i.i = load i64, ptr %out, align 8, !dbg !2551, !range !327, !alias.scope !2552, !noalias !2373, !noundef !19
    #dbg_value(i64 %self5.i.i.i.i, !2542, !DIExpression(), !2543)
  %_10.i.i.i.i = sub i64 %self5.i.i.i.i, %len.i.i.i.i, !dbg !2555
  %_7.i.i.i.i = icmp ugt i64 %i.sroa.0.1.lcssa.i, %_10.i.i.i.i, !dbg !2556
  br i1 %_7.i.i.i.i, label %bb1.i.i.i.i, label %"_ZN132_$LT$alloc..vec..Vec$LT$T$C$A$GT$$u20$as$u20$alloc..vec..spec_extend..SpecExtend$LT$$RF$T$C$core..slice..iter..Iter$LT$T$GT$$GT$$GT$11spec_extend17h63ac6d4465d4e6e7E.exit.i", !dbg !2557, !prof !1039

bb1.i.i.i.i:                                      ; preds = %bb4.i
; invoke alloc::raw_vec::RawVecInner<A>::reserve::do_reserve_and_handle
  invoke fastcc void @"_ZN5alloc7raw_vec20RawVecInner$LT$A$GT$7reserve21do_reserve_and_handle17h0218d577ac94f8e8E"(ptr noalias noundef nonnull align 8 dereferenceable(24) %out, i64 noundef %len.i.i.i.i, i64 noundef %i.sroa.0.1.lcssa.i, i64 noundef 1, i64 noundef 1)
          to label %.noexc40 unwind label %cleanup.loopexit.split-lp.loopexit, !dbg !2558

.noexc40:                                         ; preds = %bb1.i.i.i.i
  %len.pre.i.i.i = load i64, ptr %5, align 8, !dbg !2559, !alias.scope !2560, !noalias !2373
  br label %"_ZN132_$LT$alloc..vec..Vec$LT$T$C$A$GT$$u20$as$u20$alloc..vec..spec_extend..SpecExtend$LT$$RF$T$C$core..slice..iter..Iter$LT$T$GT$$GT$$GT$11spec_extend17h63ac6d4465d4e6e7E.exit.i", !dbg !2558

"_ZN132_$LT$alloc..vec..Vec$LT$T$C$A$GT$$u20$as$u20$alloc..vec..spec_extend..SpecExtend$LT$$RF$T$C$core..slice..iter..Iter$LT$T$GT$$GT$$GT$11spec_extend17h63ac6d4465d4e6e7E.exit.i": ; preds = %.noexc40, %bb4.i
  %len.i.i.i = phi i64 [ %len.i.i.i.i, %bb4.i ], [ %len.pre.i.i.i, %.noexc40 ], !dbg !2559
    #dbg_value(i64 %len.i.i.i, !2474, !DIExpression(), !2561)
    #dbg_value(i64 %len.i.i.i, !2562, !DIExpression(), !2566)
  %_9.i.i.i = icmp sgt i64 %len.i.i.i, -1, !dbg !2568
  call void @llvm.assume(i1 %_9.i.i.i), !dbg !2569
    #dbg_value(ptr %in_bytes.sroa.0.072, !2497, !DIExpression(), !2499)
  %_10.i.i.i = load ptr, ptr %4, align 8, !dbg !2570, !alias.scope !2560, !noalias !2373, !nonnull !19, !noundef !19
    #dbg_value(ptr %_10.i.i.i, !2565, !DIExpression(), !2566)
  %dst.i.i.i = getelementptr inbounds nuw i8, ptr %_10.i.i.i, i64 %len.i.i.i, !dbg !2588
    #dbg_value(ptr %dst.i.i.i, !2498, !DIExpression(), !2499)
  call void @llvm.memcpy.p0.p0.i64(ptr nonnull align 1 %dst.i.i.i, ptr nonnull readonly align 1 %in_bytes.sroa.0.072, i64 %i.sroa.0.1.lcssa.i, i1 false), !dbg !2589, !noalias !2560
  %33 = add i64 %len.i.i.i, %i.sroa.0.1.lcssa.i, !dbg !2590
  br label %_ZN5shlex5bytes19append_quoted_chunk17h3bac3e6bb5739f4eE.exit, !dbg !2591

bb3.i39:                                          ; preds = %bb19
  %_7.i = add i64 %i.sroa.0.1.lcssa.i, 2, !dbg !2592
    #dbg_value(ptr %out, !2501, !DIExpression(), !2593)
    #dbg_value(i64 %_7.i, !2507, !DIExpression(), !2593)
    #dbg_value(i64 %_7.i, !2510, !DIExpression(), !2595)
    #dbg_value(i64 %_7.i, !2520, !DIExpression(), !2597)
    #dbg_value(i64 %_7.i, !2528, !DIExpression(), !2599)
    #dbg_value(ptr %out, !2516, !DIExpression(), !2595)
    #dbg_value(i64 %len.i.i.i.i, !2517, !DIExpression(), !2595)
    #dbg_value(i64 %len.i.i.i.i, !2524, !DIExpression(), !2597)
    #dbg_value(i64 %len.i.i.i.i, !2535, !DIExpression(), !2599)
    #dbg_value(i64 %len.i.i.i.i, !2539, !DIExpression(), !2601)
    #dbg_value(ptr %out, !2523, !DIExpression(), !2597)
    #dbg_value(ptr %out, !2534, !DIExpression(), !2599)
    #dbg_value(ptr %out, !2545, !DIExpression(), !2603)
    #dbg_value(i64 1, !2525, !DIExpression(DW_OP_LLVM_fragment, 0, 64), !2597)
    #dbg_value(i64 1, !2525, !DIExpression(DW_OP_LLVM_fragment, 64, 64), !2597)
    #dbg_value(i64 1, !2536, !DIExpression(DW_OP_LLVM_fragment, 0, 64), !2599)
    #dbg_value(i64 1, !2536, !DIExpression(DW_OP_LLVM_fragment, 64, 64), !2599)
    #dbg_value(i64 1, !2548, !DIExpression(), !2603)
  %self5.i.i = load i64, ptr %out, align 8, !dbg !2605, !range !327, !alias.scope !2606, !noalias !2373, !noundef !19
    #dbg_value(i64 %self5.i.i, !2542, !DIExpression(), !2601)
  %_10.i.i = sub i64 %self5.i.i, %len.i.i.i.i, !dbg !2609
  %_7.i.i = icmp ugt i64 %_7.i, %_10.i.i, !dbg !2610
  br i1 %_7.i.i, label %bb1.i.i, label %"_ZN5alloc3vec16Vec$LT$T$C$A$GT$7reserve17hff966f1c90cf251eE.exit.i", !dbg !2611, !prof !1039

bb1.i.i:                                          ; preds = %bb3.i39
; invoke alloc::raw_vec::RawVecInner<A>::reserve::do_reserve_and_handle
  invoke fastcc void @"_ZN5alloc7raw_vec20RawVecInner$LT$A$GT$7reserve21do_reserve_and_handle17h0218d577ac94f8e8E"(ptr noalias noundef nonnull align 8 dereferenceable(24) %out, i64 noundef %len.i.i.i.i, i64 noundef %_7.i, i64 noundef 1, i64 noundef 1)
          to label %.noexc41 unwind label %cleanup.loopexit.split-lp.loopexit, !dbg !2612

.noexc41:                                         ; preds = %bb1.i.i
  %len.i18.pre.i = load i64, ptr %5, align 8, !dbg !2613, !alias.scope !2627, !noalias !2630
  %self3.i.pre.i = load i64, ptr %out, align 8, !dbg !2632, !range !327, !alias.scope !2627, !noalias !2630
  br label %"_ZN5alloc3vec16Vec$LT$T$C$A$GT$7reserve17hff966f1c90cf251eE.exit.i", !dbg !2612

"_ZN5alloc3vec16Vec$LT$T$C$A$GT$7reserve17hff966f1c90cf251eE.exit.i": ; preds = %.noexc41, %bb3.i39
  %self3.i.i = phi i64 [ %self5.i.i, %bb3.i39 ], [ %self3.i.pre.i, %.noexc41 ], !dbg !2632
  %len.i18.i = phi i64 [ %len.i.i.i.i, %bb3.i39 ], [ %len.i18.pre.i, %.noexc41 ], !dbg !2613
    #dbg_value(ptr %out, !2620, !DIExpression(), !2645)
    #dbg_value(ptr %out, !2646, !DIExpression(), !2649)
    #dbg_value(i8 39, !2621, !DIExpression(), !2645)
    #dbg_value(i64 %len.i18.i, !2622, !DIExpression(), !2651)
    #dbg_value(i64 %len.i18.i, !2652, !DIExpression(), !2656)
    #dbg_value(ptr %out, !2643, !DIExpression(), !2658)
    #dbg_value(ptr %out, !2635, !DIExpression(), !2659)
    #dbg_value(i64 1, !2636, !DIExpression(), !2659)
  %_4.i.i = icmp eq i64 %len.i18.i, %self3.i.i, !dbg !2660
  br i1 %_4.i.i, label %bb1.i19.i, label %"_ZN5alloc3vec16Vec$LT$T$C$A$GT$8push_mut17h013619124ed5d51cE.exit.i", !dbg !2660

bb1.i19.i:                                        ; preds = %"_ZN5alloc3vec16Vec$LT$T$C$A$GT$7reserve17hff966f1c90cf251eE.exit.i"
; invoke alloc::raw_vec::RawVec<T,A>::grow_one
  invoke void @"_ZN5alloc7raw_vec19RawVec$LT$T$C$A$GT$8grow_one17h3e6312be3fa2afbcE"(ptr noalias noundef nonnull align 8 dereferenceable(24) %out, ptr noalias noundef nonnull readonly align 8 captures(address, read_provenance) dereferenceable(24) @alloc_2a490a889365d4f981ef8c8914683ac2)
          to label %"_ZN5alloc3vec16Vec$LT$T$C$A$GT$8push_mut17h013619124ed5d51cE.exit.i" unwind label %cleanup.loopexit.split-lp.loopexit, !dbg !2661

"_ZN5alloc3vec16Vec$LT$T$C$A$GT$8push_mut17h013619124ed5d51cE.exit.i": ; preds = %bb1.i19.i, %"_ZN5alloc3vec16Vec$LT$T$C$A$GT$7reserve17hff966f1c90cf251eE.exit.i"
  %_15.i.i = load ptr, ptr %4, align 8, !dbg !2662, !alias.scope !2627, !noalias !2630, !nonnull !19, !noundef !19
    #dbg_value(ptr %_15.i.i, !2655, !DIExpression(), !2656)
  %end.i.i = getelementptr inbounds nuw i8, ptr %_15.i.i, i64 %len.i18.i, !dbg !2669
    #dbg_value(ptr %end.i.i, !2624, !DIExpression(), !2670)
    #dbg_value(ptr %end.i.i, !2671, !DIExpression(), !2677)
    #dbg_value(i8 39, !2676, !DIExpression(), !2677)
  store i8 39, ptr %end.i.i, align 1, !dbg !2679, !noalias !2373
  %34 = add i64 %len.i18.i, 1, !dbg !2680
  store i64 %34, ptr %5, align 8, !dbg !2680, !alias.scope !2627, !noalias !2630
  call void @llvm.experimental.noalias.scope.decl(metadata !2681), !dbg !2684
    #dbg_value(ptr %in_bytes.sroa.0.072, !2449, !DIExpression(DW_OP_LLVM_fragment, 0, 64), !2685)
    #dbg_value(!DIArgList(ptr %in_bytes.sroa.0.072, i64 %i.sroa.0.1.lcssa.i), !2449, !DIExpression(DW_OP_LLVM_arg, 0, DW_OP_LLVM_arg, 1, DW_OP_plus, DW_OP_stack_value, DW_OP_LLVM_fragment, 64, 64), !2685)
    #dbg_value(ptr %out, !2455, !DIExpression(), !2685)
    #dbg_value(ptr %in_bytes.sroa.0.072, !2456, !DIExpression(DW_OP_LLVM_fragment, 0, 64), !2687)
    #dbg_value(i64 %i.sroa.0.1.lcssa.i, !2456, !DIExpression(DW_OP_LLVM_fragment, 64, 64), !2687)
  call void @llvm.experimental.noalias.scope.decl(metadata !2688), !dbg !2691
    #dbg_value(ptr %out, !2465, !DIExpression(), !2692)
    #dbg_value(ptr %out, !2478, !DIExpression(), !2694)
    #dbg_value(ptr %out, !2483, !DIExpression(), !2696)
    #dbg_value(ptr %in_bytes.sroa.0.072, !2471, !DIExpression(DW_OP_LLVM_fragment, 0, 64), !2692)
    #dbg_value(i64 %i.sroa.0.1.lcssa.i, !2471, !DIExpression(DW_OP_LLVM_fragment, 64, 64), !2692)
    #dbg_value(i64 %i.sroa.0.1.lcssa.i, !2472, !DIExpression(), !2698)
    #dbg_value(i64 %i.sroa.0.1.lcssa.i, !2492, !DIExpression(), !2699)
    #dbg_value(ptr %out, !2501, !DIExpression(), !2701)
    #dbg_value(i64 %i.sroa.0.1.lcssa.i, !2507, !DIExpression(), !2701)
    #dbg_value(i64 %i.sroa.0.1.lcssa.i, !2510, !DIExpression(), !2703)
    #dbg_value(i64 %i.sroa.0.1.lcssa.i, !2520, !DIExpression(), !2705)
    #dbg_value(i64 %i.sroa.0.1.lcssa.i, !2528, !DIExpression(), !2707)
    #dbg_value(ptr %out, !2516, !DIExpression(), !2703)
    #dbg_value(i64 %34, !2517, !DIExpression(), !2703)
    #dbg_value(i64 %34, !2524, !DIExpression(), !2705)
    #dbg_value(i64 %34, !2535, !DIExpression(), !2707)
    #dbg_value(i64 %34, !2539, !DIExpression(), !2709)
    #dbg_value(ptr %out, !2523, !DIExpression(), !2705)
    #dbg_value(ptr %out, !2534, !DIExpression(), !2707)
    #dbg_value(ptr %out, !2545, !DIExpression(), !2711)
    #dbg_value(i64 1, !2525, !DIExpression(DW_OP_LLVM_fragment, 0, 64), !2705)
    #dbg_value(i64 1, !2525, !DIExpression(DW_OP_LLVM_fragment, 64, 64), !2705)
    #dbg_value(i64 1, !2536, !DIExpression(DW_OP_LLVM_fragment, 0, 64), !2707)
    #dbg_value(i64 1, !2536, !DIExpression(DW_OP_LLVM_fragment, 64, 64), !2707)
    #dbg_value(i64 1, !2548, !DIExpression(), !2711)
  %self5.i.i.i21.i = load i64, ptr %out, align 8, !dbg !2713, !range !327, !alias.scope !2714, !noalias !2373, !noundef !19
    #dbg_value(i64 %self5.i.i.i21.i, !2542, !DIExpression(), !2709)
  %_10.i.i.i22.i = sub i64 %self5.i.i.i21.i, %34, !dbg !2717
  %_7.i.i.i23.i = icmp ugt i64 %i.sroa.0.1.lcssa.i, %_10.i.i.i22.i, !dbg !2718
  br i1 %_7.i.i.i23.i, label %bb1.i.i.i28.i, label %"_ZN132_$LT$alloc..vec..Vec$LT$T$C$A$GT$$u20$as$u20$alloc..vec..spec_extend..SpecExtend$LT$$RF$T$C$core..slice..iter..Iter$LT$T$GT$$GT$$GT$11spec_extend17h63ac6d4465d4e6e7E.exit30.i", !dbg !2719, !prof !1039

bb1.i.i.i28.i:                                    ; preds = %"_ZN5alloc3vec16Vec$LT$T$C$A$GT$8push_mut17h013619124ed5d51cE.exit.i"
; invoke alloc::raw_vec::RawVecInner<A>::reserve::do_reserve_and_handle
  invoke fastcc void @"_ZN5alloc7raw_vec20RawVecInner$LT$A$GT$7reserve21do_reserve_and_handle17h0218d577ac94f8e8E"(ptr noalias noundef nonnull align 8 dereferenceable(24) %out, i64 noundef %34, i64 noundef %i.sroa.0.1.lcssa.i, i64 noundef 1, i64 noundef 1)
          to label %.noexc43 unwind label %cleanup.loopexit.split-lp.loopexit, !dbg !2720

.noexc43:                                         ; preds = %bb1.i.i.i28.i
  %len.pre.i.i29.i = load i64, ptr %5, align 8, !dbg !2721, !alias.scope !2722, !noalias !2373
  br label %"_ZN132_$LT$alloc..vec..Vec$LT$T$C$A$GT$$u20$as$u20$alloc..vec..spec_extend..SpecExtend$LT$$RF$T$C$core..slice..iter..Iter$LT$T$GT$$GT$$GT$11spec_extend17h63ac6d4465d4e6e7E.exit30.i", !dbg !2720

"_ZN132_$LT$alloc..vec..Vec$LT$T$C$A$GT$$u20$as$u20$alloc..vec..spec_extend..SpecExtend$LT$$RF$T$C$core..slice..iter..Iter$LT$T$GT$$GT$$GT$11spec_extend17h63ac6d4465d4e6e7E.exit30.i": ; preds = %.noexc43, %"_ZN5alloc3vec16Vec$LT$T$C$A$GT$8push_mut17h013619124ed5d51cE.exit.i"
  %len.i.i24.i = phi i64 [ %34, %"_ZN5alloc3vec16Vec$LT$T$C$A$GT$8push_mut17h013619124ed5d51cE.exit.i" ], [ %len.pre.i.i29.i, %.noexc43 ], !dbg !2721
    #dbg_value(i64 %len.i.i24.i, !2474, !DIExpression(), !2723)
    #dbg_value(i64 %len.i.i24.i, !2562, !DIExpression(), !2724)
  %_9.i.i25.i = icmp sgt i64 %len.i.i24.i, -1, !dbg !2726
  call void @llvm.assume(i1 %_9.i.i25.i), !dbg !2727
    #dbg_value(ptr %in_bytes.sroa.0.072, !2497, !DIExpression(), !2699)
  %_10.i.i26.i = load ptr, ptr %4, align 8, !dbg !2728, !alias.scope !2722, !noalias !2373, !nonnull !19, !noundef !19
    #dbg_value(ptr %_10.i.i26.i, !2565, !DIExpression(), !2724)
  %dst.i.i27.i = getelementptr inbounds nuw i8, ptr %_10.i.i26.i, i64 %len.i.i24.i, !dbg !2732
    #dbg_value(ptr %dst.i.i27.i, !2498, !DIExpression(), !2699)
  call void @llvm.memcpy.p0.p0.i64(ptr nonnull align 1 %dst.i.i27.i, ptr nonnull readonly align 1 %in_bytes.sroa.0.072, i64 %i.sroa.0.1.lcssa.i, i1 false), !dbg !2733, !noalias !2734
  %35 = add i64 %len.i.i24.i, %i.sroa.0.1.lcssa.i, !dbg !2735
  store i64 %35, ptr %5, align 8, !dbg !2735, !alias.scope !2722, !noalias !2373
    #dbg_value(ptr %out, !2620, !DIExpression(), !2736)
    #dbg_value(ptr %out, !2646, !DIExpression(), !2738)
    #dbg_value(i8 39, !2621, !DIExpression(), !2736)
    #dbg_value(i64 %35, !2622, !DIExpression(), !2740)
    #dbg_value(i64 %35, !2652, !DIExpression(), !2741)
    #dbg_value(ptr %out, !2643, !DIExpression(), !2743)
    #dbg_value(ptr %out, !2635, !DIExpression(), !2745)
    #dbg_value(i64 1, !2636, !DIExpression(), !2745)
  %self3.i32.i = load i64, ptr %out, align 8, !dbg !2747, !range !327, !alias.scope !2748, !noalias !2751, !noundef !19
  %_4.i33.i = icmp eq i64 %35, %self3.i32.i, !dbg !2753
  br i1 %_4.i33.i, label %bb1.i36.i, label %"_ZN5alloc3vec16Vec$LT$T$C$A$GT$8push_mut17h013619124ed5d51cE.exit37.i", !dbg !2753

bb1.i36.i:                                        ; preds = %"_ZN132_$LT$alloc..vec..Vec$LT$T$C$A$GT$$u20$as$u20$alloc..vec..spec_extend..SpecExtend$LT$$RF$T$C$core..slice..iter..Iter$LT$T$GT$$GT$$GT$11spec_extend17h63ac6d4465d4e6e7E.exit30.i"
; invoke alloc::raw_vec::RawVec<T,A>::grow_one
  invoke void @"_ZN5alloc7raw_vec19RawVec$LT$T$C$A$GT$8grow_one17h3e6312be3fa2afbcE"(ptr noalias noundef nonnull align 8 dereferenceable(24) %out, ptr noalias noundef nonnull readonly align 8 captures(address, read_provenance) dereferenceable(24) @alloc_ea7968050c397c4977ea470a13e1c100)
          to label %"_ZN5alloc3vec16Vec$LT$T$C$A$GT$8push_mut17h013619124ed5d51cE.exit37.i" unwind label %cleanup.loopexit.split-lp.loopexit, !dbg !2754

"_ZN5alloc3vec16Vec$LT$T$C$A$GT$8push_mut17h013619124ed5d51cE.exit37.i": ; preds = %bb1.i36.i, %"_ZN132_$LT$alloc..vec..Vec$LT$T$C$A$GT$$u20$as$u20$alloc..vec..spec_extend..SpecExtend$LT$$RF$T$C$core..slice..iter..Iter$LT$T$GT$$GT$$GT$11spec_extend17h63ac6d4465d4e6e7E.exit30.i"
  %_15.i34.i = load ptr, ptr %4, align 8, !dbg !2755, !alias.scope !2748, !noalias !2751, !nonnull !19, !noundef !19
    #dbg_value(ptr %_15.i34.i, !2655, !DIExpression(), !2741)
  %end.i35.i = getelementptr inbounds nuw i8, ptr %_15.i34.i, i64 %35, !dbg !2759
    #dbg_value(ptr %end.i35.i, !2624, !DIExpression(), !2760)
    #dbg_value(ptr %end.i35.i, !2671, !DIExpression(), !2761)
    #dbg_value(i8 39, !2676, !DIExpression(), !2761)
  store i8 39, ptr %end.i35.i, align 1, !dbg !2763, !noalias !2373
  %36 = add i64 %35, 1, !dbg !2764
  br label %_ZN5shlex5bytes19append_quoted_chunk17h3bac3e6bb5739f4eE.exit, !dbg !2765

bb2.i:                                            ; preds = %bb19
  %_11.i = add i64 %i.sroa.0.1.lcssa.i, 2, !dbg !2766
    #dbg_value(ptr %out, !2501, !DIExpression(), !2767)
    #dbg_value(i64 %_11.i, !2507, !DIExpression(), !2767)
    #dbg_value(i64 %_11.i, !2510, !DIExpression(), !2769)
    #dbg_value(i64 %_11.i, !2520, !DIExpression(), !2771)
    #dbg_value(i64 %_11.i, !2528, !DIExpression(), !2773)
    #dbg_value(ptr %out, !2516, !DIExpression(), !2769)
    #dbg_value(i64 %len.i.i.i.i, !2517, !DIExpression(), !2769)
    #dbg_value(i64 %len.i.i.i.i, !2524, !DIExpression(), !2771)
    #dbg_value(i64 %len.i.i.i.i, !2535, !DIExpression(), !2773)
    #dbg_value(i64 %len.i.i.i.i, !2539, !DIExpression(), !2775)
    #dbg_value(ptr %out, !2523, !DIExpression(), !2771)
    #dbg_value(ptr %out, !2534, !DIExpression(), !2773)
    #dbg_value(ptr %out, !2545, !DIExpression(), !2777)
    #dbg_value(i64 1, !2525, !DIExpression(DW_OP_LLVM_fragment, 0, 64), !2771)
    #dbg_value(i64 1, !2525, !DIExpression(DW_OP_LLVM_fragment, 64, 64), !2771)
    #dbg_value(i64 1, !2536, !DIExpression(DW_OP_LLVM_fragment, 0, 64), !2773)
    #dbg_value(i64 1, !2536, !DIExpression(DW_OP_LLVM_fragment, 64, 64), !2773)
    #dbg_value(i64 1, !2548, !DIExpression(), !2777)
  %self5.i39.i = load i64, ptr %out, align 8, !dbg !2779, !range !327, !alias.scope !2780, !noalias !2373, !noundef !19
    #dbg_value(i64 %self5.i39.i, !2542, !DIExpression(), !2775)
  %_10.i40.i = sub i64 %self5.i39.i, %len.i.i.i.i, !dbg !2783
  %_7.i41.i = icmp ugt i64 %_11.i, %_10.i40.i, !dbg !2784
  br i1 %_7.i41.i, label %bb1.i42.i, label %"_ZN5alloc3vec16Vec$LT$T$C$A$GT$7reserve17hff966f1c90cf251eE.exit43.i", !dbg !2785, !prof !1039

bb1.i42.i:                                        ; preds = %bb2.i
; invoke alloc::raw_vec::RawVecInner<A>::reserve::do_reserve_and_handle
  invoke fastcc void @"_ZN5alloc7raw_vec20RawVecInner$LT$A$GT$7reserve21do_reserve_and_handle17h0218d577ac94f8e8E"(ptr noalias noundef nonnull align 8 dereferenceable(24) %out, i64 noundef %len.i.i.i.i, i64 noundef %_11.i, i64 noundef 1, i64 noundef 1)
          to label %.noexc45 unwind label %cleanup.loopexit.split-lp.loopexit, !dbg !2786

.noexc45:                                         ; preds = %bb1.i42.i
  %len.i44.pre.i = load i64, ptr %5, align 8, !dbg !2787, !alias.scope !2789, !noalias !2792
  %self3.i45.pre.i = load i64, ptr %out, align 8, !dbg !2794, !range !327, !alias.scope !2789, !noalias !2792
  br label %"_ZN5alloc3vec16Vec$LT$T$C$A$GT$7reserve17hff966f1c90cf251eE.exit43.i", !dbg !2786

"_ZN5alloc3vec16Vec$LT$T$C$A$GT$7reserve17hff966f1c90cf251eE.exit43.i": ; preds = %.noexc45, %bb2.i
  %self3.i45.i = phi i64 [ %self5.i39.i, %bb2.i ], [ %self3.i45.pre.i, %.noexc45 ], !dbg !2794
  %len.i44.i = phi i64 [ %len.i.i.i.i, %bb2.i ], [ %len.i44.pre.i, %.noexc45 ], !dbg !2787
    #dbg_value(ptr %out, !2620, !DIExpression(), !2797)
    #dbg_value(ptr %out, !2646, !DIExpression(), !2798)
    #dbg_value(i8 34, !2621, !DIExpression(), !2797)
    #dbg_value(i64 %len.i44.i, !2622, !DIExpression(), !2800)
    #dbg_value(i64 %len.i44.i, !2652, !DIExpression(), !2801)
    #dbg_value(ptr %out, !2643, !DIExpression(), !2803)
    #dbg_value(ptr %out, !2635, !DIExpression(), !2804)
    #dbg_value(i64 1, !2636, !DIExpression(), !2804)
  %_4.i46.i = icmp eq i64 %len.i44.i, %self3.i45.i, !dbg !2805
  br i1 %_4.i46.i, label %bb1.i49.i, label %"_ZN5alloc3vec16Vec$LT$T$C$A$GT$8push_mut17h013619124ed5d51cE.exit50.i", !dbg !2805

bb1.i49.i:                                        ; preds = %"_ZN5alloc3vec16Vec$LT$T$C$A$GT$7reserve17hff966f1c90cf251eE.exit43.i"
; invoke alloc::raw_vec::RawVec<T,A>::grow_one
  invoke void @"_ZN5alloc7raw_vec19RawVec$LT$T$C$A$GT$8grow_one17h3e6312be3fa2afbcE"(ptr noalias noundef nonnull align 8 dereferenceable(24) %out, ptr noalias noundef nonnull readonly align 8 captures(address, read_provenance) dereferenceable(24) @alloc_c842f1f22e6edc06259d4a9e2cf9ecd4)
          to label %"_ZN5alloc3vec16Vec$LT$T$C$A$GT$8push_mut17h013619124ed5d51cE.exit50.i" unwind label %cleanup.loopexit.split-lp.loopexit, !dbg !2806

"_ZN5alloc3vec16Vec$LT$T$C$A$GT$8push_mut17h013619124ed5d51cE.exit50.i": ; preds = %bb1.i49.i, %"_ZN5alloc3vec16Vec$LT$T$C$A$GT$7reserve17hff966f1c90cf251eE.exit43.i"
  %_15.i47.i = load ptr, ptr %4, align 8, !dbg !2807, !alias.scope !2789, !noalias !2792, !nonnull !19, !noundef !19
    #dbg_value(ptr %_15.i47.i, !2655, !DIExpression(), !2801)
  %end.i48.i = getelementptr inbounds nuw i8, ptr %_15.i47.i, i64 %len.i44.i, !dbg !2811
    #dbg_value(ptr %end.i48.i, !2624, !DIExpression(), !2812)
    #dbg_value(ptr %end.i48.i, !2671, !DIExpression(), !2813)
    #dbg_value(i8 34, !2676, !DIExpression(), !2813)
  store i8 34, ptr %end.i48.i, align 1, !dbg !2815, !noalias !2373
  %37 = add i64 %len.i44.i, 1, !dbg !2816
  store i64 %37, ptr %5, align 8, !dbg !2816, !alias.scope !2789, !noalias !2792
    #dbg_value(ptr %in_bytes.sroa.0.072, !2401, !DIExpression(DW_OP_LLVM_fragment, 0, 64), !2817)
    #dbg_value(ptr %31, !2401, !DIExpression(DW_OP_LLVM_fragment, 64, 64), !2817)
    #dbg_value(ptr undef, !2385, !DIExpression(), !2405)
    #dbg_value(ptr %in_bytes.sroa.0.072, !2386, !DIExpression(), !2818)
    #dbg_value(ptr %in_bytes.sroa.0.072, !2441, !DIExpression(), !2442)
    #dbg_value(ptr %31, !2387, !DIExpression(), !2819)
    #dbg_value(ptr undef, !2378, !DIExpression(), !2379)
    #dbg_value(ptr undef, !2375, !DIExpression(), !2379)
  br label %bb17.i35, !dbg !2820

bb17.i35:                                         ; preds = %"_ZN5alloc3vec16Vec$LT$T$C$A$GT$8push_mut17h013619124ed5d51cE.exit50.i", %"_ZN5alloc3vec16Vec$LT$T$C$A$GT$8push_mut17h013619124ed5d51cE.exit64.i"
  %len.i65.i = phi i64 [ %39, %"_ZN5alloc3vec16Vec$LT$T$C$A$GT$8push_mut17h013619124ed5d51cE.exit64.i" ], [ %37, %"_ZN5alloc3vec16Vec$LT$T$C$A$GT$8push_mut17h013619124ed5d51cE.exit50.i" ]
  %iter.sroa.0.073.i = phi ptr [ %_57.i, %"_ZN5alloc3vec16Vec$LT$T$C$A$GT$8push_mut17h013619124ed5d51cE.exit64.i" ], [ %in_bytes.sroa.0.072, %"_ZN5alloc3vec16Vec$LT$T$C$A$GT$8push_mut17h013619124ed5d51cE.exit50.i" ]
    #dbg_value(ptr %iter.sroa.0.073.i, !2401, !DIExpression(DW_OP_LLVM_fragment, 0, 64), !2817)
  %_57.i = getelementptr inbounds nuw i8, ptr %iter.sroa.0.073.i, i64 1, !dbg !2821
    #dbg_value(ptr %_57.i, !2401, !DIExpression(DW_OP_LLVM_fragment, 0, 64), !2817)
  %c.i36 = load i8, ptr %iter.sroa.0.073.i, align 1, !dbg !2822, !alias.scope !2373, !noalias !2369, !noundef !19
    #dbg_value(i8 %c.i36, !2402, !DIExpression(), !2823)
    #dbg_value(i8 %c.i36, !2423, !DIExpression(), !2436)
  switch i8 %c.i36, label %bb9.i38 [
    i8 36, label %bb8.i37
    i8 96, label %bb8.i37
    i8 34, label %bb8.i37
    i8 92, label %bb8.i37
  ], !dbg !2824

bb16.i:                                           ; preds = %"_ZN5alloc3vec16Vec$LT$T$C$A$GT$8push_mut17h013619124ed5d51cE.exit64.i"
    #dbg_value(ptr %out, !2620, !DIExpression(), !2825)
    #dbg_value(ptr %out, !2646, !DIExpression(), !2827)
    #dbg_value(i8 34, !2621, !DIExpression(), !2825)
    #dbg_value(i64 %39, !2622, !DIExpression(), !2829)
    #dbg_value(i64 %39, !2652, !DIExpression(), !2830)
    #dbg_value(ptr %out, !2643, !DIExpression(), !2832)
    #dbg_value(ptr %out, !2635, !DIExpression(), !2834)
    #dbg_value(i64 1, !2636, !DIExpression(), !2834)
  %self3.i52.i = load i64, ptr %out, align 8, !dbg !2836, !range !327, !alias.scope !2837, !noalias !2840, !noundef !19
  %_4.i53.i = icmp eq i64 %39, %self3.i52.i, !dbg !2842
  br i1 %_4.i53.i, label %bb1.i56.i, label %"_ZN5alloc3vec16Vec$LT$T$C$A$GT$8push_mut17h013619124ed5d51cE.exit57.i", !dbg !2842

bb1.i56.i:                                        ; preds = %bb16.i
; invoke alloc::raw_vec::RawVec<T,A>::grow_one
  invoke void @"_ZN5alloc7raw_vec19RawVec$LT$T$C$A$GT$8grow_one17h3e6312be3fa2afbcE"(ptr noalias noundef nonnull align 8 dereferenceable(24) %out, ptr noalias noundef nonnull readonly align 8 captures(address, read_provenance) dereferenceable(24) @alloc_51b9d839c51a1261862ac96b657ddef2)
          to label %"_ZN5alloc3vec16Vec$LT$T$C$A$GT$8push_mut17h013619124ed5d51cE.exit57.i" unwind label %cleanup.loopexit.split-lp.loopexit, !dbg !2843

"_ZN5alloc3vec16Vec$LT$T$C$A$GT$8push_mut17h013619124ed5d51cE.exit57.i": ; preds = %bb1.i56.i, %bb16.i
  %_15.i54.i = load ptr, ptr %4, align 8, !dbg !2844, !alias.scope !2837, !noalias !2840, !nonnull !19, !noundef !19
    #dbg_value(ptr %_15.i54.i, !2655, !DIExpression(), !2830)
  %end.i55.i = getelementptr inbounds nuw i8, ptr %_15.i54.i, i64 %39, !dbg !2848
    #dbg_value(ptr %end.i55.i, !2624, !DIExpression(), !2849)
    #dbg_value(ptr %end.i55.i, !2671, !DIExpression(), !2850)
    #dbg_value(i8 34, !2676, !DIExpression(), !2850)
  store i8 34, ptr %end.i55.i, align 1, !dbg !2852, !noalias !2373
  %38 = add i64 %len.i58.i, 2, !dbg !2853
  br label %_ZN5shlex5bytes19append_quoted_chunk17h3bac3e6bb5739f4eE.exit, !dbg !2854

bb9.i38:                                          ; preds = %"_ZN5alloc3vec16Vec$LT$T$C$A$GT$8push_mut17h013619124ed5d51cE.exit71.i", %bb17.i35
  %len.i58.i = phi i64 [ %40, %"_ZN5alloc3vec16Vec$LT$T$C$A$GT$8push_mut17h013619124ed5d51cE.exit71.i" ], [ %len.i65.i, %bb17.i35 ], !dbg !2855
    #dbg_value(ptr %out, !2620, !DIExpression(), !2857)
    #dbg_value(ptr %out, !2646, !DIExpression(), !2858)
    #dbg_value(i8 %c.i36, !2621, !DIExpression(), !2857)
    #dbg_value(i64 %len.i58.i, !2622, !DIExpression(), !2860)
    #dbg_value(i64 %len.i58.i, !2652, !DIExpression(), !2861)
    #dbg_value(ptr %out, !2643, !DIExpression(), !2863)
    #dbg_value(ptr %out, !2635, !DIExpression(), !2865)
    #dbg_value(i64 1, !2636, !DIExpression(), !2865)
  %self3.i59.i = load i64, ptr %out, align 8, !dbg !2867, !range !327, !alias.scope !2868, !noalias !2871, !noundef !19
  %_4.i60.i = icmp eq i64 %len.i58.i, %self3.i59.i, !dbg !2873
  br i1 %_4.i60.i, label %bb1.i63.i, label %"_ZN5alloc3vec16Vec$LT$T$C$A$GT$8push_mut17h013619124ed5d51cE.exit64.i", !dbg !2873

bb1.i63.i:                                        ; preds = %bb9.i38
; invoke alloc::raw_vec::RawVec<T,A>::grow_one
  invoke void @"_ZN5alloc7raw_vec19RawVec$LT$T$C$A$GT$8grow_one17h3e6312be3fa2afbcE"(ptr noalias noundef nonnull align 8 dereferenceable(24) %out, ptr noalias noundef nonnull readonly align 8 captures(address, read_provenance) dereferenceable(24) @alloc_f151f67448ddd5a221f8aff63f6b3a3d)
          to label %"_ZN5alloc3vec16Vec$LT$T$C$A$GT$8push_mut17h013619124ed5d51cE.exit64.i" unwind label %cleanup.loopexit, !dbg !2874

"_ZN5alloc3vec16Vec$LT$T$C$A$GT$8push_mut17h013619124ed5d51cE.exit64.i": ; preds = %bb1.i63.i, %bb9.i38
  %_15.i61.i = load ptr, ptr %4, align 8, !dbg !2875, !alias.scope !2868, !noalias !2871, !nonnull !19, !noundef !19
    #dbg_value(ptr %_15.i61.i, !2655, !DIExpression(), !2861)
  %end.i62.i = getelementptr inbounds nuw i8, ptr %_15.i61.i, i64 %len.i58.i, !dbg !2879
    #dbg_value(ptr %end.i62.i, !2624, !DIExpression(), !2880)
    #dbg_value(ptr %end.i62.i, !2671, !DIExpression(), !2881)
    #dbg_value(i8 %c.i36, !2676, !DIExpression(), !2881)
  store i8 %c.i36, ptr %end.i62.i, align 1, !dbg !2883, !noalias !2373
  %39 = add i64 %len.i58.i, 1, !dbg !2884
  store i64 %39, ptr %5, align 8, !dbg !2884, !alias.scope !2868, !noalias !2871
    #dbg_value(ptr %_57.i, !2401, !DIExpression(DW_OP_LLVM_fragment, 0, 64), !2817)
    #dbg_value(ptr undef, !2385, !DIExpression(), !2405)
    #dbg_value(ptr %_57.i, !2386, !DIExpression(), !2818)
    #dbg_value(ptr %_57.i, !2441, !DIExpression(), !2442)
    #dbg_value(ptr %31, !2387, !DIExpression(), !2819)
    #dbg_value(ptr undef, !2378, !DIExpression(), !2379)
    #dbg_value(ptr undef, !2375, !DIExpression(), !2379)
  %_47.i = icmp eq ptr %_57.i, %31, !dbg !2885
  br i1 %_47.i, label %bb16.i, label %bb17.i35, !dbg !2820

bb8.i37:                                          ; preds = %bb17.i35, %bb17.i35, %bb17.i35, %bb17.i35
    #dbg_value(ptr %out, !2620, !DIExpression(), !2886)
    #dbg_value(ptr %out, !2646, !DIExpression(), !2888)
    #dbg_value(i8 92, !2621, !DIExpression(), !2886)
    #dbg_value(i64 %len.i65.i, !2622, !DIExpression(), !2890)
    #dbg_value(i64 %len.i65.i, !2652, !DIExpression(), !2891)
    #dbg_value(ptr %out, !2643, !DIExpression(), !2893)
    #dbg_value(ptr %out, !2635, !DIExpression(), !2895)
    #dbg_value(i64 1, !2636, !DIExpression(), !2895)
  %self3.i66.i = load i64, ptr %out, align 8, !dbg !2897, !range !327, !alias.scope !2898, !noalias !2901, !noundef !19
  %_4.i67.i = icmp eq i64 %len.i65.i, %self3.i66.i, !dbg !2903
  br i1 %_4.i67.i, label %bb1.i70.i, label %"_ZN5alloc3vec16Vec$LT$T$C$A$GT$8push_mut17h013619124ed5d51cE.exit71.i", !dbg !2903

bb1.i70.i:                                        ; preds = %bb8.i37
; invoke alloc::raw_vec::RawVec<T,A>::grow_one
  invoke void @"_ZN5alloc7raw_vec19RawVec$LT$T$C$A$GT$8grow_one17h3e6312be3fa2afbcE"(ptr noalias noundef nonnull align 8 dereferenceable(24) %out, ptr noalias noundef nonnull readonly align 8 captures(address, read_provenance) dereferenceable(24) @alloc_3139a9567ad6b467f454dc24fc65043e)
          to label %"_ZN5alloc3vec16Vec$LT$T$C$A$GT$8push_mut17h013619124ed5d51cE.exit71.i" unwind label %cleanup.loopexit, !dbg !2904

"_ZN5alloc3vec16Vec$LT$T$C$A$GT$8push_mut17h013619124ed5d51cE.exit71.i": ; preds = %bb1.i70.i, %bb8.i37
  %_15.i68.i = load ptr, ptr %4, align 8, !dbg !2905, !alias.scope !2898, !noalias !2901, !nonnull !19, !noundef !19
    #dbg_value(ptr %_15.i68.i, !2655, !DIExpression(), !2891)
  %end.i69.i = getelementptr inbounds nuw i8, ptr %_15.i68.i, i64 %len.i65.i, !dbg !2909
    #dbg_value(ptr %end.i69.i, !2624, !DIExpression(), !2910)
    #dbg_value(ptr %end.i69.i, !2671, !DIExpression(), !2911)
    #dbg_value(i8 92, !2676, !DIExpression(), !2911)
  store i8 92, ptr %end.i69.i, align 1, !dbg !2913, !noalias !2373
  %40 = add i64 %len.i65.i, 1, !dbg !2914
  store i64 %40, ptr %5, align 8, !dbg !2914, !alias.scope !2898, !noalias !2901
  br label %bb9.i38, !dbg !2915

_ZN5shlex5bytes19append_quoted_chunk17h3bac3e6bb5739f4eE.exit: ; preds = %"_ZN132_$LT$alloc..vec..Vec$LT$T$C$A$GT$$u20$as$u20$alloc..vec..spec_extend..SpecExtend$LT$$RF$T$C$core..slice..iter..Iter$LT$T$GT$$GT$$GT$11spec_extend17h63ac6d4465d4e6e7E.exit.i", %"_ZN5alloc3vec16Vec$LT$T$C$A$GT$8push_mut17h013619124ed5d51cE.exit37.i", %"_ZN5alloc3vec16Vec$LT$T$C$A$GT$8push_mut17h013619124ed5d51cE.exit57.i"
  %.sink = phi i64 [ %33, %"_ZN132_$LT$alloc..vec..Vec$LT$T$C$A$GT$$u20$as$u20$alloc..vec..spec_extend..SpecExtend$LT$$RF$T$C$core..slice..iter..Iter$LT$T$GT$$GT$$GT$11spec_extend17h63ac6d4465d4e6e7E.exit.i" ], [ %36, %"_ZN5alloc3vec16Vec$LT$T$C$A$GT$8push_mut17h013619124ed5d51cE.exit37.i" ], [ %38, %"_ZN5alloc3vec16Vec$LT$T$C$A$GT$8push_mut17h013619124ed5d51cE.exit57.i" ]
  store i64 %.sink, ptr %5, align 8, !dbg !2406, !alias.scope !2369, !noalias !2373
    #dbg_value(ptr %31, !1956, !DIExpression(DW_OP_LLVM_fragment, 0, 64), !2007)
    #dbg_value(i64 %32, !1956, !DIExpression(DW_OP_LLVM_fragment, 64, 64), !2007)
  %41 = icmp eq i64 %32, 0, !dbg !2191
  br i1 %41, label %bb9, label %bb10, !dbg !2191

bb24:                                             ; preds = %bb2.i.i.i4.i, %cleanup
  resume { ptr, i32 } %lpad.phi, !dbg !2916
}

; shlex::bytes::try_quote
; Function Attrs: nonlazybind uwtable
define void @_ZN5shlex5bytes9try_quote17h8bb28f5e7467d7c8E(ptr dead_on_unwind noalias noundef writable writeonly sret([24 x i8]) align 8 captures(none) dereferenceable(24) %_0, ptr noalias noundef nonnull readonly align 1 captures(address, read_provenance) %in_bytes.0, i64 noundef %in_bytes.1) unnamed_addr #2 !dbg !2917 {
start:
  %_3 = alloca [1 x i8], align 1
    #dbg_value(ptr %in_bytes.0, !2921, !DIExpression(DW_OP_LLVM_fragment, 0, 64), !2922)
    #dbg_value(i64 %in_bytes.1, !2921, !DIExpression(DW_OP_LLVM_fragment, 64, 64), !2922)
  call void @llvm.lifetime.start.p0(i64 1, ptr nonnull %_3), !dbg !2923
  store i8 0, ptr %_3, align 1, !dbg !2924
; call shlex::bytes::Quoter::quote
  call void @_ZN5shlex5bytes6Quoter5quote17h3b9f44e850740b23E(ptr noalias noundef nonnull sret([24 x i8]) align 8 captures(address) dereferenceable(24) %_0, ptr noalias noundef nonnull readonly align 1 captures(address, read_provenance) dereferenceable(1) %_3, ptr noalias noundef nonnull readonly align 1 captures(address, read_provenance) %in_bytes.0, i64 noundef %in_bytes.1), !dbg !2932
  call void @llvm.lifetime.end.p0(i64 1, ptr nonnull %_3), !dbg !2933
  ret void, !dbg !2934
}

; shlex::quote
; Function Attrs: nonlazybind uwtable
define void @_ZN5shlex5quote17h02e4d2afb381cb29E(ptr dead_on_unwind noalias noundef writable writeonly sret([24 x i8]) align 8 captures(none) dereferenceable(24) %_0, ptr noalias noundef nonnull readonly align 1 captures(address, read_provenance) %in_str.0, i64 noundef %in_str.1) unnamed_addr #2 personality ptr @rust_eh_personality !dbg !2935 {
start:
  %e.i = alloca [0 x i8], align 1
  %self1.i = alloca [24 x i8], align 8
  %_4 = alloca [1 x i8], align 1
    #dbg_value(ptr %in_str.0, !2952, !DIExpression(DW_OP_LLVM_fragment, 0, 64), !2953)
    #dbg_value(i64 %in_str.1, !2952, !DIExpression(DW_OP_LLVM_fragment, 64, 64), !2953)
    #dbg_value(i8 1, !2954, !DIExpression(), !2964)
  call void @llvm.lifetime.start.p0(i64 1, ptr nonnull %_4), !dbg !2966
    #dbg_value(i8 1, !2963, !DIExpression(), !2964)
  store i8 1, ptr %_4, align 1, !dbg !2967
    #dbg_value(ptr %_4, !2968, !DIExpression(), !3012)
    #dbg_value(ptr %in_str.0, !2990, !DIExpression(DW_OP_LLVM_fragment, 0, 64), !3012)
    #dbg_value(i64 %in_str.1, !2990, !DIExpression(DW_OP_LLVM_fragment, 64, 64), !3012)
    #dbg_declare(ptr %self1.i, !3014, !DIExpression(), !3039)
  call void @llvm.lifetime.start.p0(i64 24, ptr nonnull %self1.i), !dbg !3041, !noalias !3042
; call shlex::bytes::Quoter::quote
  call void @_ZN5shlex5bytes6Quoter5quote17h3b9f44e850740b23E(ptr noalias noundef nonnull sret([24 x i8]) align 8 captures(address) dereferenceable(24) %self1.i, ptr noalias noundef nonnull readonly align 1 captures(address, read_provenance) dereferenceable(1) %_4, ptr noalias noundef nonnull readonly align 1 captures(address, read_provenance) %in_str.0, i64 noundef %in_str.1), !dbg !3047, !noalias !3048
  %0 = load i64, ptr %self1.i, align 8, !dbg !3049, !range !1325, !noalias !3042, !noundef !19
  %1 = icmp eq i64 %0, -9223372036854775807, !dbg !3049
  br i1 %1, label %bb2.i, label %"_ZN4core6result19Result$LT$T$C$E$GT$6unwrap17h3f7a45ee776bc542E.exit", !dbg !3050

bb2.i:                                            ; preds = %start
  call void @llvm.lifetime.end.p0(i64 24, ptr nonnull %self1.i), !dbg !3051, !noalias !3042
    #dbg_value(i64 poison, !3052, !DIExpression(DW_OP_LLVM_fragment, 128, 64), !3062)
    #dbg_value(ptr poison, !3052, !DIExpression(DW_OP_LLVM_fragment, 64, 64), !3062)
    #dbg_value(i64 %0, !3052, !DIExpression(DW_OP_LLVM_fragment, 0, 64), !3062)
  call void @llvm.lifetime.start.p0(i64 0, ptr nonnull %e.i), !dbg !3064
    #dbg_declare(ptr %e.i, !3060, !DIExpression(), !3065)
; call core::result::unwrap_failed
  call void @_ZN4core6result13unwrap_failed17h5d9b16b0b732a2acE(ptr noalias noundef nonnull readonly align 1 captures(address, read_provenance) @alloc_00ae4b301f7fab8ac9617c03fcbd7274, i64 noundef 43, ptr noundef nonnull align 1 %e.i, ptr noalias noundef readonly align 8 captures(address, read_provenance) dereferenceable(32) @vtable.0, ptr noalias noundef readonly align 8 captures(address, read_provenance) dereferenceable(24) @alloc_ea8728dbeb13c4d23fa8f3cc9f72f102) #18, !dbg !3066, !noalias !3067
  unreachable

"_ZN4core6result19Result$LT$T$C$E$GT$6unwrap17h3f7a45ee776bc542E.exit": ; preds = %start
  %v.sroa.5.0.self1.sroa_idx.i = getelementptr inbounds nuw i8, ptr %self1.i, i64 8, !dbg !3071
  %v.sroa.5.0.copyload.i = load ptr, ptr %v.sroa.5.0.self1.sroa_idx.i, align 8, !dbg !3071, !noalias !3042
  %v.sroa.6.0.self1.sroa_idx.i = getelementptr inbounds nuw i8, ptr %self1.i, i64 16, !dbg !3071
  %v.sroa.6.0.copyload.i = load i64, ptr %v.sroa.6.0.self1.sroa_idx.i, align 8, !dbg !3071, !noalias !3042
  call void @llvm.lifetime.end.p0(i64 24, ptr nonnull %self1.i), !dbg !3051, !noalias !3042
    #dbg_value(i64 %v.sroa.6.0.copyload.i, !3052, !DIExpression(DW_OP_LLVM_fragment, 128, 64), !3062)
    #dbg_value(ptr %v.sroa.5.0.copyload.i, !3052, !DIExpression(DW_OP_LLVM_fragment, 64, 64), !3062)
    #dbg_value(i64 %0, !3052, !DIExpression(DW_OP_LLVM_fragment, 0, 64), !3062)
  tail call void @llvm.experimental.noalias.scope.decl(metadata !3072), !dbg !3073
  tail call void @llvm.experimental.noalias.scope.decl(metadata !3074), !dbg !3073
  call void @llvm.lifetime.start.p0(i64 0, ptr nonnull %e.i), !dbg !3064
    #dbg_declare(ptr %e.i, !3060, !DIExpression(), !3065)
  store i64 %0, ptr %_0, align 8, !dbg !3075, !alias.scope !3067
  %_2.sroa.5.0._0.sroa_idx = getelementptr inbounds nuw i8, ptr %_0, i64 8, !dbg !3075
  store ptr %v.sroa.5.0.copyload.i, ptr %_2.sroa.5.0._0.sroa_idx, align 8, !dbg !3075, !alias.scope !3067
  %_2.sroa.6.0._0.sroa_idx = getelementptr inbounds nuw i8, ptr %_0, i64 16, !dbg !3075
  store i64 %v.sroa.6.0.copyload.i, ptr %_2.sroa.6.0._0.sroa_idx, align 8, !dbg !3075, !alias.scope !3067
  call void @llvm.lifetime.end.p0(i64 0, ptr nonnull %e.i), !dbg !3076
  call void @llvm.lifetime.end.p0(i64 1, ptr nonnull %_4), !dbg !3077
  ret void, !dbg !3078
}

; shlex::split
; Function Attrs: nonlazybind uwtable
define void @_ZN5shlex5split17h35354f6ecf216621E(ptr dead_on_unwind noalias noundef writable writeonly sret([24 x i8]) align 8 captures(none) dereferenceable(24) %_0, ptr noalias noundef nonnull readonly align 1 captures(address, read_provenance) %in_str.0, i64 noundef %in_str.1) unnamed_addr #2 personality ptr @rust_eh_personality !dbg !3079 {
start:
  %self1.i.i.i.i.i.i.i.i = alloca [24 x i8], align 8
  %self1.i.i.i.i.i.i = alloca [24 x i8], align 8
  %vector.i.i.i.i = alloca [24 x i8], align 8
    #dbg_value(ptr poison, !178, !DIExpression(), !3102)
  %shl = alloca [32 x i8], align 8
    #dbg_value(ptr %in_str.0, !3094, !DIExpression(DW_OP_LLVM_fragment, 0, 64), !3104)
    #dbg_value(ptr %in_str.0, !3105, !DIExpression(DW_OP_LLVM_fragment, 0, 64), !3111)
    #dbg_value(i64 %in_str.1, !3094, !DIExpression(DW_OP_LLVM_fragment, 64, 64), !3104)
    #dbg_value(i64 %in_str.1, !3105, !DIExpression(DW_OP_LLVM_fragment, 64, 64), !3111)
    #dbg_declare(ptr %shl, !3095, !DIExpression(), !3113)
  call void @llvm.lifetime.start.p0(i64 32, ptr nonnull %shl), !dbg !3114
    #dbg_value(ptr %in_str.0, !3115, !DIExpression(DW_OP_LLVM_fragment, 0, 64), !3118)
    #dbg_value(ptr %in_str.0, !3120, !DIExpression(DW_OP_LLVM_fragment, 0, 64), !3123)
    #dbg_value(ptr %in_str.0, !3125, !DIExpression(DW_OP_LLVM_fragment, 0, 64), !3134)
    #dbg_value(i64 %in_str.1, !3115, !DIExpression(DW_OP_LLVM_fragment, 64, 64), !3118)
    #dbg_value(i64 %in_str.1, !3120, !DIExpression(DW_OP_LLVM_fragment, 64, 64), !3123)
    #dbg_value(i64 %in_str.1, !3125, !DIExpression(DW_OP_LLVM_fragment, 64, 64), !3134)
    #dbg_value(i64 %in_str.1, !3128, !DIExpression(), !3136)
    #dbg_value(i64 %in_str.1, !3137, !DIExpression(), !3141)
    #dbg_value(ptr %in_str.0, !3130, !DIExpression(), !3143)
    #dbg_value(ptr %in_str.0, !3140, !DIExpression(), !3141)
  %_14 = getelementptr inbounds nuw i8, ptr %in_str.0, i64 %in_str.1, !dbg !3144
  store ptr %in_str.0, ptr %shl, align 8, !dbg !3145
  %_8.sroa.4.0.shl.sroa_idx = getelementptr inbounds nuw i8, ptr %shl, i64 8, !dbg !3145
  store ptr %_14, ptr %_8.sroa.4.0.shl.sroa_idx, align 8, !dbg !3145
  %_8.sroa.5.0.shl.sroa_idx = getelementptr inbounds nuw i8, ptr %shl, i64 16, !dbg !3145
  store i64 1, ptr %_8.sroa.5.0.shl.sroa_idx, align 8, !dbg !3145
  %_8.sroa.6.0.shl.sroa_idx = getelementptr inbounds nuw i8, ptr %shl, i64 24, !dbg !3145
  store i8 0, ptr %_8.sroa.6.0.shl.sroa_idx, align 8, !dbg !3145
    #dbg_value(ptr %shl, !3146, !DIExpression(), !3160)
    #dbg_value(ptr %shl, !3162, !DIExpression(), !3169)
    #dbg_value(ptr %shl, !3171, !DIExpression(), !3174)
    #dbg_value(ptr %shl, !3176, !DIExpression(), !3189)
    #dbg_declare(ptr %vector.i.i.i.i, !3179, !DIExpression(), !3191)
    #dbg_declare(ptr poison, !3192, !DIExpression(), !3199)
    #dbg_declare(ptr poison, !3208, !DIExpression(), !3215)
  call void @llvm.lifetime.start.p0(i64 24, ptr nonnull %vector.i.i.i.i), !dbg !3217, !noalias !3218
    #dbg_value(ptr poison, !3231, !DIExpression(), !3250)
    #dbg_value(ptr %shl, !3252, !DIExpression(), !3258)
    #dbg_declare(ptr %self1.i.i.i.i.i.i, !3260, !DIExpression(), !3275)
    #dbg_declare(ptr poison, !3272, !DIExpression(), !3277)
  call void @llvm.lifetime.start.p0(i64 24, ptr nonnull %self1.i.i.i.i.i.i), !dbg !3278, !noalias !3279
; call <shlex::bytes::Shlex as core::iter::traits::iterator::Iterator>::next
  call void @"_ZN78_$LT$shlex..bytes..Shlex$u20$as$u20$core..iter..traits..iterator..Iterator$GT$4next17hf7fa350fff80e22aE"(ptr noalias noundef nonnull sret([24 x i8]) align 8 captures(address) dereferenceable(24) %self1.i.i.i.i.i.i, ptr noalias noundef nonnull align 8 dereferenceable(32) %shl), !dbg !3285, !noalias !3286
  %0 = load i64, ptr %self1.i.i.i.i.i.i, align 8, !dbg !3287, !range !652, !noalias !3279, !noundef !19
  %.not.i.i.i.i.i.i = icmp eq i64 %0, -9223372036854775808, !dbg !3287
  br i1 %.not.i.i.i.i.i.i, label %_ZN4core4iter6traits8iterator8Iterator7collect17h520c953deb7b7356E.exit.thread, label %"_ZN63_$LT$alloc..alloc..Global$u20$as$u20$core..alloc..Allocator$GT$8allocate17h383ac9545c81f9b4E.exit.i.i.i.i.i.i", !dbg !3288

cleanup3.i.i.i.i:                                 ; preds = %bb3.i.i.i.i.i
  %1 = landingpad { ptr, i32 }
          cleanup
    #dbg_value(ptr poison, !210, !DIExpression(), !3289)
    #dbg_value(ptr poison, !218, !DIExpression(), !3291)
    #dbg_value(ptr poison, !228, !DIExpression(), !3293)
    #dbg_value(ptr poison, !238, !DIExpression(), !3295)
    #dbg_value(ptr poison, !248, !DIExpression(), !3297)
    #dbg_value(i64 1, !264, !DIExpression(DW_OP_LLVM_fragment, 0, 64), !3297)
    #dbg_value(i64 1, !264, !DIExpression(DW_OP_LLVM_fragment, 64, 64), !3297)
    #dbg_value(i64 1, !270, !DIExpression(DW_OP_LLVM_fragment, 0, 64), !3299)
    #dbg_value(i64 1, !270, !DIExpression(DW_OP_LLVM_fragment, 64, 64), !3299)
    #dbg_value(ptr poison, !295, !DIExpression(), !3299)
  %2 = icmp eq i64 %0, 0, !dbg !3301
  br i1 %2, label %bb8.i.i.i.i, label %bb2.i.i.i4.i.i.i.i.i.i, !dbg !3301

bb2.i.i.i4.i.i.i.i.i.i:                           ; preds = %cleanup3.i.i.i.i
  %3 = icmp ne ptr %_3.sroa.7.sroa.0.0.copyload.i.i.i.i, null
  tail call void @llvm.assume(i1 %3)
    #dbg_value(ptr %_3.sroa.7.sroa.0.0.copyload.i.i.i.i, !265, !DIExpression(), !3302)
    #dbg_value(i64 1, !267, !DIExpression(DW_OP_LLVM_fragment, 0, 64), !3302)
    #dbg_value(i64 %0, !267, !DIExpression(DW_OP_LLVM_fragment, 64, 64), !3302)
    #dbg_value(i64 1, !304, !DIExpression(DW_OP_LLVM_fragment, 0, 64), !3303)
    #dbg_value(i64 %0, !304, !DIExpression(DW_OP_LLVM_fragment, 64, 64), !3303)
    #dbg_value(ptr poison, !312, !DIExpression(), !3303)
    #dbg_value(ptr %_3.sroa.7.sroa.0.0.copyload.i.i.i.i, !313, !DIExpression(), !3303)
    #dbg_value(ptr %_3.sroa.7.sroa.0.0.copyload.i.i.i.i, !316, !DIExpression(), !3305)
    #dbg_value(i64 1, !322, !DIExpression(DW_OP_LLVM_fragment, 0, 64), !3305)
    #dbg_value(i64 %0, !322, !DIExpression(DW_OP_LLVM_fragment, 64, 64), !3305)
; call __rustc::__rust_dealloc
  tail call void @_RNvCsj3IbkTTFM3W_7___rustc14___rust_dealloc(ptr noundef nonnull %_3.sroa.7.sroa.0.0.copyload.i.i.i.i, i64 noundef %0, i64 noundef range(i64 1, -9223372036854775807) 1) #17, !dbg !3307, !noalias !3218
  br label %bb8.i.i.i.i, !dbg !3308

"_ZN63_$LT$alloc..alloc..Global$u20$as$u20$core..alloc..Allocator$GT$8allocate17h383ac9545c81f9b4E.exit.i.i.i.i.i.i": ; preds = %start
  %_3.sroa.7.0.self1.i.i.sroa_idx.i.i.i.i = getelementptr inbounds nuw i8, ptr %self1.i.i.i.i.i.i, i64 8, !dbg !3309
  %_3.sroa.7.sroa.0.0.copyload.i.i.i.i = load ptr, ptr %_3.sroa.7.0.self1.i.i.sroa_idx.i.i.i.i, align 8, !dbg !3309, !noalias !3310
  %_3.sroa.7.sroa.5.0._3.sroa.7.0.self1.i.i.sroa_idx.sroa_idx.i.i.i.i = getelementptr inbounds nuw i8, ptr %self1.i.i.i.i.i.i, i64 16, !dbg !3309
  %_3.sroa.7.sroa.5.0.copyload.i.i.i.i = load i64, ptr %_3.sroa.7.sroa.5.0._3.sroa.7.0.self1.i.i.sroa_idx.sroa_idx.i.i.i.i, align 8, !dbg !3309, !noalias !3310
  call void @llvm.lifetime.end.p0(i64 24, ptr nonnull %self1.i.i.i.i.i.i), !dbg !3311, !noalias !3279
    #dbg_value(i64 %0, !3181, !DIExpression(DW_OP_LLVM_fragment, 0, 64), !3312)
    #dbg_value(ptr %_3.sroa.7.sroa.0.0.copyload.i.i.i.i, !3181, !DIExpression(DW_OP_LLVM_fragment, 64, 64), !3312)
    #dbg_value(i64 %_3.sroa.7.sroa.5.0.copyload.i.i.i.i, !3181, !DIExpression(DW_OP_LLVM_fragment, 128, 64), !3312)
    #dbg_value(i64 0, !3183, !DIExpression(), !3313)
    #dbg_value(i64 4, !3185, !DIExpression(), !3314)
    #dbg_value(i64 4, !3206, !DIExpression(), !3315)
    #dbg_value(i64 4, !3198, !DIExpression(), !3316)
    #dbg_value(i64 4, !3214, !DIExpression(), !3317)
    #dbg_value(i64 4, !1606, !DIExpression(), !3318)
    #dbg_declare(ptr poison, !1612, !DIExpression(), !3320)
    #dbg_value(i64 8, !1613, !DIExpression(DW_OP_LLVM_fragment, 0, 64), !3318)
    #dbg_value(i64 24, !1613, !DIExpression(DW_OP_LLVM_fragment, 64, 64), !3318)
    #dbg_value(i64 8, !1621, !DIExpression(DW_OP_LLVM_fragment, 0, 64), !3321)
    #dbg_value(i64 24, !1621, !DIExpression(DW_OP_LLVM_fragment, 64, 64), !3321)
    #dbg_value(i64 4, !1642, !DIExpression(), !3321)
    #dbg_value(i1 false, !1643, !DIExpression(DW_OP_LLVM_convert, 1, DW_ATE_unsigned, DW_OP_LLVM_convert, 8, DW_ATE_unsigned, DW_OP_stack_value), !3321)
    #dbg_declare(ptr poison, !1644, !DIExpression(), !3323)
    #dbg_value(i64 8, !1645, !DIExpression(DW_OP_LLVM_fragment, 0, 64), !3324)
    #dbg_value(i64 96, !1645, !DIExpression(DW_OP_LLVM_fragment, 64, 64), !3324)
    #dbg_value(ptr poison, !841, !DIExpression(), !3325)
    #dbg_value(i64 8, !846, !DIExpression(DW_OP_LLVM_fragment, 0, 64), !3325)
    #dbg_value(i64 96, !846, !DIExpression(DW_OP_LLVM_fragment, 64, 64), !3325)
    #dbg_value(i64 8, !747, !DIExpression(DW_OP_LLVM_fragment, 0, 64), !3327)
    #dbg_value(i64 96, !747, !DIExpression(DW_OP_LLVM_fragment, 64, 64), !3327)
    #dbg_value(ptr poison, !746, !DIExpression(), !3327)
    #dbg_value(i1 false, !748, !DIExpression(DW_OP_LLVM_convert, 1, DW_ATE_unsigned, DW_OP_LLVM_convert, 8, DW_ATE_unsigned, DW_OP_stack_value), !3327)
    #dbg_value(i64 96, !749, !DIExpression(), !3329)
    #dbg_value(i64 8, !784, !DIExpression(DW_OP_LLVM_fragment, 0, 64), !3330)
    #dbg_value(i64 96, !784, !DIExpression(DW_OP_LLVM_fragment, 64, 64), !3330)
; call __rustc::__rust_no_alloc_shim_is_unstable_v2
  tail call void @_RNvCsj3IbkTTFM3W_7___rustc35___rust_no_alloc_shim_is_unstable_v2() #17, !dbg !3332, !noalias !3333
; call __rustc::__rust_alloc
  %4 = tail call noundef align 8 dereferenceable_or_null(96) ptr @_RNvCsj3IbkTTFM3W_7___rustc12___rust_alloc(i64 noundef 96, i64 noundef range(i64 1, -9223372036854775807) 8) #17, !dbg !3336, !noalias !3333
    #dbg_value(i64 poison, !1649, !DIExpression(DW_OP_LLVM_fragment, 64, 64), !3337)
    #dbg_value(ptr %4, !1649, !DIExpression(DW_OP_LLVM_fragment, 0, 64), !3337)
  %5 = icmp eq ptr %4, null, !dbg !3338
  br i1 %5, label %bb3.i.i.i.i.i, label %bb15.i.i.i.i, !dbg !3339

bb3.i.i.i.i.i:                                    ; preds = %"_ZN63_$LT$alloc..alloc..Global$u20$as$u20$core..alloc..Allocator$GT$8allocate17h383ac9545c81f9b4E.exit.i.i.i.i.i.i"
    #dbg_value(i64 8, !1616, !DIExpression(DW_OP_LLVM_fragment, 0, 64), !3340)
    #dbg_value(i64 96, !1616, !DIExpression(DW_OP_LLVM_fragment, 64, 64), !3340)
; invoke alloc::raw_vec::handle_error
  invoke void @_ZN5alloc7raw_vec12handle_error17h44cc7051d170a168E(i64 noundef 8, i64 96, ptr noalias noundef readonly align 8 captures(address, read_provenance) dereferenceable(24) @alloc_0812e2023ea62627bf66418dfce20832) #18
          to label %.noexc.i.i.i.i unwind label %cleanup3.i.i.i.i, !dbg !3341, !noalias !3218

.noexc.i.i.i.i:                                   ; preds = %bb3.i.i.i.i.i
  unreachable, !dbg !3341

bb15.i.i.i.i:                                     ; preds = %"_ZN63_$LT$alloc..alloc..Global$u20$as$u20$core..alloc..Allocator$GT$8allocate17h383ac9545c81f9b4E.exit.i.i.i.i.i.i"
    #dbg_value(i64 4, !3187, !DIExpression(DW_OP_LLVM_fragment, 0, 64), !3342)
    #dbg_value(ptr %4, !3187, !DIExpression(DW_OP_LLVM_fragment, 64, 64), !3342)
    #dbg_value(i64 0, !3187, !DIExpression(DW_OP_LLVM_fragment, 128, 64), !3342)
    #dbg_value(ptr %4, !3343, !DIExpression(), !3349)
    #dbg_value(i64 %0, !3348, !DIExpression(DW_OP_LLVM_fragment, 0, 64), !3349)
    #dbg_value(ptr %_3.sroa.7.sroa.0.0.copyload.i.i.i.i, !3348, !DIExpression(DW_OP_LLVM_fragment, 64, 64), !3349)
    #dbg_value(i64 %_3.sroa.7.sroa.5.0.copyload.i.i.i.i, !3348, !DIExpression(DW_OP_LLVM_fragment, 128, 64), !3349)
  store i64 %0, ptr %4, align 8, !dbg !3351, !noalias !3218
  %src.sroa.4.0._28.1.sroa_idx.i.i.i.i = getelementptr inbounds nuw i8, ptr %4, i64 8, !dbg !3351
  store ptr %_3.sroa.7.sroa.0.0.copyload.i.i.i.i, ptr %src.sroa.4.0._28.1.sroa_idx.i.i.i.i, align 8, !dbg !3351, !noalias !3218
  %src.sroa.5.0._28.1.sroa_idx.i.i.i.i = getelementptr inbounds nuw i8, ptr %4, i64 16, !dbg !3351
  store i64 %_3.sroa.7.sroa.5.0.copyload.i.i.i.i, ptr %src.sroa.5.0._28.1.sroa_idx.i.i.i.i, align 8, !dbg !3351, !noalias !3218
    #dbg_value(i64 1, !3187, !DIExpression(DW_OP_LLVM_fragment, 128, 64), !3342)
  store i64 4, ptr %vector.i.i.i.i, align 8, !dbg !3352, !noalias !3218
  %vector1.sroa.4.0.vector.sroa_idx.i.i.i.i = getelementptr inbounds nuw i8, ptr %vector.i.i.i.i, i64 8, !dbg !3352
  store ptr %4, ptr %vector1.sroa.4.0.vector.sroa_idx.i.i.i.i, align 8, !dbg !3352, !noalias !3218
  %vector1.sroa.6.0.vector.sroa_idx.i.i.i.i = getelementptr inbounds nuw i8, ptr %vector.i.i.i.i, i64 16, !dbg !3352
  store i64 1, ptr %vector1.sroa.6.0.vector.sroa_idx.i.i.i.i, align 8, !dbg !3352, !noalias !3218
  tail call void @llvm.experimental.noalias.scope.decl(metadata !3353), !dbg !3356
    #dbg_value(ptr %vector.i.i.i.i, !3357, !DIExpression(), !3364)
    #dbg_value(ptr %shl, !3362, !DIExpression(), !3364)
  tail call void @llvm.experimental.noalias.scope.decl(metadata !3366), !dbg !3369
    #dbg_value(ptr %shl, !3370, !DIExpression(), !3382)
    #dbg_value(ptr %vector.i.i.i.i, !3375, !DIExpression(), !3382)
    #dbg_value(ptr %vector.i.i.i.i, !3384, !DIExpression(), !3391)
    #dbg_value(ptr %vector.i.i.i.i, !3393, !DIExpression(), !3397)
    #dbg_value(ptr %vector.i.i.i.i, !3399, !DIExpression(), !3405)
    #dbg_value(ptr %vector.i.i.i.i, !3407, !DIExpression(), !3414)
    #dbg_value(ptr %vector.i.i.i.i, !3393, !DIExpression(), !3416)
  %_3.sroa.7.0.self1.i.i.sroa_idx.i.i.i.i.i.i = getelementptr inbounds nuw i8, ptr %self1.i.i.i.i.i.i.i.i, i64 8
  %_3.sroa.7.sroa.5.0._3.sroa.7.0.self1.i.i.sroa_idx.sroa_idx.i.i.i.i.i.i = getelementptr inbounds nuw i8, ptr %self1.i.i.i.i.i.i.i.i, i64 16
  br label %bb1.i.i.i.i.i.i, !dbg !3418

bb1.i.i.i.i.i.i:                                  ; preds = %bb8.i.i.i.i.i.i, %bb15.i.i.i.i
  %_24.i.i9.i.i.i.i = phi ptr [ %_24.i.i.i.i.i.i, %bb8.i.i.i.i.i.i ], [ %4, %bb15.i.i.i.i ]
  %res.sroa.8.0.copyload5 = phi i64 [ %new_len.i.i.i.i.i.i, %bb8.i.i.i.i.i.i ], [ 1, %bb15.i.i.i.i ]
    #dbg_value(ptr poison, !3231, !DIExpression(), !3419)
    #dbg_value(ptr %shl, !3252, !DIExpression(), !3421)
    #dbg_declare(ptr %self1.i.i.i.i.i.i.i.i, !3260, !DIExpression(), !3423)
    #dbg_declare(ptr poison, !3272, !DIExpression(), !3425)
  call void @llvm.lifetime.start.p0(i64 24, ptr nonnull %self1.i.i.i.i.i.i.i.i), !dbg !3426, !noalias !3427
; invoke <shlex::bytes::Shlex as core::iter::traits::iterator::Iterator>::next
  invoke void @"_ZN78_$LT$shlex..bytes..Shlex$u20$as$u20$core..iter..traits..iterator..Iterator$GT$4next17hf7fa350fff80e22aE"(ptr noalias noundef nonnull sret([24 x i8]) align 8 captures(address) dereferenceable(24) %self1.i.i.i.i.i.i.i.i, ptr noalias noundef nonnull align 8 dereferenceable(32) %shl)
          to label %.noexc9.i.i.i.i unwind label %cleanup5.i.i.i.i, !dbg !3435, !noalias !3436

.noexc9.i.i.i.i:                                  ; preds = %bb1.i.i.i.i.i.i
  %6 = load i64, ptr %self1.i.i.i.i.i.i.i.i, align 8, !dbg !3437, !range !652, !noalias !3427, !noundef !19
  %.not.i.i.i.i.i.i.i.i = icmp eq i64 %6, -9223372036854775808, !dbg !3437
  br i1 %.not.i.i.i.i.i.i.i.i, label %_ZN4core4iter6traits8iterator8Iterator7collect17h520c953deb7b7356E.exit, label %bb3.i.i.i.i.i.i, !dbg !3438

bb3.i.i.i.i.i.i:                                  ; preds = %.noexc9.i.i.i.i
  %_3.sroa.7.sroa.0.0.copyload.i.i.i.i.i.i = load ptr, ptr %_3.sroa.7.0.self1.i.i.sroa_idx.i.i.i.i.i.i, align 8, !dbg !3439, !noalias !3440
  %_3.sroa.7.sroa.5.0.copyload.i.i.i.i.i.i = load i64, ptr %_3.sroa.7.sroa.5.0._3.sroa.7.0.self1.i.i.sroa_idx.sroa_idx.i.i.i.i.i.i, align 8, !dbg !3439, !noalias !3440
  call void @llvm.lifetime.end.p0(i64 24, ptr nonnull %self1.i.i.i.i.i.i.i.i), !dbg !3441, !noalias !3427
    #dbg_value(i64 %6, !3376, !DIExpression(DW_OP_LLVM_fragment, 0, 64), !3442)
    #dbg_value(ptr %_3.sroa.7.sroa.0.0.copyload.i.i.i.i.i.i, !3376, !DIExpression(DW_OP_LLVM_fragment, 64, 64), !3442)
    #dbg_value(i64 %_3.sroa.7.sroa.5.0.copyload.i.i.i.i.i.i, !3376, !DIExpression(DW_OP_LLVM_fragment, 128, 64), !3442)
    #dbg_value(i64 %res.sroa.8.0.copyload5, !3378, !DIExpression(), !3443)
    #dbg_value(i64 %res.sroa.8.0.copyload5, !3444, !DIExpression(), !3450)
  %_19.i.i.i.i.i.i = icmp samesign ult i64 %res.sroa.8.0.copyload5, 384307168202282326, !dbg !3452
  tail call void @llvm.assume(i1 %_19.i.i.i.i.i.i), !dbg !3453
    #dbg_value(ptr %vector.i.i.i.i, !3454, !DIExpression(), !3461)
    #dbg_value(ptr %vector.i.i.i.i, !3463, !DIExpression(), !3467)
    #dbg_value(i64 24, !3466, !DIExpression(), !3467)
    #dbg_value(i64 24, !3466, !DIExpression(), !3469)
  %self3.i.i.i.i.i.i = load i64, ptr %vector.i.i.i.i, align 8, !dbg !3474, !range !327, !alias.scope !3475, !noalias !3476, !noundef !19
  %_8.i.i.i.i.i.i = icmp eq i64 %res.sroa.8.0.copyload5, %self3.i.i.i.i.i.i, !dbg !3477
  br i1 %_8.i.i.i.i.i.i, label %bb1.i.i.i.i.i.i.i, label %bb8.i.i.i.i.i.i, !dbg !3477

bb8.i.i.i.i.i.i:                                  ; preds = %bb1.i.i.i.bb8.i.i_crit_edge.i.i.i.i, %bb3.i.i.i.i.i.i
  %_24.i.i.i.i.i.i = phi ptr [ %_24.i.i.pre.i.i.i.i, %bb1.i.i.i.bb8.i.i_crit_edge.i.i.i.i ], [ %_24.i.i9.i.i.i.i, %bb3.i.i.i.i.i.i ], !dbg !3478
    #dbg_value(ptr %_24.i.i.i.i.i.i, !3449, !DIExpression(), !3450)
  %dst.i.i.i.i.i.i = getelementptr inbounds nuw %"alloc::string::String", ptr %_24.i.i.i.i.i.i, i64 %res.sroa.8.0.copyload5, !dbg !3499
    #dbg_value(ptr %dst.i.i.i.i.i.i, !3500, !DIExpression(), !3504)
    #dbg_value(i64 %6, !3503, !DIExpression(DW_OP_LLVM_fragment, 0, 64), !3504)
    #dbg_value(ptr %_3.sroa.7.sroa.0.0.copyload.i.i.i.i.i.i, !3503, !DIExpression(DW_OP_LLVM_fragment, 64, 64), !3504)
    #dbg_value(i64 %_3.sroa.7.sroa.5.0.copyload.i.i.i.i.i.i, !3503, !DIExpression(DW_OP_LLVM_fragment, 128, 64), !3504)
  store i64 %6, ptr %dst.i.i.i.i.i.i, align 8, !dbg !3506, !noalias !3507
  %src.sroa.4.0.dst.sroa_idx.i.i.i.i.i.i = getelementptr inbounds nuw i8, ptr %dst.i.i.i.i.i.i, i64 8, !dbg !3506
  store ptr %_3.sroa.7.sroa.0.0.copyload.i.i.i.i.i.i, ptr %src.sroa.4.0.dst.sroa_idx.i.i.i.i.i.i, align 8, !dbg !3506, !noalias !3507
  %src.sroa.5.0.dst.sroa_idx.i.i.i.i.i.i = getelementptr inbounds nuw i8, ptr %dst.i.i.i.i.i.i, i64 16, !dbg !3506
  store i64 %_3.sroa.7.sroa.5.0.copyload.i.i.i.i.i.i, ptr %src.sroa.5.0.dst.sroa_idx.i.i.i.i.i.i, align 8, !dbg !3506, !noalias !3507
  %new_len.i.i.i.i.i.i = add nuw nsw i64 %res.sroa.8.0.copyload5, 1, !dbg !3508
    #dbg_value(i64 %new_len.i.i.i.i.i.i, !3413, !DIExpression(), !3414)
  store i64 %new_len.i.i.i.i.i.i, ptr %vector1.sroa.6.0.vector.sroa_idx.i.i.i.i, align 8, !dbg !3509, !alias.scope !3475, !noalias !3476
  br label %bb1.i.i.i.i.i.i, !dbg !3418

cleanup5.i.i.i.i.i.i:                             ; preds = %bb1.i.i.i.i.i.i.i
  %7 = landingpad { ptr, i32 }
          cleanup
    #dbg_value(ptr poison, !210, !DIExpression(), !3510)
    #dbg_value(ptr poison, !218, !DIExpression(), !3512)
    #dbg_value(ptr poison, !228, !DIExpression(), !3514)
    #dbg_value(ptr poison, !238, !DIExpression(), !3516)
    #dbg_value(ptr poison, !248, !DIExpression(), !3518)
    #dbg_value(i64 1, !264, !DIExpression(DW_OP_LLVM_fragment, 0, 64), !3518)
    #dbg_value(i64 1, !264, !DIExpression(DW_OP_LLVM_fragment, 64, 64), !3518)
    #dbg_value(i64 1, !270, !DIExpression(DW_OP_LLVM_fragment, 0, 64), !3520)
    #dbg_value(i64 1, !270, !DIExpression(DW_OP_LLVM_fragment, 64, 64), !3520)
    #dbg_value(ptr poison, !295, !DIExpression(), !3520)
  %8 = icmp eq i64 %6, 0, !dbg !3522
  br i1 %8, label %cleanup5.body.i.i.i.i, label %bb2.i.i.i4.i.i.i.i.i.i.i.i, !dbg !3522

bb2.i.i.i4.i.i.i.i.i.i.i.i:                       ; preds = %cleanup5.i.i.i.i.i.i
  %9 = icmp ne ptr %_3.sroa.7.sroa.0.0.copyload.i.i.i.i.i.i, null
  tail call void @llvm.assume(i1 %9)
    #dbg_value(ptr %_3.sroa.7.sroa.0.0.copyload.i.i.i.i.i.i, !265, !DIExpression(), !3523)
    #dbg_value(i64 1, !267, !DIExpression(DW_OP_LLVM_fragment, 0, 64), !3523)
    #dbg_value(i64 %6, !267, !DIExpression(DW_OP_LLVM_fragment, 64, 64), !3523)
    #dbg_value(i64 1, !304, !DIExpression(DW_OP_LLVM_fragment, 0, 64), !3524)
    #dbg_value(i64 %6, !304, !DIExpression(DW_OP_LLVM_fragment, 64, 64), !3524)
    #dbg_value(ptr poison, !312, !DIExpression(), !3524)
    #dbg_value(ptr %_3.sroa.7.sroa.0.0.copyload.i.i.i.i.i.i, !313, !DIExpression(), !3524)
    #dbg_value(ptr %_3.sroa.7.sroa.0.0.copyload.i.i.i.i.i.i, !316, !DIExpression(), !3526)
    #dbg_value(i64 1, !322, !DIExpression(DW_OP_LLVM_fragment, 0, 64), !3526)
    #dbg_value(i64 %6, !322, !DIExpression(DW_OP_LLVM_fragment, 64, 64), !3526)
; call __rustc::__rust_dealloc
  tail call void @_RNvCsj3IbkTTFM3W_7___rustc14___rust_dealloc(ptr noundef nonnull %_3.sroa.7.sroa.0.0.copyload.i.i.i.i.i.i, i64 noundef %6, i64 noundef range(i64 1, -9223372036854775807) 1) #17, !dbg !3528, !noalias !3507
  br label %cleanup5.body.i.i.i.i, !dbg !3529

bb1.i.i.i.i.i.i.i:                                ; preds = %bb3.i.i.i.i.i.i
    #dbg_value(i64 0, !3380, !DIExpression(), !3530)
    #dbg_value(ptr %vector.i.i.i.i, !3531, !DIExpression(), !3538)
    #dbg_value(i64 1, !3537, !DIExpression(), !3538)
    #dbg_value(i64 1, !3540, !DIExpression(), !3548)
    #dbg_value(i64 1, !3550, !DIExpression(), !3556)
    #dbg_value(ptr %vector.i.i.i.i, !3546, !DIExpression(), !3548)
    #dbg_value(i64 %res.sroa.8.0.copyload5, !3547, !DIExpression(), !3548)
    #dbg_value(i64 %res.sroa.8.0.copyload5, !3554, !DIExpression(), !3556)
    #dbg_value(ptr %vector.i.i.i.i, !3553, !DIExpression(), !3556)
    #dbg_value(i64 8, !3555, !DIExpression(DW_OP_LLVM_fragment, 0, 64), !3556)
    #dbg_value(i64 24, !3555, !DIExpression(DW_OP_LLVM_fragment, 64, 64), !3556)
; invoke alloc::raw_vec::RawVecInner<A>::reserve::do_reserve_and_handle
  invoke fastcc void @"_ZN5alloc7raw_vec20RawVecInner$LT$A$GT$7reserve21do_reserve_and_handle17h0218d577ac94f8e8E"(ptr noalias noundef nonnull align 8 dereferenceable(24) %vector.i.i.i.i, i64 noundef %res.sroa.8.0.copyload5, i64 noundef range(i64 1, 0) 1, i64 noundef 8, i64 noundef 24)
          to label %bb1.i.i.i.bb8.i.i_crit_edge.i.i.i.i unwind label %cleanup5.i.i.i.i.i.i, !dbg !3558, !noalias !3476

bb1.i.i.i.bb8.i.i_crit_edge.i.i.i.i:              ; preds = %bb1.i.i.i.i.i.i.i
  %_24.i.i.pre.i.i.i.i = load ptr, ptr %vector1.sroa.4.0.vector.sroa_idx.i.i.i.i, align 8, !dbg !3478, !alias.scope !3475, !noalias !3476
  br label %bb8.i.i.i.i.i.i, !dbg !3558

cleanup5.i.i.i.i:                                 ; preds = %bb1.i.i.i.i.i.i
  %10 = landingpad { ptr, i32 }
          cleanup
  br label %cleanup5.body.i.i.i.i, !dbg !3559

cleanup5.body.i.i.i.i:                            ; preds = %cleanup5.i.i.i.i, %bb2.i.i.i4.i.i.i.i.i.i.i.i, %cleanup5.i.i.i.i.i.i
  %eh.lpad-body.i.i.i.i = phi { ptr, i32 } [ %10, %cleanup5.i.i.i.i ], [ %7, %bb2.i.i.i4.i.i.i.i.i.i.i.i ], [ %7, %cleanup5.i.i.i.i.i.i ]
; call core::ptr::drop_in_place<alloc::vec::Vec<alloc::string::String>>
  call fastcc void @"_ZN4core3ptr65drop_in_place$LT$alloc..vec..Vec$LT$alloc..string..String$GT$$GT$17h6789dda638ad4a02E"(ptr noalias noundef align 8 dereferenceable(24) %vector.i.i.i.i) #19, !dbg !3559, !noalias !3218
  br label %bb8.i.i.i.i, !dbg !3559

bb8.i.i.i.i:                                      ; preds = %cleanup5.body.i.i.i.i, %bb2.i.i.i4.i.i.i.i.i.i, %cleanup3.i.i.i.i
  %.pn.i.i.i.i = phi { ptr, i32 } [ %eh.lpad-body.i.i.i.i, %cleanup5.body.i.i.i.i ], [ %1, %cleanup3.i.i.i.i ], [ %1, %bb2.i.i.i4.i.i.i.i.i.i ]
  resume { ptr, i32 } %.pn.i.i.i.i, !dbg !3560

_ZN4core4iter6traits8iterator8Iterator7collect17h520c953deb7b7356E.exit: ; preds = %.noexc9.i.i.i.i
  call void @llvm.lifetime.end.p0(i64 24, ptr nonnull %self1.i.i.i.i.i.i.i.i), !dbg !3441, !noalias !3427
  %res.sroa.0.0.copyload3 = load i64, ptr %vector.i.i.i.i, align 8, !dbg !3561, !noalias !3562
    #dbg_value(i64 %res.sroa.0.0.copyload3, !3100, !DIExpression(DW_OP_LLVM_fragment, 0, 64), !3563)
  %res.sroa.6.0.copyload4 = load ptr, ptr %vector1.sroa.4.0.vector.sroa_idx.i.i.i.i, align 8, !dbg !3561, !noalias !3562
    #dbg_value(ptr %res.sroa.6.0.copyload4, !3100, !DIExpression(DW_OP_LLVM_fragment, 64, 64), !3563)
    #dbg_value(i64 %res.sroa.8.0.copyload5, !3100, !DIExpression(DW_OP_LLVM_fragment, 128, 64), !3563)
  call void @llvm.lifetime.end.p0(i64 24, ptr nonnull %vector.i.i.i.i), !dbg !3559, !noalias !3218
  %11 = load i8, ptr %_8.sroa.6.0.shl.sroa_idx, align 8, !dbg !3564, !range !1893, !noundef !19
  %_5 = trunc nuw i8 %11 to i1, !dbg !3564
  br i1 %_5, label %bb5.i.i.i.preheader, label %bb3, !dbg !3564

_ZN4core4iter6traits8iterator8Iterator7collect17h520c953deb7b7356E.exit.thread: ; preds = %start
  call void @llvm.lifetime.end.p0(i64 24, ptr nonnull %self1.i.i.i.i.i.i), !dbg !3311, !noalias !3279
    #dbg_value(i64 0, !3100, !DIExpression(DW_OP_LLVM_fragment, 0, 64), !3563)
    #dbg_value(ptr inttoptr (i64 8 to ptr), !3100, !DIExpression(DW_OP_LLVM_fragment, 64, 64), !3563)
    #dbg_value(i64 0, !3100, !DIExpression(DW_OP_LLVM_fragment, 128, 64), !3563)
  call void @llvm.lifetime.end.p0(i64 24, ptr nonnull %vector.i.i.i.i), !dbg !3559, !noalias !3218
  %12 = load i8, ptr %_8.sroa.6.0.shl.sroa_idx, align 8, !dbg !3564, !range !1893, !noundef !19
  %_59 = trunc nuw i8 %12 to i1, !dbg !3564
  br i1 %_59, label %bb4.i.thread, label %bb3, !dbg !3564

bb4.i.thread:                                     ; preds = %_ZN4core4iter6traits8iterator8Iterator7collect17h520c953deb7b7356E.exit.thread
  store i64 -9223372036854775808, ptr %_0, align 8, !dbg !3565
    #dbg_value(ptr undef, !178, !DIExpression(), !3102)
    #dbg_value(ptr poison, !183, !DIExpression(), !3566)
    #dbg_value(ptr inttoptr (i64 8 to ptr), !197, !DIExpression(DW_OP_LLVM_fragment, 0, 64), !3568)
    #dbg_value(i64 0, !197, !DIExpression(DW_OP_LLVM_fragment, 64, 64), !3568)
    #dbg_value(ptr poison, !328, !DIExpression(), !3570)
    #dbg_value(ptr poison, !338, !DIExpression(), !3572)
    #dbg_value(ptr poison, !248, !DIExpression(), !3574)
    #dbg_value(i64 8, !264, !DIExpression(DW_OP_LLVM_fragment, 0, 64), !3574)
    #dbg_value(i64 24, !264, !DIExpression(DW_OP_LLVM_fragment, 64, 64), !3574)
    #dbg_value(i64 8, !270, !DIExpression(DW_OP_LLVM_fragment, 0, 64), !3576)
    #dbg_value(i64 24, !270, !DIExpression(DW_OP_LLVM_fragment, 64, 64), !3576)
    #dbg_value(ptr poison, !295, !DIExpression(), !3576)
    #dbg_value(i64 24, !350, !DIExpression(), !3578)
  br label %bb4, !dbg !3580

bb3:                                              ; preds = %_ZN4core4iter6traits8iterator8Iterator7collect17h520c953deb7b7356E.exit.thread, %_ZN4core4iter6traits8iterator8Iterator7collect17h520c953deb7b7356E.exit
  %res.sroa.0.015 = phi i64 [ 0, %_ZN4core4iter6traits8iterator8Iterator7collect17h520c953deb7b7356E.exit.thread ], [ %res.sroa.0.0.copyload3, %_ZN4core4iter6traits8iterator8Iterator7collect17h520c953deb7b7356E.exit ]
  %res.sroa.6.013 = phi ptr [ inttoptr (i64 8 to ptr), %_ZN4core4iter6traits8iterator8Iterator7collect17h520c953deb7b7356E.exit.thread ], [ %res.sroa.6.0.copyload4, %_ZN4core4iter6traits8iterator8Iterator7collect17h520c953deb7b7356E.exit ]
  %res.sroa.8.011 = phi i64 [ 0, %_ZN4core4iter6traits8iterator8Iterator7collect17h520c953deb7b7356E.exit.thread ], [ %res.sroa.8.0.copyload5, %_ZN4core4iter6traits8iterator8Iterator7collect17h520c953deb7b7356E.exit ]
  store i64 %res.sroa.0.015, ptr %_0, align 8, !dbg !3581
  %_7.sroa.4.0._0.sroa_idx = getelementptr inbounds nuw i8, ptr %_0, i64 8, !dbg !3581
  store ptr %res.sroa.6.013, ptr %_7.sroa.4.0._0.sroa_idx, align 8, !dbg !3581
  %_7.sroa.5.0._0.sroa_idx = getelementptr inbounds nuw i8, ptr %_0, i64 16, !dbg !3581
  store i64 %res.sroa.8.011, ptr %_7.sroa.5.0._0.sroa_idx, align 8, !dbg !3581
  br label %bb4, !dbg !3582

bb5.i.i.i.preheader:                              ; preds = %_ZN4core4iter6traits8iterator8Iterator7collect17h520c953deb7b7356E.exit
  store i64 -9223372036854775808, ptr %_0, align 8, !dbg !3565
    #dbg_value(ptr undef, !178, !DIExpression(), !3102)
    #dbg_value(ptr poison, !183, !DIExpression(), !3566)
  tail call void @llvm.experimental.noalias.scope.decl(metadata !3583), !dbg !3586
    #dbg_value(ptr %res.sroa.6.0.copyload4, !197, !DIExpression(DW_OP_LLVM_fragment, 0, 64), !3568)
    #dbg_value(i64 %res.sroa.8.0.copyload5, !197, !DIExpression(DW_OP_LLVM_fragment, 64, 64), !3568)
  br label %bb5.i.i.i, !dbg !3587

bb5.i.i.i:                                        ; preds = %bb5.i.i.i.preheader, %"_ZN4core3ptr42drop_in_place$LT$alloc..string..String$GT$17hcc95db1cc3db3ae3E.exit.i.i.i"
  %_3.sroa.0.011.i.i.i = phi i64 [ %13, %"_ZN4core3ptr42drop_in_place$LT$alloc..string..String$GT$17hcc95db1cc3db3ae3E.exit.i.i.i" ], [ 0, %bb5.i.i.i.preheader ]
  %_6.i.i.i = getelementptr inbounds nuw %"alloc::string::String", ptr %res.sroa.6.0.copyload4, i64 %_3.sroa.0.011.i.i.i, !dbg !3594
  %13 = add nuw i64 %_3.sroa.0.011.i.i.i, 1, !dbg !3594
  %_6.val.i.i.i = load i64, ptr %_6.i.i.i, align 8, !dbg !3594, !alias.scope !3583, !noalias !3595
    #dbg_value(ptr poison, !210, !DIExpression(), !3598)
    #dbg_value(ptr poison, !218, !DIExpression(), !3599)
    #dbg_value(ptr poison, !228, !DIExpression(), !3600)
    #dbg_value(ptr poison, !238, !DIExpression(), !3601)
    #dbg_value(ptr poison, !248, !DIExpression(), !3602)
    #dbg_value(i64 1, !264, !DIExpression(DW_OP_LLVM_fragment, 0, 64), !3602)
    #dbg_value(i64 1, !264, !DIExpression(DW_OP_LLVM_fragment, 64, 64), !3602)
    #dbg_value(i64 1, !270, !DIExpression(DW_OP_LLVM_fragment, 0, 64), !3603)
    #dbg_value(i64 1, !270, !DIExpression(DW_OP_LLVM_fragment, 64, 64), !3603)
    #dbg_value(ptr poison, !295, !DIExpression(), !3603)
  %14 = icmp eq i64 %_6.val.i.i.i, 0, !dbg !3587
  br i1 %14, label %"_ZN4core3ptr42drop_in_place$LT$alloc..string..String$GT$17hcc95db1cc3db3ae3E.exit.i.i.i", label %bb2.i.i.i4.i.i.i.i.i, !dbg !3587

bb2.i.i.i4.i.i.i.i.i:                             ; preds = %bb5.i.i.i
  %15 = getelementptr i8, ptr %_6.i.i.i, i64 8, !dbg !3594
  %_6.val7.i.i.i = load ptr, ptr %15, align 8, !dbg !3594, !alias.scope !3583, !noalias !3595, !nonnull !19, !noundef !19
    #dbg_value(ptr %_6.val7.i.i.i, !265, !DIExpression(), !3604)
    #dbg_value(i64 1, !267, !DIExpression(DW_OP_LLVM_fragment, 0, 64), !3604)
    #dbg_value(i64 %_6.val.i.i.i, !267, !DIExpression(DW_OP_LLVM_fragment, 64, 64), !3604)
    #dbg_value(i64 1, !304, !DIExpression(DW_OP_LLVM_fragment, 0, 64), !3605)
    #dbg_value(i64 %_6.val.i.i.i, !304, !DIExpression(DW_OP_LLVM_fragment, 64, 64), !3605)
    #dbg_value(ptr poison, !312, !DIExpression(), !3605)
    #dbg_value(ptr %_6.val7.i.i.i, !313, !DIExpression(), !3605)
    #dbg_value(ptr %_6.val7.i.i.i, !316, !DIExpression(), !3607)
    #dbg_value(i64 1, !322, !DIExpression(DW_OP_LLVM_fragment, 0, 64), !3607)
    #dbg_value(i64 %_6.val.i.i.i, !322, !DIExpression(DW_OP_LLVM_fragment, 64, 64), !3607)
; call __rustc::__rust_dealloc
  tail call void @_RNvCsj3IbkTTFM3W_7___rustc14___rust_dealloc(ptr noundef nonnull %_6.val7.i.i.i, i64 noundef %_6.val.i.i.i, i64 noundef range(i64 1, -9223372036854775807) 1) #17, !dbg !3609, !noalias !3610
  br label %"_ZN4core3ptr42drop_in_place$LT$alloc..string..String$GT$17hcc95db1cc3db3ae3E.exit.i.i.i", !dbg !3611

"_ZN4core3ptr42drop_in_place$LT$alloc..string..String$GT$17hcc95db1cc3db3ae3E.exit.i.i.i": ; preds = %bb2.i.i.i4.i.i.i.i.i, %bb5.i.i.i
  %_7.i.i.i = icmp eq i64 %13, %res.sroa.8.0.copyload5, !dbg !3594
  br i1 %_7.i.i.i, label %bb4.i, label %bb5.i.i.i, !dbg !3594

bb4.i:                                            ; preds = %"_ZN4core3ptr42drop_in_place$LT$alloc..string..String$GT$17hcc95db1cc3db3ae3E.exit.i.i.i"
    #dbg_value(ptr poison, !328, !DIExpression(), !3570)
    #dbg_value(ptr poison, !338, !DIExpression(), !3572)
    #dbg_value(ptr poison, !248, !DIExpression(), !3574)
    #dbg_value(i64 8, !264, !DIExpression(DW_OP_LLVM_fragment, 0, 64), !3574)
    #dbg_value(i64 24, !264, !DIExpression(DW_OP_LLVM_fragment, 64, 64), !3574)
    #dbg_value(i64 8, !270, !DIExpression(DW_OP_LLVM_fragment, 0, 64), !3576)
    #dbg_value(i64 24, !270, !DIExpression(DW_OP_LLVM_fragment, 64, 64), !3576)
    #dbg_value(ptr poison, !295, !DIExpression(), !3576)
    #dbg_value(i64 24, !350, !DIExpression(), !3578)
  %16 = icmp eq i64 %res.sroa.0.0.copyload3, 0, !dbg !3580
  br i1 %16, label %bb4, label %bb2.i.i.i6.i, !dbg !3580

bb2.i.i.i6.i:                                     ; preds = %bb4.i
    #dbg_value(i64 %res.sroa.0.0.copyload3, !382, !DIExpression(), !3578)
  %17 = mul nuw i64 %res.sroa.0.0.copyload3, 24, !dbg !3612
    #dbg_value(ptr %res.sroa.6.0.copyload4, !265, !DIExpression(), !3613)
    #dbg_value(i64 8, !267, !DIExpression(DW_OP_LLVM_fragment, 0, 64), !3613)
    #dbg_value(i64 %17, !267, !DIExpression(DW_OP_LLVM_fragment, 64, 64), !3613)
    #dbg_value(i64 8, !304, !DIExpression(DW_OP_LLVM_fragment, 0, 64), !3614)
    #dbg_value(i64 %17, !304, !DIExpression(DW_OP_LLVM_fragment, 64, 64), !3614)
    #dbg_value(ptr poison, !312, !DIExpression(), !3614)
    #dbg_value(ptr %res.sroa.6.0.copyload4, !313, !DIExpression(), !3614)
    #dbg_value(ptr %res.sroa.6.0.copyload4, !316, !DIExpression(), !3616)
    #dbg_value(i64 8, !322, !DIExpression(DW_OP_LLVM_fragment, 0, 64), !3616)
    #dbg_value(i64 %17, !322, !DIExpression(DW_OP_LLVM_fragment, 64, 64), !3616)
; call __rustc::__rust_dealloc
  tail call void @_RNvCsj3IbkTTFM3W_7___rustc14___rust_dealloc(ptr noundef nonnull %res.sroa.6.0.copyload4, i64 noundef %17, i64 noundef range(i64 1, -9223372036854775807) 8) #17, !dbg !3618, !noalias !3595
  br label %bb4, !dbg !3619

bb4:                                              ; preds = %bb2.i.i.i6.i, %bb4.i, %bb4.i.thread, %bb3
  call void @llvm.lifetime.end.p0(i64 32, ptr nonnull %shl), !dbg !3620
  ret void, !dbg !3621
}

; shlex::Quoter::quote
; Function Attrs: nonlazybind uwtable
define void @_ZN5shlex6Quoter5quote17hed6d5f4f746c7d22E(ptr dead_on_unwind noalias noundef writable writeonly sret([24 x i8]) align 8 captures(none) dereferenceable(24) initializes((0, 8)) %_0, ptr noalias noundef readonly align 1 captures(none) dereferenceable(1) %self, ptr noalias noundef nonnull readonly align 1 captures(address, read_provenance) %in_str.0, i64 noundef %in_str.1) unnamed_addr #2 !dbg !2969 {
start:
  %self1 = alloca [24 x i8], align 8
    #dbg_value(ptr %self, !2968, !DIExpression(), !3622)
    #dbg_value(ptr %in_str.0, !2990, !DIExpression(DW_OP_LLVM_fragment, 0, 64), !3622)
    #dbg_value(i64 %in_str.1, !2990, !DIExpression(DW_OP_LLVM_fragment, 64, 64), !3622)
    #dbg_declare(ptr %self1, !3014, !DIExpression(), !3623)
  call void @llvm.lifetime.start.p0(i64 24, ptr nonnull %self1), !dbg !3624
; call shlex::bytes::Quoter::quote
  call void @_ZN5shlex5bytes6Quoter5quote17h3b9f44e850740b23E(ptr noalias noundef nonnull sret([24 x i8]) align 8 captures(address) dereferenceable(24) %self1, ptr noalias noundef nonnull readonly align 1 captures(address, read_provenance) dereferenceable(1) %self, ptr noalias noundef nonnull readonly align 1 captures(address, read_provenance) %in_str.0, i64 noundef %in_str.1), !dbg !3625
  %0 = load i64, ptr %self1, align 8, !dbg !3626, !range !1325, !noundef !19
  %1 = icmp eq i64 %0, -9223372036854775807, !dbg !3626
  br i1 %1, label %bb7, label %bb8, !dbg !3627

bb7:                                              ; preds = %start
  call void @llvm.lifetime.end.p0(i64 24, ptr nonnull %self1), !dbg !3628
  br label %bb6, !dbg !3629

bb8:                                              ; preds = %start
  %v.sroa.5.0.self1.sroa_idx = getelementptr inbounds nuw i8, ptr %self1, i64 8, !dbg !3630
  %v.sroa.5.0.copyload = load ptr, ptr %v.sroa.5.0.self1.sroa_idx, align 8, !dbg !3630
  %v.sroa.6.0.self1.sroa_idx = getelementptr inbounds nuw i8, ptr %self1, i64 16, !dbg !3630
  %v.sroa.6.0.copyload = load i64, ptr %v.sroa.6.0.self1.sroa_idx, align 8, !dbg !3630
  call void @llvm.lifetime.end.p0(i64 24, ptr nonnull %self1), !dbg !3628
  %_3.sroa.6.0._0.sroa_idx = getelementptr inbounds nuw i8, ptr %_0, i64 8, !dbg !3631
  store ptr %v.sroa.5.0.copyload, ptr %_3.sroa.6.0._0.sroa_idx, align 8, !dbg !3631
  %_3.sroa.7.0._0.sroa_idx = getelementptr inbounds nuw i8, ptr %_0, i64 16, !dbg !3631
  store i64 %v.sroa.6.0.copyload, ptr %_3.sroa.7.0._0.sroa_idx, align 8, !dbg !3631
  br label %bb6, !dbg !3629

bb6:                                              ; preds = %bb7, %bb8
  store i64 %0, ptr %_0, align 8, !dbg !3632
  ret void, !dbg !3629
}

; shlex::try_quote
; Function Attrs: nonlazybind uwtable
define void @_ZN5shlex9try_quote17h0095c69f69043916E(ptr dead_on_unwind noalias noundef writable writeonly sret([24 x i8]) align 8 captures(none) dereferenceable(24) initializes((0, 8)) %_0, ptr noalias noundef nonnull readonly align 1 captures(address, read_provenance) %in_str.0, i64 noundef %in_str.1) unnamed_addr #2 !dbg !3633 {
start:
  %self1.i = alloca [24 x i8], align 8
  %_3 = alloca [1 x i8], align 1
    #dbg_value(ptr %in_str.0, !3637, !DIExpression(DW_OP_LLVM_fragment, 0, 64), !3638)
    #dbg_value(i64 %in_str.1, !3637, !DIExpression(DW_OP_LLVM_fragment, 64, 64), !3638)
  call void @llvm.lifetime.start.p0(i64 1, ptr nonnull %_3), !dbg !3639
  store i8 0, ptr %_3, align 1, !dbg !3640
  tail call void @llvm.experimental.noalias.scope.decl(metadata !3648), !dbg !3651
    #dbg_value(ptr %_3, !2968, !DIExpression(), !3652)
    #dbg_value(ptr %in_str.0, !2990, !DIExpression(DW_OP_LLVM_fragment, 0, 64), !3652)
    #dbg_value(i64 %in_str.1, !2990, !DIExpression(DW_OP_LLVM_fragment, 64, 64), !3652)
    #dbg_declare(ptr %self1.i, !3014, !DIExpression(), !3654)
  call void @llvm.lifetime.start.p0(i64 24, ptr nonnull %self1.i), !dbg !3656, !noalias !3657
; call shlex::bytes::Quoter::quote
  call void @_ZN5shlex5bytes6Quoter5quote17h3b9f44e850740b23E(ptr noalias noundef nonnull sret([24 x i8]) align 8 captures(address) dereferenceable(24) %self1.i, ptr noalias noundef nonnull readonly align 1 captures(address, read_provenance) dereferenceable(1) %_3, ptr noalias noundef nonnull readonly align 1 captures(address, read_provenance) %in_str.0, i64 noundef %in_str.1), !dbg !3660, !noalias !3648
  %0 = load i64, ptr %self1.i, align 8, !dbg !3661, !range !1325, !noalias !3657, !noundef !19
  %1 = icmp eq i64 %0, -9223372036854775807, !dbg !3661
  br i1 %1, label %bb7.i, label %bb8.i, !dbg !3662

bb7.i:                                            ; preds = %start
  call void @llvm.lifetime.end.p0(i64 24, ptr nonnull %self1.i), !dbg !3663, !noalias !3657
  br label %_ZN5shlex6Quoter5quote17hed6d5f4f746c7d22E.exit, !dbg !3664

bb8.i:                                            ; preds = %start
  %v.sroa.5.0.self1.sroa_idx.i = getelementptr inbounds nuw i8, ptr %self1.i, i64 8, !dbg !3665
  %v.sroa.5.0.copyload.i = load ptr, ptr %v.sroa.5.0.self1.sroa_idx.i, align 8, !dbg !3665, !noalias !3657
  %v.sroa.6.0.self1.sroa_idx.i = getelementptr inbounds nuw i8, ptr %self1.i, i64 16, !dbg !3665
  %v.sroa.6.0.copyload.i = load i64, ptr %v.sroa.6.0.self1.sroa_idx.i, align 8, !dbg !3665, !noalias !3657
  call void @llvm.lifetime.end.p0(i64 24, ptr nonnull %self1.i), !dbg !3663, !noalias !3657
  %_3.sroa.6.0._0.sroa_idx.i = getelementptr inbounds nuw i8, ptr %_0, i64 8, !dbg !3666
  store ptr %v.sroa.5.0.copyload.i, ptr %_3.sroa.6.0._0.sroa_idx.i, align 8, !dbg !3666, !alias.scope !3648, !noalias !3667
  %_3.sroa.7.0._0.sroa_idx.i = getelementptr inbounds nuw i8, ptr %_0, i64 16, !dbg !3666
  store i64 %v.sroa.6.0.copyload.i, ptr %_3.sroa.7.0._0.sroa_idx.i, align 8, !dbg !3666, !alias.scope !3648, !noalias !3667
  br label %_ZN5shlex6Quoter5quote17hed6d5f4f746c7d22E.exit, !dbg !3664

_ZN5shlex6Quoter5quote17hed6d5f4f746c7d22E.exit:  ; preds = %bb7.i, %bb8.i
  store i64 %0, ptr %_0, align 8, !dbg !3668, !alias.scope !3648, !noalias !3667
  call void @llvm.lifetime.end.p0(i64 1, ptr nonnull %_3), !dbg !3669
  ret void, !dbg !3670
}

; <shlex::Shlex as core::iter::traits::iterator::Iterator>::next
; Function Attrs: nonlazybind uwtable
define void @"_ZN71_$LT$shlex..Shlex$u20$as$u20$core..iter..traits..iterator..Iterator$GT$4next17hcf9f273e11a9ce7cE"(ptr dead_on_unwind noalias noundef writable writeonly sret([24 x i8]) align 8 captures(none) dereferenceable(24) initializes((0, 8)) %_0, ptr noalias noundef align 8 captures(none) dereferenceable(32) %self) unnamed_addr #2 !dbg !3253 {
start:
  %self1 = alloca [24 x i8], align 8
    #dbg_value(ptr %self, !3252, !DIExpression(), !3671)
    #dbg_declare(ptr %self1, !3260, !DIExpression(), !3672)
    #dbg_declare(ptr poison, !3273, !DIExpression(), !3674)
    #dbg_declare(ptr poison, !3675, !DIExpression(), !3680)
    #dbg_declare(ptr poison, !3682, !DIExpression(), !3689)
    #dbg_declare(ptr poison, !3272, !DIExpression(), !3691)
  call void @llvm.lifetime.start.p0(i64 24, ptr nonnull %self1), !dbg !3692
; call <shlex::bytes::Shlex as core::iter::traits::iterator::Iterator>::next
  call void @"_ZN78_$LT$shlex..bytes..Shlex$u20$as$u20$core..iter..traits..iterator..Iterator$GT$4next17hf7fa350fff80e22aE"(ptr noalias noundef nonnull sret([24 x i8]) align 8 captures(address) dereferenceable(24) %self1, ptr noalias noundef nonnull align 8 dereferenceable(32) %self), !dbg !3693
  %0 = load i64, ptr %self1, align 8, !dbg !3694, !range !652, !noundef !19
  %.not = icmp eq i64 %0, -9223372036854775808, !dbg !3694
  br i1 %.not, label %bb4, label %bb5, !dbg !3695

bb5:                                              ; preds = %start
  call void @llvm.memcpy.p0.p0.i64(ptr noundef nonnull align 8 dereferenceable(24) %_0, ptr noundef nonnull align 8 dereferenceable(24) %self1, i64 24, i1 false), !dbg !3696
  br label %bb2, !dbg !3697

bb4:                                              ; preds = %start
  store i64 -9223372036854775808, ptr %_0, align 8, !dbg !3698
  br label %bb2, !dbg !3699

bb2:                                              ; preds = %bb5, %bb4
  call void @llvm.lifetime.end.p0(i64 24, ptr nonnull %self1), !dbg !3700
  ret void, !dbg !3701
}

; <shlex::bytes::Shlex as core::iter::traits::iterator::Iterator>::next
; Function Attrs: nonlazybind uwtable
define void @"_ZN78_$LT$shlex..bytes..Shlex$u20$as$u20$core..iter..traits..iterator..Iterator$GT$4next17hf7fa350fff80e22aE"(ptr dead_on_unwind noalias noundef writable writeonly sret([24 x i8]) align 8 captures(none) dereferenceable(24) %_0, ptr noalias noundef align 8 captures(none) dereferenceable(32) %self) unnamed_addr #2 personality ptr @rust_eh_personality !dbg !3702 {
start:
  %result.i = alloca [24 x i8], align 8
    #dbg_value(ptr %self, !3707, !DIExpression(), !3714)
  tail call void @llvm.experimental.noalias.scope.decl(metadata !3715), !dbg !3718
    #dbg_value(ptr poison, !3719, !DIExpression(), !3723)
    #dbg_value(ptr poison, !3722, !DIExpression(), !3723)
    #dbg_value(ptr poison, !3755, !DIExpression(DW_OP_LLVM_fragment, 0, 8), !3766)
    #dbg_value(ptr poison, !3755, !DIExpression(DW_OP_LLVM_fragment, 8, 8), !3766)
    #dbg_value(ptr %self, !3751, !DIExpression(), !3768)
    #dbg_value(i64 1, !3769, !DIExpression(), !3773)
    #dbg_value(ptr %self, !3729, !DIExpression(), !3775)
  %0 = load ptr, ptr %self, align 8, !dbg !3776, !alias.scope !3715, !nonnull !19, !noundef !19
    #dbg_value(ptr %0, !3730, !DIExpression(), !3777)
    #dbg_value(ptr %0, !3772, !DIExpression(), !3773)
  %1 = getelementptr inbounds nuw i8, ptr %self, i64 8, !dbg !3778
  %end_or_len.i = load ptr, ptr %1, align 8, !dbg !3778, !alias.scope !3715, !nonnull !19, !noundef !19
    #dbg_value(ptr %end_or_len.i, !3731, !DIExpression(), !3779)
    #dbg_value(ptr undef, !3722, !DIExpression(), !3723)
    #dbg_value(ptr undef, !3719, !DIExpression(), !3723)
  %_12.i.not = icmp eq ptr %0, %end_or_len.i, !dbg !3780
  br i1 %_12.i.not, label %bb16, label %bb6.i, !dbg !3781

bb6.i:                                            ; preds = %start
  %_22.i = getelementptr inbounds nuw i8, ptr %0, i64 1, !dbg !3782
  store ptr %_22.i, ptr %self, align 8, !dbg !3783, !alias.scope !3715
    #dbg_value(ptr %0, !3784, !DIExpression(), !3792)
  %v.i = load i8, ptr %0, align 1, !dbg !3794, !noalias !3715, !noundef !19
    #dbg_value(i8 poison, !3752, !DIExpression(DW_OP_LLVM_fragment, 0, 8), !3795)
    #dbg_value(i8 %v.i, !3752, !DIExpression(DW_OP_LLVM_fragment, 8, 8), !3795)
    #dbg_value(ptr undef, !3755, !DIExpression(), !3766)
    #dbg_value(ptr poison, !3762, !DIExpression(), !3766)
  %_5.i = icmp eq i8 %v.i, 10
  %2 = getelementptr inbounds nuw i8, ptr %self, i64 16
  %3 = load i64, ptr %2, align 8
  br i1 %_5.i, label %bb1.i, label %_ZN5shlex5bytes5Shlex9next_char17h33f278341b7511deE.exit, !dbg !3796

bb1.i:                                            ; preds = %bb6.i
  %4 = add i64 %3, 1, !dbg !3797
  store i64 %4, ptr %2, align 8, !dbg !3797, !alias.scope !3715
  br label %_ZN5shlex5bytes5Shlex9next_char17h33f278341b7511deE.exit, !dbg !3798

_ZN5shlex5bytes5Shlex9next_char17h33f278341b7511deE.exit: ; preds = %bb6.i, %bb1.i
  %.promoted = phi i64 [ %4, %bb1.i ], [ %3, %bb6.i ]
  %5 = getelementptr inbounds nuw i8, ptr %self, i64 16
  br label %bb3, !dbg !3799

bb16:                                             ; preds = %start
  store i64 -9223372036854775808, ptr %_0, align 8, !dbg !3800
  br label %bb18, !dbg !3801

bb3:                                              ; preds = %_ZN5shlex5bytes5Shlex9next_char17h33f278341b7511deE.exit18, %_ZN5shlex5bytes5Shlex9next_char17h33f278341b7511deE.exit
  %.promoted.i = phi i64 [ %.promoted, %_ZN5shlex5bytes5Shlex9next_char17h33f278341b7511deE.exit ], [ %38, %_ZN5shlex5bytes5Shlex9next_char17h33f278341b7511deE.exit18 ]
  %self.promoted.i = phi ptr [ %_22.i, %_ZN5shlex5bytes5Shlex9next_char17h33f278341b7511deE.exit ], [ %_22.i14, %_ZN5shlex5bytes5Shlex9next_char17h33f278341b7511deE.exit18 ]
  %v.i.pn = phi i8 [ %v.i, %_ZN5shlex5bytes5Shlex9next_char17h33f278341b7511deE.exit ], [ %v.i15, %_ZN5shlex5bytes5Shlex9next_char17h33f278341b7511deE.exit18 ]
    #dbg_value(i8 %v.i.pn, !3708, !DIExpression(), !3802)
  switch i8 %v.i.pn, label %bb4 [
    i8 32, label %bb11
    i8 9, label %bb11
    i8 10, label %bb11
    i8 35, label %bb5
  ], !dbg !3803

bb4:                                              ; preds = %bb3
  tail call void @llvm.experimental.noalias.scope.decl(metadata !3804), !dbg !3807
  tail call void @llvm.experimental.noalias.scope.decl(metadata !3808), !dbg !3807
    #dbg_value(i8 %v.i.pn, !3810, !DIExpression(), !3823)
    #dbg_value(ptr %self, !3816, !DIExpression(), !3823)
    #dbg_declare(ptr %result.i, !3817, !DIExpression(), !3825)
  call void @llvm.lifetime.start.p0(i64 24, ptr nonnull %result.i), !dbg !3826, !noalias !3827
  store i64 0, ptr %result.i, align 8, !dbg !3828, !noalias !3827
  %6 = getelementptr inbounds nuw i8, ptr %result.i, i64 8, !dbg !3828
  store ptr inttoptr (i64 1 to ptr), ptr %6, align 8, !dbg !3828, !noalias !3827
  %7 = getelementptr inbounds nuw i8, ptr %result.i, i64 16, !dbg !3828
  store i64 0, ptr %7, align 8, !dbg !3828, !noalias !3827
  br label %bb1.i8, !dbg !3831

bb1.i8:                                           ; preds = %bb20.i, %bb4
  %len.i.i = phi i64 [ 0, %bb4 ], [ %len.i4691.i, %bb20.i ]
  %8 = phi i64 [ %.promoted.i, %bb4 ], [ %35, %bb20.i ]
  %_22.i4169.i = phi ptr [ %self.promoted.i, %bb4 ], [ %_22.i41.i, %bb20.i ]
  %ch.sroa.0.0.i = phi i8 [ %v.i.pn, %bb4 ], [ %v.i42.i, %bb20.i ]
    #dbg_value(i8 %ch.sroa.0.0.i, !3810, !DIExpression(), !3823)
  switch i8 %ch.sroa.0.0.i, label %bb2.i [
    i8 34, label %bb6.i9
    i8 39, label %bb5.i
    i8 92, label %bb4.i
    i8 32, label %bb22.i
    i8 9, label %bb22.i
    i8 10, label %bb22.i
  ], !dbg !3832

bb2.i:                                            ; preds = %bb1.i8
    #dbg_value(ptr %result.i, !3833, !DIExpression(), !3837)
    #dbg_value(i8 %ch.sroa.0.0.i, !3836, !DIExpression(), !3837)
    #dbg_value(ptr %result.i, !2620, !DIExpression(), !3839)
    #dbg_value(ptr %result.i, !2646, !DIExpression(), !3841)
    #dbg_value(i8 %ch.sroa.0.0.i, !2621, !DIExpression(), !3839)
    #dbg_value(i64 %len.i.i, !2622, !DIExpression(), !3843)
    #dbg_value(i64 %len.i.i, !2652, !DIExpression(), !3844)
    #dbg_value(ptr %result.i, !2643, !DIExpression(), !3846)
    #dbg_value(ptr %result.i, !2635, !DIExpression(), !3848)
    #dbg_value(i64 1, !2636, !DIExpression(), !3848)
  %self3.i.i = load i64, ptr %result.i, align 8, !dbg !3850, !range !327, !alias.scope !3851, !noalias !3854, !noundef !19
  %_4.i.i = icmp eq i64 %len.i.i, %self3.i.i, !dbg !3856
  br i1 %_4.i.i, label %bb1.i.i, label %"_ZN5alloc3vec16Vec$LT$T$C$A$GT$8push_mut17h013619124ed5d51cE.exit.i", !dbg !3856

bb1.i.i:                                          ; preds = %bb2.i
; invoke alloc::raw_vec::RawVec<T,A>::grow_one
  invoke void @"_ZN5alloc7raw_vec19RawVec$LT$T$C$A$GT$8grow_one17h3e6312be3fa2afbcE"(ptr noalias noundef nonnull align 8 dereferenceable(24) %result.i, ptr noalias noundef nonnull readonly align 8 captures(address, read_provenance) dereferenceable(24) @alloc_7595e72aa3a5565d97f5d5faf752f4e6)
          to label %"_ZN5alloc3vec16Vec$LT$T$C$A$GT$8push_mut17h013619124ed5d51cE.exit.i" unwind label %cleanup.loopexit.split-lp.loopexit.split-lp.i, !dbg !3857, !noalias !3827

"_ZN5alloc3vec16Vec$LT$T$C$A$GT$8push_mut17h013619124ed5d51cE.exit.i": ; preds = %bb1.i.i, %bb2.i
  %_15.i.i = load ptr, ptr %6, align 8, !dbg !3858, !alias.scope !3851, !noalias !3854, !nonnull !19, !noundef !19
    #dbg_value(ptr %_15.i.i, !2655, !DIExpression(), !3844)
  %end.i.i = getelementptr inbounds nuw i8, ptr %_15.i.i, i64 %len.i.i, !dbg !3862
    #dbg_value(ptr %end.i.i, !2624, !DIExpression(), !3863)
    #dbg_value(ptr %end.i.i, !2671, !DIExpression(), !3864)
    #dbg_value(i8 %ch.sroa.0.0.i, !2676, !DIExpression(), !3864)
  store i8 %ch.sroa.0.0.i, ptr %end.i.i, align 1, !dbg !3866, !noalias !3827
  %9 = add i64 %len.i.i, 1, !dbg !3867
  store i64 %9, ptr %7, align 8, !dbg !3867, !alias.scope !3851, !noalias !3854
  br label %bb18.i, !dbg !3868

bb6.i9:                                           ; preds = %bb1.i8
  call void @llvm.experimental.noalias.scope.decl(metadata !3869), !dbg !3872
  call void @llvm.experimental.noalias.scope.decl(metadata !3873), !dbg !3872
    #dbg_value(ptr %self, !3875, !DIExpression(), !3901)
    #dbg_value(ptr %result.i, !3896, !DIExpression(), !3901)
    #dbg_value(ptr %result.i, !3903, !DIExpression(), !3908)
    #dbg_value(ptr %result.i, !3903, !DIExpression(), !3910)
    #dbg_value(ptr %result.i, !3903, !DIExpression(), !3912)
    #dbg_value(ptr %result.i, !3903, !DIExpression(), !3914)
    #dbg_value(i8 92, !3907, !DIExpression(), !3910)
  %_12.i.not43.i.i = icmp eq ptr %_22.i4169.i, %end_or_len.i, !dbg !3916
  br i1 %_12.i.not43.i.i, label %bb23.i, label %bb6.i.i.i, !dbg !3920

bb6.i.i.i:                                        ; preds = %bb6.i9, %bb13.i.i
  %len.i.i.i = phi i64 [ %len.i4693.i, %bb13.i.i ], [ %len.i.i, %bb6.i9 ]
  %10 = phi i64 [ %20, %bb13.i.i ], [ %8, %bb6.i9 ]
  %11 = phi i64 [ %21, %bb13.i.i ], [ %8, %bb6.i9 ]
  %_22.i84144.i.i = phi ptr [ %_22.i842.i.i, %bb13.i.i ], [ %_22.i4169.i, %bb6.i9 ]
    #dbg_value(ptr %_22.i84144.i.i, !3730, !DIExpression(), !3921)
  call void @llvm.experimental.noalias.scope.decl(metadata !3922), !dbg !3925
  %_22.i.i.i = getelementptr inbounds nuw i8, ptr %_22.i84144.i.i, i64 1, !dbg !3926
  store ptr %_22.i.i.i, ptr %self, align 8, !dbg !3928, !alias.scope !3929, !noalias !3930
    #dbg_value(ptr %_22.i84144.i.i, !3784, !DIExpression(), !3931)
  %v.i.i.i = load i8, ptr %_22.i84144.i.i, align 1, !dbg !3933, !noalias !3934, !noundef !19
    #dbg_value(i8 poison, !3752, !DIExpression(DW_OP_LLVM_fragment, 0, 8), !3935)
    #dbg_value(i8 %v.i.i.i, !3752, !DIExpression(DW_OP_LLVM_fragment, 8, 8), !3935)
    #dbg_value(ptr undef, !3755, !DIExpression(), !3936)
    #dbg_value(ptr poison, !3762, !DIExpression(), !3936)
  switch i8 %v.i.i.i, label %bb4.i.i [
    i8 10, label %bb3.thread.i.i
    i8 92, label %bb6.i.i
    i8 34, label %bb18.i
  ], !dbg !3938

bb3.thread.i.i:                                   ; preds = %bb6.i.i.i
  %12 = add i64 %11, 1, !dbg !3939
  store i64 %12, ptr %5, align 8, !dbg !3939, !alias.scope !3929, !noalias !3930
    #dbg_value(i8 10, !3897, !DIExpression(), !3940)
    #dbg_value(i8 10, !3906, !DIExpression(), !3908)
  br label %bb4.i.i, !dbg !3941

bb4.i.i:                                          ; preds = %bb3.thread.i.i, %bb6.i.i.i
  %13 = phi i64 [ %12, %bb3.thread.i.i ], [ %10, %bb6.i.i.i ]
  %14 = phi i64 [ %12, %bb3.thread.i.i ], [ %11, %bb6.i.i.i ]
    #dbg_value(ptr %result.i, !2620, !DIExpression(), !3942)
    #dbg_value(ptr %result.i, !2646, !DIExpression(), !3944)
    #dbg_value(i8 %v.i.i.i, !2621, !DIExpression(), !3942)
    #dbg_value(i64 %len.i.i.i, !2622, !DIExpression(), !3946)
    #dbg_value(i64 %len.i.i.i, !2652, !DIExpression(), !3947)
    #dbg_value(ptr %result.i, !2643, !DIExpression(), !3949)
    #dbg_value(ptr %result.i, !2635, !DIExpression(), !3951)
    #dbg_value(i64 1, !2636, !DIExpression(), !3951)
  %self3.i.i.i = load i64, ptr %result.i, align 8, !dbg !3953, !range !327, !alias.scope !3954, !noalias !3957, !noundef !19
  %_4.i.i.i = icmp eq i64 %len.i.i.i, %self3.i.i.i, !dbg !3959
  br i1 %_4.i.i.i, label %bb1.i3.i.i, label %"_ZN5alloc3vec16Vec$LT$T$C$A$GT$8push_mut17h013619124ed5d51cE.exit.i.i", !dbg !3959

bb1.i3.i.i:                                       ; preds = %bb4.i.i
; invoke alloc::raw_vec::RawVec<T,A>::grow_one
  invoke void @"_ZN5alloc7raw_vec19RawVec$LT$T$C$A$GT$8grow_one17h3e6312be3fa2afbcE"(ptr noalias noundef nonnull align 8 dereferenceable(24) %result.i, ptr noalias noundef nonnull readonly align 8 captures(address, read_provenance) dereferenceable(24) @alloc_dbe3c58c8d62bc9960dfbc45d1778044)
          to label %"_ZN5alloc3vec16Vec$LT$T$C$A$GT$8push_mut17h013619124ed5d51cE.exit.i.i" unwind label %cleanup.loopexit.i, !dbg !3960, !noalias !3827

"_ZN5alloc3vec16Vec$LT$T$C$A$GT$8push_mut17h013619124ed5d51cE.exit.i.i": ; preds = %bb1.i3.i.i, %bb4.i.i
  %_15.i.i.i = load ptr, ptr %6, align 8, !dbg !3961, !alias.scope !3954, !noalias !3957, !nonnull !19, !noundef !19
    #dbg_value(ptr %_15.i.i.i, !2655, !DIExpression(), !3947)
  %end.i.i.i = getelementptr inbounds nuw i8, ptr %_15.i.i.i, i64 %len.i.i.i, !dbg !3965
    #dbg_value(ptr %end.i.i.i, !2624, !DIExpression(), !3966)
    #dbg_value(ptr %end.i.i.i, !2671, !DIExpression(), !3967)
    #dbg_value(i8 %v.i.i.i, !2676, !DIExpression(), !3967)
  store i8 %v.i.i.i, ptr %end.i.i.i, align 1, !dbg !3969, !noalias !3970
  %15 = add i64 %len.i.i.i, 1, !dbg !3971
  store i64 %15, ptr %7, align 8, !dbg !3971, !alias.scope !3954, !noalias !3957
  br label %bb13.i.i, !dbg !3972

bb6.i.i:                                          ; preds = %bb6.i.i.i
  call void @llvm.experimental.noalias.scope.decl(metadata !3973), !dbg !3976
    #dbg_value(ptr poison, !3755, !DIExpression(DW_OP_LLVM_fragment, 0, 8), !3977)
    #dbg_value(ptr poison, !3755, !DIExpression(DW_OP_LLVM_fragment, 8, 8), !3977)
    #dbg_value(ptr %self, !3751, !DIExpression(), !3980)
    #dbg_value(i64 1, !3769, !DIExpression(), !3981)
    #dbg_value(ptr %self, !3729, !DIExpression(), !3984)
    #dbg_value(ptr %_22.i.i.i, !3730, !DIExpression(), !3985)
    #dbg_value(ptr %_22.i.i.i, !3772, !DIExpression(), !3981)
    #dbg_value(ptr %end_or_len.i, !3731, !DIExpression(), !3986)
    #dbg_value(ptr undef, !3722, !DIExpression(), !3987)
    #dbg_value(ptr undef, !3719, !DIExpression(), !3987)
  %_12.i5.not.i.i = icmp eq ptr %_22.i.i.i, %end_or_len.i, !dbg !3989
  br i1 %_12.i5.not.i.i, label %bb23.i, label %bb6.i7.i.i, !dbg !3990

bb6.i7.i.i:                                       ; preds = %bb6.i.i
  %_22.i8.i.i = getelementptr inbounds nuw i8, ptr %_22.i84144.i.i, i64 2, !dbg !3991
  store ptr %_22.i8.i.i, ptr %self, align 8, !dbg !3992, !alias.scope !3993, !noalias !3930
    #dbg_value(ptr %_22.i.i.i, !3784, !DIExpression(), !3994)
  %v.i9.i.i = load i8, ptr %_22.i.i.i, align 1, !dbg !3996, !noalias !3997, !noundef !19
    #dbg_value(i8 poison, !3752, !DIExpression(DW_OP_LLVM_fragment, 0, 8), !3998)
    #dbg_value(i8 %v.i9.i.i, !3752, !DIExpression(DW_OP_LLVM_fragment, 8, 8), !3998)
    #dbg_value(ptr undef, !3755, !DIExpression(), !3977)
    #dbg_value(ptr poison, !3762, !DIExpression(), !3977)
  switch i8 %v.i9.i.i, label %bb9.i.i [
    i8 10, label %bb8.thread.i.i
    i8 36, label %bb10.i.i
    i8 96, label %bb10.i.i
    i8 34, label %bb10.i.i
    i8 92, label %bb10.i.i
  ], !dbg !3999

bb8.thread.i.i:                                   ; preds = %bb6.i7.i.i
  %16 = add i64 %11, 1, !dbg !4000
  store i64 %16, ptr %5, align 8, !dbg !4000, !alias.scope !3993, !noalias !3930
    #dbg_value(i8 poison, !3899, !DIExpression(), !4001)
    #dbg_value(i8 poison, !3906, !DIExpression(), !3912)
    #dbg_value(i8 poison, !3906, !DIExpression(), !3914)
  br label %bb13.i.i, !dbg !4002

bb9.i.i:                                          ; preds = %bb6.i7.i.i
    #dbg_value(ptr %result.i, !2620, !DIExpression(), !4003)
    #dbg_value(ptr %result.i, !2646, !DIExpression(), !4005)
    #dbg_value(i8 92, !2621, !DIExpression(), !4003)
    #dbg_value(i64 %len.i.i.i, !2622, !DIExpression(), !4007)
    #dbg_value(i64 %len.i.i.i, !2652, !DIExpression(), !4008)
    #dbg_value(ptr %result.i, !2643, !DIExpression(), !4010)
    #dbg_value(ptr %result.i, !2635, !DIExpression(), !4012)
    #dbg_value(i64 1, !2636, !DIExpression(), !4012)
  %self3.i14.i.i = load i64, ptr %result.i, align 8, !dbg !4014, !range !327, !alias.scope !4015, !noalias !4018, !noundef !19
  %_4.i15.i.i = icmp eq i64 %len.i.i.i, %self3.i14.i.i, !dbg !4020
  br i1 %_4.i15.i.i, label %bb1.i18.i.i, label %"_ZN5alloc3vec16Vec$LT$T$C$A$GT$8push_mut17h013619124ed5d51cE.exit19.i.i", !dbg !4020

bb1.i18.i.i:                                      ; preds = %bb9.i.i
; invoke alloc::raw_vec::RawVec<T,A>::grow_one
  invoke void @"_ZN5alloc7raw_vec19RawVec$LT$T$C$A$GT$8grow_one17h3e6312be3fa2afbcE"(ptr noalias noundef nonnull align 8 dereferenceable(24) %result.i, ptr noalias noundef nonnull readonly align 8 captures(address, read_provenance) dereferenceable(24) @alloc_377831452e60a695e5bd75c03294c2ed)
          to label %"_ZN5alloc3vec16Vec$LT$T$C$A$GT$8push_mut17h013619124ed5d51cE.exit19.i.i" unwind label %cleanup.loopexit.i, !dbg !4021, !noalias !3827

"_ZN5alloc3vec16Vec$LT$T$C$A$GT$8push_mut17h013619124ed5d51cE.exit19.i.i": ; preds = %bb1.i18.i.i, %bb9.i.i
  %_15.i16.i.i = load ptr, ptr %6, align 8, !dbg !4022, !alias.scope !4015, !noalias !4018, !nonnull !19, !noundef !19
    #dbg_value(ptr %_15.i16.i.i, !2655, !DIExpression(), !4008)
  %end.i17.i.i = getelementptr inbounds nuw i8, ptr %_15.i16.i.i, i64 %len.i.i.i, !dbg !4026
    #dbg_value(ptr %end.i17.i.i, !2624, !DIExpression(), !4027)
    #dbg_value(ptr %end.i17.i.i, !2671, !DIExpression(), !4028)
    #dbg_value(i8 92, !2676, !DIExpression(), !4028)
  store i8 92, ptr %end.i17.i.i, align 1, !dbg !4030, !noalias !3970
  %17 = add i64 %len.i.i.i, 1, !dbg !4031
  store i64 %17, ptr %7, align 8, !dbg !4031, !alias.scope !4015, !noalias !4018
    #dbg_value(ptr %result.i, !2620, !DIExpression(), !4032)
    #dbg_value(ptr %result.i, !2646, !DIExpression(), !4034)
    #dbg_value(i8 %v.i9.i.i, !2621, !DIExpression(), !4032)
    #dbg_value(i64 %17, !2622, !DIExpression(), !4036)
    #dbg_value(i64 %17, !2652, !DIExpression(), !4037)
    #dbg_value(ptr %result.i, !2643, !DIExpression(), !4039)
    #dbg_value(ptr %result.i, !2635, !DIExpression(), !4041)
    #dbg_value(i64 1, !2636, !DIExpression(), !4041)
  %self3.i21.i.i = load i64, ptr %result.i, align 8, !dbg !4043, !range !327, !alias.scope !4044, !noalias !4047, !noundef !19
  %_4.i22.i.i = icmp eq i64 %17, %self3.i21.i.i, !dbg !4049
  br i1 %_4.i22.i.i, label %bb1.i25.i.i, label %"_ZN5alloc3vec16Vec$LT$T$C$A$GT$8push_mut17h013619124ed5d51cE.exit26.i.i", !dbg !4049

bb1.i25.i.i:                                      ; preds = %"_ZN5alloc3vec16Vec$LT$T$C$A$GT$8push_mut17h013619124ed5d51cE.exit19.i.i"
; invoke alloc::raw_vec::RawVec<T,A>::grow_one
  invoke void @"_ZN5alloc7raw_vec19RawVec$LT$T$C$A$GT$8grow_one17h3e6312be3fa2afbcE"(ptr noalias noundef nonnull align 8 dereferenceable(24) %result.i, ptr noalias noundef nonnull readonly align 8 captures(address, read_provenance) dereferenceable(24) @alloc_ec6a80774cd7736a74aa938ef7950fe7)
          to label %"_ZN5alloc3vec16Vec$LT$T$C$A$GT$8push_mut17h013619124ed5d51cE.exit26.i.i" unwind label %cleanup.loopexit.i, !dbg !4050, !noalias !3827

"_ZN5alloc3vec16Vec$LT$T$C$A$GT$8push_mut17h013619124ed5d51cE.exit26.i.i": ; preds = %bb1.i25.i.i, %"_ZN5alloc3vec16Vec$LT$T$C$A$GT$8push_mut17h013619124ed5d51cE.exit19.i.i"
  %_15.i23.i.i = load ptr, ptr %6, align 8, !dbg !4051, !alias.scope !4044, !noalias !4047, !nonnull !19, !noundef !19
    #dbg_value(ptr %_15.i23.i.i, !2655, !DIExpression(), !4037)
  %end.i24.i.i = getelementptr inbounds nuw i8, ptr %_15.i23.i.i, i64 %17, !dbg !4055
    #dbg_value(ptr %end.i24.i.i, !2624, !DIExpression(), !4056)
    #dbg_value(ptr %end.i24.i.i, !2671, !DIExpression(), !4057)
    #dbg_value(i8 %v.i9.i.i, !2676, !DIExpression(), !4057)
  store i8 %v.i9.i.i, ptr %end.i24.i.i, align 1, !dbg !4059, !noalias !3970
  %18 = add i64 %len.i.i.i, 2, !dbg !4060
  store i64 %18, ptr %7, align 8, !dbg !4060, !alias.scope !4044, !noalias !4047
  br label %bb13.i.i, !dbg !4061

bb10.i.i:                                         ; preds = %bb6.i7.i.i, %bb6.i7.i.i, %bb6.i7.i.i, %bb6.i7.i.i
    #dbg_value(ptr %result.i, !2620, !DIExpression(), !4062)
    #dbg_value(ptr %result.i, !2646, !DIExpression(), !4064)
    #dbg_value(i8 %v.i9.i.i, !2621, !DIExpression(), !4062)
    #dbg_value(i64 %len.i.i.i, !2622, !DIExpression(), !4066)
    #dbg_value(i64 %len.i.i.i, !2652, !DIExpression(), !4067)
    #dbg_value(ptr %result.i, !2643, !DIExpression(), !4069)
    #dbg_value(ptr %result.i, !2635, !DIExpression(), !4071)
    #dbg_value(i64 1, !2636, !DIExpression(), !4071)
  %self3.i28.i.i = load i64, ptr %result.i, align 8, !dbg !4073, !range !327, !alias.scope !4074, !noalias !4077, !noundef !19
  %_4.i29.i.i = icmp eq i64 %len.i.i.i, %self3.i28.i.i, !dbg !4079
  br i1 %_4.i29.i.i, label %bb1.i32.i.i, label %"_ZN5alloc3vec16Vec$LT$T$C$A$GT$8push_mut17h013619124ed5d51cE.exit33.i.i", !dbg !4079

bb1.i32.i.i:                                      ; preds = %bb10.i.i
; invoke alloc::raw_vec::RawVec<T,A>::grow_one
  invoke void @"_ZN5alloc7raw_vec19RawVec$LT$T$C$A$GT$8grow_one17h3e6312be3fa2afbcE"(ptr noalias noundef nonnull align 8 dereferenceable(24) %result.i, ptr noalias noundef nonnull readonly align 8 captures(address, read_provenance) dereferenceable(24) @alloc_2f8cc1e99e5d9f57d27545c19cd5eafd)
          to label %"_ZN5alloc3vec16Vec$LT$T$C$A$GT$8push_mut17h013619124ed5d51cE.exit33.i.i" unwind label %cleanup.loopexit.i, !dbg !4080, !noalias !3827

"_ZN5alloc3vec16Vec$LT$T$C$A$GT$8push_mut17h013619124ed5d51cE.exit33.i.i": ; preds = %bb1.i32.i.i, %bb10.i.i
  %_15.i30.i.i = load ptr, ptr %6, align 8, !dbg !4081, !alias.scope !4074, !noalias !4077, !nonnull !19, !noundef !19
    #dbg_value(ptr %_15.i30.i.i, !2655, !DIExpression(), !4067)
  %end.i31.i.i = getelementptr inbounds nuw i8, ptr %_15.i30.i.i, i64 %len.i.i.i, !dbg !4085
    #dbg_value(ptr %end.i31.i.i, !2624, !DIExpression(), !4086)
    #dbg_value(ptr %end.i31.i.i, !2671, !DIExpression(), !4087)
    #dbg_value(i8 %v.i9.i.i, !2676, !DIExpression(), !4087)
  store i8 %v.i9.i.i, ptr %end.i31.i.i, align 1, !dbg !4089, !noalias !3970
  %19 = add i64 %len.i.i.i, 1, !dbg !4090
  store i64 %19, ptr %7, align 8, !dbg !4090, !alias.scope !4074, !noalias !4077
  br label %bb13.i.i, !dbg !4091

bb13.i.i:                                         ; preds = %"_ZN5alloc3vec16Vec$LT$T$C$A$GT$8push_mut17h013619124ed5d51cE.exit33.i.i", %"_ZN5alloc3vec16Vec$LT$T$C$A$GT$8push_mut17h013619124ed5d51cE.exit26.i.i", %bb8.thread.i.i, %"_ZN5alloc3vec16Vec$LT$T$C$A$GT$8push_mut17h013619124ed5d51cE.exit.i.i"
  %len.i4693.i = phi i64 [ %len.i.i.i, %bb8.thread.i.i ], [ %19, %"_ZN5alloc3vec16Vec$LT$T$C$A$GT$8push_mut17h013619124ed5d51cE.exit33.i.i" ], [ %18, %"_ZN5alloc3vec16Vec$LT$T$C$A$GT$8push_mut17h013619124ed5d51cE.exit26.i.i" ], [ %15, %"_ZN5alloc3vec16Vec$LT$T$C$A$GT$8push_mut17h013619124ed5d51cE.exit.i.i" ]
  %20 = phi i64 [ %16, %bb8.thread.i.i ], [ %10, %"_ZN5alloc3vec16Vec$LT$T$C$A$GT$8push_mut17h013619124ed5d51cE.exit33.i.i" ], [ %10, %"_ZN5alloc3vec16Vec$LT$T$C$A$GT$8push_mut17h013619124ed5d51cE.exit26.i.i" ], [ %13, %"_ZN5alloc3vec16Vec$LT$T$C$A$GT$8push_mut17h013619124ed5d51cE.exit.i.i" ]
  %21 = phi i64 [ %16, %bb8.thread.i.i ], [ %11, %"_ZN5alloc3vec16Vec$LT$T$C$A$GT$8push_mut17h013619124ed5d51cE.exit33.i.i" ], [ %11, %"_ZN5alloc3vec16Vec$LT$T$C$A$GT$8push_mut17h013619124ed5d51cE.exit26.i.i" ], [ %14, %"_ZN5alloc3vec16Vec$LT$T$C$A$GT$8push_mut17h013619124ed5d51cE.exit.i.i" ]
  %_22.i842.i.i = phi ptr [ %_22.i8.i.i, %bb8.thread.i.i ], [ %_22.i8.i.i, %"_ZN5alloc3vec16Vec$LT$T$C$A$GT$8push_mut17h013619124ed5d51cE.exit33.i.i" ], [ %_22.i8.i.i, %"_ZN5alloc3vec16Vec$LT$T$C$A$GT$8push_mut17h013619124ed5d51cE.exit26.i.i" ], [ %_22.i.i.i, %"_ZN5alloc3vec16Vec$LT$T$C$A$GT$8push_mut17h013619124ed5d51cE.exit.i.i" ]
    #dbg_value(ptr poison, !3755, !DIExpression(DW_OP_LLVM_fragment, 0, 8), !3936)
    #dbg_value(ptr poison, !3755, !DIExpression(DW_OP_LLVM_fragment, 8, 8), !3936)
    #dbg_value(ptr %self, !3751, !DIExpression(), !4092)
    #dbg_value(i64 1, !3769, !DIExpression(), !4093)
    #dbg_value(ptr %self, !3729, !DIExpression(), !4094)
    #dbg_value(ptr %_22.i842.i.i, !3730, !DIExpression(), !3921)
    #dbg_value(ptr %_22.i842.i.i, !3772, !DIExpression(), !4093)
    #dbg_value(ptr %end_or_len.i, !3731, !DIExpression(), !4095)
    #dbg_value(ptr undef, !3722, !DIExpression(), !4096)
    #dbg_value(ptr undef, !3719, !DIExpression(), !4096)
  %_12.i.not.i.i = icmp eq ptr %_22.i842.i.i, %end_or_len.i, !dbg !3916
  br i1 %_12.i.not.i.i, label %bb23.i, label %bb6.i.i.i, !dbg !3920

bb5.i:                                            ; preds = %bb1.i8
  call void @llvm.experimental.noalias.scope.decl(metadata !4097), !dbg !4100
  call void @llvm.experimental.noalias.scope.decl(metadata !4101), !dbg !4100
    #dbg_value(ptr %self, !4103, !DIExpression(), !4110)
    #dbg_value(ptr %result.i, !4107, !DIExpression(), !4110)
    #dbg_value(ptr %result.i, !4112, !DIExpression(), !4116)
  %_12.i.not8.i.i = icmp eq ptr %_22.i4169.i, %end_or_len.i, !dbg !4118
  br i1 %_12.i.not8.i.i, label %bb23.i, label %bb6.i.i19.i, !dbg !4122

bb6.i.i19.i:                                      ; preds = %bb5.i, %"_ZN5alloc3vec16Vec$LT$T$C$A$GT$8push_mut17h013619124ed5d51cE.exit.i26.i"
  %len.i.i23.i = phi i64 [ %27, %"_ZN5alloc3vec16Vec$LT$T$C$A$GT$8push_mut17h013619124ed5d51cE.exit.i26.i" ], [ %len.i.i, %bb5.i ]
  %22 = phi i64 [ %25, %"_ZN5alloc3vec16Vec$LT$T$C$A$GT$8push_mut17h013619124ed5d51cE.exit.i26.i" ], [ %8, %bb5.i ]
  %23 = phi i64 [ %26, %"_ZN5alloc3vec16Vec$LT$T$C$A$GT$8push_mut17h013619124ed5d51cE.exit.i26.i" ], [ %8, %bb5.i ]
  %_22.i79.i.i = phi ptr [ %_22.i.i20.i, %"_ZN5alloc3vec16Vec$LT$T$C$A$GT$8push_mut17h013619124ed5d51cE.exit.i26.i" ], [ %_22.i4169.i, %bb5.i ]
    #dbg_value(ptr %_22.i79.i.i, !3730, !DIExpression(), !4123)
  call void @llvm.experimental.noalias.scope.decl(metadata !4124), !dbg !4127
  %_22.i.i20.i = getelementptr inbounds nuw i8, ptr %_22.i79.i.i, i64 1, !dbg !4128
  store ptr %_22.i.i20.i, ptr %self, align 8, !dbg !4130, !alias.scope !4131, !noalias !4132
    #dbg_value(ptr %_22.i79.i.i, !3784, !DIExpression(), !4133)
  %v.i.i21.i = load i8, ptr %_22.i79.i.i, align 1, !dbg !4135, !noalias !4136, !noundef !19
    #dbg_value(i8 poison, !3752, !DIExpression(DW_OP_LLVM_fragment, 0, 8), !4137)
    #dbg_value(i8 %v.i.i21.i, !3752, !DIExpression(DW_OP_LLVM_fragment, 8, 8), !4137)
    #dbg_value(ptr undef, !3755, !DIExpression(), !4138)
    #dbg_value(ptr poison, !3762, !DIExpression(), !4138)
  switch i8 %v.i.i21.i, label %bb4.i22.i [
    i8 10, label %bb1.i.i.i
    i8 39, label %bb18.i
  ], !dbg !4140

bb1.i.i.i:                                        ; preds = %bb6.i.i19.i
  %24 = add i64 %23, 1, !dbg !4141
  store i64 %24, ptr %5, align 8, !dbg !4141, !alias.scope !4131, !noalias !4132
    #dbg_value(i8 %v.i.i21.i, !4108, !DIExpression(), !4142)
    #dbg_value(i8 %v.i.i21.i, !4115, !DIExpression(), !4116)
  br label %bb4.i22.i, !dbg !4143

bb4.i22.i:                                        ; preds = %bb1.i.i.i, %bb6.i.i19.i
  %25 = phi i64 [ %24, %bb1.i.i.i ], [ %22, %bb6.i.i19.i ]
  %26 = phi i64 [ %24, %bb1.i.i.i ], [ %23, %bb6.i.i19.i ]
    #dbg_value(ptr %result.i, !2620, !DIExpression(), !4144)
    #dbg_value(ptr %result.i, !2646, !DIExpression(), !4146)
    #dbg_value(i8 %v.i.i21.i, !2621, !DIExpression(), !4144)
    #dbg_value(i64 %len.i.i23.i, !2622, !DIExpression(), !4148)
    #dbg_value(i64 %len.i.i23.i, !2652, !DIExpression(), !4149)
    #dbg_value(ptr %result.i, !2643, !DIExpression(), !4151)
    #dbg_value(ptr %result.i, !2635, !DIExpression(), !4153)
    #dbg_value(i64 1, !2636, !DIExpression(), !4153)
  %self3.i.i24.i = load i64, ptr %result.i, align 8, !dbg !4155, !range !327, !alias.scope !4156, !noalias !4159, !noundef !19
  %_4.i.i25.i = icmp eq i64 %len.i.i23.i, %self3.i.i24.i, !dbg !4161
  br i1 %_4.i.i25.i, label %bb1.i2.i.i, label %"_ZN5alloc3vec16Vec$LT$T$C$A$GT$8push_mut17h013619124ed5d51cE.exit.i26.i", !dbg !4161

bb1.i2.i.i:                                       ; preds = %bb4.i22.i
; invoke alloc::raw_vec::RawVec<T,A>::grow_one
  invoke void @"_ZN5alloc7raw_vec19RawVec$LT$T$C$A$GT$8grow_one17h3e6312be3fa2afbcE"(ptr noalias noundef nonnull align 8 dereferenceable(24) %result.i, ptr noalias noundef nonnull readonly align 8 captures(address, read_provenance) dereferenceable(24) @alloc_59a339dbd111ec027d9ab2f1bff78eba)
          to label %"_ZN5alloc3vec16Vec$LT$T$C$A$GT$8push_mut17h013619124ed5d51cE.exit.i26.i" unwind label %cleanup.loopexit.split-lp.loopexit.i, !dbg !4162, !noalias !3827

"_ZN5alloc3vec16Vec$LT$T$C$A$GT$8push_mut17h013619124ed5d51cE.exit.i26.i": ; preds = %bb1.i2.i.i, %bb4.i22.i
  %_15.i.i27.i = load ptr, ptr %6, align 8, !dbg !4163, !alias.scope !4156, !noalias !4159, !nonnull !19, !noundef !19
    #dbg_value(ptr %_15.i.i27.i, !2655, !DIExpression(), !4149)
  %end.i.i28.i = getelementptr inbounds nuw i8, ptr %_15.i.i27.i, i64 %len.i.i23.i, !dbg !4167
    #dbg_value(ptr %end.i.i28.i, !2624, !DIExpression(), !4168)
    #dbg_value(ptr %end.i.i28.i, !2671, !DIExpression(), !4169)
    #dbg_value(i8 %v.i.i21.i, !2676, !DIExpression(), !4169)
  store i8 %v.i.i21.i, ptr %end.i.i28.i, align 1, !dbg !4171, !noalias !4172
  %27 = add i64 %len.i.i23.i, 1, !dbg !4173
  store i64 %27, ptr %7, align 8, !dbg !4173, !alias.scope !4156, !noalias !4159
    #dbg_value(ptr poison, !3755, !DIExpression(DW_OP_LLVM_fragment, 0, 8), !4138)
    #dbg_value(ptr poison, !3755, !DIExpression(DW_OP_LLVM_fragment, 8, 8), !4138)
    #dbg_value(ptr %self, !3751, !DIExpression(), !4174)
    #dbg_value(i64 1, !3769, !DIExpression(), !4175)
    #dbg_value(ptr %self, !3729, !DIExpression(), !4176)
    #dbg_value(ptr %_22.i.i20.i, !3730, !DIExpression(), !4123)
    #dbg_value(ptr %_22.i.i20.i, !3772, !DIExpression(), !4175)
    #dbg_value(ptr %end_or_len.i, !3731, !DIExpression(), !4177)
    #dbg_value(ptr undef, !3722, !DIExpression(), !4178)
    #dbg_value(ptr undef, !3719, !DIExpression(), !4178)
  %_12.i.not.i29.i = icmp eq ptr %_22.i.i20.i, %end_or_len.i, !dbg !4118
  br i1 %_12.i.not.i29.i, label %bb23.i, label %bb6.i.i19.i, !dbg !4122

bb4.i:                                            ; preds = %bb1.i8
  call void @llvm.experimental.noalias.scope.decl(metadata !4179), !dbg !4182
    #dbg_value(ptr poison, !3755, !DIExpression(DW_OP_LLVM_fragment, 0, 8), !4183)
    #dbg_value(ptr poison, !3755, !DIExpression(DW_OP_LLVM_fragment, 8, 8), !4183)
    #dbg_value(ptr %self, !3751, !DIExpression(), !4186)
    #dbg_value(i64 1, !3769, !DIExpression(), !4187)
    #dbg_value(ptr %self, !3729, !DIExpression(), !4190)
    #dbg_value(ptr %_22.i4169.i, !3730, !DIExpression(), !4191)
    #dbg_value(ptr %_22.i4169.i, !3772, !DIExpression(), !4187)
    #dbg_value(ptr %end_or_len.i, !3731, !DIExpression(), !4192)
    #dbg_value(ptr undef, !3722, !DIExpression(), !4193)
    #dbg_value(ptr undef, !3719, !DIExpression(), !4193)
  %_12.i.not.i = icmp eq ptr %_22.i4169.i, %end_or_len.i, !dbg !4195
  br i1 %_12.i.not.i, label %bb23.i, label %bb6.i31.i, !dbg !4196

bb6.i31.i:                                        ; preds = %bb4.i
  %_22.i.i = getelementptr inbounds nuw i8, ptr %_22.i4169.i, i64 1, !dbg !4197
  store ptr %_22.i.i, ptr %self, align 8, !dbg !4198, !alias.scope !4199, !noalias !3804
    #dbg_value(ptr %_22.i4169.i, !3784, !DIExpression(), !4200)
  %v.i.i = load i8, ptr %_22.i4169.i, align 1, !dbg !4202, !noalias !4203, !noundef !19
    #dbg_value(i8 poison, !3752, !DIExpression(DW_OP_LLVM_fragment, 0, 8), !4204)
    #dbg_value(i8 %v.i.i, !3752, !DIExpression(DW_OP_LLVM_fragment, 8, 8), !4204)
    #dbg_value(ptr undef, !3755, !DIExpression(), !4183)
    #dbg_value(ptr poison, !3762, !DIExpression(), !4183)
  %_5.i.i = icmp eq i8 %v.i.i, 10
  br i1 %_5.i.i, label %bb14.thread.i, label %bb15.i, !dbg !4205

bb14.thread.i:                                    ; preds = %bb6.i31.i
  %28 = add i64 %8, 1, !dbg !4206
  store i64 %28, ptr %5, align 8, !dbg !4206, !alias.scope !4199, !noalias !3804
    #dbg_value(i8 10, !3819, !DIExpression(), !4207)
    #dbg_value(i8 10, !3836, !DIExpression(), !4208)
  br label %bb18.i, !dbg !4210

cleanup.loopexit.i:                               ; preds = %bb1.i32.i.i, %bb1.i25.i.i, %bb1.i18.i.i, %bb1.i3.i.i
  %lpad.loopexit.i = landingpad { ptr, i32 }
          cleanup
  br label %cleanup.i

cleanup.loopexit.split-lp.loopexit.i:             ; preds = %bb1.i2.i.i
  %lpad.loopexit63.i = landingpad { ptr, i32 }
          cleanup
  br label %cleanup.i

cleanup.loopexit.split-lp.loopexit.split-lp.i:    ; preds = %bb1.i52.i, %bb1.i.i
  %lpad.loopexit.split-lp64.i = landingpad { ptr, i32 }
          cleanup
  br label %cleanup.i

cleanup.i:                                        ; preds = %cleanup.loopexit.split-lp.loopexit.split-lp.i, %cleanup.loopexit.split-lp.loopexit.i, %cleanup.loopexit.i
  %lpad.phi.i = phi { ptr, i32 } [ %lpad.loopexit.i, %cleanup.loopexit.i ], [ %lpad.loopexit63.i, %cleanup.loopexit.split-lp.loopexit.i ], [ %lpad.loopexit.split-lp64.i, %cleanup.loopexit.split-lp.loopexit.split-lp.i ]
  %result.val.i = load i64, ptr %result.i, align 8, !dbg !4211, !noalias !3827
    #dbg_value(ptr poison, !218, !DIExpression(), !4212)
    #dbg_value(ptr poison, !228, !DIExpression(), !4214)
    #dbg_value(ptr poison, !238, !DIExpression(), !4216)
    #dbg_value(ptr poison, !248, !DIExpression(), !4218)
    #dbg_value(i64 1, !264, !DIExpression(DW_OP_LLVM_fragment, 0, 64), !4218)
    #dbg_value(i64 1, !264, !DIExpression(DW_OP_LLVM_fragment, 64, 64), !4218)
    #dbg_value(i64 1, !270, !DIExpression(DW_OP_LLVM_fragment, 0, 64), !4220)
    #dbg_value(i64 1, !270, !DIExpression(DW_OP_LLVM_fragment, 64, 64), !4220)
    #dbg_value(ptr poison, !295, !DIExpression(), !4220)
  %29 = icmp eq i64 %result.val.i, 0, !dbg !4222
  br i1 %29, label %bb27.i, label %bb2.i.i.i4.i.i, !dbg !4222

bb2.i.i.i4.i.i:                                   ; preds = %cleanup.i
  %result.val8.i = load ptr, ptr %6, align 8, !dbg !4211, !noalias !3827, !nonnull !19, !noundef !19
    #dbg_value(ptr %result.val8.i, !265, !DIExpression(), !4223)
    #dbg_value(i64 1, !267, !DIExpression(DW_OP_LLVM_fragment, 0, 64), !4223)
    #dbg_value(i64 %result.val.i, !267, !DIExpression(DW_OP_LLVM_fragment, 64, 64), !4223)
    #dbg_value(i64 1, !304, !DIExpression(DW_OP_LLVM_fragment, 0, 64), !4224)
    #dbg_value(i64 %result.val.i, !304, !DIExpression(DW_OP_LLVM_fragment, 64, 64), !4224)
    #dbg_value(ptr poison, !312, !DIExpression(), !4224)
    #dbg_value(ptr %result.val8.i, !313, !DIExpression(), !4224)
    #dbg_value(ptr %result.val8.i, !316, !DIExpression(), !4226)
    #dbg_value(i64 1, !322, !DIExpression(DW_OP_LLVM_fragment, 0, 64), !4226)
    #dbg_value(i64 %result.val.i, !322, !DIExpression(DW_OP_LLVM_fragment, 64, 64), !4226)
; call __rustc::__rust_dealloc
  call void @_RNvCsj3IbkTTFM3W_7___rustc14___rust_dealloc(ptr noundef nonnull %result.val8.i, i64 noundef %result.val.i, i64 noundef range(i64 1, -9223372036854775807) 1) #17, !dbg !4228, !noalias !3827
  br label %bb27.i, !dbg !4229

bb23.i:                                           ; preds = %bb4.i, %bb5.i, %bb6.i9, %"_ZN5alloc3vec16Vec$LT$T$C$A$GT$8push_mut17h013619124ed5d51cE.exit.i26.i", %bb13.i.i, %bb6.i.i
  %30 = getelementptr inbounds nuw i8, ptr %self, i64 24, !dbg !4230
  store i8 1, ptr %30, align 8, !dbg !4230, !alias.scope !3808, !noalias !3804
  store i64 -9223372036854775808, ptr %_0, align 8, !dbg !4230, !alias.scope !3804, !noalias !3808
  %result.val9.i = load i64, ptr %result.i, align 8, !dbg !4211, !noalias !3827
    #dbg_value(ptr poison, !218, !DIExpression(), !4231)
    #dbg_value(ptr poison, !228, !DIExpression(), !4233)
    #dbg_value(ptr poison, !238, !DIExpression(), !4235)
    #dbg_value(ptr poison, !248, !DIExpression(), !4237)
    #dbg_value(i64 1, !264, !DIExpression(DW_OP_LLVM_fragment, 0, 64), !4237)
    #dbg_value(i64 1, !264, !DIExpression(DW_OP_LLVM_fragment, 64, 64), !4237)
    #dbg_value(i64 1, !270, !DIExpression(DW_OP_LLVM_fragment, 0, 64), !4239)
    #dbg_value(i64 1, !270, !DIExpression(DW_OP_LLVM_fragment, 64, 64), !4239)
    #dbg_value(ptr poison, !295, !DIExpression(), !4239)
  %31 = icmp eq i64 %result.val9.i, 0, !dbg !4241
  br i1 %31, label %_ZN5shlex5bytes5Shlex10parse_word17h5f0015e72e3a4e6dE.exit, label %bb2.i.i.i4.i35.i, !dbg !4241

bb2.i.i.i4.i35.i:                                 ; preds = %bb23.i
  %result.val10.i = load ptr, ptr %6, align 8, !dbg !4211, !noalias !3827, !nonnull !19, !noundef !19
    #dbg_value(ptr %result.val10.i, !265, !DIExpression(), !4242)
    #dbg_value(i64 1, !267, !DIExpression(DW_OP_LLVM_fragment, 0, 64), !4242)
    #dbg_value(i64 %result.val9.i, !267, !DIExpression(DW_OP_LLVM_fragment, 64, 64), !4242)
    #dbg_value(i64 1, !304, !DIExpression(DW_OP_LLVM_fragment, 0, 64), !4243)
    #dbg_value(i64 %result.val9.i, !304, !DIExpression(DW_OP_LLVM_fragment, 64, 64), !4243)
    #dbg_value(ptr poison, !312, !DIExpression(), !4243)
    #dbg_value(ptr %result.val10.i, !313, !DIExpression(), !4243)
    #dbg_value(ptr %result.val10.i, !316, !DIExpression(), !4245)
    #dbg_value(i64 1, !322, !DIExpression(DW_OP_LLVM_fragment, 0, 64), !4245)
    #dbg_value(i64 %result.val9.i, !322, !DIExpression(DW_OP_LLVM_fragment, 64, 64), !4245)
; call __rustc::__rust_dealloc
  call void @_RNvCsj3IbkTTFM3W_7___rustc14___rust_dealloc(ptr noundef nonnull %result.val10.i, i64 noundef %result.val9.i, i64 noundef range(i64 1, -9223372036854775807) 1) #17, !dbg !4247, !noalias !3827
  br label %_ZN5shlex5bytes5Shlex10parse_word17h5f0015e72e3a4e6dE.exit, !dbg !4248

bb18.i:                                           ; preds = %bb6.i.i19.i, %bb6.i.i.i, %"_ZN5alloc3vec16Vec$LT$T$C$A$GT$8push_mut17h013619124ed5d51cE.exit54.i", %bb14.thread.i, %"_ZN5alloc3vec16Vec$LT$T$C$A$GT$8push_mut17h013619124ed5d51cE.exit.i"
  %len.i4691.i = phi i64 [ %len.i.i, %bb14.thread.i ], [ %34, %"_ZN5alloc3vec16Vec$LT$T$C$A$GT$8push_mut17h013619124ed5d51cE.exit54.i" ], [ %9, %"_ZN5alloc3vec16Vec$LT$T$C$A$GT$8push_mut17h013619124ed5d51cE.exit.i" ], [ %len.i.i.i, %bb6.i.i.i ], [ %len.i.i23.i, %bb6.i.i19.i ]
  %32 = phi i64 [ %28, %bb14.thread.i ], [ %8, %"_ZN5alloc3vec16Vec$LT$T$C$A$GT$8push_mut17h013619124ed5d51cE.exit54.i" ], [ %8, %"_ZN5alloc3vec16Vec$LT$T$C$A$GT$8push_mut17h013619124ed5d51cE.exit.i" ], [ %10, %bb6.i.i.i ], [ %22, %bb6.i.i19.i ]
  %_22.i4168.i = phi ptr [ %_22.i.i, %bb14.thread.i ], [ %_22.i.i, %"_ZN5alloc3vec16Vec$LT$T$C$A$GT$8push_mut17h013619124ed5d51cE.exit54.i" ], [ %_22.i4169.i, %"_ZN5alloc3vec16Vec$LT$T$C$A$GT$8push_mut17h013619124ed5d51cE.exit.i" ], [ %_22.i.i.i, %bb6.i.i.i ], [ %_22.i.i20.i, %bb6.i.i19.i ]
  call void @llvm.experimental.noalias.scope.decl(metadata !4249), !dbg !4252
    #dbg_value(ptr poison, !3755, !DIExpression(DW_OP_LLVM_fragment, 0, 8), !4253)
    #dbg_value(ptr poison, !3755, !DIExpression(DW_OP_LLVM_fragment, 8, 8), !4253)
    #dbg_value(ptr %self, !3751, !DIExpression(), !4256)
    #dbg_value(i64 1, !3769, !DIExpression(), !4257)
    #dbg_value(ptr %self, !3729, !DIExpression(), !4260)
    #dbg_value(ptr %_22.i4168.i, !3730, !DIExpression(), !4261)
    #dbg_value(ptr %_22.i4168.i, !3772, !DIExpression(), !4257)
    #dbg_value(ptr %end_or_len.i, !3731, !DIExpression(), !4262)
    #dbg_value(ptr undef, !3722, !DIExpression(), !4263)
    #dbg_value(ptr undef, !3719, !DIExpression(), !4263)
  %_12.i38.not.i = icmp eq ptr %_22.i4168.i, %end_or_len.i, !dbg !4265
  br i1 %_12.i38.not.i, label %bb22.i, label %bb6.i40.i, !dbg !4266

bb6.i40.i:                                        ; preds = %bb18.i
  %_22.i41.i = getelementptr inbounds nuw i8, ptr %_22.i4168.i, i64 1, !dbg !4267
  store ptr %_22.i41.i, ptr %self, align 8, !dbg !4268, !alias.scope !4269, !noalias !3804
    #dbg_value(ptr %_22.i4168.i, !3784, !DIExpression(), !4270)
  %v.i42.i = load i8, ptr %_22.i4168.i, align 1, !dbg !4272, !noalias !4273, !noundef !19
    #dbg_value(i8 poison, !3752, !DIExpression(DW_OP_LLVM_fragment, 0, 8), !4274)
    #dbg_value(i8 %v.i42.i, !3752, !DIExpression(DW_OP_LLVM_fragment, 8, 8), !4274)
    #dbg_value(ptr undef, !3755, !DIExpression(), !4253)
    #dbg_value(ptr poison, !3762, !DIExpression(), !4253)
  %_5.i43.i = icmp eq i8 %v.i42.i, 10
  br i1 %_5.i43.i, label %bb1.i44.i, label %bb20.i, !dbg !4275

bb1.i44.i:                                        ; preds = %bb6.i40.i
  %33 = add i64 %32, 1, !dbg !4276
  store i64 %33, ptr %5, align 8, !dbg !4276, !alias.scope !4269, !noalias !3804
  br label %bb20.i, !dbg !4277

bb15.i:                                           ; preds = %bb6.i31.i
    #dbg_value(i8 %v.i.i, !3819, !DIExpression(), !4207)
    #dbg_value(i8 %v.i.i, !3836, !DIExpression(), !4208)
    #dbg_value(ptr %result.i, !3833, !DIExpression(), !4208)
    #dbg_value(ptr %result.i, !2620, !DIExpression(), !4278)
    #dbg_value(ptr %result.i, !2646, !DIExpression(), !4280)
    #dbg_value(i8 %v.i.i, !2621, !DIExpression(), !4278)
    #dbg_value(i64 %len.i.i, !2622, !DIExpression(), !4282)
    #dbg_value(i64 %len.i.i, !2652, !DIExpression(), !4283)
    #dbg_value(ptr %result.i, !2643, !DIExpression(), !4285)
    #dbg_value(ptr %result.i, !2635, !DIExpression(), !4287)
    #dbg_value(i64 1, !2636, !DIExpression(), !4287)
  %self3.i47.i = load i64, ptr %result.i, align 8, !dbg !4289, !range !327, !alias.scope !4290, !noalias !4293, !noundef !19
  %_4.i48.i = icmp eq i64 %len.i.i, %self3.i47.i, !dbg !4295
  br i1 %_4.i48.i, label %bb1.i52.i, label %"_ZN5alloc3vec16Vec$LT$T$C$A$GT$8push_mut17h013619124ed5d51cE.exit54.i", !dbg !4295

bb1.i52.i:                                        ; preds = %bb15.i
; invoke alloc::raw_vec::RawVec<T,A>::grow_one
  invoke void @"_ZN5alloc7raw_vec19RawVec$LT$T$C$A$GT$8grow_one17h3e6312be3fa2afbcE"(ptr noalias noundef nonnull align 8 dereferenceable(24) %result.i, ptr noalias noundef nonnull readonly align 8 captures(address, read_provenance) dereferenceable(24) @alloc_072e6c7ad9faa5ad2c2912dc04fdc595)
          to label %"_ZN5alloc3vec16Vec$LT$T$C$A$GT$8push_mut17h013619124ed5d51cE.exit54.i" unwind label %cleanup.loopexit.split-lp.loopexit.split-lp.i, !dbg !4296, !noalias !3827

"_ZN5alloc3vec16Vec$LT$T$C$A$GT$8push_mut17h013619124ed5d51cE.exit54.i": ; preds = %bb1.i52.i, %bb15.i
  %_15.i50.i = load ptr, ptr %6, align 8, !dbg !4297, !alias.scope !4290, !noalias !4293, !nonnull !19, !noundef !19
    #dbg_value(ptr %_15.i50.i, !2655, !DIExpression(), !4283)
  %end.i51.i = getelementptr inbounds nuw i8, ptr %_15.i50.i, i64 %len.i.i, !dbg !4301
    #dbg_value(ptr %end.i51.i, !2624, !DIExpression(), !4302)
    #dbg_value(ptr %end.i51.i, !2671, !DIExpression(), !4303)
    #dbg_value(i8 %v.i.i, !2676, !DIExpression(), !4303)
  store i8 %v.i.i, ptr %end.i51.i, align 1, !dbg !4305, !noalias !3827
  %34 = add i64 %len.i.i, 1, !dbg !4306
  store i64 %34, ptr %7, align 8, !dbg !4306, !alias.scope !4290, !noalias !4293
  br label %bb18.i, !dbg !4307

bb22.i:                                           ; preds = %bb18.i, %bb1.i8, %bb1.i8, %bb1.i8
  call void @llvm.memcpy.p0.p0.i64(ptr noundef nonnull align 8 dereferenceable(24) %_0, ptr noundef nonnull align 8 dereferenceable(24) %result.i, i64 24, i1 false), !dbg !4308, !noalias !3808
  br label %_ZN5shlex5bytes5Shlex10parse_word17h5f0015e72e3a4e6dE.exit, !dbg !4309

bb20.i:                                           ; preds = %bb1.i44.i, %bb6.i40.i
  %35 = phi i64 [ %33, %bb1.i44.i ], [ %32, %bb6.i40.i ]
    #dbg_value(i8 %v.i42.i, !3821, !DIExpression(), !4310)
    #dbg_value(i8 %v.i42.i, !3810, !DIExpression(), !3823)
  br label %bb1.i8, !dbg !3831

bb27.i:                                           ; preds = %bb2.i.i.i4.i.i, %cleanup.i
  resume { ptr, i32 } %lpad.phi.i, !dbg !4311

_ZN5shlex5bytes5Shlex10parse_word17h5f0015e72e3a4e6dE.exit: ; preds = %bb23.i, %bb2.i.i.i4.i35.i, %bb22.i
  call void @llvm.lifetime.end.p0(i64 24, ptr nonnull %result.i), !dbg !4211, !noalias !3827
  br label %bb18, !dbg !3801

bb11:                                             ; preds = %bb5, %bb1.i26, %bb3, %bb3, %bb3
  %36 = phi i64 [ %39, %bb1.i26 ], [ %.promoted.i, %bb3 ], [ %.promoted.i, %bb3 ], [ %.promoted.i, %bb3 ], [ %.promoted.i, %bb5 ]
  %self.promoted54 = phi ptr [ %_22.i23, %bb1.i26 ], [ %self.promoted.i, %bb3 ], [ %self.promoted.i, %bb3 ], [ %self.promoted.i, %bb3 ], [ %_22.i2351, %bb5 ]
  tail call void @llvm.experimental.noalias.scope.decl(metadata !4312), !dbg !4315
    #dbg_value(ptr poison, !3755, !DIExpression(DW_OP_LLVM_fragment, 0, 8), !4316)
    #dbg_value(ptr poison, !3755, !DIExpression(DW_OP_LLVM_fragment, 8, 8), !4316)
    #dbg_value(ptr %self, !3751, !DIExpression(), !4319)
    #dbg_value(i64 1, !3769, !DIExpression(), !4320)
    #dbg_value(ptr %self, !3729, !DIExpression(), !4323)
    #dbg_value(ptr %self.promoted54, !3730, !DIExpression(), !4324)
    #dbg_value(ptr %self.promoted54, !3772, !DIExpression(), !4320)
    #dbg_value(ptr %end_or_len.i, !3731, !DIExpression(), !4325)
    #dbg_value(ptr undef, !3722, !DIExpression(), !4326)
    #dbg_value(ptr undef, !3719, !DIExpression(), !4326)
  %_12.i11.not = icmp eq ptr %self.promoted54, %end_or_len.i, !dbg !4328
  br i1 %_12.i11.not, label %bb14, label %bb6.i13, !dbg !4329

bb6.i13:                                          ; preds = %bb11
  %_22.i14 = getelementptr inbounds nuw i8, ptr %self.promoted54, i64 1, !dbg !4330
  store ptr %_22.i14, ptr %self, align 8, !dbg !4331, !alias.scope !4312
    #dbg_value(ptr %self.promoted54, !3784, !DIExpression(), !4332)
  %v.i15 = load i8, ptr %self.promoted54, align 1, !dbg !4334, !noalias !4312, !noundef !19
    #dbg_value(i8 poison, !3752, !DIExpression(DW_OP_LLVM_fragment, 0, 8), !4335)
    #dbg_value(i8 %v.i15, !3752, !DIExpression(DW_OP_LLVM_fragment, 8, 8), !4335)
    #dbg_value(ptr undef, !3755, !DIExpression(), !4316)
    #dbg_value(ptr poison, !3762, !DIExpression(), !4316)
  %_5.i16 = icmp eq i8 %v.i15, 10
  br i1 %_5.i16, label %bb1.i17, label %_ZN5shlex5bytes5Shlex9next_char17h33f278341b7511deE.exit18, !dbg !4336

bb1.i17:                                          ; preds = %bb6.i13
  %37 = add i64 %36, 1, !dbg !4337
  store i64 %37, ptr %5, align 8, !dbg !4337, !alias.scope !4312
  br label %_ZN5shlex5bytes5Shlex9next_char17h33f278341b7511deE.exit18, !dbg !4338

_ZN5shlex5bytes5Shlex9next_char17h33f278341b7511deE.exit18: ; preds = %bb6.i13, %bb1.i17
  %38 = phi i64 [ %36, %bb6.i13 ], [ %37, %bb1.i17 ]
  br label %bb3, !dbg !4339

bb5:                                              ; preds = %bb3, %bb6.i22
  %_22.i2351 = phi ptr [ %_22.i23, %bb6.i22 ], [ %self.promoted.i, %bb3 ]
  tail call void @llvm.experimental.noalias.scope.decl(metadata !4340), !dbg !4343
    #dbg_value(ptr poison, !3755, !DIExpression(DW_OP_LLVM_fragment, 0, 8), !4344)
    #dbg_value(ptr poison, !3755, !DIExpression(DW_OP_LLVM_fragment, 8, 8), !4344)
    #dbg_value(ptr %self, !3751, !DIExpression(), !4347)
    #dbg_value(i64 1, !3769, !DIExpression(), !4348)
    #dbg_value(ptr %self, !3729, !DIExpression(), !4351)
    #dbg_value(ptr %_22.i2351, !3730, !DIExpression(), !4352)
    #dbg_value(ptr %_22.i2351, !3772, !DIExpression(), !4348)
    #dbg_value(ptr %end_or_len.i, !3731, !DIExpression(), !4353)
    #dbg_value(ptr undef, !3722, !DIExpression(), !4354)
    #dbg_value(ptr undef, !3719, !DIExpression(), !4354)
  %_12.i20.not = icmp eq ptr %_22.i2351, %end_or_len.i, !dbg !4356
  br i1 %_12.i20.not, label %bb11, label %bb6.i22, !dbg !4357

bb6.i22:                                          ; preds = %bb5
  %_22.i23 = getelementptr inbounds nuw i8, ptr %_22.i2351, i64 1, !dbg !4358
  store ptr %_22.i23, ptr %self, align 8, !dbg !4359, !alias.scope !4340
    #dbg_value(ptr %_22.i2351, !3784, !DIExpression(), !4360)
  %v.i24 = load i8, ptr %_22.i2351, align 1, !dbg !4362, !noalias !4340, !noundef !19
    #dbg_value(i8 poison, !3752, !DIExpression(DW_OP_LLVM_fragment, 0, 8), !4363)
    #dbg_value(i8 %v.i24, !3752, !DIExpression(DW_OP_LLVM_fragment, 8, 8), !4363)
    #dbg_value(ptr undef, !3755, !DIExpression(), !4344)
    #dbg_value(ptr poison, !3762, !DIExpression(), !4344)
  %_5.i25 = icmp eq i8 %v.i24, 10
  br i1 %_5.i25, label %bb1.i26, label %bb5, !dbg !4364

bb1.i26:                                          ; preds = %bb6.i22
  %39 = add i64 %.promoted.i, 1, !dbg !4365
  store i64 %39, ptr %5, align 8, !dbg !4365, !alias.scope !4340
  br label %bb11, !dbg !4366

bb14:                                             ; preds = %bb11
  store i64 -9223372036854775808, ptr %_0, align 8, !dbg !4367
  br label %bb18, !dbg !4368

bb18:                                             ; preds = %_ZN5shlex5bytes5Shlex10parse_word17h5f0015e72e3a4e6dE.exit, %bb16, %bb14
  ret void, !dbg !4368
}

; Function Attrs: nounwind nonlazybind uwtable
declare noundef range(i32 0, 10) i32 @rust_eh_personality(i32 noundef, i32 noundef, i64 noundef, ptr noundef, ptr noundef) unnamed_addr #0

; Function Attrs: mustprogress nocallback nofree nosync nounwind willreturn memory(argmem: readwrite)
declare void @llvm.lifetime.start.p0(i64 immarg, ptr captures(none)) #5

; Function Attrs: mustprogress nocallback nofree nosync nounwind willreturn memory(inaccessiblemem: write)
declare void @llvm.assume(i1 noundef) #6

; Function Attrs: mustprogress nocallback nofree nosync nounwind willreturn memory(argmem: readwrite)
declare void @llvm.lifetime.end.p0(i64 immarg, ptr captures(none)) #5

; Function Attrs: mustprogress nocallback nofree nounwind willreturn memory(argmem: readwrite)
declare void @llvm.memcpy.p0.p0.i64(ptr noalias writeonly captures(none), ptr noalias readonly captures(none), i64, i1 immarg) #7

; core::panicking::panic_fmt
; Function Attrs: cold noinline noreturn nonlazybind uwtable
declare void @_ZN4core9panicking9panic_fmt17h5138da2ef87be35bE(ptr dead_on_return noalias noundef readonly align 8 captures(address) dereferenceable(48), ptr noalias noundef readonly align 8 captures(address, read_provenance) dereferenceable(24)) unnamed_addr #8

; core::panicking::panic
; Function Attrs: cold noinline noreturn nonlazybind uwtable
declare void @_ZN4core9panicking5panic17hb515f22c0e98143aE(ptr noalias noundef nonnull readonly align 1 captures(address, read_provenance), i64 noundef, ptr noalias noundef readonly align 8 captures(address, read_provenance) dereferenceable(24)) unnamed_addr #8

; Function Attrs: mustprogress nocallback nofree nosync nounwind speculatable willreturn memory(none)
declare { i64, i1 } @llvm.umul.with.overflow.i64(i64, i64) #9

; core::result::unwrap_failed
; Function Attrs: cold noinline noreturn nonlazybind uwtable
declare void @_ZN4core6result13unwrap_failed17h5d9b16b0b732a2acE(ptr noalias noundef nonnull readonly align 1 captures(address, read_provenance), i64 noundef, ptr noundef nonnull align 1, ptr noalias noundef readonly align 8 captures(address, read_provenance) dereferenceable(32), ptr noalias noundef readonly align 8 captures(address, read_provenance) dereferenceable(24)) unnamed_addr #8

; core::fmt::Formatter::write_str
; Function Attrs: nonlazybind uwtable
declare noundef zeroext i1 @_ZN4core3fmt9Formatter9write_str17h237fd59854368856E(ptr noalias noundef align 8 dereferenceable(24), ptr noalias noundef nonnull readonly align 1 captures(address, read_provenance), i64 noundef) unnamed_addr #2

; alloc::raw_vec::RawVec<T,A>::grow_one
; Function Attrs: noinline nonlazybind uwtable
declare void @"_ZN5alloc7raw_vec19RawVec$LT$T$C$A$GT$8grow_one17h3e6312be3fa2afbcE"(ptr noalias noundef align 8 dereferenceable(16), ptr noalias noundef readonly align 8 captures(address, read_provenance) dereferenceable(24)) unnamed_addr #10

; __rustc::__rust_no_alloc_shim_is_unstable_v2
; Function Attrs: nounwind nonlazybind uwtable
declare void @_RNvCsj3IbkTTFM3W_7___rustc35___rust_no_alloc_shim_is_unstable_v2() unnamed_addr #0

; __rustc::__rust_alloc
; Function Attrs: nounwind nonlazybind allockind("alloc,uninitialized,aligned") allocsize(0) uwtable
declare noalias noundef ptr @_RNvCsj3IbkTTFM3W_7___rustc12___rust_alloc(i64 noundef, i64 allocalign noundef) unnamed_addr #11

; __rustc::__rust_dealloc
; Function Attrs: nounwind nonlazybind allockind("free") uwtable
declare void @_RNvCsj3IbkTTFM3W_7___rustc14___rust_dealloc(ptr allocptr noundef, i64 noundef, i64 noundef) unnamed_addr #12

; __rustc::__rust_realloc
; Function Attrs: nounwind nonlazybind allockind("realloc,aligned") allocsize(3) uwtable
declare noalias noundef ptr @_RNvCsj3IbkTTFM3W_7___rustc14___rust_realloc(ptr allocptr noundef, i64 noundef, i64 allocalign noundef, i64 noundef) unnamed_addr #13

; alloc::raw_vec::handle_error
; Function Attrs: cold minsize noreturn nonlazybind optsize uwtable
declare void @_ZN5alloc7raw_vec12handle_error17h44cc7051d170a168E(i64 noundef range(i64 0, -9223372036854775807), i64, ptr noalias noundef readonly align 8 captures(address, read_provenance) dereferenceable(24)) unnamed_addr #14

; Function Attrs: nocallback nofree nosync nounwind willreturn memory(inaccessiblemem: readwrite)
declare void @llvm.experimental.noalias.scope.decl(metadata) #15

; Function Attrs: nocallback nofree nosync nounwind speculatable willreturn memory(none)
declare i64 @llvm.umax.i64(i64, i64) #16

attributes #0 = { nounwind nonlazybind uwtable "probe-stack"="inline-asm" "target-cpu"="x86-64" }
attributes #1 = { inlinehint nonlazybind uwtable "probe-stack"="inline-asm" "target-cpu"="x86-64" }
attributes #2 = { nonlazybind uwtable "probe-stack"="inline-asm" "target-cpu"="x86-64" }
attributes #3 = { cold nounwind nonlazybind uwtable "probe-stack"="inline-asm" "target-cpu"="x86-64" }
attributes #4 = { cold nonlazybind uwtable "probe-stack"="inline-asm" "target-cpu"="x86-64" }
attributes #5 = { mustprogress nocallback nofree nosync nounwind willreturn memory(argmem: readwrite) }
attributes #6 = { mustprogress nocallback nofree nosync nounwind willreturn memory(inaccessiblemem: write) }
attributes #7 = { mustprogress nocallback nofree nounwind willreturn memory(argmem: readwrite) }
attributes #8 = { cold noinline noreturn nonlazybind uwtable "probe-stack"="inline-asm" "target-cpu"="x86-64" }
attributes #9 = { mustprogress nocallback nofree nosync nounwind speculatable willreturn memory(none) }
attributes #10 = { noinline nonlazybind uwtable "probe-stack"="inline-asm" "target-cpu"="x86-64" }
attributes #11 = { nounwind nonlazybind allockind("alloc,uninitialized,aligned") allocsize(0) uwtable "alloc-family"="__rust_alloc" "probe-stack"="inline-asm" "target-cpu"="x86-64" }
attributes #12 = { nounwind nonlazybind allockind("free") uwtable "alloc-family"="__rust_alloc" "probe-stack"="inline-asm" "target-cpu"="x86-64" }
attributes #13 = { nounwind nonlazybind allockind("realloc,aligned") allocsize(3) uwtable "alloc-family"="__rust_alloc" "probe-stack"="inline-asm" "target-cpu"="x86-64" }
attributes #14 = { cold minsize noreturn nonlazybind optsize uwtable "probe-stack"="inline-asm" "target-cpu"="x86-64" }
attributes #15 = { nocallback nofree nosync nounwind willreturn memory(inaccessiblemem: readwrite) }
attributes #16 = { nocallback nofree nosync nounwind speculatable willreturn memory(none) }
attributes #17 = { nounwind }
attributes #18 = { noreturn }
attributes #19 = { cold }

!llvm.module.flags = !{!20, !21, !22, !23}
!llvm.ident = !{!24}
!llvm.dbg.cu = !{!25}

!0 = !DIGlobalVariableExpression(var: !1, expr: !DIExpression())
!1 = distinct !DIGlobalVariable(name: "<shlex::QuoteError as core::fmt::Debug>::{vtable}", scope: null, file: !2, type: !3, isLocal: true, isDefinition: true)
!2 = !DIFile(filename: "<unknown>", directory: "")
!3 = !DICompositeType(tag: DW_TAG_structure_type, name: "<shlex::QuoteError as core::fmt::Debug>::{vtable_type}", file: !2, size: 256, align: 64, flags: DIFlagArtificial, elements: !4, vtableHolder: !12, templateParams: !19, identifier: "b022fc84e904c2b4d01cbad22406cb")
!4 = !{!5, !8, !10, !11}
!5 = !DIDerivedType(tag: DW_TAG_member, name: "drop_in_place", scope: !3, file: !2, baseType: !6, size: 64, align: 64)
!6 = !DIDerivedType(tag: DW_TAG_pointer_type, name: "*const ()", baseType: !7, size: 64, align: 64, dwarfAddressSpace: 0)
!7 = !DIBasicType(name: "()", encoding: DW_ATE_unsigned)
!8 = !DIDerivedType(tag: DW_TAG_member, name: "size", scope: !3, file: !2, baseType: !9, size: 64, align: 64, offset: 64)
!9 = !DIBasicType(name: "usize", size: 64, encoding: DW_ATE_unsigned)
!10 = !DIDerivedType(tag: DW_TAG_member, name: "align", scope: !3, file: !2, baseType: !9, size: 64, align: 64, offset: 128)
!11 = !DIDerivedType(tag: DW_TAG_member, name: "__method3", scope: !3, file: !2, baseType: !6, size: 64, align: 64, offset: 192)
!12 = !DICompositeType(tag: DW_TAG_structure_type, name: "QuoteError", scope: !13, file: !2, align: 8, flags: DIFlagPublic, elements: !14, templateParams: !19, identifier: "bf967ecf2b106a6724d3b40a6aafb0")
!13 = !DINamespace(name: "shlex", scope: null)
!14 = !{!15}
!15 = !DICompositeType(tag: DW_TAG_variant_part, scope: !12, file: !2, align: 8, elements: !16, templateParams: !19, identifier: "7f420c1a3c830f8657246019c609be44")
!16 = !{!17}
!17 = !DIDerivedType(tag: DW_TAG_member, name: "Nul", scope: !15, file: !2, baseType: !18, align: 8)
!18 = !DICompositeType(tag: DW_TAG_structure_type, name: "Nul", scope: !12, file: !2, align: 8, flags: DIFlagPublic, elements: !19, identifier: "71f98be15a7c0794642cbcbf84e5784f")
!19 = !{}
!20 = !{i32 8, !"PIC Level", i32 2}
!21 = !{i32 2, !"RtLibUseGOT", i32 1}
!22 = !{i32 7, !"Dwarf Version", i32 4}
!23 = !{i32 2, !"Debug Info Version", i32 3}
!24 = !{!"rustc version 1.91.0 (f8297e351 2025-10-28)"}
!25 = distinct !DICompileUnit(language: DW_LANG_Rust, file: !26, producer: "clang LLVM (rustc version 1.91.0 (f8297e351 2025-10-28))", isOptimized: true, runtimeVersion: 0, emissionKind: FullDebug, enums: !27, globals: !117, splitDebugInlining: false, nameTableKind: None)
!26 = !DIFile(filename: "/users/ddavis65/.cargo/registry/src/index.crates.io-1949cf8c6b5b557f/shlex-1.3.0/src/lib.rs/@/shlex.8d78357b9092b99e-cgu.0", directory: "/users/ddavis65/.cargo/registry/src/index.crates.io-1949cf8c6b5b557f/shlex-1.3.0")
!27 = !{!28, !98, !105, !111}
!28 = !DICompositeType(tag: DW_TAG_enumeration_type, name: "AlignmentEnum", scope: !29, file: !2, baseType: !32, size: 64, align: 64, flags: DIFlagEnumClass, elements: !33)
!29 = !DINamespace(name: "alignment", scope: !30)
!30 = !DINamespace(name: "ptr", scope: !31)
!31 = !DINamespace(name: "core", scope: null)
!32 = !DIBasicType(name: "u64", size: 64, encoding: DW_ATE_unsigned)
!33 = !{!34, !35, !36, !37, !38, !39, !40, !41, !42, !43, !44, !45, !46, !47, !48, !49, !50, !51, !52, !53, !54, !55, !56, !57, !58, !59, !60, !61, !62, !63, !64, !65, !66, !67, !68, !69, !70, !71, !72, !73, !74, !75, !76, !77, !78, !79, !80, !81, !82, !83, !84, !85, !86, !87, !88, !89, !90, !91, !92, !93, !94, !95, !96, !97}
!34 = !DIEnumerator(name: "_Align1Shl0", value: 1, isUnsigned: true)
!35 = !DIEnumerator(name: "_Align1Shl1", value: 2, isUnsigned: true)
!36 = !DIEnumerator(name: "_Align1Shl2", value: 4, isUnsigned: true)
!37 = !DIEnumerator(name: "_Align1Shl3", value: 8, isUnsigned: true)
!38 = !DIEnumerator(name: "_Align1Shl4", value: 16, isUnsigned: true)
!39 = !DIEnumerator(name: "_Align1Shl5", value: 32, isUnsigned: true)
!40 = !DIEnumerator(name: "_Align1Shl6", value: 64, isUnsigned: true)
!41 = !DIEnumerator(name: "_Align1Shl7", value: 128, isUnsigned: true)
!42 = !DIEnumerator(name: "_Align1Shl8", value: 256, isUnsigned: true)
!43 = !DIEnumerator(name: "_Align1Shl9", value: 512, isUnsigned: true)
!44 = !DIEnumerator(name: "_Align1Shl10", value: 1024, isUnsigned: true)
!45 = !DIEnumerator(name: "_Align1Shl11", value: 2048, isUnsigned: true)
!46 = !DIEnumerator(name: "_Align1Shl12", value: 4096, isUnsigned: true)
!47 = !DIEnumerator(name: "_Align1Shl13", value: 8192, isUnsigned: true)
!48 = !DIEnumerator(name: "_Align1Shl14", value: 16384, isUnsigned: true)
!49 = !DIEnumerator(name: "_Align1Shl15", value: 32768, isUnsigned: true)
!50 = !DIEnumerator(name: "_Align1Shl16", value: 65536, isUnsigned: true)
!51 = !DIEnumerator(name: "_Align1Shl17", value: 131072, isUnsigned: true)
!52 = !DIEnumerator(name: "_Align1Shl18", value: 262144, isUnsigned: true)
!53 = !DIEnumerator(name: "_Align1Shl19", value: 524288, isUnsigned: true)
!54 = !DIEnumerator(name: "_Align1Shl20", value: 1048576, isUnsigned: true)
!55 = !DIEnumerator(name: "_Align1Shl21", value: 2097152, isUnsigned: true)
!56 = !DIEnumerator(name: "_Align1Shl22", value: 4194304, isUnsigned: true)
!57 = !DIEnumerator(name: "_Align1Shl23", value: 8388608, isUnsigned: true)
!58 = !DIEnumerator(name: "_Align1Shl24", value: 16777216, isUnsigned: true)
!59 = !DIEnumerator(name: "_Align1Shl25", value: 33554432, isUnsigned: true)
!60 = !DIEnumerator(name: "_Align1Shl26", value: 67108864, isUnsigned: true)
!61 = !DIEnumerator(name: "_Align1Shl27", value: 134217728, isUnsigned: true)
!62 = !DIEnumerator(name: "_Align1Shl28", value: 268435456, isUnsigned: true)
!63 = !DIEnumerator(name: "_Align1Shl29", value: 536870912, isUnsigned: true)
!64 = !DIEnumerator(name: "_Align1Shl30", value: 1073741824, isUnsigned: true)
!65 = !DIEnumerator(name: "_Align1Shl31", value: 2147483648, isUnsigned: true)
!66 = !DIEnumerator(name: "_Align1Shl32", value: 4294967296, isUnsigned: true)
!67 = !DIEnumerator(name: "_Align1Shl33", value: 8589934592, isUnsigned: true)
!68 = !DIEnumerator(name: "_Align1Shl34", value: 17179869184, isUnsigned: true)
!69 = !DIEnumerator(name: "_Align1Shl35", value: 34359738368, isUnsigned: true)
!70 = !DIEnumerator(name: "_Align1Shl36", value: 68719476736, isUnsigned: true)
!71 = !DIEnumerator(name: "_Align1Shl37", value: 137438953472, isUnsigned: true)
!72 = !DIEnumerator(name: "_Align1Shl38", value: 274877906944, isUnsigned: true)
!73 = !DIEnumerator(name: "_Align1Shl39", value: 549755813888, isUnsigned: true)
!74 = !DIEnumerator(name: "_Align1Shl40", value: 1099511627776, isUnsigned: true)
!75 = !DIEnumerator(name: "_Align1Shl41", value: 2199023255552, isUnsigned: true)
!76 = !DIEnumerator(name: "_Align1Shl42", value: 4398046511104, isUnsigned: true)
!77 = !DIEnumerator(name: "_Align1Shl43", value: 8796093022208, isUnsigned: true)
!78 = !DIEnumerator(name: "_Align1Shl44", value: 17592186044416, isUnsigned: true)
!79 = !DIEnumerator(name: "_Align1Shl45", value: 35184372088832, isUnsigned: true)
!80 = !DIEnumerator(name: "_Align1Shl46", value: 70368744177664, isUnsigned: true)
!81 = !DIEnumerator(name: "_Align1Shl47", value: 140737488355328, isUnsigned: true)
!82 = !DIEnumerator(name: "_Align1Shl48", value: 281474976710656, isUnsigned: true)
!83 = !DIEnumerator(name: "_Align1Shl49", value: 562949953421312, isUnsigned: true)
!84 = !DIEnumerator(name: "_Align1Shl50", value: 1125899906842624, isUnsigned: true)
!85 = !DIEnumerator(name: "_Align1Shl51", value: 2251799813685248, isUnsigned: true)
!86 = !DIEnumerator(name: "_Align1Shl52", value: 4503599627370496, isUnsigned: true)
!87 = !DIEnumerator(name: "_Align1Shl53", value: 9007199254740992, isUnsigned: true)
!88 = !DIEnumerator(name: "_Align1Shl54", value: 18014398509481984, isUnsigned: true)
!89 = !DIEnumerator(name: "_Align1Shl55", value: 36028797018963968, isUnsigned: true)
!90 = !DIEnumerator(name: "_Align1Shl56", value: 72057594037927936, isUnsigned: true)
!91 = !DIEnumerator(name: "_Align1Shl57", value: 144115188075855872, isUnsigned: true)
!92 = !DIEnumerator(name: "_Align1Shl58", value: 288230376151711744, isUnsigned: true)
!93 = !DIEnumerator(name: "_Align1Shl59", value: 576460752303423488, isUnsigned: true)
!94 = !DIEnumerator(name: "_Align1Shl60", value: 1152921504606846976, isUnsigned: true)
!95 = !DIEnumerator(name: "_Align1Shl61", value: 2305843009213693952, isUnsigned: true)
!96 = !DIEnumerator(name: "_Align1Shl62", value: 4611686018427387904, isUnsigned: true)
!97 = !DIEnumerator(name: "_Align1Shl63", value: 9223372036854775808, isUnsigned: true)
!98 = !DICompositeType(tag: DW_TAG_enumeration_type, name: "AssertKind", scope: !99, file: !2, baseType: !100, size: 8, align: 8, flags: DIFlagEnumClass, elements: !101)
!99 = !DINamespace(name: "panicking", scope: !31)
!100 = !DIBasicType(name: "u8", size: 8, encoding: DW_ATE_unsigned)
!101 = !{!102, !103, !104}
!102 = !DIEnumerator(name: "Eq", value: 0, isUnsigned: true)
!103 = !DIEnumerator(name: "Ne", value: 1, isUnsigned: true)
!104 = !DIEnumerator(name: "Match", value: 2, isUnsigned: true)
!105 = !DICompositeType(tag: DW_TAG_enumeration_type, name: "AllocInit", scope: !106, file: !2, baseType: !100, size: 8, align: 8, flags: DIFlagEnumClass, elements: !108)
!106 = !DINamespace(name: "raw_vec", scope: !107)
!107 = !DINamespace(name: "alloc", scope: null)
!108 = !{!109, !110}
!109 = !DIEnumerator(name: "Uninitialized", value: 0, isUnsigned: true)
!110 = !DIEnumerator(name: "Zeroed", value: 1, isUnsigned: true)
!111 = !DICompositeType(tag: DW_TAG_enumeration_type, name: "QuotingStrategy", scope: !112, file: !2, baseType: !100, size: 8, align: 8, flags: DIFlagEnumClass, elements: !113)
!112 = !DINamespace(name: "bytes", scope: !13)
!113 = !{!114, !115, !116}
!114 = !DIEnumerator(name: "Unquoted", value: 0, isUnsigned: true)
!115 = !DIEnumerator(name: "SingleQuoted", value: 1, isUnsigned: true)
!116 = !DIEnumerator(name: "DoubleQuoted", value: 2, isUnsigned: true)
!117 = !{!0}
!118 = distinct !DISubprogram(name: "drop_in_place<alloc::vec::Vec<alloc::string::String, alloc::alloc::Global>>", linkageName: "_ZN4core3ptr65drop_in_place$LT$alloc..vec..Vec$LT$alloc..string..String$GT$$GT$17h6789dda638ad4a02E", scope: !30, file: !119, line: 804, type: !120, scopeLine: 804, flags: DIFlagPrototyped, spFlags: DISPFlagLocalToUnit | DISPFlagDefinition | DISPFlagOptimized, unit: !25, templateParams: !179, retainedNodes: !177)
!119 = !DIFile(filename: "/rustc/f8297e351a40c1439a467bbbb6879088047f50b3/library/core/src/ptr/mod.rs", directory: "", checksumkind: CSK_MD5, checksum: "c5f2d426634be2ba42d3c6d95b93c483")
!120 = !DISubroutineType(types: !121)
!121 = !{null, !122}
!122 = !DIDerivedType(tag: DW_TAG_pointer_type, name: "*mut alloc::vec::Vec<alloc::string::String, alloc::alloc::Global>", baseType: !123, size: 64, align: 64, dwarfAddressSpace: 0)
!123 = !DICompositeType(tag: DW_TAG_structure_type, name: "Vec<alloc::string::String, alloc::alloc::Global>", scope: !124, file: !2, size: 192, align: 64, flags: DIFlagPublic, elements: !125, templateParams: !175, identifier: "a190a071937f388c7ccc8c4a551ed5a8")
!124 = !DINamespace(name: "vec", scope: !107)
!125 = !{!126, !176}
!126 = !DIDerivedType(tag: DW_TAG_member, name: "buf", scope: !123, file: !2, baseType: !127, size: 128, align: 64, flags: DIFlagPrivate)
!127 = !DICompositeType(tag: DW_TAG_structure_type, name: "RawVec<alloc::string::String, alloc::alloc::Global>", scope: !106, file: !2, size: 128, align: 64, flags: DIFlagProtected, elements: !128, templateParams: !175, identifier: "ce98270e9df40c4718fc69b9cceceeb5")
!128 = !{!129, !158}
!129 = !DIDerivedType(tag: DW_TAG_member, name: "inner", scope: !127, file: !2, baseType: !130, size: 128, align: 64, flags: DIFlagPrivate)
!130 = !DICompositeType(tag: DW_TAG_structure_type, name: "RawVecInner<alloc::alloc::Global>", scope: !106, file: !2, size: 128, align: 64, flags: DIFlagPrivate, elements: !131, templateParams: !156, identifier: "d9b585b851a6ea35649b1d69fe7eae64")
!131 = !{!132, !147, !153}
!132 = !DIDerivedType(tag: DW_TAG_member, name: "ptr", scope: !130, file: !2, baseType: !133, size: 64, align: 64, offset: 64, flags: DIFlagPrivate)
!133 = !DICompositeType(tag: DW_TAG_structure_type, name: "Unique<u8>", scope: !134, file: !2, size: 64, align: 64, flags: DIFlagPublic, elements: !135, templateParams: !142, identifier: "c3ca02706589197133726e3ebb88f38a")
!134 = !DINamespace(name: "unique", scope: !30)
!135 = !{!136, !144}
!136 = !DIDerivedType(tag: DW_TAG_member, name: "pointer", scope: !133, file: !2, baseType: !137, size: 64, align: 64, flags: DIFlagPrivate)
