; ModuleID = 'build_script_build.829a1aa83ee2f87c-cgu.0'
source_filename = "build_script_build.829a1aa83ee2f87c-cgu.0"
target datalayout = "e-m:e-p270:32:32-p271:32:32-p272:64:64-i64:64-i128:128-f80:128-n8:16:32:64-S128"
target triple = "x86_64-unknown-linux-gnu"

%"alloc::sync::Arc<std::path::Path>" = type { %"core::ptr::non_null::NonNull<alloc::sync::ArcInner<std::path::Path>>", %"core::marker::PhantomData<alloc::sync::ArcInner<std::path::Path>>", %"alloc::alloc::Global" }
%"core::ptr::non_null::NonNull<alloc::sync::ArcInner<std::path::Path>>" = type { { ptr, i64 } }
%"core::marker::PhantomData<alloc::sync::ArcInner<std::path::Path>>" = type {}
%"alloc::alloc::Global" = type {}
%"alloc::sync::Arc<str>" = type { %"core::ptr::non_null::NonNull<alloc::sync::ArcInner<str>>", %"core::marker::PhantomData<alloc::sync::ArcInner<str>>", %"alloc::alloc::Global" }
%"core::ptr::non_null::NonNull<alloc::sync::ArcInner<str>>" = type { { ptr, i64 } }
%"core::marker::PhantomData<alloc::sync::ArcInner<str>>" = type {}
%"core::option::Option<alloc::sync::Arc<str>>" = type { ptr, [1 x i64] }
%"alloc::sync::Arc<std::ffi::os_str::OsStr>" = type { %"core::ptr::non_null::NonNull<alloc::sync::ArcInner<std::ffi::os_str::OsStr>>", %"core::marker::PhantomData<alloc::sync::ArcInner<std::ffi::os_str::OsStr>>", %"alloc::alloc::Global" }
%"core::ptr::non_null::NonNull<alloc::sync::ArcInner<std::ffi::os_str::OsStr>>" = type { { ptr, i64 } }
%"core::marker::PhantomData<alloc::sync::ArcInner<std::ffi::os_str::OsStr>>" = type {}

@alloc_19449e3da955b13b793cfe21f5ea7b97 = private unnamed_addr constant [19 x i8] c"cargo:include=csrc\0A", align 1
@alloc_fc0f7cfa08327d6f39a13d1d2b2bc6c2 = private unnamed_addr constant <{ ptr, [8 x i8] }> <{ ptr @alloc_19449e3da955b13b793cfe21f5ea7b97, [8 x i8] c"\13\00\00\00\00\00\00\00" }>, align 8
@alloc_7384fc049953633b5c0a44c264e98ce1 = private unnamed_addr constant [12 x i8] c"csrc/mylib.c", align 1
@alloc_7458b201b863ad890e7da22f4b22bd9b = private unnamed_addr constant [17 x i8] c"/usr/bin/clang-21", align 1
@alloc_3cfdc61d33b0255ee4fc213bed181699 = private unnamed_addr constant [5 x i8] c"mylib", align 1
@alloc_ecb8d306211356b4836035c0ee023138 = private unnamed_addr constant [90 x i8] c"/users/ddavis65/.cargo/registry/src/index.crates.io-1949cf8c6b5b557f/cc-1.2.45/src/lib.rs\00", align 1
@alloc_927ac2e467f64e458b69161dc30e7207 = private unnamed_addr constant <{ ptr, [16 x i8] }> <{ ptr @alloc_ecb8d306211356b4836035c0ee023138, [16 x i8] c"Y\00\00\00\00\00\00\00E\03\00\00\14\00\00\00" }>, align 8
@alloc_3c58d22f0709e1b0e528c53b940cbff4 = private unnamed_addr constant <{ ptr, [16 x i8] }> <{ ptr @alloc_ecb8d306211356b4836035c0ee023138, [16 x i8] c"Y\00\00\00\00\00\00\00>\02\00\00\22\00\00\00" }>, align 8
@vtable.0 = private constant <{ [24 x i8], ptr, ptr, ptr }> <{ [24 x i8] c"\00\00\00\00\00\00\00\00\08\00\00\00\00\00\00\00\08\00\00\00\00\00\00\00", ptr @"_ZN4core3ops8function6FnOnce40call_once$u7b$$u7b$vtable.shim$u7d$$u7d$17h249fa62bde1f8ac5E", ptr @"_ZN3std2rt10lang_start28_$u7b$$u7b$closure$u7d$$u7d$17h81732a46d0cede38E", ptr @"_ZN3std2rt10lang_start28_$u7b$$u7b$closure$u7d$$u7d$17h81732a46d0cede38E" }>, align 8, !dbg !0
@__rustc_debug_gdb_scripts_section__ = linkonce_odr unnamed_addr constant [34 x i8] c"\01gdb_load_rust_pretty_printers.py\00", section ".debug_gdb_scripts", align 1

; build_script_build::main
; Function Attrs: nonlazybind uwtable
define hidden void @_ZN18build_script_build4main17h1027e6978416fe3eE() unnamed_addr #0 personality ptr @rust_eh_personality !dbg !150 {
start:
  %value.i.i2 = alloca [16 x i8], align 8
  %value.i.i = alloca [16 x i8], align 8
  %_9 = alloca [48 x i8], align 8
  %_7 = alloca [472 x i8], align 8
    #dbg_value(ptr @alloc_fc0f7cfa08327d6f39a13d1d2b2bc6c2, !153, !DIExpression(), !297)
  call void @llvm.lifetime.start.p0(i64 472, ptr nonnull %_7), !dbg !299
; call cc::Build::new
  call void @_ZN2cc5Build3new17h82707a2561c82f08E(ptr noalias noundef nonnull sret([472 x i8]) align 8 captures(address) dereferenceable(472) %_7), !dbg !299
  call void @llvm.experimental.noalias.scope.decl(metadata !300), !dbg !303
    #dbg_value(ptr @alloc_7384fc049953633b5c0a44c264e98ce1, !304, !DIExpression(DW_OP_LLVM_fragment, 0, 64), !1003)
    #dbg_value(i64 12, !304, !DIExpression(DW_OP_LLVM_fragment, 64, 64), !1003)
    #dbg_value(ptr %_7, !1002, !DIExpression(), !1003)
  %self1.i = getelementptr inbounds nuw i8, ptr %_7, i64 192, !dbg !1005
    #dbg_value(ptr %self1.i, !1006, !DIExpression(), !1034)
    #dbg_value(ptr @alloc_7384fc049953633b5c0a44c264e98ce1, !1036, !DIExpression(DW_OP_LLVM_fragment, 0, 64), !1051)
    #dbg_value(ptr @alloc_7384fc049953633b5c0a44c264e98ce1, !1053, !DIExpression(DW_OP_LLVM_fragment, 0, 64), !1062)
    #dbg_value(i64 12, !1036, !DIExpression(DW_OP_LLVM_fragment, 64, 64), !1051)
    #dbg_value(i64 12, !1053, !DIExpression(DW_OP_LLVM_fragment, 64, 64), !1062)
    #dbg_value(ptr @alloc_7384fc049953633b5c0a44c264e98ce1, !1064, !DIExpression(DW_OP_LLVM_fragment, 0, 64), !1101)
    #dbg_value(i64 12, !1064, !DIExpression(DW_OP_LLVM_fragment, 64, 64), !1101)
    #dbg_value(ptr @alloc_7384fc049953633b5c0a44c264e98ce1, !1103, !DIExpression(DW_OP_LLVM_fragment, 0, 64), !1138)
    #dbg_value(i64 12, !1103, !DIExpression(DW_OP_LLVM_fragment, 64, 64), !1138)
    #dbg_value(ptr @alloc_7384fc049953633b5c0a44c264e98ce1, !1140, !DIExpression(DW_OP_LLVM_fragment, 0, 64), !1151)
    #dbg_value(ptr @alloc_7384fc049953633b5c0a44c264e98ce1, !1153, !DIExpression(DW_OP_LLVM_fragment, 0, 64), !1157)
    #dbg_value(i64 12, !1140, !DIExpression(DW_OP_LLVM_fragment, 64, 64), !1151)
    #dbg_value(i64 12, !1153, !DIExpression(DW_OP_LLVM_fragment, 64, 64), !1157)
    #dbg_value(ptr @alloc_7384fc049953633b5c0a44c264e98ce1, !1159, !DIExpression(DW_OP_LLVM_fragment, 0, 64), !1169)
    #dbg_value(i64 12, !1159, !DIExpression(DW_OP_LLVM_fragment, 64, 64), !1169)
    #dbg_value(i64 12, !1171, !DIExpression(), !1180)
    #dbg_value(i64 12, !1182, !DIExpression(), !1188)
    #dbg_value(ptr poison, !1190, !DIExpression(), !1241)
    #dbg_value(i64 1, !1259, !DIExpression(DW_OP_LLVM_fragment, 0, 64), !1266)
    #dbg_value(i64 12, !1259, !DIExpression(DW_OP_LLVM_fragment, 64, 64), !1266)
    #dbg_declare(ptr poison, !1260, !DIExpression(), !1267)
    #dbg_value(ptr poison, !1261, !DIExpression(), !1266)
    #dbg_declare(ptr poison, !1239, !DIExpression(), !1268)
; invoke alloc::sync::arcinner_layout_for_value_layout
  %0 = invoke { i64, i64 } @_ZN5alloc4sync32arcinner_layout_for_value_layout17hf49ba868461d8433E(i64 noundef 1, i64 noundef 12)
          to label %.noexc unwind label %cleanup, !dbg !1269

.noexc:                                           ; preds = %start
  %1 = extractvalue { i64, i64 } %0, 0, !dbg !1269
  %2 = extractvalue { i64, i64 } %0, 1, !dbg !1269
    #dbg_value(i64 %1, !1262, !DIExpression(DW_OP_LLVM_fragment, 0, 64), !1270)
    #dbg_value(i64 %2, !1262, !DIExpression(DW_OP_LLVM_fragment, 64, 64), !1270)
    #dbg_declare(ptr poison, !1271, !DIExpression(), !1277)
    #dbg_value(i64 %1, !1276, !DIExpression(DW_OP_LLVM_fragment, 0, 64), !1279)
    #dbg_value(i64 %1, !1280, !DIExpression(DW_OP_LLVM_fragment, 0, 64), !1289)
    #dbg_value(i64 %2, !1276, !DIExpression(DW_OP_LLVM_fragment, 64, 64), !1279)
    #dbg_value(i64 %2, !1280, !DIExpression(DW_OP_LLVM_fragment, 64, 64), !1289)
    #dbg_value(ptr inttoptr (i64 1 to ptr), !1288, !DIExpression(), !1289)
    #dbg_value(ptr poison, !1291, !DIExpression(), !1298)
    #dbg_value(i64 %1, !1306, !DIExpression(DW_OP_LLVM_fragment, 0, 64), !1336)
    #dbg_value(i64 %2, !1306, !DIExpression(DW_OP_LLVM_fragment, 64, 64), !1336)
    #dbg_value(ptr poison, !1305, !DIExpression(), !1336)
    #dbg_value(i1 false, !1307, !DIExpression(DW_OP_LLVM_convert, 1, DW_ATE_unsigned, DW_OP_LLVM_convert, 8, DW_ATE_unsigned, DW_OP_stack_value), !1336)
    #dbg_value(i64 %2, !1308, !DIExpression(), !1337)
  %3 = icmp eq i64 %2, 0, !dbg !1338
  br i1 %3, label %bb2.i.i.i.i.i.i.i, label %bb4.i.i.i.i.i.i.i, !dbg !1338

bb2.i.i.i.i.i.i.i:                                ; preds = %.noexc
    #dbg_value(ptr undef, !1291, !DIExpression(), !1298)
  %_20.i.i.i.i.i.i.i = inttoptr i64 %1 to ptr, !dbg !1339
  br label %"_ZN5alloc4sync22Arc$LT$$u5b$T$u5d$$GT$18allocate_for_slice28_$u7b$$u7b$closure$u7d$$u7d$17h01283643ff2416dbE.exit.i.i.i.i.i", !dbg !1357

bb4.i.i.i.i.i.i.i:                                ; preds = %.noexc
    #dbg_value(i64 %1, !1358, !DIExpression(DW_OP_LLVM_fragment, 0, 64), !1363)
    #dbg_value(i64 %2, !1358, !DIExpression(DW_OP_LLVM_fragment, 64, 64), !1363)
; call __rustc::__rust_no_alloc_shim_is_unstable_v2
  call void @_RNvCsj3IbkTTFM3W_7___rustc35___rust_no_alloc_shim_is_unstable_v2() #16, !dbg !1365, !noalias !1366
; call __rustc::__rust_alloc
  %4 = call noundef ptr @_RNvCsj3IbkTTFM3W_7___rustc12___rust_alloc(i64 noundef %2, i64 noundef range(i64 1, -9223372036854775807) %1) #16, !dbg !1371, !noalias !1366
    #dbg_value(ptr %4, !1310, !DIExpression(), !1372)
    #dbg_value(ptr %4, !1373, !DIExpression(), !1392)
  br label %"_ZN5alloc4sync22Arc$LT$$u5b$T$u5d$$GT$18allocate_for_slice28_$u7b$$u7b$closure$u7d$$u7d$17h01283643ff2416dbE.exit.i.i.i.i.i", !dbg !1394

"_ZN5alloc4sync22Arc$LT$$u5b$T$u5d$$GT$18allocate_for_slice28_$u7b$$u7b$closure$u7d$$u7d$17h01283643ff2416dbE.exit.i.i.i.i.i": ; preds = %bb4.i.i.i.i.i.i.i, %bb2.i.i.i.i.i.i.i
  %_0.sroa.0.0.i.i.i.i.i.i.i = phi ptr [ %_20.i.i.i.i.i.i.i, %bb2.i.i.i.i.i.i.i ], [ %4, %bb4.i.i.i.i.i.i.i ], !dbg !1336
    #dbg_value(ptr %_0.sroa.0.0.i.i.i.i.i.i.i, !1236, !DIExpression(DW_OP_LLVM_fragment, 0, 64), !1241)
    #dbg_value(i64 poison, !1236, !DIExpression(DW_OP_LLVM_fragment, 64, 64), !1241)
    #dbg_value(ptr undef, !1190, !DIExpression(), !1241)
    #dbg_value(ptr poison, !1395, !DIExpression(DW_OP_deref, DW_OP_LLVM_fragment, 0, 64), !1400)
  %5 = icmp eq ptr %_0.sroa.0.0.i.i.i.i.i.i.i, null, !dbg !1402
  br i1 %5, label %bb9.i.i.i.i.i32.invoke, label %"_ZN3std3ffi6os_str132_$LT$impl$u20$core..convert..From$LT$$RF$std..ffi..os_str..OsStr$GT$$u20$for$u20$alloc..sync..Arc$LT$std..ffi..os_str..OsStr$GT$$GT$4from17h34af4a2df4e919e0E.exit.i", !dbg !1403, !prof !1404

"_ZN3std3ffi6os_str132_$LT$impl$u20$core..convert..From$LT$$RF$std..ffi..os_str..OsStr$GT$$u20$for$u20$alloc..sync..Arc$LT$std..ffi..os_str..OsStr$GT$$GT$4from17h34af4a2df4e919e0E.exit.i": ; preds = %"_ZN5alloc4sync22Arc$LT$$u5b$T$u5d$$GT$18allocate_for_slice28_$u7b$$u7b$closure$u7d$$u7d$17h01283643ff2416dbE.exit.i.i.i.i.i"
    #dbg_value(ptr %_0.sroa.0.0.i.i.i.i.i.i.i, !1263, !DIExpression(DW_OP_LLVM_fragment, 0, 64), !1405)
    #dbg_value(ptr %_0.sroa.0.0.i.i.i.i.i.i.i, !1406, !DIExpression(DW_OP_LLVM_fragment, 0, 64), !1425)
    #dbg_value(i64 poison, !1263, !DIExpression(DW_OP_LLVM_fragment, 64, 64), !1405)
    #dbg_value(i64 poison, !1406, !DIExpression(DW_OP_LLVM_fragment, 64, 64), !1425)
    #dbg_value(i64 %2, !1413, !DIExpression(DW_OP_LLVM_fragment, 64, 64), !1425)
    #dbg_value(i64 %1, !1413, !DIExpression(DW_OP_LLVM_fragment, 0, 64), !1425)
    #dbg_value(ptr poison, !1414, !DIExpression(), !1425)
    #dbg_value(ptr %_0.sroa.0.0.i.i.i.i.i.i.i, !1415, !DIExpression(DW_OP_LLVM_fragment, 0, 64), !1427)
    #dbg_value(i64 poison, !1415, !DIExpression(DW_OP_LLVM_fragment, 64, 64), !1427)
    #dbg_value(ptr %_0.sroa.0.0.i.i.i.i.i.i.i, !1428, !DIExpression(), !1440)
    #dbg_value(ptr %_0.sroa.0.0.i.i.i.i.i.i.i, !1442, !DIExpression(), !1445)
    #dbg_value(i64 1, !1437, !DIExpression(), !1440)
    #dbg_value(i64 1, !1437, !DIExpression(), !1447)
  store i64 1, ptr %_0.sroa.0.0.i.i.i.i.i.i.i, align 8, !dbg !1449, !noalias !1366
    #dbg_value(ptr %_0.sroa.0.0.i.i.i.i.i.i.i, !1428, !DIExpression(DW_OP_plus_uconst, 8, DW_OP_stack_value), !1447)
    #dbg_value(ptr %_0.sroa.0.0.i.i.i.i.i.i.i, !1442, !DIExpression(DW_OP_plus_uconst, 8, DW_OP_stack_value), !1450)
  %6 = getelementptr inbounds nuw i8, ptr %_0.sroa.0.0.i.i.i.i.i.i.i, i64 8, !dbg !1453
  store i64 1, ptr %6, align 8, !dbg !1453, !noalias !1366
    #dbg_value(ptr %_0.sroa.0.0.i.i.i.i.i.i.i, !1163, !DIExpression(DW_OP_LLVM_fragment, 0, 64), !1454)
    #dbg_value(i64 poison, !1163, !DIExpression(DW_OP_LLVM_fragment, 64, 64), !1454)
    #dbg_value(ptr @alloc_7384fc049953633b5c0a44c264e98ce1, !1178, !DIExpression(), !1180)
  %_6.0.i.i.i = getelementptr inbounds nuw i8, ptr %_0.sroa.0.0.i.i.i.i.i.i.i, i64 16, !dbg !1455
    #dbg_value(ptr %_6.0.i.i.i, !1179, !DIExpression(), !1180)
  call void @llvm.memcpy.p0.p0.i64(ptr noundef nonnull align 1 dereferenceable(12) %_6.0.i.i.i, ptr noundef nonnull readonly align 1 dereferenceable(12) @alloc_7384fc049953633b5c0a44c264e98ce1, i64 12, i1 false), !dbg !1456, !noalias !300
    #dbg_value(ptr %_0.sroa.0.0.i.i.i.i.i.i.i, !1033, !DIExpression(DW_OP_LLVM_fragment, 0, 64), !1034)
    #dbg_value(i64 12, !1033, !DIExpression(DW_OP_LLVM_fragment, 64, 64), !1034)
  call void @llvm.experimental.noalias.scope.decl(metadata !1457), !dbg !1460
  call void @llvm.lifetime.start.p0(i64 16, ptr nonnull %value.i.i), !noalias !300
  store ptr %_0.sroa.0.0.i.i.i.i.i.i.i, ptr %value.i.i, align 8, !noalias !1461
  %7 = getelementptr inbounds nuw i8, ptr %value.i.i, i64 8
  store i64 12, ptr %7, align 8, !noalias !1461
    #dbg_value(ptr %self1.i, !1463, !DIExpression(), !1476)
    #dbg_value(ptr %self1.i, !1478, !DIExpression(), !1484)
    #dbg_declare(ptr %value.i.i, !1470, !DIExpression(), !1486)
  %8 = getelementptr inbounds nuw i8, ptr %_7, i64 208, !dbg !1487
  %len.i.i = load i64, ptr %8, align 8, !dbg !1487, !alias.scope !1488, !noalias !1489, !noundef !23
    #dbg_value(i64 %len.i.i, !1471, !DIExpression(), !1490)
    #dbg_value(i64 %len.i.i, !1491, !DIExpression(), !1497)
    #dbg_value(ptr %self1.i, !1499, !DIExpression(), !1507)
    #dbg_value(ptr %self1.i, !1509, !DIExpression(), !1517)
    #dbg_value(i64 16, !1516, !DIExpression(), !1517)
  %self3.i.i = load i64, ptr %self1.i, align 8, !dbg !1519, !range !1520, !alias.scope !1488, !noalias !1489, !noundef !23
  %_4.i.i = icmp eq i64 %len.i.i, %self3.i.i, !dbg !1521
  br i1 %_4.i.i, label %bb1.i.i, label %bb2, !dbg !1521

bb1.i.i:                                          ; preds = %"_ZN3std3ffi6os_str132_$LT$impl$u20$core..convert..From$LT$$RF$std..ffi..os_str..OsStr$GT$$u20$for$u20$alloc..sync..Arc$LT$std..ffi..os_str..OsStr$GT$$GT$4from17h34af4a2df4e919e0E.exit.i"
; invoke alloc::raw_vec::RawVec<T,A>::grow_one
  invoke fastcc void @"_ZN5alloc7raw_vec19RawVec$LT$T$C$A$GT$8grow_one17he549eb5292caf699E"(ptr noalias noundef nonnull align 8 dereferenceable(24) %self1.i, ptr noalias noundef readonly align 8 captures(address, read_provenance) dereferenceable(24) @alloc_927ac2e467f64e458b69161dc30e7207)
          to label %bb2 unwind label %cleanup.i.i, !dbg !1522

cleanup.i.i:                                      ; preds = %bb1.i.i
  %9 = landingpad { ptr, i32 }
          cleanup
    #dbg_value(ptr %value.i.i, !1523, !DIExpression(), !1528)
    #dbg_value(ptr %value.i.i, !1530, !DIExpression(), !1536)
    #dbg_value(i64 1, !1538, !DIExpression(), !1548)
    #dbg_value(i8 1, !1547, !DIExpression(), !1548)
    #dbg_value(i64 1, !1550, !DIExpression(), !1560)
    #dbg_value(i8 1, !1557, !DIExpression(), !1560)
    #dbg_value(i8 2, !1562, !DIExpression(), !1567)
    #dbg_value(ptr %_0.sroa.0.0.i.i.i.i.i.i.i, !1546, !DIExpression(), !1548)
    #dbg_value(ptr %_0.sroa.0.0.i.i.i.i.i.i.i, !1556, !DIExpression(), !1560)
  %10 = atomicrmw sub ptr %_0.sroa.0.0.i.i.i.i.i.i.i, i64 1 release, align 8, !dbg !1569, !noalias !1570
  %11 = icmp eq i64 %10, 1, !dbg !1575
  br i1 %11, label %bb2.i.i.i.i, label %cleanup.body, !dbg !1575

bb2.i.i.i.i:                                      ; preds = %cleanup.i.i
  fence acquire, !dbg !1576
; invoke alloc::sync::Arc<T,A>::drop_slow
  invoke void @"_ZN5alloc4sync16Arc$LT$T$C$A$GT$9drop_slow17hc4aa5653d7cc5847E"(ptr noalias noundef nonnull align 8 dereferenceable(16) %value.i.i)
          to label %cleanup.body unwind label %terminate.i.i, !dbg !1577, !noalias !1488

terminate.i.i:                                    ; preds = %bb2.i.i.i.i
  %12 = landingpad { ptr, i32 }
          filter [0 x ptr] zeroinitializer
; call core::panicking::panic_in_cleanup
  call void @_ZN4core9panicking16panic_in_cleanup17h8f68387bb6cbbf54E() #17, !dbg !1578, !noalias !1488
  unreachable, !dbg !1578

cleanup:                                          ; preds = %bb9.i.i.i.i.i32.invoke, %bb3, %bb2, %start, %bb4
  %13 = landingpad { ptr, i32 }
          cleanup
  br label %cleanup.body, !dbg !1579

cleanup.body:                                     ; preds = %cleanup.i.i15, %bb2.i.i.i.i17, %cleanup2.i, %cleanup, %cleanup.i.i, %bb2.i.i.i.i
  %eh.lpad-body = phi { ptr, i32 } [ %9, %bb2.i.i.i.i ], [ %9, %cleanup.i.i ], [ %13, %cleanup ], [ %47, %cleanup2.i ], [ %26, %bb2.i.i.i.i17 ], [ %26, %cleanup.i.i15 ]
; invoke core::ptr::drop_in_place<cc::Build>
  invoke fastcc void @"_ZN4core3ptr30drop_in_place$LT$cc..Build$GT$17h6218f1cb69feab33E"(ptr noalias noundef align 8 dereferenceable(472) %_7) #18
          to label %bb9 unwind label %terminate, !dbg !1579

bb2:                                              ; preds = %bb1.i.i, %"_ZN3std3ffi6os_str132_$LT$impl$u20$core..convert..From$LT$$RF$std..ffi..os_str..OsStr$GT$$u20$for$u20$alloc..sync..Arc$LT$std..ffi..os_str..OsStr$GT$$GT$4from17h34af4a2df4e919e0E.exit.i"
  %14 = getelementptr inbounds nuw i8, ptr %_7, i64 200, !dbg !1580
  %_15.i.i = load ptr, ptr %14, align 8, !dbg !1580, !alias.scope !1488, !noalias !1489, !nonnull !23, !noundef !23
    #dbg_value(ptr %_15.i.i, !1496, !DIExpression(), !1497)
  %end.i.i = getelementptr inbounds nuw %"alloc::sync::Arc<std::path::Path>", ptr %_15.i.i, i64 %len.i.i, !dbg !1601
    #dbg_value(ptr %end.i.i, !1473, !DIExpression(), !1602)
    #dbg_value(ptr %end.i.i, !1603, !DIExpression(), !1609)
    #dbg_value(ptr %_0.sroa.0.0.i.i.i.i.i.i.i, !1608, !DIExpression(DW_OP_LLVM_fragment, 0, 64), !1609)
    #dbg_value(i64 12, !1608, !DIExpression(DW_OP_LLVM_fragment, 64, 64), !1609)
  store ptr %_0.sroa.0.0.i.i.i.i.i.i.i, ptr %end.i.i, align 8, !dbg !1611, !noalias !1488
  %15 = getelementptr inbounds nuw i8, ptr %end.i.i, i64 8, !dbg !1611
  store i64 12, ptr %15, align 8, !dbg !1611, !noalias !1488
  %16 = add i64 %len.i.i, 1, !dbg !1612
  store i64 %16, ptr %8, align 8, !dbg !1612, !alias.scope !1488, !noalias !1489
  call void @llvm.lifetime.end.p0(i64 16, ptr nonnull %value.i.i), !dbg !1613, !noalias !300
  call void @llvm.experimental.noalias.scope.decl(metadata !1614), !dbg !1617
    #dbg_value(ptr poison, !1618, !DIExpression(DW_OP_LLVM_fragment, 0, 64), !1623)
    #dbg_value(i64 4, !1618, !DIExpression(DW_OP_LLVM_fragment, 64, 64), !1623)
    #dbg_value(ptr %_7, !1622, !DIExpression(), !1623)
  %self1.i3 = getelementptr inbounds nuw i8, ptr %_7, i64 24, !dbg !1625
    #dbg_value(ptr %self1.i3, !1626, !DIExpression(), !1630)
    #dbg_value(ptr poison, !1632, !DIExpression(DW_OP_LLVM_fragment, 0, 64), !1635)
    #dbg_value(ptr poison, !1637, !DIExpression(DW_OP_LLVM_fragment, 0, 64), !1642)
    #dbg_value(i64 4, !1632, !DIExpression(DW_OP_LLVM_fragment, 64, 64), !1635)
    #dbg_value(i64 4, !1637, !DIExpression(DW_OP_LLVM_fragment, 64, 64), !1642)
    #dbg_value(ptr poison, !1064, !DIExpression(DW_OP_LLVM_fragment, 0, 64), !1644)
    #dbg_value(i64 4, !1064, !DIExpression(DW_OP_LLVM_fragment, 64, 64), !1644)
    #dbg_value(ptr poison, !1103, !DIExpression(DW_OP_LLVM_fragment, 0, 64), !1646)
    #dbg_value(i64 4, !1103, !DIExpression(DW_OP_LLVM_fragment, 64, 64), !1646)
    #dbg_value(ptr poison, !1140, !DIExpression(DW_OP_LLVM_fragment, 0, 64), !1648)
    #dbg_value(ptr poison, !1153, !DIExpression(DW_OP_LLVM_fragment, 0, 64), !1650)
    #dbg_value(i64 4, !1140, !DIExpression(DW_OP_LLVM_fragment, 64, 64), !1648)
    #dbg_value(i64 4, !1153, !DIExpression(DW_OP_LLVM_fragment, 64, 64), !1650)
    #dbg_value(ptr poison, !1159, !DIExpression(DW_OP_LLVM_fragment, 0, 64), !1652)
    #dbg_value(i64 4, !1159, !DIExpression(DW_OP_LLVM_fragment, 64, 64), !1652)
    #dbg_value(i64 4, !1171, !DIExpression(), !1654)
    #dbg_value(i64 4, !1182, !DIExpression(), !1656)
    #dbg_value(ptr poison, !1190, !DIExpression(), !1658)
    #dbg_value(i64 1, !1259, !DIExpression(DW_OP_LLVM_fragment, 0, 64), !1661)
    #dbg_value(i64 4, !1259, !DIExpression(DW_OP_LLVM_fragment, 64, 64), !1661)
    #dbg_declare(ptr poison, !1260, !DIExpression(), !1662)
    #dbg_value(ptr poison, !1261, !DIExpression(), !1661)
    #dbg_declare(ptr poison, !1239, !DIExpression(), !1663)
; invoke alloc::sync::arcinner_layout_for_value_layout
  %17 = invoke { i64, i64 } @_ZN5alloc4sync32arcinner_layout_for_value_layout17hf49ba868461d8433E(i64 noundef 1, i64 noundef 4)
          to label %.noexc22 unwind label %cleanup, !dbg !1664

.noexc22:                                         ; preds = %bb2
  %18 = extractvalue { i64, i64 } %17, 0, !dbg !1664
  %19 = extractvalue { i64, i64 } %17, 1, !dbg !1664
    #dbg_value(i64 %18, !1262, !DIExpression(DW_OP_LLVM_fragment, 0, 64), !1665)
    #dbg_value(i64 %19, !1262, !DIExpression(DW_OP_LLVM_fragment, 64, 64), !1665)
    #dbg_declare(ptr poison, !1271, !DIExpression(), !1666)
    #dbg_value(i64 %18, !1276, !DIExpression(DW_OP_LLVM_fragment, 0, 64), !1668)
    #dbg_value(i64 %18, !1280, !DIExpression(DW_OP_LLVM_fragment, 0, 64), !1669)
    #dbg_value(i64 %19, !1276, !DIExpression(DW_OP_LLVM_fragment, 64, 64), !1668)
    #dbg_value(i64 %19, !1280, !DIExpression(DW_OP_LLVM_fragment, 64, 64), !1669)
    #dbg_value(ptr inttoptr (i64 1 to ptr), !1288, !DIExpression(), !1669)
    #dbg_value(ptr poison, !1291, !DIExpression(), !1671)
    #dbg_value(i64 %18, !1306, !DIExpression(DW_OP_LLVM_fragment, 0, 64), !1674)
    #dbg_value(i64 %19, !1306, !DIExpression(DW_OP_LLVM_fragment, 64, 64), !1674)
    #dbg_value(ptr poison, !1305, !DIExpression(), !1674)
    #dbg_value(i1 false, !1307, !DIExpression(DW_OP_LLVM_convert, 1, DW_ATE_unsigned, DW_OP_LLVM_convert, 8, DW_ATE_unsigned, DW_OP_stack_value), !1674)
    #dbg_value(i64 %19, !1308, !DIExpression(), !1675)
  %20 = icmp eq i64 %19, 0, !dbg !1676
  br i1 %20, label %bb2.i.i.i.i.i.i.i20, label %bb4.i.i.i.i.i.i.i4, !dbg !1676

bb2.i.i.i.i.i.i.i20:                              ; preds = %.noexc22
    #dbg_value(ptr undef, !1291, !DIExpression(), !1671)
  %_20.i.i.i.i.i.i.i21 = inttoptr i64 %18 to ptr, !dbg !1677
  br label %"_ZN5alloc4sync22Arc$LT$$u5b$T$u5d$$GT$18allocate_for_slice28_$u7b$$u7b$closure$u7d$$u7d$17h01283643ff2416dbE.exit.i.i.i.i.i5", !dbg !1680

bb4.i.i.i.i.i.i.i4:                               ; preds = %.noexc22
    #dbg_value(i64 %18, !1358, !DIExpression(DW_OP_LLVM_fragment, 0, 64), !1681)
    #dbg_value(i64 %19, !1358, !DIExpression(DW_OP_LLVM_fragment, 64, 64), !1681)
; call __rustc::__rust_no_alloc_shim_is_unstable_v2
  call void @_RNvCsj3IbkTTFM3W_7___rustc35___rust_no_alloc_shim_is_unstable_v2() #16, !dbg !1683, !noalias !1684
; call __rustc::__rust_alloc
  %21 = call noundef ptr @_RNvCsj3IbkTTFM3W_7___rustc12___rust_alloc(i64 noundef %19, i64 noundef range(i64 1, -9223372036854775807) %18) #16, !dbg !1689, !noalias !1684
    #dbg_value(ptr %21, !1310, !DIExpression(), !1690)
    #dbg_value(ptr %21, !1373, !DIExpression(), !1691)
  br label %"_ZN5alloc4sync22Arc$LT$$u5b$T$u5d$$GT$18allocate_for_slice28_$u7b$$u7b$closure$u7d$$u7d$17h01283643ff2416dbE.exit.i.i.i.i.i5", !dbg !1693

"_ZN5alloc4sync22Arc$LT$$u5b$T$u5d$$GT$18allocate_for_slice28_$u7b$$u7b$closure$u7d$$u7d$17h01283643ff2416dbE.exit.i.i.i.i.i5": ; preds = %bb4.i.i.i.i.i.i.i4, %bb2.i.i.i.i.i.i.i20
  %_0.sroa.0.0.i.i.i.i.i.i.i6 = phi ptr [ %_20.i.i.i.i.i.i.i21, %bb2.i.i.i.i.i.i.i20 ], [ %21, %bb4.i.i.i.i.i.i.i4 ], !dbg !1674
    #dbg_value(ptr %_0.sroa.0.0.i.i.i.i.i.i.i6, !1236, !DIExpression(DW_OP_LLVM_fragment, 0, 64), !1658)
    #dbg_value(i64 poison, !1236, !DIExpression(DW_OP_LLVM_fragment, 64, 64), !1658)
    #dbg_value(ptr undef, !1190, !DIExpression(), !1658)
    #dbg_value(ptr poison, !1395, !DIExpression(DW_OP_deref, DW_OP_LLVM_fragment, 0, 64), !1694)
  %22 = icmp eq ptr %_0.sroa.0.0.i.i.i.i.i.i.i6, null, !dbg !1696
  br i1 %22, label %bb9.i.i.i.i.i32.invoke, label %"_ZN3std3ffi6os_str132_$LT$impl$u20$core..convert..From$LT$$RF$std..ffi..os_str..OsStr$GT$$u20$for$u20$alloc..sync..Arc$LT$std..ffi..os_str..OsStr$GT$$GT$4from17h34af4a2df4e919e0E.exit.i7", !dbg !1697, !prof !1404

"_ZN3std3ffi6os_str132_$LT$impl$u20$core..convert..From$LT$$RF$std..ffi..os_str..OsStr$GT$$u20$for$u20$alloc..sync..Arc$LT$std..ffi..os_str..OsStr$GT$$GT$4from17h34af4a2df4e919e0E.exit.i7": ; preds = %"_ZN5alloc4sync22Arc$LT$$u5b$T$u5d$$GT$18allocate_for_slice28_$u7b$$u7b$closure$u7d$$u7d$17h01283643ff2416dbE.exit.i.i.i.i.i5"
    #dbg_value(ptr %_0.sroa.0.0.i.i.i.i.i.i.i6, !1263, !DIExpression(DW_OP_LLVM_fragment, 0, 64), !1698)
    #dbg_value(ptr %_0.sroa.0.0.i.i.i.i.i.i.i6, !1406, !DIExpression(DW_OP_LLVM_fragment, 0, 64), !1699)
    #dbg_value(i64 poison, !1263, !DIExpression(DW_OP_LLVM_fragment, 64, 64), !1698)
    #dbg_value(i64 poison, !1406, !DIExpression(DW_OP_LLVM_fragment, 64, 64), !1699)
    #dbg_value(i64 %19, !1413, !DIExpression(DW_OP_LLVM_fragment, 64, 64), !1699)
    #dbg_value(i64 %18, !1413, !DIExpression(DW_OP_LLVM_fragment, 0, 64), !1699)
    #dbg_value(ptr poison, !1414, !DIExpression(), !1699)
    #dbg_value(ptr %_0.sroa.0.0.i.i.i.i.i.i.i6, !1415, !DIExpression(DW_OP_LLVM_fragment, 0, 64), !1701)
    #dbg_value(i64 poison, !1415, !DIExpression(DW_OP_LLVM_fragment, 64, 64), !1701)
    #dbg_value(ptr %_0.sroa.0.0.i.i.i.i.i.i.i6, !1428, !DIExpression(), !1702)
    #dbg_value(ptr %_0.sroa.0.0.i.i.i.i.i.i.i6, !1442, !DIExpression(), !1704)
    #dbg_value(i64 1, !1437, !DIExpression(), !1702)
    #dbg_value(i64 1, !1437, !DIExpression(), !1706)
  store i64 1, ptr %_0.sroa.0.0.i.i.i.i.i.i.i6, align 8, !dbg !1708, !noalias !1684
    #dbg_value(ptr %_0.sroa.0.0.i.i.i.i.i.i.i6, !1428, !DIExpression(DW_OP_plus_uconst, 8, DW_OP_stack_value), !1706)
    #dbg_value(ptr %_0.sroa.0.0.i.i.i.i.i.i.i6, !1442, !DIExpression(DW_OP_plus_uconst, 8, DW_OP_stack_value), !1709)
  %23 = getelementptr inbounds nuw i8, ptr %_0.sroa.0.0.i.i.i.i.i.i.i6, i64 8, !dbg !1711
  store i64 1, ptr %23, align 8, !dbg !1711, !noalias !1684
    #dbg_value(ptr %_0.sroa.0.0.i.i.i.i.i.i.i6, !1163, !DIExpression(DW_OP_LLVM_fragment, 0, 64), !1712)
    #dbg_value(i64 poison, !1163, !DIExpression(DW_OP_LLVM_fragment, 64, 64), !1712)
    #dbg_value(ptr poison, !1178, !DIExpression(), !1654)
  %_6.0.i.i.i8 = getelementptr inbounds nuw i8, ptr %_0.sroa.0.0.i.i.i.i.i.i.i6, i64 16, !dbg !1713
    #dbg_value(ptr %_6.0.i.i.i8, !1179, !DIExpression(), !1654)
  store i32 1668445027, ptr %_6.0.i.i.i8, align 1, !dbg !1714, !noalias !1614
    #dbg_value(ptr %_0.sroa.0.0.i.i.i.i.i.i.i6, !1629, !DIExpression(DW_OP_LLVM_fragment, 0, 64), !1630)
    #dbg_value(i64 4, !1629, !DIExpression(DW_OP_LLVM_fragment, 64, 64), !1630)
  call void @llvm.experimental.noalias.scope.decl(metadata !1715), !dbg !1718
  call void @llvm.lifetime.start.p0(i64 16, ptr nonnull %value.i.i2), !noalias !1614
  store ptr %_0.sroa.0.0.i.i.i.i.i.i.i6, ptr %value.i.i2, align 8, !noalias !1719
  %24 = getelementptr inbounds nuw i8, ptr %value.i.i2, i64 8
  store i64 4, ptr %24, align 8, !noalias !1719
    #dbg_value(ptr %self1.i3, !1463, !DIExpression(), !1721)
    #dbg_value(ptr %self1.i3, !1478, !DIExpression(), !1723)
    #dbg_declare(ptr %value.i.i2, !1470, !DIExpression(), !1725)
  %25 = getelementptr inbounds nuw i8, ptr %_7, i64 40, !dbg !1726
  %len.i.i9 = load i64, ptr %25, align 8, !dbg !1726, !alias.scope !1727, !noalias !1728, !noundef !23
    #dbg_value(i64 %len.i.i9, !1471, !DIExpression(), !1729)
    #dbg_value(i64 %len.i.i9, !1491, !DIExpression(), !1730)
    #dbg_value(ptr %self1.i3, !1499, !DIExpression(), !1732)
    #dbg_value(ptr %self1.i3, !1509, !DIExpression(), !1734)
    #dbg_value(i64 16, !1516, !DIExpression(), !1734)
  %self3.i.i10 = load i64, ptr %self1.i3, align 8, !dbg !1736, !range !1520, !alias.scope !1727, !noalias !1728, !noundef !23
  %_4.i.i11 = icmp eq i64 %len.i.i9, %self3.i.i10, !dbg !1737
  br i1 %_4.i.i11, label %bb1.i.i14, label %bb3, !dbg !1737

bb1.i.i14:                                        ; preds = %"_ZN3std3ffi6os_str132_$LT$impl$u20$core..convert..From$LT$$RF$std..ffi..os_str..OsStr$GT$$u20$for$u20$alloc..sync..Arc$LT$std..ffi..os_str..OsStr$GT$$GT$4from17h34af4a2df4e919e0E.exit.i7"
; invoke alloc::raw_vec::RawVec<T,A>::grow_one
  invoke fastcc void @"_ZN5alloc7raw_vec19RawVec$LT$T$C$A$GT$8grow_one17he549eb5292caf699E"(ptr noalias noundef nonnull align 8 dereferenceable(24) %self1.i3, ptr noalias noundef readonly align 8 captures(address, read_provenance) dereferenceable(24) @alloc_3c58d22f0709e1b0e528c53b940cbff4)
          to label %bb3 unwind label %cleanup.i.i15, !dbg !1738

cleanup.i.i15:                                    ; preds = %bb1.i.i14
  %26 = landingpad { ptr, i32 }
          cleanup
    #dbg_value(ptr %value.i.i2, !1523, !DIExpression(), !1739)
    #dbg_value(ptr %value.i.i2, !1530, !DIExpression(), !1741)
    #dbg_value(i64 1, !1538, !DIExpression(), !1743)
    #dbg_value(i8 1, !1547, !DIExpression(), !1743)
    #dbg_value(i64 1, !1550, !DIExpression(), !1745)
    #dbg_value(i8 1, !1557, !DIExpression(), !1745)
    #dbg_value(i8 2, !1562, !DIExpression(), !1747)
    #dbg_value(ptr %_0.sroa.0.0.i.i.i.i.i.i.i6, !1546, !DIExpression(), !1743)
    #dbg_value(ptr %_0.sroa.0.0.i.i.i.i.i.i.i6, !1556, !DIExpression(), !1745)
  %27 = atomicrmw sub ptr %_0.sroa.0.0.i.i.i.i.i.i.i6, i64 1 release, align 8, !dbg !1749, !noalias !1750
  %28 = icmp eq i64 %27, 1, !dbg !1755
  br i1 %28, label %bb2.i.i.i.i17, label %cleanup.body, !dbg !1755

bb2.i.i.i.i17:                                    ; preds = %cleanup.i.i15
  fence acquire, !dbg !1756
; invoke alloc::sync::Arc<T,A>::drop_slow
  invoke void @"_ZN5alloc4sync16Arc$LT$T$C$A$GT$9drop_slow17hc4aa5653d7cc5847E"(ptr noalias noundef nonnull align 8 dereferenceable(16) %value.i.i2)
          to label %cleanup.body unwind label %terminate.i.i18, !dbg !1757, !noalias !1727

terminate.i.i18:                                  ; preds = %bb2.i.i.i.i17
  %29 = landingpad { ptr, i32 }
          filter [0 x ptr] zeroinitializer
; call core::panicking::panic_in_cleanup
  call void @_ZN4core9panicking16panic_in_cleanup17h8f68387bb6cbbf54E() #17, !dbg !1758, !noalias !1727
  unreachable, !dbg !1758

bb3:                                              ; preds = %bb1.i.i14, %"_ZN3std3ffi6os_str132_$LT$impl$u20$core..convert..From$LT$$RF$std..ffi..os_str..OsStr$GT$$u20$for$u20$alloc..sync..Arc$LT$std..ffi..os_str..OsStr$GT$$GT$4from17h34af4a2df4e919e0E.exit.i7"
  %30 = getelementptr inbounds nuw i8, ptr %_7, i64 32, !dbg !1759
  %_15.i.i12 = load ptr, ptr %30, align 8, !dbg !1759, !alias.scope !1727, !noalias !1728, !nonnull !23, !noundef !23
    #dbg_value(ptr %_15.i.i12, !1496, !DIExpression(), !1730)
  %end.i.i13 = getelementptr inbounds nuw %"alloc::sync::Arc<std::path::Path>", ptr %_15.i.i12, i64 %len.i.i9, !dbg !1763
    #dbg_value(ptr %end.i.i13, !1473, !DIExpression(), !1764)
    #dbg_value(ptr %end.i.i13, !1603, !DIExpression(), !1765)
    #dbg_value(ptr %_0.sroa.0.0.i.i.i.i.i.i.i6, !1608, !DIExpression(DW_OP_LLVM_fragment, 0, 64), !1765)
    #dbg_value(i64 4, !1608, !DIExpression(DW_OP_LLVM_fragment, 64, 64), !1765)
  store ptr %_0.sroa.0.0.i.i.i.i.i.i.i6, ptr %end.i.i13, align 8, !dbg !1767, !noalias !1727
  %31 = getelementptr inbounds nuw i8, ptr %end.i.i13, i64 8, !dbg !1767
  store i64 4, ptr %31, align 8, !dbg !1767, !noalias !1727
  %32 = add i64 %len.i.i9, 1, !dbg !1768
  store i64 %32, ptr %25, align 8, !dbg !1768, !alias.scope !1727, !noalias !1728
  call void @llvm.lifetime.end.p0(i64 16, ptr nonnull %value.i.i2), !dbg !1769, !noalias !1614
  call void @llvm.experimental.noalias.scope.decl(metadata !1770), !dbg !1773
    #dbg_value(ptr @alloc_7458b201b863ad890e7da22f4b22bd9b, !1774, !DIExpression(DW_OP_LLVM_fragment, 0, 64), !1779)
    #dbg_value(i64 17, !1774, !DIExpression(DW_OP_LLVM_fragment, 64, 64), !1779)
    #dbg_value(ptr %_7, !1778, !DIExpression(), !1779)
    #dbg_value(ptr @alloc_7458b201b863ad890e7da22f4b22bd9b, !1781, !DIExpression(DW_OP_LLVM_fragment, 0, 64), !1784)
    #dbg_value(ptr @alloc_7458b201b863ad890e7da22f4b22bd9b, !1786, !DIExpression(DW_OP_LLVM_fragment, 0, 64), !1791)
    #dbg_value(i64 17, !1781, !DIExpression(DW_OP_LLVM_fragment, 64, 64), !1784)
    #dbg_value(i64 17, !1786, !DIExpression(DW_OP_LLVM_fragment, 64, 64), !1791)
    #dbg_value(ptr @alloc_7458b201b863ad890e7da22f4b22bd9b, !1064, !DIExpression(DW_OP_LLVM_fragment, 0, 64), !1793)
    #dbg_value(i64 17, !1064, !DIExpression(DW_OP_LLVM_fragment, 64, 64), !1793)
    #dbg_value(ptr @alloc_7458b201b863ad890e7da22f4b22bd9b, !1103, !DIExpression(DW_OP_LLVM_fragment, 0, 64), !1795)
    #dbg_value(i64 17, !1103, !DIExpression(DW_OP_LLVM_fragment, 64, 64), !1795)
    #dbg_value(ptr @alloc_7458b201b863ad890e7da22f4b22bd9b, !1140, !DIExpression(DW_OP_LLVM_fragment, 0, 64), !1797)
    #dbg_value(ptr @alloc_7458b201b863ad890e7da22f4b22bd9b, !1153, !DIExpression(DW_OP_LLVM_fragment, 0, 64), !1799)
    #dbg_value(i64 17, !1140, !DIExpression(DW_OP_LLVM_fragment, 64, 64), !1797)
    #dbg_value(i64 17, !1153, !DIExpression(DW_OP_LLVM_fragment, 64, 64), !1799)
    #dbg_value(ptr @alloc_7458b201b863ad890e7da22f4b22bd9b, !1159, !DIExpression(DW_OP_LLVM_fragment, 0, 64), !1801)
    #dbg_value(i64 17, !1159, !DIExpression(DW_OP_LLVM_fragment, 64, 64), !1801)
    #dbg_value(i64 17, !1171, !DIExpression(), !1803)
    #dbg_value(i64 17, !1182, !DIExpression(), !1805)
    #dbg_value(ptr poison, !1190, !DIExpression(), !1807)
    #dbg_value(i64 1, !1259, !DIExpression(DW_OP_LLVM_fragment, 0, 64), !1810)
    #dbg_value(i64 17, !1259, !DIExpression(DW_OP_LLVM_fragment, 64, 64), !1810)
    #dbg_declare(ptr poison, !1260, !DIExpression(), !1811)
    #dbg_value(ptr poison, !1261, !DIExpression(), !1810)
    #dbg_declare(ptr poison, !1239, !DIExpression(), !1812)
; invoke alloc::sync::arcinner_layout_for_value_layout
  %33 = invoke { i64, i64 } @_ZN5alloc4sync32arcinner_layout_for_value_layout17hf49ba868461d8433E(i64 noundef 1, i64 noundef 17)
          to label %.noexc35 unwind label %cleanup, !dbg !1813

.noexc35:                                         ; preds = %bb3
  %34 = extractvalue { i64, i64 } %33, 0, !dbg !1813
  %35 = extractvalue { i64, i64 } %33, 1, !dbg !1813
    #dbg_value(i64 %34, !1262, !DIExpression(DW_OP_LLVM_fragment, 0, 64), !1814)
    #dbg_value(i64 %35, !1262, !DIExpression(DW_OP_LLVM_fragment, 64, 64), !1814)
    #dbg_declare(ptr poison, !1271, !DIExpression(), !1815)
    #dbg_value(i64 %34, !1276, !DIExpression(DW_OP_LLVM_fragment, 0, 64), !1817)
    #dbg_value(i64 %34, !1280, !DIExpression(DW_OP_LLVM_fragment, 0, 64), !1818)
    #dbg_value(i64 %35, !1276, !DIExpression(DW_OP_LLVM_fragment, 64, 64), !1817)
    #dbg_value(i64 %35, !1280, !DIExpression(DW_OP_LLVM_fragment, 64, 64), !1818)
    #dbg_value(ptr inttoptr (i64 1 to ptr), !1288, !DIExpression(), !1818)
    #dbg_value(ptr poison, !1291, !DIExpression(), !1820)
    #dbg_value(i64 %34, !1306, !DIExpression(DW_OP_LLVM_fragment, 0, 64), !1823)
    #dbg_value(i64 %35, !1306, !DIExpression(DW_OP_LLVM_fragment, 64, 64), !1823)
    #dbg_value(ptr poison, !1305, !DIExpression(), !1823)
    #dbg_value(i1 false, !1307, !DIExpression(DW_OP_LLVM_convert, 1, DW_ATE_unsigned, DW_OP_LLVM_convert, 8, DW_ATE_unsigned, DW_OP_stack_value), !1823)
    #dbg_value(i64 %35, !1308, !DIExpression(), !1824)
  %36 = icmp eq i64 %35, 0, !dbg !1825
  br i1 %36, label %bb2.i.i.i.i.i.i.i33, label %bb4.i.i.i.i.i.i.i26, !dbg !1825

bb2.i.i.i.i.i.i.i33:                              ; preds = %.noexc35
    #dbg_value(ptr undef, !1291, !DIExpression(), !1820)
  %_20.i.i.i.i.i.i.i34 = inttoptr i64 %34 to ptr, !dbg !1826
  br label %"_ZN5alloc4sync22Arc$LT$$u5b$T$u5d$$GT$18allocate_for_slice28_$u7b$$u7b$closure$u7d$$u7d$17h01283643ff2416dbE.exit.i.i.i.i.i27", !dbg !1829

bb4.i.i.i.i.i.i.i26:                              ; preds = %.noexc35
    #dbg_value(i64 %34, !1358, !DIExpression(DW_OP_LLVM_fragment, 0, 64), !1830)
    #dbg_value(i64 %35, !1358, !DIExpression(DW_OP_LLVM_fragment, 64, 64), !1830)
; call __rustc::__rust_no_alloc_shim_is_unstable_v2
  call void @_RNvCsj3IbkTTFM3W_7___rustc35___rust_no_alloc_shim_is_unstable_v2() #16, !dbg !1832, !noalias !1833
; call __rustc::__rust_alloc
  %37 = call noundef ptr @_RNvCsj3IbkTTFM3W_7___rustc12___rust_alloc(i64 noundef %35, i64 noundef range(i64 1, -9223372036854775807) %34) #16, !dbg !1838, !noalias !1833
    #dbg_value(ptr %37, !1310, !DIExpression(), !1839)
    #dbg_value(ptr %37, !1373, !DIExpression(), !1840)
  br label %"_ZN5alloc4sync22Arc$LT$$u5b$T$u5d$$GT$18allocate_for_slice28_$u7b$$u7b$closure$u7d$$u7d$17h01283643ff2416dbE.exit.i.i.i.i.i27", !dbg !1842

"_ZN5alloc4sync22Arc$LT$$u5b$T$u5d$$GT$18allocate_for_slice28_$u7b$$u7b$closure$u7d$$u7d$17h01283643ff2416dbE.exit.i.i.i.i.i27": ; preds = %bb4.i.i.i.i.i.i.i26, %bb2.i.i.i.i.i.i.i33
  %_0.sroa.0.0.i.i.i.i.i.i.i28 = phi ptr [ %_20.i.i.i.i.i.i.i34, %bb2.i.i.i.i.i.i.i33 ], [ %37, %bb4.i.i.i.i.i.i.i26 ], !dbg !1823
    #dbg_value(ptr %_0.sroa.0.0.i.i.i.i.i.i.i28, !1236, !DIExpression(DW_OP_LLVM_fragment, 0, 64), !1807)
    #dbg_value(i64 poison, !1236, !DIExpression(DW_OP_LLVM_fragment, 64, 64), !1807)
    #dbg_value(ptr undef, !1190, !DIExpression(), !1807)
    #dbg_value(ptr poison, !1395, !DIExpression(DW_OP_deref, DW_OP_LLVM_fragment, 0, 64), !1843)
  %38 = icmp eq ptr %_0.sroa.0.0.i.i.i.i.i.i.i28, null, !dbg !1845
  br i1 %38, label %bb9.i.i.i.i.i32.invoke, label %"_ZN3std3ffi6os_str132_$LT$impl$u20$core..convert..From$LT$$RF$std..ffi..os_str..OsStr$GT$$u20$for$u20$alloc..sync..Arc$LT$std..ffi..os_str..OsStr$GT$$GT$4from17h34af4a2df4e919e0E.exit.i29", !dbg !1846, !prof !1404

bb9.i.i.i.i.i32.invoke:                           ; preds = %"_ZN5alloc4sync22Arc$LT$$u5b$T$u5d$$GT$18allocate_for_slice28_$u7b$$u7b$closure$u7d$$u7d$17h01283643ff2416dbE.exit.i.i.i.i.i", %"_ZN5alloc4sync22Arc$LT$$u5b$T$u5d$$GT$18allocate_for_slice28_$u7b$$u7b$closure$u7d$$u7d$17h01283643ff2416dbE.exit.i.i.i.i.i27", %"_ZN5alloc4sync22Arc$LT$$u5b$T$u5d$$GT$18allocate_for_slice28_$u7b$$u7b$closure$u7d$$u7d$17h01283643ff2416dbE.exit.i.i.i.i.i5"
  %39 = phi i64 [ %18, %"_ZN5alloc4sync22Arc$LT$$u5b$T$u5d$$GT$18allocate_for_slice28_$u7b$$u7b$closure$u7d$$u7d$17h01283643ff2416dbE.exit.i.i.i.i.i5" ], [ %34, %"_ZN5alloc4sync22Arc$LT$$u5b$T$u5d$$GT$18allocate_for_slice28_$u7b$$u7b$closure$u7d$$u7d$17h01283643ff2416dbE.exit.i.i.i.i.i27" ], [ %1, %"_ZN5alloc4sync22Arc$LT$$u5b$T$u5d$$GT$18allocate_for_slice28_$u7b$$u7b$closure$u7d$$u7d$17h01283643ff2416dbE.exit.i.i.i.i.i" ]
  %40 = phi i64 [ %19, %"_ZN5alloc4sync22Arc$LT$$u5b$T$u5d$$GT$18allocate_for_slice28_$u7b$$u7b$closure$u7d$$u7d$17h01283643ff2416dbE.exit.i.i.i.i.i5" ], [ %35, %"_ZN5alloc4sync22Arc$LT$$u5b$T$u5d$$GT$18allocate_for_slice28_$u7b$$u7b$closure$u7d$$u7d$17h01283643ff2416dbE.exit.i.i.i.i.i27" ], [ %2, %"_ZN5alloc4sync22Arc$LT$$u5b$T$u5d$$GT$18allocate_for_slice28_$u7b$$u7b$closure$u7d$$u7d$17h01283643ff2416dbE.exit.i.i.i.i.i" ]
; invoke alloc::alloc::handle_alloc_error
  invoke void @_ZN5alloc5alloc18handle_alloc_error17h1a71ccc8de2526dcE(i64 noundef %39, i64 noundef %40) #19
          to label %bb9.i.i.i.i.i32.cont unwind label %cleanup, !dbg !1847

bb9.i.i.i.i.i32.cont:                             ; preds = %bb9.i.i.i.i.i32.invoke
  unreachable

"_ZN3std3ffi6os_str132_$LT$impl$u20$core..convert..From$LT$$RF$std..ffi..os_str..OsStr$GT$$u20$for$u20$alloc..sync..Arc$LT$std..ffi..os_str..OsStr$GT$$GT$4from17h34af4a2df4e919e0E.exit.i29": ; preds = %"_ZN5alloc4sync22Arc$LT$$u5b$T$u5d$$GT$18allocate_for_slice28_$u7b$$u7b$closure$u7d$$u7d$17h01283643ff2416dbE.exit.i.i.i.i.i27"
    #dbg_value(ptr %_0.sroa.0.0.i.i.i.i.i.i.i28, !1263, !DIExpression(DW_OP_LLVM_fragment, 0, 64), !1848)
    #dbg_value(ptr %_0.sroa.0.0.i.i.i.i.i.i.i28, !1406, !DIExpression(DW_OP_LLVM_fragment, 0, 64), !1849)
    #dbg_value(i64 poison, !1263, !DIExpression(DW_OP_LLVM_fragment, 64, 64), !1848)
    #dbg_value(i64 poison, !1406, !DIExpression(DW_OP_LLVM_fragment, 64, 64), !1849)
    #dbg_value(i64 %35, !1413, !DIExpression(DW_OP_LLVM_fragment, 64, 64), !1849)
    #dbg_value(i64 %34, !1413, !DIExpression(DW_OP_LLVM_fragment, 0, 64), !1849)
    #dbg_value(ptr poison, !1414, !DIExpression(), !1849)
    #dbg_value(ptr %_0.sroa.0.0.i.i.i.i.i.i.i28, !1415, !DIExpression(DW_OP_LLVM_fragment, 0, 64), !1851)
    #dbg_value(i64 poison, !1415, !DIExpression(DW_OP_LLVM_fragment, 64, 64), !1851)
    #dbg_value(ptr %_0.sroa.0.0.i.i.i.i.i.i.i28, !1428, !DIExpression(), !1852)
    #dbg_value(ptr %_0.sroa.0.0.i.i.i.i.i.i.i28, !1442, !DIExpression(), !1854)
    #dbg_value(i64 1, !1437, !DIExpression(), !1852)
    #dbg_value(i64 1, !1437, !DIExpression(), !1856)
  store i64 1, ptr %_0.sroa.0.0.i.i.i.i.i.i.i28, align 8, !dbg !1858, !noalias !1833
    #dbg_value(ptr %_0.sroa.0.0.i.i.i.i.i.i.i28, !1428, !DIExpression(DW_OP_plus_uconst, 8, DW_OP_stack_value), !1856)
    #dbg_value(ptr %_0.sroa.0.0.i.i.i.i.i.i.i28, !1442, !DIExpression(DW_OP_plus_uconst, 8, DW_OP_stack_value), !1859)
  %41 = getelementptr inbounds nuw i8, ptr %_0.sroa.0.0.i.i.i.i.i.i.i28, i64 8, !dbg !1861
  store i64 1, ptr %41, align 8, !dbg !1861, !noalias !1833
    #dbg_value(ptr %_0.sroa.0.0.i.i.i.i.i.i.i28, !1163, !DIExpression(DW_OP_LLVM_fragment, 0, 64), !1862)
    #dbg_value(i64 poison, !1163, !DIExpression(DW_OP_LLVM_fragment, 64, 64), !1862)
    #dbg_value(ptr @alloc_7458b201b863ad890e7da22f4b22bd9b, !1178, !DIExpression(), !1803)
  %_6.0.i.i.i30 = getelementptr inbounds nuw i8, ptr %_0.sroa.0.0.i.i.i.i.i.i.i28, i64 16, !dbg !1863
    #dbg_value(ptr %_6.0.i.i.i30, !1179, !DIExpression(), !1803)
  call void @llvm.memcpy.p0.p0.i64(ptr noundef nonnull align 1 dereferenceable(17) %_6.0.i.i.i30, ptr noundef nonnull readonly align 1 dereferenceable(17) @alloc_7458b201b863ad890e7da22f4b22bd9b, i64 17, i1 false), !dbg !1864, !noalias !1770
  %42 = getelementptr inbounds nuw i8, ptr %_7, i64 400, !dbg !1865
  call void @llvm.experimental.noalias.scope.decl(metadata !1866), !dbg !1865
    #dbg_value(ptr %42, !1869, !DIExpression(), !1877)
  %43 = load ptr, ptr %42, align 8, !dbg !1879, !alias.scope !1880, !noundef !23
  %44 = icmp eq ptr %43, null, !dbg !1879
  br i1 %44, label %bb4, label %bb2.i.i, !dbg !1879

bb2.i.i:                                          ; preds = %"_ZN3std3ffi6os_str132_$LT$impl$u20$core..convert..From$LT$$RF$std..ffi..os_str..OsStr$GT$$u20$for$u20$alloc..sync..Arc$LT$std..ffi..os_str..OsStr$GT$$GT$4from17h34af4a2df4e919e0E.exit.i29"
    #dbg_value(ptr %42, !1523, !DIExpression(), !1881)
    #dbg_value(ptr %42, !1530, !DIExpression(), !1883)
    #dbg_value(i64 1, !1538, !DIExpression(), !1885)
    #dbg_value(i8 1, !1547, !DIExpression(), !1885)
    #dbg_value(i64 1, !1550, !DIExpression(), !1887)
    #dbg_value(i8 1, !1557, !DIExpression(), !1887)
    #dbg_value(i8 2, !1562, !DIExpression(), !1889)
    #dbg_value(ptr %43, !1546, !DIExpression(), !1885)
    #dbg_value(ptr %43, !1556, !DIExpression(), !1887)
  %45 = atomicrmw sub ptr %43, i64 1 release, align 8, !dbg !1891, !noalias !1892
  %46 = icmp eq i64 %45, 1, !dbg !1897
  br i1 %46, label %bb2.i.i.i.i31, label %bb4, !dbg !1897

bb2.i.i.i.i31:                                    ; preds = %bb2.i.i
  fence acquire, !dbg !1898
; invoke alloc::sync::Arc<T,A>::drop_slow
  invoke void @"_ZN5alloc4sync16Arc$LT$T$C$A$GT$9drop_slow17hc4aa5653d7cc5847E"(ptr noalias noundef nonnull align 8 dereferenceable(16) %42)
          to label %bb4 unwind label %cleanup2.i, !dbg !1899

cleanup2.i:                                       ; preds = %bb2.i.i.i.i31
  %47 = landingpad { ptr, i32 }
          cleanup
  store ptr %_0.sroa.0.0.i.i.i.i.i.i.i28, ptr %42, align 8, !dbg !1865, !alias.scope !1770
  %48 = getelementptr inbounds nuw i8, ptr %_7, i64 408, !dbg !1865
  store i64 17, ptr %48, align 8, !dbg !1865, !alias.scope !1770
  br label %cleanup.body, !dbg !1900

bb4:                                              ; preds = %bb2.i.i.i.i31, %bb2.i.i, %"_ZN3std3ffi6os_str132_$LT$impl$u20$core..convert..From$LT$$RF$std..ffi..os_str..OsStr$GT$$u20$for$u20$alloc..sync..Arc$LT$std..ffi..os_str..OsStr$GT$$GT$4from17h34af4a2df4e919e0E.exit.i29"
  store ptr %_0.sroa.0.0.i.i.i.i.i.i.i28, ptr %42, align 8, !dbg !1865, !alias.scope !1770
  %49 = getelementptr inbounds nuw i8, ptr %_7, i64 408, !dbg !1865
  store i64 17, ptr %49, align 8, !dbg !1865, !alias.scope !1770
; invoke cc::Build::compile
  invoke void @_ZN2cc5Build7compile17h4280cb8d92f8f164E(ptr noalias noundef nonnull readonly align 8 captures(address, read_provenance) dereferenceable(472) %_7, ptr noalias noundef nonnull readonly align 1 captures(address, read_provenance) @alloc_3cfdc61d33b0255ee4fc213bed181699, i64 noundef 5)
          to label %bb5 unwind label %cleanup, !dbg !1901

bb5:                                              ; preds = %bb4
; call core::ptr::drop_in_place<cc::Build>
  call fastcc void @"_ZN4core3ptr30drop_in_place$LT$cc..Build$GT$17h6218f1cb69feab33E"(ptr noalias noundef align 8 dereferenceable(472) %_7), !dbg !1579
  call void @llvm.lifetime.end.p0(i64 472, ptr nonnull %_7), !dbg !1579
  call void @llvm.lifetime.start.p0(i64 48, ptr nonnull %_9), !dbg !298
  store ptr @alloc_fc0f7cfa08327d6f39a13d1d2b2bc6c2, ptr %_9, align 8, !dbg !1902
  %50 = getelementptr inbounds nuw i8, ptr %_9, i64 8, !dbg !1902
  store i64 1, ptr %50, align 8, !dbg !1902
  %51 = getelementptr inbounds nuw i8, ptr %_9, i64 32, !dbg !1902
  store ptr null, ptr %51, align 8, !dbg !1902
  %52 = getelementptr inbounds nuw i8, ptr %_9, i64 16, !dbg !1902
  store ptr inttoptr (i64 8 to ptr), ptr %52, align 8, !dbg !1902
  %53 = getelementptr inbounds nuw i8, ptr %_9, i64 24, !dbg !1902
  store i64 0, ptr %53, align 8, !dbg !1902
; call std::io::stdio::_print
  call void @_ZN3std2io5stdio6_print17h02b5be036b2109f4E(ptr noalias noundef nonnull align 8 captures(address) dereferenceable(48) %_9), !dbg !298
  call void @llvm.lifetime.end.p0(i64 48, ptr nonnull %_9), !dbg !298
  ret void, !dbg !1903

terminate:                                        ; preds = %cleanup.body
  %54 = landingpad { ptr, i32 }
          filter [0 x ptr] zeroinitializer
; call core::panicking::panic_in_cleanup
  call void @_ZN4core9panicking16panic_in_cleanup17h8f68387bb6cbbf54E() #17, !dbg !1904
  unreachable, !dbg !1904

bb9:                                              ; preds = %cleanup.body
  resume { ptr, i32 } %eh.lpad-body, !dbg !1904
}

; std::rt::lang_start
; Function Attrs: nonlazybind uwtable
define hidden noundef i64 @_ZN3std2rt10lang_start17h3e97b43ba932c242E(ptr noundef nonnull %main, i64 noundef %argc, ptr noundef %argv, i8 noundef %sigpipe) unnamed_addr #0 !dbg !1905 {
start:
  %_7 = alloca [8 x i8], align 8
    #dbg_value(ptr %main, !1912, !DIExpression(), !1916)
    #dbg_value(i64 %argc, !1913, !DIExpression(), !1916)
    #dbg_value(ptr %argv, !1914, !DIExpression(), !1916)
    #dbg_value(i8 %sigpipe, !1915, !DIExpression(), !1916)
  call void @llvm.lifetime.start.p0(i64 8, ptr nonnull %_7), !dbg !1917
  store ptr %main, ptr %_7, align 8, !dbg !1917
; call std::rt::lang_start_internal
  %_0 = call noundef i64 @_ZN3std2rt19lang_start_internal17hce2b8b328837374bE(ptr noundef nonnull align 1 %_7, ptr noalias noundef readonly align 8 captures(address, read_provenance) dereferenceable(48) @vtable.0, i64 noundef %argc, ptr noundef %argv, i8 noundef %sigpipe), !dbg !1918
  call void @llvm.lifetime.end.p0(i64 8, ptr nonnull %_7), !dbg !1919
  ret i64 %_0, !dbg !1920
}

; std::rt::lang_start::{{closure}}
; Function Attrs: inlinehint nonlazybind uwtable
define internal noundef i32 @"_ZN3std2rt10lang_start28_$u7b$$u7b$closure$u7d$$u7d$17h81732a46d0cede38E"(ptr noalias noundef readonly align 8 captures(none) dereferenceable(8) %_1) unnamed_addr #1 !dbg !1921 {
start:
    #dbg_value(ptr %_1, !1927, !DIExpression(DW_OP_deref), !1928)
  %_4 = load ptr, ptr %_1, align 8, !dbg !1929, !nonnull !23, !noundef !23
; call std::sys::backtrace::__rust_begin_short_backtrace
  tail call fastcc void @_ZN3std3sys9backtrace28__rust_begin_short_backtrace17h49011cb54afb22f1E(ptr noundef nonnull %_4), !dbg !1930
  ret i32 0, !dbg !1931
}

; std::sys::backtrace::__rust_begin_short_backtrace
; Function Attrs: noinline nonlazybind uwtable
define internal fastcc void @_ZN3std3sys9backtrace28__rust_begin_short_backtrace17h49011cb54afb22f1E(ptr noundef nonnull readonly captures(none) %f) unnamed_addr #2 !dbg !1932 {
start:
    #dbg_declare(ptr poison, !1939, !DIExpression(), !1943)
    #dbg_value(ptr %f, !1938, !DIExpression(), !1944)
    #dbg_declare(ptr poison, !1945, !DIExpression(), !1952)
    #dbg_value(ptr %f, !1954, !DIExpression(), !1965)
    #dbg_declare(ptr poison, !1961, !DIExpression(), !1967)
  tail call void %f(), !dbg !1967
  tail call void asm sideeffect "", "~{memory}"() #16, !dbg !1968, !srcloc !1969
  ret void, !dbg !1970
}

; core::ops::function::FnOnce::call_once{{vtable.shim}}
; Function Attrs: inlinehint nonlazybind uwtable
define internal noundef i32 @"_ZN4core3ops8function6FnOnce40call_once$u7b$$u7b$vtable.shim$u7d$$u7d$17h249fa62bde1f8ac5E"(ptr noundef readonly captures(none) %_1) unnamed_addr #1 personality ptr @rust_eh_personality !dbg !1971 {
start:
    #dbg_value(ptr %_1, !1976, !DIExpression(), !1980)
    #dbg_declare(ptr poison, !1977, !DIExpression(), !1981)
  %0 = load ptr, ptr %_1, align 8, !dbg !1981, !nonnull !23, !noundef !23
    #dbg_value(ptr %0, !1927, !DIExpression(), !1982)
    #dbg_value(ptr %0, !1988, !DIExpression(), !1991)
    #dbg_declare(ptr poison, !1989, !DIExpression(), !1992)
    #dbg_value(ptr undef, !1927, !DIExpression(DW_OP_deref), !1982)
; call std::sys::backtrace::__rust_begin_short_backtrace
  tail call fastcc void @_ZN3std3sys9backtrace28__rust_begin_short_backtrace17h49011cb54afb22f1E(ptr noundef nonnull readonly %0), !dbg !1993, !noalias !1994
  ret i32 0, !dbg !1981
}

; core::ptr::drop_in_place<core::option::Option<core::option::Option<alloc::sync::Arc<str>>>>
; Function Attrs: nonlazybind uwtable
define internal fastcc void @"_ZN4core3ptr104drop_in_place$LT$core..option..Option$LT$core..option..Option$LT$alloc..sync..Arc$LT$str$GT$$GT$$GT$$GT$17he849185f6c48500cE"(ptr noalias noundef nonnull align 8 dereferenceable(24) %_1) unnamed_addr #0 !dbg !1997 {
start:
    #dbg_value(ptr %_1, !2002, !DIExpression(), !2005)
  %_2 = load i64, ptr %_1, align 8, !dbg !2006, !range !2007, !noundef !23
  %0 = icmp eq i64 %_2, 0, !dbg !2006
  br i1 %0, label %bb1, label %bb2, !dbg !2006

bb1:                                              ; preds = %bb2.i.i.i, %bb2.i, %bb2, %start
  ret void, !dbg !2006

bb2:                                              ; preds = %start
  %1 = getelementptr inbounds nuw i8, ptr %_1, i64 8, !dbg !2006
  tail call void @llvm.experimental.noalias.scope.decl(metadata !2008), !dbg !2006
    #dbg_value(ptr %1, !2011, !DIExpression(), !2017)
  %2 = load ptr, ptr %1, align 8, !dbg !2019, !alias.scope !2008, !noundef !23
  %3 = icmp eq ptr %2, null, !dbg !2019
  br i1 %3, label %bb1, label %bb2.i, !dbg !2019

bb2.i:                                            ; preds = %bb2
    #dbg_value(ptr %1, !2020, !DIExpression(), !2026)
    #dbg_value(ptr %1, !2028, !DIExpression(), !2034)
    #dbg_value(i64 1, !2036, !DIExpression(), !2041)
    #dbg_value(i8 1, !2040, !DIExpression(), !2041)
    #dbg_value(i64 1, !2043, !DIExpression(), !2048)
    #dbg_value(i8 1, !2047, !DIExpression(), !2048)
    #dbg_value(i8 2, !2050, !DIExpression(), !2053)
    #dbg_value(ptr %2, !2039, !DIExpression(), !2041)
    #dbg_value(ptr %2, !2046, !DIExpression(), !2048)
  %4 = atomicrmw sub ptr %2, i64 1 release, align 8, !dbg !2055, !noalias !2056
  %5 = icmp eq i64 %4, 1, !dbg !2061
  br i1 %5, label %bb2.i.i.i, label %bb1, !dbg !2061

bb2.i.i.i:                                        ; preds = %bb2.i
  fence acquire, !dbg !2062
; call alloc::sync::Arc<T,A>::drop_slow
  tail call void @"_ZN5alloc4sync16Arc$LT$T$C$A$GT$9drop_slow17hbc25fce3e9353209E"(ptr noalias noundef nonnull align 8 dereferenceable(16) %1), !dbg !2063
  br label %bb1, !dbg !2063
}

; core::ptr::drop_in_place<(alloc::sync::Arc<str>,core::option::Option<alloc::sync::Arc<str>>)>
; Function Attrs: nonlazybind uwtable
define internal fastcc void @"_ZN4core3ptr114drop_in_place$LT$$LP$alloc..sync..Arc$LT$str$GT$$C$core..option..Option$LT$alloc..sync..Arc$LT$str$GT$$GT$$RP$$GT$17h2f891c43be284ad8E"(ptr noalias noundef nonnull align 8 dereferenceable(32) %_1) unnamed_addr #0 personality ptr @rust_eh_personality !dbg !2064 {
start:
    #dbg_value(ptr %_1, !2069, !DIExpression(), !2070)
  tail call void @llvm.experimental.noalias.scope.decl(metadata !2071), !dbg !2074
    #dbg_value(ptr %_1, !2020, !DIExpression(), !2075)
  tail call void @llvm.experimental.noalias.scope.decl(metadata !2077), !dbg !2080
    #dbg_value(ptr %_1, !2028, !DIExpression(), !2081)
    #dbg_value(ptr %_1, !2083, !DIExpression(), !2094)
    #dbg_value(i64 1, !2036, !DIExpression(), !2096)
    #dbg_value(i8 1, !2040, !DIExpression(), !2096)
    #dbg_value(i64 1, !2043, !DIExpression(), !2098)
    #dbg_value(i8 1, !2047, !DIExpression(), !2098)
    #dbg_value(i8 2, !2050, !DIExpression(), !2100)
  %_10.0.i.i = load ptr, ptr %_1, align 8, !dbg !2102, !alias.scope !2109, !nonnull !23, !noundef !23
    #dbg_value(ptr %_10.0.i.i, !2039, !DIExpression(), !2096)
    #dbg_value(ptr %_10.0.i.i, !2046, !DIExpression(), !2098)
  %0 = atomicrmw sub ptr %_10.0.i.i, i64 1 release, align 8, !dbg !2110, !noalias !2109
  %1 = icmp eq i64 %0, 1, !dbg !2111
  br i1 %1, label %bb2.i.i, label %bb4, !dbg !2111

bb2.i.i:                                          ; preds = %start
  fence acquire, !dbg !2112
; invoke alloc::sync::Arc<T,A>::drop_slow
  invoke void @"_ZN5alloc4sync16Arc$LT$T$C$A$GT$9drop_slow17hbc25fce3e9353209E"(ptr noalias noundef nonnull align 8 dereferenceable(16) %_1)
          to label %bb4 unwind label %cleanup, !dbg !2113

cleanup:                                          ; preds = %bb2.i.i
  %2 = landingpad { ptr, i32 }
          cleanup
  %3 = getelementptr inbounds nuw i8, ptr %_1, i64 16, !dbg !2074
  tail call void @llvm.experimental.noalias.scope.decl(metadata !2114), !dbg !2074
    #dbg_value(ptr %3, !2011, !DIExpression(), !2117)
  %4 = load ptr, ptr %3, align 8, !dbg !2119, !alias.scope !2114, !noundef !23
  %5 = icmp eq ptr %4, null, !dbg !2119
  br i1 %5, label %bb1, label %bb2.i, !dbg !2119

bb2.i:                                            ; preds = %cleanup
    #dbg_value(ptr %3, !2020, !DIExpression(), !2120)
    #dbg_value(ptr %3, !2028, !DIExpression(), !2122)
    #dbg_value(i64 1, !2036, !DIExpression(), !2124)
    #dbg_value(i8 1, !2040, !DIExpression(), !2124)
    #dbg_value(i64 1, !2043, !DIExpression(), !2126)
    #dbg_value(i8 1, !2047, !DIExpression(), !2126)
    #dbg_value(i8 2, !2050, !DIExpression(), !2128)
    #dbg_value(ptr %4, !2039, !DIExpression(), !2124)
    #dbg_value(ptr %4, !2046, !DIExpression(), !2126)
  %6 = atomicrmw sub ptr %4, i64 1 release, align 8, !dbg !2130, !noalias !2131
  %7 = icmp eq i64 %6, 1, !dbg !2136
  br i1 %7, label %bb2.i.i.i, label %bb1, !dbg !2136

bb2.i.i.i:                                        ; preds = %bb2.i
  fence acquire, !dbg !2137
; invoke alloc::sync::Arc<T,A>::drop_slow
  invoke void @"_ZN5alloc4sync16Arc$LT$T$C$A$GT$9drop_slow17hbc25fce3e9353209E"(ptr noalias noundef nonnull align 8 dereferenceable(16) %3)
          to label %bb1 unwind label %terminate, !dbg !2138

bb4:                                              ; preds = %start, %bb2.i.i
  %8 = getelementptr inbounds nuw i8, ptr %_1, i64 16, !dbg !2074
  tail call void @llvm.experimental.noalias.scope.decl(metadata !2139), !dbg !2074
    #dbg_value(ptr %8, !2011, !DIExpression(), !2142)
  %9 = load ptr, ptr %8, align 8, !dbg !2144, !alias.scope !2139, !noundef !23
  %10 = icmp eq ptr %9, null, !dbg !2144
  br i1 %10, label %"_ZN4core3ptr76drop_in_place$LT$core..option..Option$LT$alloc..sync..Arc$LT$str$GT$$GT$$GT$17h6c46b15b979b59beE.exit4", label %bb2.i2, !dbg !2144

bb2.i2:                                           ; preds = %bb4
    #dbg_value(ptr %8, !2020, !DIExpression(), !2145)
    #dbg_value(ptr %8, !2028, !DIExpression(), !2147)
    #dbg_value(i64 1, !2036, !DIExpression(), !2149)
    #dbg_value(i8 1, !2040, !DIExpression(), !2149)
    #dbg_value(i64 1, !2043, !DIExpression(), !2151)
    #dbg_value(i8 1, !2047, !DIExpression(), !2151)
    #dbg_value(i8 2, !2050, !DIExpression(), !2153)
    #dbg_value(ptr %9, !2039, !DIExpression(), !2149)
    #dbg_value(ptr %9, !2046, !DIExpression(), !2151)
  %11 = atomicrmw sub ptr %9, i64 1 release, align 8, !dbg !2155, !noalias !2156
  %12 = icmp eq i64 %11, 1, !dbg !2161
  br i1 %12, label %bb2.i.i.i3, label %"_ZN4core3ptr76drop_in_place$LT$core..option..Option$LT$alloc..sync..Arc$LT$str$GT$$GT$$GT$17h6c46b15b979b59beE.exit4", !dbg !2161

bb2.i.i.i3:                                       ; preds = %bb2.i2
  fence acquire, !dbg !2162
; call alloc::sync::Arc<T,A>::drop_slow
  tail call void @"_ZN5alloc4sync16Arc$LT$T$C$A$GT$9drop_slow17hbc25fce3e9353209E"(ptr noalias noundef nonnull align 8 dereferenceable(16) %8), !dbg !2163
  br label %"_ZN4core3ptr76drop_in_place$LT$core..option..Option$LT$alloc..sync..Arc$LT$str$GT$$GT$$GT$17h6c46b15b979b59beE.exit4", !dbg !2163

"_ZN4core3ptr76drop_in_place$LT$core..option..Option$LT$alloc..sync..Arc$LT$str$GT$$GT$$GT$17h6c46b15b979b59beE.exit4": ; preds = %bb4, %bb2.i2, %bb2.i.i.i3
  ret void, !dbg !2074

terminate:                                        ; preds = %bb2.i.i.i
  %13 = landingpad { ptr, i32 }
          filter [0 x ptr] zeroinitializer
; call core::panicking::panic_in_cleanup
  tail call void @_ZN4core9panicking16panic_in_cleanup17h8f68387bb6cbbf54E() #17, !dbg !2074
  unreachable, !dbg !2074

bb1:                                              ; preds = %bb2.i, %cleanup, %bb2.i.i.i
  resume { ptr, i32 } %2, !dbg !2074
}

; core::ptr::drop_in_place<(alloc::sync::Arc<std::ffi::os_str::OsStr>,alloc::sync::Arc<std::ffi::os_str::OsStr>)>
; Function Attrs: nonlazybind uwtable
define internal fastcc void @"_ZN4core3ptr126drop_in_place$LT$$LP$alloc..sync..Arc$LT$std..ffi..os_str..OsStr$GT$$C$alloc..sync..Arc$LT$std..ffi..os_str..OsStr$GT$$RP$$GT$17hf2c510775c1b5ef5E"(ptr noalias noundef nonnull align 8 dereferenceable(32) %_1) unnamed_addr #0 personality ptr @rust_eh_personality !dbg !2164 {
start:
    #dbg_value(ptr %_1, !2169, !DIExpression(), !2170)
  tail call void @llvm.experimental.noalias.scope.decl(metadata !2171), !dbg !2174
    #dbg_value(ptr %_1, !2175, !DIExpression(), !2181)
  tail call void @llvm.experimental.noalias.scope.decl(metadata !2183), !dbg !2186
    #dbg_value(ptr %_1, !2187, !DIExpression(), !2193)
    #dbg_value(ptr %_1, !2195, !DIExpression(), !2206)
    #dbg_value(i64 1, !2208, !DIExpression(), !2213)
    #dbg_value(i8 1, !2212, !DIExpression(), !2213)
    #dbg_value(i64 1, !2215, !DIExpression(), !2220)
    #dbg_value(i8 1, !2219, !DIExpression(), !2220)
    #dbg_value(i8 2, !2222, !DIExpression(), !2225)
  %_10.0.i.i = load ptr, ptr %_1, align 8, !dbg !2227, !alias.scope !2234, !nonnull !23, !noundef !23
    #dbg_value(ptr %_10.0.i.i, !2211, !DIExpression(), !2213)
    #dbg_value(ptr %_10.0.i.i, !2218, !DIExpression(), !2220)
  %0 = atomicrmw sub ptr %_10.0.i.i, i64 1 release, align 8, !dbg !2235, !noalias !2234
  %1 = icmp eq i64 %0, 1, !dbg !2236
  br i1 %1, label %bb2.i.i, label %bb4, !dbg !2236

bb2.i.i:                                          ; preds = %start
  fence acquire, !dbg !2237
; invoke alloc::sync::Arc<T,A>::drop_slow
  invoke void @"_ZN5alloc4sync16Arc$LT$T$C$A$GT$9drop_slow17hbf12b01ed7716fa7E"(ptr noalias noundef nonnull align 8 dereferenceable(16) %_1)
          to label %bb4 unwind label %cleanup, !dbg !2238

cleanup:                                          ; preds = %bb2.i.i
  %2 = landingpad { ptr, i32 }
          cleanup
  %3 = getelementptr inbounds nuw i8, ptr %_1, i64 16, !dbg !2174
  tail call void @llvm.experimental.noalias.scope.decl(metadata !2239), !dbg !2174
    #dbg_value(ptr %3, !2175, !DIExpression(), !2242)
  tail call void @llvm.experimental.noalias.scope.decl(metadata !2244), !dbg !2247
    #dbg_value(ptr %3, !2187, !DIExpression(), !2248)
    #dbg_value(ptr %3, !2195, !DIExpression(), !2250)
    #dbg_value(i64 1, !2208, !DIExpression(), !2252)
    #dbg_value(i8 1, !2212, !DIExpression(), !2252)
    #dbg_value(i64 1, !2215, !DIExpression(), !2254)
    #dbg_value(i8 1, !2219, !DIExpression(), !2254)
    #dbg_value(i8 2, !2222, !DIExpression(), !2256)
  %_10.0.i.i1 = load ptr, ptr %3, align 8, !dbg !2258, !alias.scope !2260, !nonnull !23, !noundef !23
    #dbg_value(ptr %_10.0.i.i1, !2211, !DIExpression(), !2252)
    #dbg_value(ptr %_10.0.i.i1, !2218, !DIExpression(), !2254)
  %4 = atomicrmw sub ptr %_10.0.i.i1, i64 1 release, align 8, !dbg !2261, !noalias !2260
  %5 = icmp eq i64 %4, 1, !dbg !2262
  br i1 %5, label %bb2.i.i2, label %bb1, !dbg !2262

bb2.i.i2:                                         ; preds = %cleanup
  fence acquire, !dbg !2263
; invoke alloc::sync::Arc<T,A>::drop_slow
  invoke void @"_ZN5alloc4sync16Arc$LT$T$C$A$GT$9drop_slow17hbf12b01ed7716fa7E"(ptr noalias noundef nonnull align 8 dereferenceable(16) %3)
          to label %bb1 unwind label %terminate, !dbg !2264

bb4:                                              ; preds = %start, %bb2.i.i
  %6 = getelementptr inbounds nuw i8, ptr %_1, i64 16, !dbg !2174
  tail call void @llvm.experimental.noalias.scope.decl(metadata !2265), !dbg !2174
    #dbg_value(ptr %6, !2175, !DIExpression(), !2268)
  tail call void @llvm.experimental.noalias.scope.decl(metadata !2270), !dbg !2273
    #dbg_value(ptr %6, !2187, !DIExpression(), !2274)
    #dbg_value(ptr %6, !2195, !DIExpression(), !2276)
    #dbg_value(i64 1, !2208, !DIExpression(), !2278)
    #dbg_value(i8 1, !2212, !DIExpression(), !2278)
    #dbg_value(i64 1, !2215, !DIExpression(), !2280)
    #dbg_value(i8 1, !2219, !DIExpression(), !2280)
    #dbg_value(i8 2, !2222, !DIExpression(), !2282)
  %_10.0.i.i5 = load ptr, ptr %6, align 8, !dbg !2284, !alias.scope !2286, !nonnull !23, !noundef !23
    #dbg_value(ptr %_10.0.i.i5, !2211, !DIExpression(), !2278)
    #dbg_value(ptr %_10.0.i.i5, !2218, !DIExpression(), !2280)
  %7 = atomicrmw sub ptr %_10.0.i.i5, i64 1 release, align 8, !dbg !2287, !noalias !2286
  %8 = icmp eq i64 %7, 1, !dbg !2288
  br i1 %8, label %bb2.i.i6, label %"_ZN4core3ptr68drop_in_place$LT$alloc..sync..Arc$LT$std..ffi..os_str..OsStr$GT$$GT$17h5622447909d9bf00E.exit7", !dbg !2288

bb2.i.i6:                                         ; preds = %bb4
  fence acquire, !dbg !2289
; call alloc::sync::Arc<T,A>::drop_slow
  tail call void @"_ZN5alloc4sync16Arc$LT$T$C$A$GT$9drop_slow17hbf12b01ed7716fa7E"(ptr noalias noundef nonnull align 8 dereferenceable(16) %6), !dbg !2290
  br label %"_ZN4core3ptr68drop_in_place$LT$alloc..sync..Arc$LT$std..ffi..os_str..OsStr$GT$$GT$17h5622447909d9bf00E.exit7", !dbg !2290

"_ZN4core3ptr68drop_in_place$LT$alloc..sync..Arc$LT$std..ffi..os_str..OsStr$GT$$GT$17h5622447909d9bf00E.exit7": ; preds = %bb4, %bb2.i.i6
  ret void, !dbg !2174

terminate:                                        ; preds = %bb2.i.i2
  %9 = landingpad { ptr, i32 }
          filter [0 x ptr] zeroinitializer
; call core::panicking::panic_in_cleanup
  tail call void @_ZN4core9panicking16panic_in_cleanup17h8f68387bb6cbbf54E() #17, !dbg !2174
  unreachable, !dbg !2174

bb1:                                              ; preds = %cleanup, %bb2.i.i2
  resume { ptr, i32 } %2, !dbg !2174
}

; core::ptr::drop_in_place<alloc::vec::Vec<(alloc::sync::Arc<str>,core::option::Option<alloc::sync::Arc<str>>)>>
; Function Attrs: nonlazybind uwtable
define internal fastcc void @"_ZN4core3ptr137drop_in_place$LT$alloc..vec..Vec$LT$$LP$alloc..sync..Arc$LT$str$GT$$C$core..option..Option$LT$alloc..sync..Arc$LT$str$GT$$GT$$RP$$GT$$GT$17hef16b09b201ef292E"(ptr noalias noundef nonnull readonly align 8 captures(none) dereferenceable(24) %_1) unnamed_addr #0 personality ptr @rust_eh_personality !dbg !2291 {
start:
    #dbg_value(ptr %_1, !2296, !DIExpression(), !2299)
  %0 = getelementptr inbounds nuw i8, ptr %_1, i64 8, !dbg !2300
  %_1.val = load ptr, ptr %0, align 8, !dbg !2300, !nonnull !23, !noundef !23
  %1 = getelementptr inbounds nuw i8, ptr %_1, i64 16, !dbg !2300
  %_1.val1 = load i64, ptr %1, align 8, !dbg !2300, !noundef !23
    #dbg_value(ptr poison, !2301, !DIExpression(), !2308)
    #dbg_value(ptr %_1.val, !2310, !DIExpression(DW_OP_LLVM_fragment, 0, 64), !2320)
    #dbg_value(i64 %_1.val1, !2310, !DIExpression(DW_OP_LLVM_fragment, 64, 64), !2320)
  %_78.i.i = icmp eq i64 %_1.val1, 0, !dbg !2322
  br i1 %_78.i.i, label %bb4, label %bb5.i.i, !dbg !2322

bb5.i.i:                                          ; preds = %start, %"_ZN4core3ptr114drop_in_place$LT$$LP$alloc..sync..Arc$LT$str$GT$$C$core..option..Option$LT$alloc..sync..Arc$LT$str$GT$$GT$$RP$$GT$17h2f891c43be284ad8E.exit.i.i"
  %_3.sroa.0.09.i.i = phi i64 [ %2, %"_ZN4core3ptr114drop_in_place$LT$$LP$alloc..sync..Arc$LT$str$GT$$C$core..option..Option$LT$alloc..sync..Arc$LT$str$GT$$GT$$RP$$GT$17h2f891c43be284ad8E.exit.i.i" ], [ 0, %start ]
  %_6.i.i = getelementptr inbounds nuw { %"alloc::sync::Arc<str>", %"core::option::Option<alloc::sync::Arc<str>>" }, ptr %_1.val, i64 %_3.sroa.0.09.i.i, !dbg !2322
  %2 = add nuw i64 %_3.sroa.0.09.i.i, 1, !dbg !2322
  tail call void @llvm.experimental.noalias.scope.decl(metadata !2323), !dbg !2322
    #dbg_value(ptr %_6.i.i, !2069, !DIExpression(), !2326)
  tail call void @llvm.experimental.noalias.scope.decl(metadata !2328), !dbg !2331
    #dbg_value(ptr %_6.i.i, !2020, !DIExpression(), !2332)
  tail call void @llvm.experimental.noalias.scope.decl(metadata !2334), !dbg !2337
    #dbg_value(ptr %_6.i.i, !2028, !DIExpression(), !2338)
    #dbg_value(ptr %_6.i.i, !2083, !DIExpression(), !2340)
    #dbg_value(i64 1, !2036, !DIExpression(), !2342)
    #dbg_value(i8 1, !2040, !DIExpression(), !2342)
    #dbg_value(i64 1, !2043, !DIExpression(), !2344)
    #dbg_value(i8 1, !2047, !DIExpression(), !2344)
    #dbg_value(i8 2, !2050, !DIExpression(), !2346)
  %_10.0.i.i.i.i.i = load ptr, ptr %_6.i.i, align 8, !dbg !2348, !alias.scope !2350, !nonnull !23, !noundef !23
    #dbg_value(ptr %_10.0.i.i.i.i.i, !2039, !DIExpression(), !2342)
    #dbg_value(ptr %_10.0.i.i.i.i.i, !2046, !DIExpression(), !2344)
  %3 = atomicrmw sub ptr %_10.0.i.i.i.i.i, i64 1 release, align 8, !dbg !2353, !noalias !2354
  %4 = icmp eq i64 %3, 1, !dbg !2355
  br i1 %4, label %bb2.i.i.i.i.i, label %bb4.i.i.i, !dbg !2355

bb2.i.i.i.i.i:                                    ; preds = %bb5.i.i
  fence acquire, !dbg !2356
; invoke alloc::sync::Arc<T,A>::drop_slow
  invoke void @"_ZN5alloc4sync16Arc$LT$T$C$A$GT$9drop_slow17hbc25fce3e9353209E"(ptr noalias noundef nonnull align 8 dereferenceable(32) %_6.i.i)
          to label %bb4.i.i.i unwind label %cleanup.i.i.i, !dbg !2357

cleanup.i.i.i:                                    ; preds = %bb2.i.i.i.i.i
  %5 = landingpad { ptr, i32 }
          cleanup
  %6 = getelementptr inbounds nuw i8, ptr %_6.i.i, i64 16, !dbg !2331
  tail call void @llvm.experimental.noalias.scope.decl(metadata !2358), !dbg !2331
    #dbg_value(ptr %6, !2011, !DIExpression(), !2361)
  %7 = load ptr, ptr %6, align 8, !dbg !2363, !alias.scope !2364, !noundef !23
  %8 = icmp eq ptr %7, null, !dbg !2363
  br i1 %8, label %cleanup.body.i.i, label %bb2.i.i.i.i, !dbg !2363

bb2.i.i.i.i:                                      ; preds = %cleanup.i.i.i
    #dbg_value(ptr %6, !2020, !DIExpression(), !2365)
    #dbg_value(ptr %6, !2028, !DIExpression(), !2367)
    #dbg_value(i64 1, !2036, !DIExpression(), !2369)
    #dbg_value(i8 1, !2040, !DIExpression(), !2369)
    #dbg_value(i64 1, !2043, !DIExpression(), !2371)
    #dbg_value(i8 1, !2047, !DIExpression(), !2371)
    #dbg_value(i8 2, !2050, !DIExpression(), !2373)
    #dbg_value(ptr %7, !2039, !DIExpression(), !2369)
    #dbg_value(ptr %7, !2046, !DIExpression(), !2371)
  %9 = atomicrmw sub ptr %7, i64 1 release, align 8, !dbg !2375, !noalias !2376
  %10 = icmp eq i64 %9, 1, !dbg !2381
  br i1 %10, label %bb2.i.i.i.i.i.i, label %cleanup.body.i.i, !dbg !2381

bb2.i.i.i.i.i.i:                                  ; preds = %bb2.i.i.i.i
  fence acquire, !dbg !2382
; invoke alloc::sync::Arc<T,A>::drop_slow
  invoke void @"_ZN5alloc4sync16Arc$LT$T$C$A$GT$9drop_slow17hbc25fce3e9353209E"(ptr noalias noundef nonnull align 8 dereferenceable(16) %6)
          to label %cleanup.body.i.i unwind label %terminate.i.i.i, !dbg !2383

bb4.i.i.i:                                        ; preds = %bb2.i.i.i.i.i, %bb5.i.i
  %11 = getelementptr inbounds nuw i8, ptr %_6.i.i, i64 16, !dbg !2331
  tail call void @llvm.experimental.noalias.scope.decl(metadata !2384), !dbg !2331
    #dbg_value(ptr %11, !2011, !DIExpression(), !2387)
  %12 = load ptr, ptr %11, align 8, !dbg !2389, !alias.scope !2390, !noundef !23
  %13 = icmp eq ptr %12, null, !dbg !2389
  br i1 %13, label %"_ZN4core3ptr114drop_in_place$LT$$LP$alloc..sync..Arc$LT$str$GT$$C$core..option..Option$LT$alloc..sync..Arc$LT$str$GT$$GT$$RP$$GT$17h2f891c43be284ad8E.exit.i.i", label %bb2.i2.i.i.i, !dbg !2389

bb2.i2.i.i.i:                                     ; preds = %bb4.i.i.i
    #dbg_value(ptr %11, !2020, !DIExpression(), !2391)
    #dbg_value(ptr %11, !2028, !DIExpression(), !2393)
    #dbg_value(i64 1, !2036, !DIExpression(), !2395)
    #dbg_value(i8 1, !2040, !DIExpression(), !2395)
    #dbg_value(i64 1, !2043, !DIExpression(), !2397)
    #dbg_value(i8 1, !2047, !DIExpression(), !2397)
    #dbg_value(i8 2, !2050, !DIExpression(), !2399)
    #dbg_value(ptr %12, !2039, !DIExpression(), !2395)
    #dbg_value(ptr %12, !2046, !DIExpression(), !2397)
  %14 = atomicrmw sub ptr %12, i64 1 release, align 8, !dbg !2401, !noalias !2402
  %15 = icmp eq i64 %14, 1, !dbg !2407
  br i1 %15, label %bb2.i.i.i3.i.i.i, label %"_ZN4core3ptr114drop_in_place$LT$$LP$alloc..sync..Arc$LT$str$GT$$C$core..option..Option$LT$alloc..sync..Arc$LT$str$GT$$GT$$RP$$GT$17h2f891c43be284ad8E.exit.i.i", !dbg !2407

bb2.i.i.i3.i.i.i:                                 ; preds = %bb2.i2.i.i.i
  fence acquire, !dbg !2408
; invoke alloc::sync::Arc<T,A>::drop_slow
  invoke void @"_ZN5alloc4sync16Arc$LT$T$C$A$GT$9drop_slow17hbc25fce3e9353209E"(ptr noalias noundef nonnull align 8 dereferenceable(16) %11)
          to label %"_ZN4core3ptr114drop_in_place$LT$$LP$alloc..sync..Arc$LT$str$GT$$C$core..option..Option$LT$alloc..sync..Arc$LT$str$GT$$GT$$RP$$GT$17h2f891c43be284ad8E.exit.i.i" unwind label %cleanup.i.i, !dbg !2409

terminate.i.i.i:                                  ; preds = %bb2.i.i.i.i.i.i
  %16 = landingpad { ptr, i32 }
          filter [0 x ptr] zeroinitializer
; call core::panicking::panic_in_cleanup
  tail call void @_ZN4core9panicking16panic_in_cleanup17h8f68387bb6cbbf54E() #17, !dbg !2331
  unreachable, !dbg !2331

"_ZN4core3ptr114drop_in_place$LT$$LP$alloc..sync..Arc$LT$str$GT$$C$core..option..Option$LT$alloc..sync..Arc$LT$str$GT$$GT$$RP$$GT$17h2f891c43be284ad8E.exit.i.i": ; preds = %bb2.i.i.i3.i.i.i, %bb2.i2.i.i.i, %bb4.i.i.i
  %_7.i.i = icmp eq i64 %2, %_1.val1, !dbg !2322
  br i1 %_7.i.i, label %bb4, label %bb5.i.i, !dbg !2322

bb4.i.i:                                          ; preds = %bb3.i.i, %cleanup.body.i.i
  %_3.sroa.0.1.i.i = phi i64 [ %2, %cleanup.body.i.i ], [ %18, %bb3.i.i ], !dbg !2322
  %_5.i.i = icmp eq i64 %_3.sroa.0.1.i.i, %_1.val1, !dbg !2322
  br i1 %_5.i.i, label %cleanup.body, label %bb3.i.i, !dbg !2322

cleanup.i.i:                                      ; preds = %bb2.i.i.i3.i.i.i
  %17 = landingpad { ptr, i32 }
          cleanup
  br label %cleanup.body.i.i

cleanup.body.i.i:                                 ; preds = %cleanup.i.i, %bb2.i.i.i.i.i.i, %bb2.i.i.i.i, %cleanup.i.i.i
  %eh.lpad-body.i.i = phi { ptr, i32 } [ %17, %cleanup.i.i ], [ %5, %bb2.i.i.i.i.i.i ], [ %5, %bb2.i.i.i.i ], [ %5, %cleanup.i.i.i ]
  br label %bb4.i.i

bb3.i.i:                                          ; preds = %bb4.i.i
  %_4.i.i = getelementptr inbounds nuw { %"alloc::sync::Arc<str>", %"core::option::Option<alloc::sync::Arc<str>>" }, ptr %_1.val, i64 %_3.sroa.0.1.i.i, !dbg !2322
  %18 = add i64 %_3.sroa.0.1.i.i, 1, !dbg !2322
; invoke core::ptr::drop_in_place<(alloc::sync::Arc<str>,core::option::Option<alloc::sync::Arc<str>>)>
  invoke fastcc void @"_ZN4core3ptr114drop_in_place$LT$$LP$alloc..sync..Arc$LT$str$GT$$C$core..option..Option$LT$alloc..sync..Arc$LT$str$GT$$GT$$RP$$GT$17h2f891c43be284ad8E"(ptr noalias noundef align 8 dereferenceable(32) %_4.i.i) #18
          to label %bb4.i.i unwind label %terminate.i.i, !dbg !2322

terminate.i.i:                                    ; preds = %bb3.i.i
  %19 = landingpad { ptr, i32 }
          filter [0 x ptr] zeroinitializer
; call core::panicking::panic_in_cleanup
  tail call void @_ZN4core9panicking16panic_in_cleanup17h8f68387bb6cbbf54E() #17, !dbg !2322
  unreachable, !dbg !2322

cleanup.body:                                     ; preds = %bb4.i.i
  %_1.val2 = load i64, ptr %_1, align 8, !dbg !2300, !range !1520, !noundef !23
    #dbg_value(ptr poison, !2410, !DIExpression(), !2418)
    #dbg_value(ptr poison, !2420, !DIExpression(), !2427)
    #dbg_value(ptr poison, !2429, !DIExpression(), !2440)
    #dbg_value(i64 8, !2436, !DIExpression(DW_OP_LLVM_fragment, 0, 64), !2440)
    #dbg_value(i64 32, !2436, !DIExpression(DW_OP_LLVM_fragment, 64, 64), !2440)
    #dbg_value(i64 8, !2442, !DIExpression(DW_OP_LLVM_fragment, 0, 64), !2470)
    #dbg_value(i64 32, !2442, !DIExpression(DW_OP_LLVM_fragment, 64, 64), !2470)
    #dbg_value(ptr poison, !2465, !DIExpression(), !2470)
    #dbg_value(i64 32, !2472, !DIExpression(), !2480)
  %20 = icmp eq i64 %_1.val2, 0, !dbg !2482
  br i1 %20, label %bb1, label %bb2.i.i.i, !dbg !2482

bb2.i.i.i:                                        ; preds = %cleanup.body
    #dbg_value(i64 %_1.val2, !2479, !DIExpression(), !2480)
  %21 = shl nuw i64 %_1.val2, 5, !dbg !2483
    #dbg_value(ptr %_1.val, !2437, !DIExpression(), !2484)
    #dbg_value(i64 8, !2439, !DIExpression(DW_OP_LLVM_fragment, 0, 64), !2484)
    #dbg_value(i64 %21, !2439, !DIExpression(DW_OP_LLVM_fragment, 64, 64), !2484)
    #dbg_value(i64 8, !2485, !DIExpression(DW_OP_LLVM_fragment, 0, 64), !2492)
    #dbg_value(i64 %21, !2485, !DIExpression(DW_OP_LLVM_fragment, 64, 64), !2492)
    #dbg_value(ptr poison, !2490, !DIExpression(), !2492)
    #dbg_value(ptr %_1.val, !2491, !DIExpression(), !2492)
    #dbg_value(ptr %_1.val, !2494, !DIExpression(), !2500)
    #dbg_value(i64 8, !2499, !DIExpression(DW_OP_LLVM_fragment, 0, 64), !2500)
    #dbg_value(i64 %21, !2499, !DIExpression(DW_OP_LLVM_fragment, 64, 64), !2500)
; call __rustc::__rust_dealloc
  tail call void @_RNvCsj3IbkTTFM3W_7___rustc14___rust_dealloc(ptr noundef nonnull %_1.val, i64 noundef %21, i64 noundef range(i64 1, -9223372036854775807) 8) #16, !dbg !2502
  br label %bb1, !dbg !2503

bb4:                                              ; preds = %"_ZN4core3ptr114drop_in_place$LT$$LP$alloc..sync..Arc$LT$str$GT$$C$core..option..Option$LT$alloc..sync..Arc$LT$str$GT$$GT$$RP$$GT$17h2f891c43be284ad8E.exit.i.i", %start
  %_1.val4 = load i64, ptr %_1, align 8, !dbg !2300, !range !1520, !noundef !23
    #dbg_value(ptr poison, !2410, !DIExpression(), !2504)
    #dbg_value(ptr poison, !2420, !DIExpression(), !2506)
    #dbg_value(ptr poison, !2429, !DIExpression(), !2508)
    #dbg_value(i64 8, !2436, !DIExpression(DW_OP_LLVM_fragment, 0, 64), !2508)
    #dbg_value(i64 32, !2436, !DIExpression(DW_OP_LLVM_fragment, 64, 64), !2508)
    #dbg_value(i64 8, !2442, !DIExpression(DW_OP_LLVM_fragment, 0, 64), !2510)
    #dbg_value(i64 32, !2442, !DIExpression(DW_OP_LLVM_fragment, 64, 64), !2510)
    #dbg_value(ptr poison, !2465, !DIExpression(), !2510)
    #dbg_value(i64 32, !2472, !DIExpression(), !2512)
  %22 = icmp eq i64 %_1.val4, 0, !dbg !2514
  br i1 %22, label %"_ZN4core3ptr144drop_in_place$LT$alloc..raw_vec..RawVec$LT$$LP$alloc..sync..Arc$LT$str$GT$$C$core..option..Option$LT$alloc..sync..Arc$LT$str$GT$$GT$$RP$$GT$$GT$17h5115bea52e56c183E.exit7", label %bb2.i.i.i6, !dbg !2514

bb2.i.i.i6:                                       ; preds = %bb4
    #dbg_value(i64 %_1.val4, !2479, !DIExpression(), !2512)
  %23 = shl nuw i64 %_1.val4, 5, !dbg !2515
    #dbg_value(ptr %_1.val, !2437, !DIExpression(), !2516)
    #dbg_value(i64 8, !2439, !DIExpression(DW_OP_LLVM_fragment, 0, 64), !2516)
    #dbg_value(i64 %23, !2439, !DIExpression(DW_OP_LLVM_fragment, 64, 64), !2516)
    #dbg_value(i64 8, !2485, !DIExpression(DW_OP_LLVM_fragment, 0, 64), !2517)
    #dbg_value(i64 %23, !2485, !DIExpression(DW_OP_LLVM_fragment, 64, 64), !2517)
    #dbg_value(ptr poison, !2490, !DIExpression(), !2517)
    #dbg_value(ptr %_1.val, !2491, !DIExpression(), !2517)
    #dbg_value(ptr %_1.val, !2494, !DIExpression(), !2519)
    #dbg_value(i64 8, !2499, !DIExpression(DW_OP_LLVM_fragment, 0, 64), !2519)
    #dbg_value(i64 %23, !2499, !DIExpression(DW_OP_LLVM_fragment, 64, 64), !2519)
; call __rustc::__rust_dealloc
  tail call void @_RNvCsj3IbkTTFM3W_7___rustc14___rust_dealloc(ptr noundef nonnull %_1.val, i64 noundef %23, i64 noundef range(i64 1, -9223372036854775807) 8) #16, !dbg !2521
  br label %"_ZN4core3ptr144drop_in_place$LT$alloc..raw_vec..RawVec$LT$$LP$alloc..sync..Arc$LT$str$GT$$C$core..option..Option$LT$alloc..sync..Arc$LT$str$GT$$GT$$RP$$GT$$GT$17h5115bea52e56c183E.exit7", !dbg !2522

"_ZN4core3ptr144drop_in_place$LT$alloc..raw_vec..RawVec$LT$$LP$alloc..sync..Arc$LT$str$GT$$C$core..option..Option$LT$alloc..sync..Arc$LT$str$GT$$GT$$RP$$GT$$GT$17h5115bea52e56c183E.exit7": ; preds = %bb4, %bb2.i.i.i6
  ret void, !dbg !2300

bb1:                                              ; preds = %bb2.i.i.i, %cleanup.body
  resume { ptr, i32 } %eh.lpad-body.i.i, !dbg !2300
}

; core::ptr::drop_in_place<alloc::vec::Vec<(alloc::sync::Arc<std::ffi::os_str::OsStr>,alloc::sync::Arc<std::ffi::os_str::OsStr>)>>
; Function Attrs: nonlazybind uwtable
define internal fastcc void @"_ZN4core3ptr149drop_in_place$LT$alloc..vec..Vec$LT$$LP$alloc..sync..Arc$LT$std..ffi..os_str..OsStr$GT$$C$alloc..sync..Arc$LT$std..ffi..os_str..OsStr$GT$$RP$$GT$$GT$17h9908623b2f3634cfE"(ptr noalias noundef nonnull readonly align 8 captures(none) dereferenceable(24) %_1) unnamed_addr #0 personality ptr @rust_eh_personality !dbg !2523 {
start:
    #dbg_value(ptr %_1, !2528, !DIExpression(), !2531)
  %0 = getelementptr inbounds nuw i8, ptr %_1, i64 8, !dbg !2532
  %_1.val = load ptr, ptr %0, align 8, !dbg !2532, !nonnull !23, !noundef !23
  %1 = getelementptr inbounds nuw i8, ptr %_1, i64 16, !dbg !2532
  %_1.val1 = load i64, ptr %1, align 8, !dbg !2532, !noundef !23
    #dbg_value(ptr poison, !2533, !DIExpression(), !2539)
    #dbg_value(ptr %_1.val, !2541, !DIExpression(DW_OP_LLVM_fragment, 0, 64), !2551)
    #dbg_value(i64 %_1.val1, !2541, !DIExpression(DW_OP_LLVM_fragment, 64, 64), !2551)
  %_78.i.i = icmp eq i64 %_1.val1, 0, !dbg !2553
  br i1 %_78.i.i, label %bb4, label %bb5.i.i, !dbg !2553

bb5.i.i:                                          ; preds = %start, %"_ZN4core3ptr126drop_in_place$LT$$LP$alloc..sync..Arc$LT$std..ffi..os_str..OsStr$GT$$C$alloc..sync..Arc$LT$std..ffi..os_str..OsStr$GT$$RP$$GT$17hf2c510775c1b5ef5E.exit.i.i"
  %_3.sroa.0.09.i.i = phi i64 [ %2, %"_ZN4core3ptr126drop_in_place$LT$$LP$alloc..sync..Arc$LT$std..ffi..os_str..OsStr$GT$$C$alloc..sync..Arc$LT$std..ffi..os_str..OsStr$GT$$RP$$GT$17hf2c510775c1b5ef5E.exit.i.i" ], [ 0, %start ]
  %_6.i.i = getelementptr inbounds nuw { %"alloc::sync::Arc<std::ffi::os_str::OsStr>", %"alloc::sync::Arc<std::ffi::os_str::OsStr>" }, ptr %_1.val, i64 %_3.sroa.0.09.i.i, !dbg !2553
  %2 = add nuw i64 %_3.sroa.0.09.i.i, 1, !dbg !2553
  tail call void @llvm.experimental.noalias.scope.decl(metadata !2554), !dbg !2553
    #dbg_value(ptr %_6.i.i, !2169, !DIExpression(), !2557)
  tail call void @llvm.experimental.noalias.scope.decl(metadata !2559), !dbg !2562
    #dbg_value(ptr %_6.i.i, !2175, !DIExpression(), !2563)
  tail call void @llvm.experimental.noalias.scope.decl(metadata !2565), !dbg !2568
    #dbg_value(ptr %_6.i.i, !2187, !DIExpression(), !2569)
    #dbg_value(ptr %_6.i.i, !2195, !DIExpression(), !2571)
    #dbg_value(i64 1, !2208, !DIExpression(), !2573)
    #dbg_value(i8 1, !2212, !DIExpression(), !2573)
    #dbg_value(i64 1, !2215, !DIExpression(), !2575)
    #dbg_value(i8 1, !2219, !DIExpression(), !2575)
    #dbg_value(i8 2, !2222, !DIExpression(), !2577)
  %_10.0.i.i.i.i.i = load ptr, ptr %_6.i.i, align 8, !dbg !2579, !alias.scope !2581, !nonnull !23, !noundef !23
    #dbg_value(ptr %_10.0.i.i.i.i.i, !2211, !DIExpression(), !2573)
    #dbg_value(ptr %_10.0.i.i.i.i.i, !2218, !DIExpression(), !2575)
  %3 = atomicrmw sub ptr %_10.0.i.i.i.i.i, i64 1 release, align 8, !dbg !2584, !noalias !2585
  %4 = icmp eq i64 %3, 1, !dbg !2586
  br i1 %4, label %bb2.i.i.i.i.i, label %bb4.i.i.i, !dbg !2586

bb2.i.i.i.i.i:                                    ; preds = %bb5.i.i
  fence acquire, !dbg !2587
; invoke alloc::sync::Arc<T,A>::drop_slow
  invoke void @"_ZN5alloc4sync16Arc$LT$T$C$A$GT$9drop_slow17hbf12b01ed7716fa7E"(ptr noalias noundef nonnull align 8 dereferenceable(32) %_6.i.i)
          to label %bb4.i.i.i unwind label %cleanup.i.i.i, !dbg !2588

cleanup.i.i.i:                                    ; preds = %bb2.i.i.i.i.i
  %5 = landingpad { ptr, i32 }
          cleanup
  %6 = getelementptr inbounds nuw i8, ptr %_6.i.i, i64 16, !dbg !2562
  tail call void @llvm.experimental.noalias.scope.decl(metadata !2589), !dbg !2562
    #dbg_value(ptr %6, !2175, !DIExpression(), !2592)
  tail call void @llvm.experimental.noalias.scope.decl(metadata !2594), !dbg !2597
    #dbg_value(ptr %6, !2187, !DIExpression(), !2598)
    #dbg_value(ptr %6, !2195, !DIExpression(), !2600)
    #dbg_value(i64 1, !2208, !DIExpression(), !2602)
    #dbg_value(i8 1, !2212, !DIExpression(), !2602)
    #dbg_value(i64 1, !2215, !DIExpression(), !2604)
    #dbg_value(i8 1, !2219, !DIExpression(), !2604)
    #dbg_value(i8 2, !2222, !DIExpression(), !2606)
  %_10.0.i.i1.i.i.i = load ptr, ptr %6, align 8, !dbg !2608, !alias.scope !2610, !nonnull !23, !noundef !23
    #dbg_value(ptr %_10.0.i.i1.i.i.i, !2211, !DIExpression(), !2602)
    #dbg_value(ptr %_10.0.i.i1.i.i.i, !2218, !DIExpression(), !2604)
  %7 = atomicrmw sub ptr %_10.0.i.i1.i.i.i, i64 1 release, align 8, !dbg !2611, !noalias !2612
  %8 = icmp eq i64 %7, 1, !dbg !2613
  br i1 %8, label %bb2.i.i2.i.i.i, label %cleanup.body.i.i, !dbg !2613

bb2.i.i2.i.i.i:                                   ; preds = %cleanup.i.i.i
  fence acquire, !dbg !2614
; invoke alloc::sync::Arc<T,A>::drop_slow
  invoke void @"_ZN5alloc4sync16Arc$LT$T$C$A$GT$9drop_slow17hbf12b01ed7716fa7E"(ptr noalias noundef nonnull align 8 dereferenceable(16) %6)
          to label %cleanup.body.i.i unwind label %terminate.i.i.i, !dbg !2615

bb4.i.i.i:                                        ; preds = %bb2.i.i.i.i.i, %bb5.i.i
  %9 = getelementptr inbounds nuw i8, ptr %_6.i.i, i64 16, !dbg !2562
  tail call void @llvm.experimental.noalias.scope.decl(metadata !2616), !dbg !2562
    #dbg_value(ptr %9, !2175, !DIExpression(), !2619)
  tail call void @llvm.experimental.noalias.scope.decl(metadata !2621), !dbg !2624
    #dbg_value(ptr %9, !2187, !DIExpression(), !2625)
    #dbg_value(ptr %9, !2195, !DIExpression(), !2627)
    #dbg_value(i64 1, !2208, !DIExpression(), !2629)
    #dbg_value(i8 1, !2212, !DIExpression(), !2629)
    #dbg_value(i64 1, !2215, !DIExpression(), !2631)
    #dbg_value(i8 1, !2219, !DIExpression(), !2631)
    #dbg_value(i8 2, !2222, !DIExpression(), !2633)
  %_10.0.i.i5.i.i.i = load ptr, ptr %9, align 8, !dbg !2635, !alias.scope !2637, !nonnull !23, !noundef !23
    #dbg_value(ptr %_10.0.i.i5.i.i.i, !2211, !DIExpression(), !2629)
    #dbg_value(ptr %_10.0.i.i5.i.i.i, !2218, !DIExpression(), !2631)
  %10 = atomicrmw sub ptr %_10.0.i.i5.i.i.i, i64 1 release, align 8, !dbg !2638, !noalias !2639
  %11 = icmp eq i64 %10, 1, !dbg !2640
  br i1 %11, label %bb2.i.i6.i.i.i, label %"_ZN4core3ptr126drop_in_place$LT$$LP$alloc..sync..Arc$LT$std..ffi..os_str..OsStr$GT$$C$alloc..sync..Arc$LT$std..ffi..os_str..OsStr$GT$$RP$$GT$17hf2c510775c1b5ef5E.exit.i.i", !dbg !2640

bb2.i.i6.i.i.i:                                   ; preds = %bb4.i.i.i
  fence acquire, !dbg !2641
; invoke alloc::sync::Arc<T,A>::drop_slow
  invoke void @"_ZN5alloc4sync16Arc$LT$T$C$A$GT$9drop_slow17hbf12b01ed7716fa7E"(ptr noalias noundef nonnull align 8 dereferenceable(16) %9)
          to label %"_ZN4core3ptr126drop_in_place$LT$$LP$alloc..sync..Arc$LT$std..ffi..os_str..OsStr$GT$$C$alloc..sync..Arc$LT$std..ffi..os_str..OsStr$GT$$RP$$GT$17hf2c510775c1b5ef5E.exit.i.i" unwind label %cleanup.i.i, !dbg !2642

terminate.i.i.i:                                  ; preds = %bb2.i.i2.i.i.i
  %12 = landingpad { ptr, i32 }
          filter [0 x ptr] zeroinitializer
; call core::panicking::panic_in_cleanup
  tail call void @_ZN4core9panicking16panic_in_cleanup17h8f68387bb6cbbf54E() #17, !dbg !2562
  unreachable, !dbg !2562

"_ZN4core3ptr126drop_in_place$LT$$LP$alloc..sync..Arc$LT$std..ffi..os_str..OsStr$GT$$C$alloc..sync..Arc$LT$std..ffi..os_str..OsStr$GT$$RP$$GT$17hf2c510775c1b5ef5E.exit.i.i": ; preds = %bb2.i.i6.i.i.i, %bb4.i.i.i
  %_7.i.i = icmp eq i64 %2, %_1.val1, !dbg !2553
  br i1 %_7.i.i, label %bb4, label %bb5.i.i, !dbg !2553

bb4.i.i:                                          ; preds = %bb3.i.i, %cleanup.body.i.i
  %_3.sroa.0.1.i.i = phi i64 [ %2, %cleanup.body.i.i ], [ %14, %bb3.i.i ], !dbg !2553
  %_5.i.i = icmp eq i64 %_3.sroa.0.1.i.i, %_1.val1, !dbg !2553
  br i1 %_5.i.i, label %cleanup.body, label %bb3.i.i, !dbg !2553

cleanup.i.i:                                      ; preds = %bb2.i.i6.i.i.i
  %13 = landingpad { ptr, i32 }
          cleanup
  br label %cleanup.body.i.i

cleanup.body.i.i:                                 ; preds = %cleanup.i.i, %bb2.i.i2.i.i.i, %cleanup.i.i.i
  %eh.lpad-body.i.i = phi { ptr, i32 } [ %13, %cleanup.i.i ], [ %5, %bb2.i.i2.i.i.i ], [ %5, %cleanup.i.i.i ]
  br label %bb4.i.i

bb3.i.i:                                          ; preds = %bb4.i.i
  %_4.i.i = getelementptr inbounds nuw { %"alloc::sync::Arc<std::ffi::os_str::OsStr>", %"alloc::sync::Arc<std::ffi::os_str::OsStr>" }, ptr %_1.val, i64 %_3.sroa.0.1.i.i, !dbg !2553
  %14 = add i64 %_3.sroa.0.1.i.i, 1, !dbg !2553
; invoke core::ptr::drop_in_place<(alloc::sync::Arc<std::ffi::os_str::OsStr>,alloc::sync::Arc<std::ffi::os_str::OsStr>)>
  invoke fastcc void @"_ZN4core3ptr126drop_in_place$LT$$LP$alloc..sync..Arc$LT$std..ffi..os_str..OsStr$GT$$C$alloc..sync..Arc$LT$std..ffi..os_str..OsStr$GT$$RP$$GT$17hf2c510775c1b5ef5E"(ptr noalias noundef align 8 dereferenceable(32) %_4.i.i) #18
          to label %bb4.i.i unwind label %terminate.i.i, !dbg !2553

terminate.i.i:                                    ; preds = %bb3.i.i
  %15 = landingpad { ptr, i32 }
          filter [0 x ptr] zeroinitializer
; call core::panicking::panic_in_cleanup
  tail call void @_ZN4core9panicking16panic_in_cleanup17h8f68387bb6cbbf54E() #17, !dbg !2553
  unreachable, !dbg !2553

cleanup.body:                                     ; preds = %bb4.i.i
  %_1.val2 = load i64, ptr %_1, align 8, !dbg !2532, !range !1520, !noundef !23
    #dbg_value(ptr poison, !2643, !DIExpression(), !2651)
    #dbg_value(ptr poison, !2653, !DIExpression(), !2659)
    #dbg_value(ptr poison, !2429, !DIExpression(), !2661)
    #dbg_value(i64 8, !2436, !DIExpression(DW_OP_LLVM_fragment, 0, 64), !2661)
    #dbg_value(i64 32, !2436, !DIExpression(DW_OP_LLVM_fragment, 64, 64), !2661)
    #dbg_value(i64 8, !2442, !DIExpression(DW_OP_LLVM_fragment, 0, 64), !2663)
    #dbg_value(i64 32, !2442, !DIExpression(DW_OP_LLVM_fragment, 64, 64), !2663)
    #dbg_value(ptr poison, !2465, !DIExpression(), !2663)
    #dbg_value(i64 32, !2472, !DIExpression(), !2665)
  %16 = icmp eq i64 %_1.val2, 0, !dbg !2667
  br i1 %16, label %bb1, label %bb2.i.i.i, !dbg !2667

bb2.i.i.i:                                        ; preds = %cleanup.body
    #dbg_value(i64 %_1.val2, !2479, !DIExpression(), !2665)
  %17 = shl nuw i64 %_1.val2, 5, !dbg !2668
    #dbg_value(ptr %_1.val, !2437, !DIExpression(), !2669)
    #dbg_value(i64 8, !2439, !DIExpression(DW_OP_LLVM_fragment, 0, 64), !2669)
    #dbg_value(i64 %17, !2439, !DIExpression(DW_OP_LLVM_fragment, 64, 64), !2669)
    #dbg_value(i64 8, !2485, !DIExpression(DW_OP_LLVM_fragment, 0, 64), !2670)
    #dbg_value(i64 %17, !2485, !DIExpression(DW_OP_LLVM_fragment, 64, 64), !2670)
    #dbg_value(ptr poison, !2490, !DIExpression(), !2670)
    #dbg_value(ptr %_1.val, !2491, !DIExpression(), !2670)
    #dbg_value(ptr %_1.val, !2494, !DIExpression(), !2672)
    #dbg_value(i64 8, !2499, !DIExpression(DW_OP_LLVM_fragment, 0, 64), !2672)
    #dbg_value(i64 %17, !2499, !DIExpression(DW_OP_LLVM_fragment, 64, 64), !2672)
; call __rustc::__rust_dealloc
  tail call void @_RNvCsj3IbkTTFM3W_7___rustc14___rust_dealloc(ptr noundef nonnull %_1.val, i64 noundef %17, i64 noundef range(i64 1, -9223372036854775807) 8) #16, !dbg !2674
  br label %bb1, !dbg !2675

bb4:                                              ; preds = %"_ZN4core3ptr126drop_in_place$LT$$LP$alloc..sync..Arc$LT$std..ffi..os_str..OsStr$GT$$C$alloc..sync..Arc$LT$std..ffi..os_str..OsStr$GT$$RP$$GT$17hf2c510775c1b5ef5E.exit.i.i", %start
  %_1.val4 = load i64, ptr %_1, align 8, !dbg !2532, !range !1520, !noundef !23
    #dbg_value(ptr poison, !2643, !DIExpression(), !2676)
    #dbg_value(ptr poison, !2653, !DIExpression(), !2678)
    #dbg_value(ptr poison, !2429, !DIExpression(), !2680)
    #dbg_value(i64 8, !2436, !DIExpression(DW_OP_LLVM_fragment, 0, 64), !2680)
    #dbg_value(i64 32, !2436, !DIExpression(DW_OP_LLVM_fragment, 64, 64), !2680)
    #dbg_value(i64 8, !2442, !DIExpression(DW_OP_LLVM_fragment, 0, 64), !2682)
    #dbg_value(i64 32, !2442, !DIExpression(DW_OP_LLVM_fragment, 64, 64), !2682)
    #dbg_value(ptr poison, !2465, !DIExpression(), !2682)
    #dbg_value(i64 32, !2472, !DIExpression(), !2684)
  %18 = icmp eq i64 %_1.val4, 0, !dbg !2686
  br i1 %18, label %"_ZN4core3ptr156drop_in_place$LT$alloc..raw_vec..RawVec$LT$$LP$alloc..sync..Arc$LT$std..ffi..os_str..OsStr$GT$$C$alloc..sync..Arc$LT$std..ffi..os_str..OsStr$GT$$RP$$GT$$GT$17h8ab6626835d2919bE.exit7", label %bb2.i.i.i6, !dbg !2686

bb2.i.i.i6:                                       ; preds = %bb4
    #dbg_value(i64 %_1.val4, !2479, !DIExpression(), !2684)
  %19 = shl nuw i64 %_1.val4, 5, !dbg !2687
    #dbg_value(ptr %_1.val, !2437, !DIExpression(), !2688)
    #dbg_value(i64 8, !2439, !DIExpression(DW_OP_LLVM_fragment, 0, 64), !2688)
    #dbg_value(i64 %19, !2439, !DIExpression(DW_OP_LLVM_fragment, 64, 64), !2688)
    #dbg_value(i64 8, !2485, !DIExpression(DW_OP_LLVM_fragment, 0, 64), !2689)
    #dbg_value(i64 %19, !2485, !DIExpression(DW_OP_LLVM_fragment, 64, 64), !2689)
    #dbg_value(ptr poison, !2490, !DIExpression(), !2689)
    #dbg_value(ptr %_1.val, !2491, !DIExpression(), !2689)
    #dbg_value(ptr %_1.val, !2494, !DIExpression(), !2691)
    #dbg_value(i64 8, !2499, !DIExpression(DW_OP_LLVM_fragment, 0, 64), !2691)
    #dbg_value(i64 %19, !2499, !DIExpression(DW_OP_LLVM_fragment, 64, 64), !2691)
; call __rustc::__rust_dealloc
  tail call void @_RNvCsj3IbkTTFM3W_7___rustc14___rust_dealloc(ptr noundef nonnull %_1.val, i64 noundef %19, i64 noundef range(i64 1, -9223372036854775807) 8) #16, !dbg !2693
  br label %"_ZN4core3ptr156drop_in_place$LT$alloc..raw_vec..RawVec$LT$$LP$alloc..sync..Arc$LT$std..ffi..os_str..OsStr$GT$$C$alloc..sync..Arc$LT$std..ffi..os_str..OsStr$GT$$RP$$GT$$GT$17h8ab6626835d2919bE.exit7", !dbg !2694

"_ZN4core3ptr156drop_in_place$LT$alloc..raw_vec..RawVec$LT$$LP$alloc..sync..Arc$LT$std..ffi..os_str..OsStr$GT$$C$alloc..sync..Arc$LT$std..ffi..os_str..OsStr$GT$$RP$$GT$$GT$17h8ab6626835d2919bE.exit7": ; preds = %bb4, %bb2.i.i.i6
  ret void, !dbg !2532

bb1:                                              ; preds = %bb2.i.i.i, %cleanup.body
  resume { ptr, i32 } %eh.lpad-body.i.i, !dbg !2532
}

; core::ptr::drop_in_place<cc::Build>
; Function Attrs: nonlazybind uwtable
define internal fastcc void @"_ZN4core3ptr30drop_in_place$LT$cc..Build$GT$17h6218f1cb69feab33E"(ptr noalias noundef nonnull align 8 dereferenceable(472) %_1) unnamed_addr #0 personality ptr @rust_eh_personality !dbg !2695 {
start:
    #dbg_value(ptr %_1, !2700, !DIExpression(), !2703)
  %0 = getelementptr inbounds nuw i8, ptr %_1, i64 24, !dbg !2704
; invoke core::ptr::drop_in_place<alloc::vec::Vec<alloc::sync::Arc<std::path::Path>>>
  invoke fastcc void @"_ZN4core3ptr83drop_in_place$LT$alloc..vec..Vec$LT$alloc..sync..Arc$LT$std..path..Path$GT$$GT$$GT$17h93e5ac05b0b48884E"(ptr noalias noundef align 8 dereferenceable(24) %0)
          to label %bb46 unwind label %cleanup, !dbg !2704

cleanup:                                          ; preds = %start
  %1 = landingpad { ptr, i32 }
          cleanup
  %2 = getelementptr inbounds nuw i8, ptr %_1, i64 48, !dbg !2704
; invoke core::ptr::drop_in_place<alloc::vec::Vec<(alloc::sync::Arc<str>,core::option::Option<alloc::sync::Arc<str>>)>>
  invoke fastcc void @"_ZN4core3ptr137drop_in_place$LT$alloc..vec..Vec$LT$$LP$alloc..sync..Arc$LT$str$GT$$C$core..option..Option$LT$alloc..sync..Arc$LT$str$GT$$GT$$RP$$GT$$GT$17hef16b09b201ef292E"(ptr noalias noundef align 8 dereferenceable(24) %2) #18
          to label %bb23 unwind label %terminate, !dbg !2704

bb46:                                             ; preds = %start
  %3 = getelementptr inbounds nuw i8, ptr %_1, i64 48, !dbg !2704
; invoke core::ptr::drop_in_place<alloc::vec::Vec<(alloc::sync::Arc<str>,core::option::Option<alloc::sync::Arc<str>>)>>
  invoke fastcc void @"_ZN4core3ptr137drop_in_place$LT$alloc..vec..Vec$LT$$LP$alloc..sync..Arc$LT$str$GT$$C$core..option..Option$LT$alloc..sync..Arc$LT$str$GT$$GT$$RP$$GT$$GT$17hef16b09b201ef292E"(ptr noalias noundef align 8 dereferenceable(24) %3)
          to label %bb45 unwind label %cleanup1, !dbg !2704

bb23:                                             ; preds = %cleanup, %cleanup1
  %.pn = phi { ptr, i32 } [ %5, %cleanup1 ], [ %1, %cleanup ]
  %4 = getelementptr inbounds nuw i8, ptr %_1, i64 72, !dbg !2704
; invoke core::ptr::drop_in_place<alloc::vec::Vec<alloc::sync::Arc<std::path::Path>>>
  invoke fastcc void @"_ZN4core3ptr83drop_in_place$LT$alloc..vec..Vec$LT$alloc..sync..Arc$LT$std..path..Path$GT$$GT$$GT$17h93e5ac05b0b48884E"(ptr noalias noundef align 8 dereferenceable(24) %4) #18
          to label %bb22 unwind label %terminate, !dbg !2704

cleanup1:                                         ; preds = %bb46
  %5 = landingpad { ptr, i32 }
          cleanup
  br label %bb23

bb45:                                             ; preds = %bb46
  %6 = getelementptr inbounds nuw i8, ptr %_1, i64 72, !dbg !2704
; invoke core::ptr::drop_in_place<alloc::vec::Vec<alloc::sync::Arc<std::path::Path>>>
  invoke fastcc void @"_ZN4core3ptr83drop_in_place$LT$alloc..vec..Vec$LT$alloc..sync..Arc$LT$std..path..Path$GT$$GT$$GT$17h93e5ac05b0b48884E"(ptr noalias noundef align 8 dereferenceable(24) %6)
          to label %bb44 unwind label %cleanup2, !dbg !2704

bb22:                                             ; preds = %bb23, %cleanup2
  %.pn23 = phi { ptr, i32 } [ %8, %cleanup2 ], [ %.pn, %bb23 ]
  %7 = getelementptr inbounds nuw i8, ptr %_1, i64 96, !dbg !2704
; invoke core::ptr::drop_in_place<alloc::vec::Vec<alloc::sync::Arc<std::ffi::os_str::OsStr>>>
  invoke fastcc void @"_ZN4core3ptr91drop_in_place$LT$alloc..vec..Vec$LT$alloc..sync..Arc$LT$std..ffi..os_str..OsStr$GT$$GT$$GT$17h257dfeb142110893E"(ptr noalias noundef align 8 dereferenceable(24) %7) #18
          to label %bb21 unwind label %terminate, !dbg !2704

cleanup2:                                         ; preds = %bb45
  %8 = landingpad { ptr, i32 }
          cleanup
  br label %bb22

bb44:                                             ; preds = %bb45
  %9 = getelementptr inbounds nuw i8, ptr %_1, i64 96, !dbg !2704
; invoke core::ptr::drop_in_place<alloc::vec::Vec<alloc::sync::Arc<std::ffi::os_str::OsStr>>>
  invoke fastcc void @"_ZN4core3ptr91drop_in_place$LT$alloc..vec..Vec$LT$alloc..sync..Arc$LT$std..ffi..os_str..OsStr$GT$$GT$$GT$17h257dfeb142110893E"(ptr noalias noundef align 8 dereferenceable(24) %9)
          to label %bb43 unwind label %cleanup3, !dbg !2704

bb21:                                             ; preds = %bb22, %cleanup3
  %.pn25 = phi { ptr, i32 } [ %11, %cleanup3 ], [ %.pn23, %bb22 ]
  %10 = getelementptr inbounds nuw i8, ptr %_1, i64 120, !dbg !2704
; invoke core::ptr::drop_in_place<alloc::vec::Vec<alloc::sync::Arc<std::ffi::os_str::OsStr>>>
  invoke fastcc void @"_ZN4core3ptr91drop_in_place$LT$alloc..vec..Vec$LT$alloc..sync..Arc$LT$std..ffi..os_str..OsStr$GT$$GT$$GT$17h257dfeb142110893E"(ptr noalias noundef align 8 dereferenceable(24) %10) #18
          to label %bb20 unwind label %terminate, !dbg !2704

cleanup3:                                         ; preds = %bb44
  %11 = landingpad { ptr, i32 }
          cleanup
  br label %bb21

bb43:                                             ; preds = %bb44
  %12 = getelementptr inbounds nuw i8, ptr %_1, i64 120, !dbg !2704
; invoke core::ptr::drop_in_place<alloc::vec::Vec<alloc::sync::Arc<std::ffi::os_str::OsStr>>>
  invoke fastcc void @"_ZN4core3ptr91drop_in_place$LT$alloc..vec..Vec$LT$alloc..sync..Arc$LT$std..ffi..os_str..OsStr$GT$$GT$$GT$17h257dfeb142110893E"(ptr noalias noundef align 8 dereferenceable(24) %12)
          to label %bb42 unwind label %cleanup4, !dbg !2704

bb20:                                             ; preds = %bb21, %cleanup4
  %.pn27 = phi { ptr, i32 } [ %14, %cleanup4 ], [ %.pn25, %bb21 ]
  %13 = getelementptr inbounds nuw i8, ptr %_1, i64 144, !dbg !2704
; invoke core::ptr::drop_in_place<alloc::vec::Vec<alloc::sync::Arc<std::ffi::os_str::OsStr>>>
  invoke fastcc void @"_ZN4core3ptr91drop_in_place$LT$alloc..vec..Vec$LT$alloc..sync..Arc$LT$std..ffi..os_str..OsStr$GT$$GT$$GT$17h257dfeb142110893E"(ptr noalias noundef align 8 dereferenceable(24) %13) #18
          to label %bb19 unwind label %terminate, !dbg !2704

cleanup4:                                         ; preds = %bb43
  %14 = landingpad { ptr, i32 }
          cleanup
  br label %bb20

bb42:                                             ; preds = %bb43
  %15 = getelementptr inbounds nuw i8, ptr %_1, i64 144, !dbg !2704
; invoke core::ptr::drop_in_place<alloc::vec::Vec<alloc::sync::Arc<std::ffi::os_str::OsStr>>>
  invoke fastcc void @"_ZN4core3ptr91drop_in_place$LT$alloc..vec..Vec$LT$alloc..sync..Arc$LT$std..ffi..os_str..OsStr$GT$$GT$$GT$17h257dfeb142110893E"(ptr noalias noundef align 8 dereferenceable(24) %15)
          to label %bb41 unwind label %cleanup5, !dbg !2704

bb19:                                             ; preds = %bb20, %cleanup5
  %.pn29 = phi { ptr, i32 } [ %17, %cleanup5 ], [ %.pn27, %bb20 ]
  %16 = getelementptr inbounds nuw i8, ptr %_1, i64 168, !dbg !2704
; invoke core::ptr::drop_in_place<alloc::vec::Vec<alloc::sync::Arc<std::ffi::os_str::OsStr>>>
  invoke fastcc void @"_ZN4core3ptr91drop_in_place$LT$alloc..vec..Vec$LT$alloc..sync..Arc$LT$std..ffi..os_str..OsStr$GT$$GT$$GT$17h257dfeb142110893E"(ptr noalias noundef align 8 dereferenceable(24) %16) #18
          to label %bb18 unwind label %terminate, !dbg !2704

cleanup5:                                         ; preds = %bb42
  %17 = landingpad { ptr, i32 }
          cleanup
  br label %bb19

bb41:                                             ; preds = %bb42
  %18 = getelementptr inbounds nuw i8, ptr %_1, i64 168, !dbg !2704
; invoke core::ptr::drop_in_place<alloc::vec::Vec<alloc::sync::Arc<std::ffi::os_str::OsStr>>>
  invoke fastcc void @"_ZN4core3ptr91drop_in_place$LT$alloc..vec..Vec$LT$alloc..sync..Arc$LT$std..ffi..os_str..OsStr$GT$$GT$$GT$17h257dfeb142110893E"(ptr noalias noundef align 8 dereferenceable(24) %18)
          to label %bb40 unwind label %cleanup6, !dbg !2704

bb18:                                             ; preds = %bb19, %cleanup6
  %.pn31 = phi { ptr, i32 } [ %20, %cleanup6 ], [ %.pn29, %bb19 ]
  %19 = getelementptr inbounds nuw i8, ptr %_1, i64 192, !dbg !2704
; invoke core::ptr::drop_in_place<alloc::vec::Vec<alloc::sync::Arc<std::path::Path>>>
  invoke fastcc void @"_ZN4core3ptr83drop_in_place$LT$alloc..vec..Vec$LT$alloc..sync..Arc$LT$std..path..Path$GT$$GT$$GT$17h93e5ac05b0b48884E"(ptr noalias noundef align 8 dereferenceable(24) %19) #18
          to label %bb17 unwind label %terminate, !dbg !2704

cleanup6:                                         ; preds = %bb41
  %20 = landingpad { ptr, i32 }
          cleanup
  br label %bb18

bb40:                                             ; preds = %bb41
  %21 = getelementptr inbounds nuw i8, ptr %_1, i64 192, !dbg !2704
; invoke core::ptr::drop_in_place<alloc::vec::Vec<alloc::sync::Arc<std::path::Path>>>
  invoke fastcc void @"_ZN4core3ptr83drop_in_place$LT$alloc..vec..Vec$LT$alloc..sync..Arc$LT$std..path..Path$GT$$GT$$GT$17h93e5ac05b0b48884E"(ptr noalias noundef align 8 dereferenceable(24) %21)
          to label %bb39 unwind label %cleanup7, !dbg !2704

bb17:                                             ; preds = %bb18, %cleanup7
  %.pn33 = phi { ptr, i32 } [ %22, %cleanup7 ], [ %.pn31, %bb18 ]
; invoke core::ptr::drop_in_place<core::option::Option<core::option::Option<alloc::sync::Arc<str>>>>
  invoke fastcc void @"_ZN4core3ptr104drop_in_place$LT$core..option..Option$LT$core..option..Option$LT$alloc..sync..Arc$LT$str$GT$$GT$$GT$$GT$17he849185f6c48500cE"(ptr noalias noundef align 8 dereferenceable(24) %_1) #18
          to label %bb16 unwind label %terminate, !dbg !2704

cleanup7:                                         ; preds = %bb40
  %22 = landingpad { ptr, i32 }
          cleanup
  br label %bb17

bb39:                                             ; preds = %bb40
  tail call void @llvm.experimental.noalias.scope.decl(metadata !2705), !dbg !2704
    #dbg_value(ptr %_1, !2002, !DIExpression(), !2708)
  %_2.i = load i64, ptr %_1, align 8, !dbg !2710, !range !2007, !alias.scope !2705, !noundef !23
  %23 = icmp eq i64 %_2.i, 0, !dbg !2710
  br i1 %23, label %bb38, label %bb2.i, !dbg !2710

bb2.i:                                            ; preds = %bb39
  %24 = getelementptr inbounds nuw i8, ptr %_1, i64 8, !dbg !2710
  tail call void @llvm.experimental.noalias.scope.decl(metadata !2711), !dbg !2710
    #dbg_value(ptr %24, !2011, !DIExpression(), !2714)
  %25 = load ptr, ptr %24, align 8, !dbg !2716, !alias.scope !2717, !noundef !23
  %26 = icmp eq ptr %25, null, !dbg !2716
  br i1 %26, label %bb38, label %bb2.i.i, !dbg !2716

bb2.i.i:                                          ; preds = %bb2.i
    #dbg_value(ptr %24, !2020, !DIExpression(), !2718)
    #dbg_value(ptr %24, !2028, !DIExpression(), !2720)
    #dbg_value(i64 1, !2036, !DIExpression(), !2722)
    #dbg_value(i8 1, !2040, !DIExpression(), !2722)
    #dbg_value(i64 1, !2043, !DIExpression(), !2724)
    #dbg_value(i8 1, !2047, !DIExpression(), !2724)
    #dbg_value(i8 2, !2050, !DIExpression(), !2726)
    #dbg_value(ptr %25, !2039, !DIExpression(), !2722)
    #dbg_value(ptr %25, !2046, !DIExpression(), !2724)
  %27 = atomicrmw sub ptr %25, i64 1 release, align 8, !dbg !2728, !noalias !2729
  %28 = icmp eq i64 %27, 1, !dbg !2734
  br i1 %28, label %bb2.i.i.i.i, label %bb38, !dbg !2734

bb2.i.i.i.i:                                      ; preds = %bb2.i.i
  fence acquire, !dbg !2735
; invoke alloc::sync::Arc<T,A>::drop_slow
  invoke void @"_ZN5alloc4sync16Arc$LT$T$C$A$GT$9drop_slow17hbc25fce3e9353209E"(ptr noalias noundef nonnull align 8 dereferenceable(16) %24)
          to label %bb38 unwind label %cleanup8, !dbg !2736

bb16:                                             ; preds = %bb17, %cleanup8
  %.pn35 = phi { ptr, i32 } [ %34, %cleanup8 ], [ %.pn33, %bb17 ]
  %29 = getelementptr inbounds nuw i8, ptr %_1, i64 288, !dbg !2704
  tail call void @llvm.experimental.noalias.scope.decl(metadata !2737), !dbg !2704
    #dbg_value(ptr %29, !2011, !DIExpression(), !2740)
  %30 = load ptr, ptr %29, align 8, !dbg !2742, !alias.scope !2737, !noundef !23
  %31 = icmp eq ptr %30, null, !dbg !2742
  br i1 %31, label %bb15, label %bb2.i63, !dbg !2742

bb2.i63:                                          ; preds = %bb16
    #dbg_value(ptr %29, !2020, !DIExpression(), !2743)
    #dbg_value(ptr %29, !2028, !DIExpression(), !2745)
    #dbg_value(i64 1, !2036, !DIExpression(), !2747)
    #dbg_value(i8 1, !2040, !DIExpression(), !2747)
    #dbg_value(i64 1, !2043, !DIExpression(), !2749)
    #dbg_value(i8 1, !2047, !DIExpression(), !2749)
    #dbg_value(i8 2, !2050, !DIExpression(), !2751)
    #dbg_value(ptr %30, !2039, !DIExpression(), !2747)
    #dbg_value(ptr %30, !2046, !DIExpression(), !2749)
  %32 = atomicrmw sub ptr %30, i64 1 release, align 8, !dbg !2753, !noalias !2754
  %33 = icmp eq i64 %32, 1, !dbg !2759
  br i1 %33, label %bb2.i.i.i, label %bb15, !dbg !2759

bb2.i.i.i:                                        ; preds = %bb2.i63
  fence acquire, !dbg !2760
; invoke alloc::sync::Arc<T,A>::drop_slow
  invoke void @"_ZN5alloc4sync16Arc$LT$T$C$A$GT$9drop_slow17hbc25fce3e9353209E"(ptr noalias noundef nonnull align 8 dereferenceable(16) %29)
          to label %bb15 unwind label %terminate, !dbg !2761

cleanup8:                                         ; preds = %bb2.i.i.i.i
  %34 = landingpad { ptr, i32 }
          cleanup
  br label %bb16

bb38:                                             ; preds = %bb2.i.i, %bb2.i, %bb39, %bb2.i.i.i.i
  %35 = getelementptr inbounds nuw i8, ptr %_1, i64 288, !dbg !2704
  tail call void @llvm.experimental.noalias.scope.decl(metadata !2762), !dbg !2704
    #dbg_value(ptr %35, !2011, !DIExpression(), !2765)
  %36 = load ptr, ptr %35, align 8, !dbg !2767, !alias.scope !2762, !noundef !23
  %37 = icmp eq ptr %36, null, !dbg !2767
  br i1 %37, label %bb37, label %bb2.i65, !dbg !2767

bb2.i65:                                          ; preds = %bb38
    #dbg_value(ptr %35, !2020, !DIExpression(), !2768)
    #dbg_value(ptr %35, !2028, !DIExpression(), !2770)
    #dbg_value(i64 1, !2036, !DIExpression(), !2772)
    #dbg_value(i8 1, !2040, !DIExpression(), !2772)
    #dbg_value(i64 1, !2043, !DIExpression(), !2774)
    #dbg_value(i8 1, !2047, !DIExpression(), !2774)
    #dbg_value(i8 2, !2050, !DIExpression(), !2776)
    #dbg_value(ptr %36, !2039, !DIExpression(), !2772)
    #dbg_value(ptr %36, !2046, !DIExpression(), !2774)
  %38 = atomicrmw sub ptr %36, i64 1 release, align 8, !dbg !2778, !noalias !2779
  %39 = icmp eq i64 %38, 1, !dbg !2784
  br i1 %39, label %bb2.i.i.i66, label %bb37, !dbg !2784

bb2.i.i.i66:                                      ; preds = %bb2.i65
  fence acquire, !dbg !2785
; invoke alloc::sync::Arc<T,A>::drop_slow
  invoke void @"_ZN5alloc4sync16Arc$LT$T$C$A$GT$9drop_slow17hbc25fce3e9353209E"(ptr noalias noundef nonnull align 8 dereferenceable(16) %35)
          to label %bb37 unwind label %cleanup9, !dbg !2786

bb15:                                             ; preds = %bb2.i63, %bb16, %bb2.i.i.i, %cleanup9
  %.pn37 = phi { ptr, i32 } [ %45, %cleanup9 ], [ %.pn35, %bb2.i.i.i ], [ %.pn35, %bb16 ], [ %.pn35, %bb2.i63 ]
  %40 = getelementptr inbounds nuw i8, ptr %_1, i64 304, !dbg !2704
  tail call void @llvm.experimental.noalias.scope.decl(metadata !2787), !dbg !2704
    #dbg_value(ptr %40, !2011, !DIExpression(), !2790)
  %41 = load ptr, ptr %40, align 8, !dbg !2792, !alias.scope !2787, !noundef !23
  %42 = icmp eq ptr %41, null, !dbg !2792
  br i1 %42, label %bb14, label %bb2.i69, !dbg !2792

bb2.i69:                                          ; preds = %bb15
    #dbg_value(ptr %40, !2020, !DIExpression(), !2793)
    #dbg_value(ptr %40, !2028, !DIExpression(), !2795)
    #dbg_value(i64 1, !2036, !DIExpression(), !2797)
    #dbg_value(i8 1, !2040, !DIExpression(), !2797)
    #dbg_value(i64 1, !2043, !DIExpression(), !2799)
    #dbg_value(i8 1, !2047, !DIExpression(), !2799)
    #dbg_value(i8 2, !2050, !DIExpression(), !2801)
    #dbg_value(ptr %41, !2039, !DIExpression(), !2797)
    #dbg_value(ptr %41, !2046, !DIExpression(), !2799)
  %43 = atomicrmw sub ptr %41, i64 1 release, align 8, !dbg !2803, !noalias !2804
  %44 = icmp eq i64 %43, 1, !dbg !2809
  br i1 %44, label %bb2.i.i.i70, label %bb14, !dbg !2809

bb2.i.i.i70:                                      ; preds = %bb2.i69
  fence acquire, !dbg !2810
; invoke alloc::sync::Arc<T,A>::drop_slow
  invoke void @"_ZN5alloc4sync16Arc$LT$T$C$A$GT$9drop_slow17hbc25fce3e9353209E"(ptr noalias noundef nonnull align 8 dereferenceable(16) %40)
          to label %bb14 unwind label %terminate, !dbg !2811

cleanup9:                                         ; preds = %bb2.i.i.i66
  %45 = landingpad { ptr, i32 }
          cleanup
  br label %bb15

bb37:                                             ; preds = %bb2.i65, %bb38, %bb2.i.i.i66
  %46 = getelementptr inbounds nuw i8, ptr %_1, i64 304, !dbg !2704
  tail call void @llvm.experimental.noalias.scope.decl(metadata !2812), !dbg !2704
    #dbg_value(ptr %46, !2011, !DIExpression(), !2815)
  %47 = load ptr, ptr %46, align 8, !dbg !2817, !alias.scope !2812, !noundef !23
  %48 = icmp eq ptr %47, null, !dbg !2817
  br i1 %48, label %bb36, label %bb2.i73, !dbg !2817

bb2.i73:                                          ; preds = %bb37
    #dbg_value(ptr %46, !2020, !DIExpression(), !2818)
    #dbg_value(ptr %46, !2028, !DIExpression(), !2820)
    #dbg_value(i64 1, !2036, !DIExpression(), !2822)
    #dbg_value(i8 1, !2040, !DIExpression(), !2822)
    #dbg_value(i64 1, !2043, !DIExpression(), !2824)
    #dbg_value(i8 1, !2047, !DIExpression(), !2824)
    #dbg_value(i8 2, !2050, !DIExpression(), !2826)
    #dbg_value(ptr %47, !2039, !DIExpression(), !2822)
    #dbg_value(ptr %47, !2046, !DIExpression(), !2824)
  %49 = atomicrmw sub ptr %47, i64 1 release, align 8, !dbg !2828, !noalias !2829
  %50 = icmp eq i64 %49, 1, !dbg !2834
  br i1 %50, label %bb2.i.i.i74, label %bb36, !dbg !2834

bb2.i.i.i74:                                      ; preds = %bb2.i73
  fence acquire, !dbg !2835
; invoke alloc::sync::Arc<T,A>::drop_slow
  invoke void @"_ZN5alloc4sync16Arc$LT$T$C$A$GT$9drop_slow17hbc25fce3e9353209E"(ptr noalias noundef nonnull align 8 dereferenceable(16) %46)
          to label %bb36 unwind label %cleanup10, !dbg !2836

bb14:                                             ; preds = %bb2.i69, %bb15, %bb2.i.i.i70, %cleanup10
  %.pn39 = phi { ptr, i32 } [ %56, %cleanup10 ], [ %.pn37, %bb2.i.i.i70 ], [ %.pn37, %bb15 ], [ %.pn37, %bb2.i69 ]
  %51 = getelementptr inbounds nuw i8, ptr %_1, i64 320, !dbg !2704
  tail call void @llvm.experimental.noalias.scope.decl(metadata !2837), !dbg !2704
    #dbg_value(ptr %51, !2011, !DIExpression(), !2840)
  %52 = load ptr, ptr %51, align 8, !dbg !2842, !alias.scope !2837, !noundef !23
  %53 = icmp eq ptr %52, null, !dbg !2842
  br i1 %53, label %bb13, label %bb2.i77, !dbg !2842

bb2.i77:                                          ; preds = %bb14
    #dbg_value(ptr %51, !2020, !DIExpression(), !2843)
    #dbg_value(ptr %51, !2028, !DIExpression(), !2845)
    #dbg_value(i64 1, !2036, !DIExpression(), !2847)
    #dbg_value(i8 1, !2040, !DIExpression(), !2847)
    #dbg_value(i64 1, !2043, !DIExpression(), !2849)
    #dbg_value(i8 1, !2047, !DIExpression(), !2849)
    #dbg_value(i8 2, !2050, !DIExpression(), !2851)
    #dbg_value(ptr %52, !2039, !DIExpression(), !2847)
    #dbg_value(ptr %52, !2046, !DIExpression(), !2849)
  %54 = atomicrmw sub ptr %52, i64 1 release, align 8, !dbg !2853, !noalias !2854
  %55 = icmp eq i64 %54, 1, !dbg !2859
  br i1 %55, label %bb2.i.i.i78, label %bb13, !dbg !2859

bb2.i.i.i78:                                      ; preds = %bb2.i77
  fence acquire, !dbg !2860
; invoke alloc::sync::Arc<T,A>::drop_slow
  invoke void @"_ZN5alloc4sync16Arc$LT$T$C$A$GT$9drop_slow17hbc25fce3e9353209E"(ptr noalias noundef nonnull align 8 dereferenceable(16) %51)
          to label %bb13 unwind label %terminate, !dbg !2861

cleanup10:                                        ; preds = %bb2.i.i.i74
  %56 = landingpad { ptr, i32 }
          cleanup
  br label %bb14

bb36:                                             ; preds = %bb2.i73, %bb37, %bb2.i.i.i74
  %57 = getelementptr inbounds nuw i8, ptr %_1, i64 320, !dbg !2704
  tail call void @llvm.experimental.noalias.scope.decl(metadata !2862), !dbg !2704
    #dbg_value(ptr %57, !2011, !DIExpression(), !2865)
  %58 = load ptr, ptr %57, align 8, !dbg !2867, !alias.scope !2862, !noundef !23
  %59 = icmp eq ptr %58, null, !dbg !2867
  br i1 %59, label %bb35, label %bb2.i81, !dbg !2867

bb2.i81:                                          ; preds = %bb36
    #dbg_value(ptr %57, !2020, !DIExpression(), !2868)
    #dbg_value(ptr %57, !2028, !DIExpression(), !2870)
    #dbg_value(i64 1, !2036, !DIExpression(), !2872)
    #dbg_value(i8 1, !2040, !DIExpression(), !2872)
    #dbg_value(i64 1, !2043, !DIExpression(), !2874)
    #dbg_value(i8 1, !2047, !DIExpression(), !2874)
    #dbg_value(i8 2, !2050, !DIExpression(), !2876)
    #dbg_value(ptr %58, !2039, !DIExpression(), !2872)
    #dbg_value(ptr %58, !2046, !DIExpression(), !2874)
  %60 = atomicrmw sub ptr %58, i64 1 release, align 8, !dbg !2878, !noalias !2879
  %61 = icmp eq i64 %60, 1, !dbg !2884
  br i1 %61, label %bb2.i.i.i82, label %bb35, !dbg !2884

bb2.i.i.i82:                                      ; preds = %bb2.i81
  fence acquire, !dbg !2885
; invoke alloc::sync::Arc<T,A>::drop_slow
  invoke void @"_ZN5alloc4sync16Arc$LT$T$C$A$GT$9drop_slow17hbc25fce3e9353209E"(ptr noalias noundef nonnull align 8 dereferenceable(16) %57)
          to label %bb35 unwind label %cleanup11, !dbg !2886

bb13:                                             ; preds = %bb2.i77, %bb14, %bb2.i.i.i78, %cleanup11
  %.pn41 = phi { ptr, i32 } [ %67, %cleanup11 ], [ %.pn39, %bb2.i.i.i78 ], [ %.pn39, %bb14 ], [ %.pn39, %bb2.i77 ]
  %62 = getelementptr inbounds nuw i8, ptr %_1, i64 336, !dbg !2704
  tail call void @llvm.experimental.noalias.scope.decl(metadata !2887), !dbg !2704
    #dbg_value(ptr %62, !2011, !DIExpression(), !2890)
  %63 = load ptr, ptr %62, align 8, !dbg !2892, !alias.scope !2887, !noundef !23
  %64 = icmp eq ptr %63, null, !dbg !2892
  br i1 %64, label %bb12, label %bb2.i85, !dbg !2892

bb2.i85:                                          ; preds = %bb13
    #dbg_value(ptr %62, !2020, !DIExpression(), !2893)
    #dbg_value(ptr %62, !2028, !DIExpression(), !2895)
    #dbg_value(i64 1, !2036, !DIExpression(), !2897)
    #dbg_value(i8 1, !2040, !DIExpression(), !2897)
    #dbg_value(i64 1, !2043, !DIExpression(), !2899)
    #dbg_value(i8 1, !2047, !DIExpression(), !2899)
    #dbg_value(i8 2, !2050, !DIExpression(), !2901)
    #dbg_value(ptr %63, !2039, !DIExpression(), !2897)
    #dbg_value(ptr %63, !2046, !DIExpression(), !2899)
  %65 = atomicrmw sub ptr %63, i64 1 release, align 8, !dbg !2903, !noalias !2904
  %66 = icmp eq i64 %65, 1, !dbg !2909
  br i1 %66, label %bb2.i.i.i86, label %bb12, !dbg !2909

bb2.i.i.i86:                                      ; preds = %bb2.i85
  fence acquire, !dbg !2910
; invoke alloc::sync::Arc<T,A>::drop_slow
  invoke void @"_ZN5alloc4sync16Arc$LT$T$C$A$GT$9drop_slow17hbc25fce3e9353209E"(ptr noalias noundef nonnull align 8 dereferenceable(16) %62)
          to label %bb12 unwind label %terminate, !dbg !2911

cleanup11:                                        ; preds = %bb2.i.i.i82
  %67 = landingpad { ptr, i32 }
          cleanup
  br label %bb13

bb35:                                             ; preds = %bb2.i81, %bb36, %bb2.i.i.i82
  %68 = getelementptr inbounds nuw i8, ptr %_1, i64 336, !dbg !2704
  tail call void @llvm.experimental.noalias.scope.decl(metadata !2912), !dbg !2704
    #dbg_value(ptr %68, !2011, !DIExpression(), !2915)
  %69 = load ptr, ptr %68, align 8, !dbg !2917, !alias.scope !2912, !noundef !23
  %70 = icmp eq ptr %69, null, !dbg !2917
  br i1 %70, label %bb34, label %bb2.i89, !dbg !2917

bb2.i89:                                          ; preds = %bb35
    #dbg_value(ptr %68, !2020, !DIExpression(), !2918)
    #dbg_value(ptr %68, !2028, !DIExpression(), !2920)
    #dbg_value(i64 1, !2036, !DIExpression(), !2922)
    #dbg_value(i8 1, !2040, !DIExpression(), !2922)
    #dbg_value(i64 1, !2043, !DIExpression(), !2924)
    #dbg_value(i8 1, !2047, !DIExpression(), !2924)
    #dbg_value(i8 2, !2050, !DIExpression(), !2926)
    #dbg_value(ptr %69, !2039, !DIExpression(), !2922)
    #dbg_value(ptr %69, !2046, !DIExpression(), !2924)
  %71 = atomicrmw sub ptr %69, i64 1 release, align 8, !dbg !2928, !noalias !2929
  %72 = icmp eq i64 %71, 1, !dbg !2934
  br i1 %72, label %bb2.i.i.i90, label %bb34, !dbg !2934

bb2.i.i.i90:                                      ; preds = %bb2.i89
  fence acquire, !dbg !2935
; invoke alloc::sync::Arc<T,A>::drop_slow
  invoke void @"_ZN5alloc4sync16Arc$LT$T$C$A$GT$9drop_slow17hbc25fce3e9353209E"(ptr noalias noundef nonnull align 8 dereferenceable(16) %68)
          to label %bb34 unwind label %cleanup12, !dbg !2936

bb12:                                             ; preds = %bb2.i85, %bb13, %bb2.i.i.i86, %cleanup12
  %.pn43 = phi { ptr, i32 } [ %78, %cleanup12 ], [ %.pn41, %bb2.i.i.i86 ], [ %.pn41, %bb13 ], [ %.pn41, %bb2.i85 ]
  %73 = getelementptr inbounds nuw i8, ptr %_1, i64 352, !dbg !2704
  tail call void @llvm.experimental.noalias.scope.decl(metadata !2937), !dbg !2704
    #dbg_value(ptr %73, !2011, !DIExpression(), !2940)
  %74 = load ptr, ptr %73, align 8, !dbg !2942, !alias.scope !2937, !noundef !23
  %75 = icmp eq ptr %74, null, !dbg !2942
  br i1 %75, label %bb11, label %bb2.i93, !dbg !2942

bb2.i93:                                          ; preds = %bb12
    #dbg_value(ptr %73, !2020, !DIExpression(), !2943)
    #dbg_value(ptr %73, !2028, !DIExpression(), !2945)
    #dbg_value(i64 1, !2036, !DIExpression(), !2947)
    #dbg_value(i8 1, !2040, !DIExpression(), !2947)
    #dbg_value(i64 1, !2043, !DIExpression(), !2949)
    #dbg_value(i8 1, !2047, !DIExpression(), !2949)
    #dbg_value(i8 2, !2050, !DIExpression(), !2951)
    #dbg_value(ptr %74, !2039, !DIExpression(), !2947)
    #dbg_value(ptr %74, !2046, !DIExpression(), !2949)
  %76 = atomicrmw sub ptr %74, i64 1 release, align 8, !dbg !2953, !noalias !2954
  %77 = icmp eq i64 %76, 1, !dbg !2959
  br i1 %77, label %bb2.i.i.i94, label %bb11, !dbg !2959

bb2.i.i.i94:                                      ; preds = %bb2.i93
  fence acquire, !dbg !2960
; invoke alloc::sync::Arc<T,A>::drop_slow
  invoke void @"_ZN5alloc4sync16Arc$LT$T$C$A$GT$9drop_slow17hbc25fce3e9353209E"(ptr noalias noundef nonnull align 8 dereferenceable(16) %73)
          to label %bb11 unwind label %terminate, !dbg !2961

cleanup12:                                        ; preds = %bb2.i.i.i90
  %78 = landingpad { ptr, i32 }
          cleanup
  br label %bb12

bb34:                                             ; preds = %bb2.i89, %bb35, %bb2.i.i.i90
  %79 = getelementptr inbounds nuw i8, ptr %_1, i64 352, !dbg !2704
  tail call void @llvm.experimental.noalias.scope.decl(metadata !2962), !dbg !2704
    #dbg_value(ptr %79, !2011, !DIExpression(), !2965)
  %80 = load ptr, ptr %79, align 8, !dbg !2967, !alias.scope !2962, !noundef !23
  %81 = icmp eq ptr %80, null, !dbg !2967
  br i1 %81, label %bb33, label %bb2.i97, !dbg !2967

bb2.i97:                                          ; preds = %bb34
    #dbg_value(ptr %79, !2020, !DIExpression(), !2968)
    #dbg_value(ptr %79, !2028, !DIExpression(), !2970)
    #dbg_value(i64 1, !2036, !DIExpression(), !2972)
    #dbg_value(i8 1, !2040, !DIExpression(), !2972)
    #dbg_value(i64 1, !2043, !DIExpression(), !2974)
    #dbg_value(i8 1, !2047, !DIExpression(), !2974)
    #dbg_value(i8 2, !2050, !DIExpression(), !2976)
    #dbg_value(ptr %80, !2039, !DIExpression(), !2972)
    #dbg_value(ptr %80, !2046, !DIExpression(), !2974)
  %82 = atomicrmw sub ptr %80, i64 1 release, align 8, !dbg !2978, !noalias !2979
  %83 = icmp eq i64 %82, 1, !dbg !2984
  br i1 %83, label %bb2.i.i.i98, label %bb33, !dbg !2984

bb2.i.i.i98:                                      ; preds = %bb2.i97
  fence acquire, !dbg !2985
; invoke alloc::sync::Arc<T,A>::drop_slow
  invoke void @"_ZN5alloc4sync16Arc$LT$T$C$A$GT$9drop_slow17hbc25fce3e9353209E"(ptr noalias noundef nonnull align 8 dereferenceable(16) %79)
          to label %bb33 unwind label %cleanup13, !dbg !2986

bb11:                                             ; preds = %bb2.i93, %bb12, %bb2.i.i.i94, %cleanup13
  %.pn45 = phi { ptr, i32 } [ %89, %cleanup13 ], [ %.pn43, %bb2.i.i.i94 ], [ %.pn43, %bb12 ], [ %.pn43, %bb2.i93 ]
  %84 = getelementptr inbounds nuw i8, ptr %_1, i64 368, !dbg !2704
  tail call void @llvm.experimental.noalias.scope.decl(metadata !2987), !dbg !2704
    #dbg_value(ptr %84, !1869, !DIExpression(), !2990)
  %85 = load ptr, ptr %84, align 8, !dbg !2992, !alias.scope !2987, !noundef !23
  %86 = icmp eq ptr %85, null, !dbg !2992
  br i1 %86, label %bb10, label %bb2.i101, !dbg !2992

bb2.i101:                                         ; preds = %bb11
    #dbg_value(ptr %84, !1523, !DIExpression(), !2993)
    #dbg_value(ptr %84, !1530, !DIExpression(), !2995)
    #dbg_value(i64 1, !1538, !DIExpression(), !2997)
    #dbg_value(i8 1, !1547, !DIExpression(), !2997)
    #dbg_value(i64 1, !1550, !DIExpression(), !2999)
    #dbg_value(i8 1, !1557, !DIExpression(), !2999)
    #dbg_value(i8 2, !1562, !DIExpression(), !3001)
    #dbg_value(ptr %85, !1546, !DIExpression(), !2997)
    #dbg_value(ptr %85, !1556, !DIExpression(), !2999)
  %87 = atomicrmw sub ptr %85, i64 1 release, align 8, !dbg !3003, !noalias !3004
  %88 = icmp eq i64 %87, 1, !dbg !3009
  br i1 %88, label %bb2.i.i.i102, label %bb10, !dbg !3009

bb2.i.i.i102:                                     ; preds = %bb2.i101
  fence acquire, !dbg !3010
; invoke alloc::sync::Arc<T,A>::drop_slow
  invoke void @"_ZN5alloc4sync16Arc$LT$T$C$A$GT$9drop_slow17hc4aa5653d7cc5847E"(ptr noalias noundef nonnull align 8 dereferenceable(16) %84)
          to label %bb10 unwind label %terminate, !dbg !3011

cleanup13:                                        ; preds = %bb2.i.i.i98
  %89 = landingpad { ptr, i32 }
          cleanup
  br label %bb11

bb33:                                             ; preds = %bb2.i97, %bb34, %bb2.i.i.i98
  %90 = getelementptr inbounds nuw i8, ptr %_1, i64 368, !dbg !2704
  tail call void @llvm.experimental.noalias.scope.decl(metadata !3012), !dbg !2704
    #dbg_value(ptr %90, !1869, !DIExpression(), !3015)
  %91 = load ptr, ptr %90, align 8, !dbg !3017, !alias.scope !3012, !noundef !23
  %92 = icmp eq ptr %91, null, !dbg !3017
  br i1 %92, label %bb32, label %bb2.i104, !dbg !3017

bb2.i104:                                         ; preds = %bb33
    #dbg_value(ptr %90, !1523, !DIExpression(), !3018)
    #dbg_value(ptr %90, !1530, !DIExpression(), !3020)
    #dbg_value(i64 1, !1538, !DIExpression(), !3022)
    #dbg_value(i8 1, !1547, !DIExpression(), !3022)
    #dbg_value(i64 1, !1550, !DIExpression(), !3024)
    #dbg_value(i8 1, !1557, !DIExpression(), !3024)
    #dbg_value(i8 2, !1562, !DIExpression(), !3026)
    #dbg_value(ptr %91, !1546, !DIExpression(), !3022)
    #dbg_value(ptr %91, !1556, !DIExpression(), !3024)
  %93 = atomicrmw sub ptr %91, i64 1 release, align 8, !dbg !3028, !noalias !3029
  %94 = icmp eq i64 %93, 1, !dbg !3034
  br i1 %94, label %bb2.i.i.i105, label %bb32, !dbg !3034

bb2.i.i.i105:                                     ; preds = %bb2.i104
  fence acquire, !dbg !3035
; invoke alloc::sync::Arc<T,A>::drop_slow
  invoke void @"_ZN5alloc4sync16Arc$LT$T$C$A$GT$9drop_slow17hc4aa5653d7cc5847E"(ptr noalias noundef nonnull align 8 dereferenceable(16) %90)
          to label %bb32 unwind label %cleanup14, !dbg !3036

bb10:                                             ; preds = %bb2.i101, %bb11, %bb2.i.i.i102, %cleanup14
  %.pn47 = phi { ptr, i32 } [ %100, %cleanup14 ], [ %.pn45, %bb2.i.i.i102 ], [ %.pn45, %bb11 ], [ %.pn45, %bb2.i101 ]
  %95 = getelementptr inbounds nuw i8, ptr %_1, i64 384, !dbg !2704
  tail call void @llvm.experimental.noalias.scope.decl(metadata !3037), !dbg !2704
    #dbg_value(ptr %95, !2011, !DIExpression(), !3040)
  %96 = load ptr, ptr %95, align 8, !dbg !3042, !alias.scope !3037, !noundef !23
  %97 = icmp eq ptr %96, null, !dbg !3042
  br i1 %97, label %bb9, label %bb2.i108, !dbg !3042

bb2.i108:                                         ; preds = %bb10
    #dbg_value(ptr %95, !2020, !DIExpression(), !3043)
    #dbg_value(ptr %95, !2028, !DIExpression(), !3045)
    #dbg_value(i64 1, !2036, !DIExpression(), !3047)
    #dbg_value(i8 1, !2040, !DIExpression(), !3047)
    #dbg_value(i64 1, !2043, !DIExpression(), !3049)
    #dbg_value(i8 1, !2047, !DIExpression(), !3049)
    #dbg_value(i8 2, !2050, !DIExpression(), !3051)
    #dbg_value(ptr %96, !2039, !DIExpression(), !3047)
    #dbg_value(ptr %96, !2046, !DIExpression(), !3049)
  %98 = atomicrmw sub ptr %96, i64 1 release, align 8, !dbg !3053, !noalias !3054
  %99 = icmp eq i64 %98, 1, !dbg !3059
  br i1 %99, label %bb2.i.i.i109, label %bb9, !dbg !3059

bb2.i.i.i109:                                     ; preds = %bb2.i108
  fence acquire, !dbg !3060
; invoke alloc::sync::Arc<T,A>::drop_slow
  invoke void @"_ZN5alloc4sync16Arc$LT$T$C$A$GT$9drop_slow17hbc25fce3e9353209E"(ptr noalias noundef nonnull align 8 dereferenceable(16) %95)
          to label %bb9 unwind label %terminate, !dbg !3061

cleanup14:                                        ; preds = %bb2.i.i.i105
  %100 = landingpad { ptr, i32 }
          cleanup
  br label %bb10

bb32:                                             ; preds = %bb2.i104, %bb33, %bb2.i.i.i105
  %101 = getelementptr inbounds nuw i8, ptr %_1, i64 384, !dbg !2704
  tail call void @llvm.experimental.noalias.scope.decl(metadata !3062), !dbg !2704
    #dbg_value(ptr %101, !2011, !DIExpression(), !3065)
  %102 = load ptr, ptr %101, align 8, !dbg !3067, !alias.scope !3062, !noundef !23
  %103 = icmp eq ptr %102, null, !dbg !3067
  br i1 %103, label %bb31, label %bb2.i112, !dbg !3067

bb2.i112:                                         ; preds = %bb32
    #dbg_value(ptr %101, !2020, !DIExpression(), !3068)
    #dbg_value(ptr %101, !2028, !DIExpression(), !3070)
    #dbg_value(i64 1, !2036, !DIExpression(), !3072)
    #dbg_value(i8 1, !2040, !DIExpression(), !3072)
    #dbg_value(i64 1, !2043, !DIExpression(), !3074)
    #dbg_value(i8 1, !2047, !DIExpression(), !3074)
    #dbg_value(i8 2, !2050, !DIExpression(), !3076)
    #dbg_value(ptr %102, !2039, !DIExpression(), !3072)
    #dbg_value(ptr %102, !2046, !DIExpression(), !3074)
  %104 = atomicrmw sub ptr %102, i64 1 release, align 8, !dbg !3078, !noalias !3079
  %105 = icmp eq i64 %104, 1, !dbg !3084
  br i1 %105, label %bb2.i.i.i113, label %bb31, !dbg !3084

bb2.i.i.i113:                                     ; preds = %bb2.i112
  fence acquire, !dbg !3085
; invoke alloc::sync::Arc<T,A>::drop_slow
  invoke void @"_ZN5alloc4sync16Arc$LT$T$C$A$GT$9drop_slow17hbc25fce3e9353209E"(ptr noalias noundef nonnull align 8 dereferenceable(16) %101)
          to label %bb31 unwind label %cleanup15, !dbg !3086

bb9:                                              ; preds = %bb2.i108, %bb10, %bb2.i.i.i109, %cleanup15
  %.pn49 = phi { ptr, i32 } [ %107, %cleanup15 ], [ %.pn47, %bb2.i.i.i109 ], [ %.pn47, %bb10 ], [ %.pn47, %bb2.i108 ]
  %106 = getelementptr inbounds nuw i8, ptr %_1, i64 216, !dbg !2704
; invoke core::ptr::drop_in_place<alloc::vec::Vec<(alloc::sync::Arc<std::ffi::os_str::OsStr>,alloc::sync::Arc<std::ffi::os_str::OsStr>)>>
  invoke fastcc void @"_ZN4core3ptr149drop_in_place$LT$alloc..vec..Vec$LT$$LP$alloc..sync..Arc$LT$std..ffi..os_str..OsStr$GT$$C$alloc..sync..Arc$LT$std..ffi..os_str..OsStr$GT$$RP$$GT$$GT$17h9908623b2f3634cfE"(ptr noalias noundef align 8 dereferenceable(24) %106) #18
          to label %bb8 unwind label %terminate, !dbg !2704

cleanup15:                                        ; preds = %bb2.i.i.i113
  %107 = landingpad { ptr, i32 }
          cleanup
  br label %bb9

bb31:                                             ; preds = %bb2.i112, %bb32, %bb2.i.i.i113
  %108 = getelementptr inbounds nuw i8, ptr %_1, i64 216, !dbg !2704
; invoke core::ptr::drop_in_place<alloc::vec::Vec<(alloc::sync::Arc<std::ffi::os_str::OsStr>,alloc::sync::Arc<std::ffi::os_str::OsStr>)>>
  invoke fastcc void @"_ZN4core3ptr149drop_in_place$LT$alloc..vec..Vec$LT$$LP$alloc..sync..Arc$LT$std..ffi..os_str..OsStr$GT$$C$alloc..sync..Arc$LT$std..ffi..os_str..OsStr$GT$$RP$$GT$$GT$17h9908623b2f3634cfE"(ptr noalias noundef align 8 dereferenceable(24) %108)
          to label %bb30 unwind label %cleanup16, !dbg !2704

bb8:                                              ; preds = %bb9, %cleanup16
  %.pn51 = phi { ptr, i32 } [ %114, %cleanup16 ], [ %.pn49, %bb9 ]
  %109 = getelementptr inbounds nuw i8, ptr %_1, i64 400, !dbg !2704
  tail call void @llvm.experimental.noalias.scope.decl(metadata !3087), !dbg !2704
    #dbg_value(ptr %109, !1869, !DIExpression(), !3090)
  %110 = load ptr, ptr %109, align 8, !dbg !3092, !alias.scope !3087, !noundef !23
  %111 = icmp eq ptr %110, null, !dbg !3092
  br i1 %111, label %bb7, label %bb2.i116, !dbg !3092

bb2.i116:                                         ; preds = %bb8
    #dbg_value(ptr %109, !1523, !DIExpression(), !3093)
    #dbg_value(ptr %109, !1530, !DIExpression(), !3095)
    #dbg_value(i64 1, !1538, !DIExpression(), !3097)
    #dbg_value(i8 1, !1547, !DIExpression(), !3097)
    #dbg_value(i64 1, !1550, !DIExpression(), !3099)
    #dbg_value(i8 1, !1557, !DIExpression(), !3099)
    #dbg_value(i8 2, !1562, !DIExpression(), !3101)
    #dbg_value(ptr %110, !1546, !DIExpression(), !3097)
    #dbg_value(ptr %110, !1556, !DIExpression(), !3099)
  %112 = atomicrmw sub ptr %110, i64 1 release, align 8, !dbg !3103, !noalias !3104
  %113 = icmp eq i64 %112, 1, !dbg !3109
  br i1 %113, label %bb2.i.i.i117, label %bb7, !dbg !3109

bb2.i.i.i117:                                     ; preds = %bb2.i116
  fence acquire, !dbg !3110
; invoke alloc::sync::Arc<T,A>::drop_slow
  invoke void @"_ZN5alloc4sync16Arc$LT$T$C$A$GT$9drop_slow17hc4aa5653d7cc5847E"(ptr noalias noundef nonnull align 8 dereferenceable(16) %109)
          to label %bb7 unwind label %terminate, !dbg !3111

cleanup16:                                        ; preds = %bb31
  %114 = landingpad { ptr, i32 }
          cleanup
  br label %bb8

bb30:                                             ; preds = %bb31
  %115 = getelementptr inbounds nuw i8, ptr %_1, i64 400, !dbg !2704
  tail call void @llvm.experimental.noalias.scope.decl(metadata !3112), !dbg !2704
    #dbg_value(ptr %115, !1869, !DIExpression(), !3115)
  %116 = load ptr, ptr %115, align 8, !dbg !3117, !alias.scope !3112, !noundef !23
  %117 = icmp eq ptr %116, null, !dbg !3117
  br i1 %117, label %bb29, label %bb2.i120, !dbg !3117

bb2.i120:                                         ; preds = %bb30
    #dbg_value(ptr %115, !1523, !DIExpression(), !3118)
    #dbg_value(ptr %115, !1530, !DIExpression(), !3120)
    #dbg_value(i64 1, !1538, !DIExpression(), !3122)
    #dbg_value(i8 1, !1547, !DIExpression(), !3122)
    #dbg_value(i64 1, !1550, !DIExpression(), !3124)
    #dbg_value(i8 1, !1557, !DIExpression(), !3124)
    #dbg_value(i8 2, !1562, !DIExpression(), !3126)
    #dbg_value(ptr %116, !1546, !DIExpression(), !3122)
    #dbg_value(ptr %116, !1556, !DIExpression(), !3124)
  %118 = atomicrmw sub ptr %116, i64 1 release, align 8, !dbg !3128, !noalias !3129
  %119 = icmp eq i64 %118, 1, !dbg !3134
  br i1 %119, label %bb2.i.i.i121, label %bb29, !dbg !3134

bb2.i.i.i121:                                     ; preds = %bb2.i120
  fence acquire, !dbg !3135
; invoke alloc::sync::Arc<T,A>::drop_slow
  invoke void @"_ZN5alloc4sync16Arc$LT$T$C$A$GT$9drop_slow17hc4aa5653d7cc5847E"(ptr noalias noundef nonnull align 8 dereferenceable(16) %115)
          to label %bb29 unwind label %cleanup17, !dbg !3136

bb7:                                              ; preds = %bb2.i116, %bb8, %bb2.i.i.i117, %cleanup17
  %.pn53 = phi { ptr, i32 } [ %125, %cleanup17 ], [ %.pn51, %bb2.i.i.i117 ], [ %.pn51, %bb8 ], [ %.pn51, %bb2.i116 ]
  %120 = getelementptr inbounds nuw i8, ptr %_1, i64 416, !dbg !2704
  tail call void @llvm.experimental.noalias.scope.decl(metadata !3137), !dbg !2704
    #dbg_value(ptr %120, !1869, !DIExpression(), !3140)
  %121 = load ptr, ptr %120, align 8, !dbg !3142, !alias.scope !3137, !noundef !23
  %122 = icmp eq ptr %121, null, !dbg !3142
  br i1 %122, label %bb6, label %bb2.i124, !dbg !3142

bb2.i124:                                         ; preds = %bb7
    #dbg_value(ptr %120, !1523, !DIExpression(), !3143)
    #dbg_value(ptr %120, !1530, !DIExpression(), !3145)
    #dbg_value(i64 1, !1538, !DIExpression(), !3147)
    #dbg_value(i8 1, !1547, !DIExpression(), !3147)
    #dbg_value(i64 1, !1550, !DIExpression(), !3149)
    #dbg_value(i8 1, !1557, !DIExpression(), !3149)
    #dbg_value(i8 2, !1562, !DIExpression(), !3151)
    #dbg_value(ptr %121, !1546, !DIExpression(), !3147)
    #dbg_value(ptr %121, !1556, !DIExpression(), !3149)
  %123 = atomicrmw sub ptr %121, i64 1 release, align 8, !dbg !3153, !noalias !3154
  %124 = icmp eq i64 %123, 1, !dbg !3159
  br i1 %124, label %bb2.i.i.i125, label %bb6, !dbg !3159

bb2.i.i.i125:                                     ; preds = %bb2.i124
  fence acquire, !dbg !3160
; invoke alloc::sync::Arc<T,A>::drop_slow
  invoke void @"_ZN5alloc4sync16Arc$LT$T$C$A$GT$9drop_slow17hc4aa5653d7cc5847E"(ptr noalias noundef nonnull align 8 dereferenceable(16) %120)
          to label %bb6 unwind label %terminate, !dbg !3161

cleanup17:                                        ; preds = %bb2.i.i.i121
  %125 = landingpad { ptr, i32 }
          cleanup
  br label %bb7

bb29:                                             ; preds = %bb2.i120, %bb30, %bb2.i.i.i121
  %126 = getelementptr inbounds nuw i8, ptr %_1, i64 416, !dbg !2704
  tail call void @llvm.experimental.noalias.scope.decl(metadata !3162), !dbg !2704
    #dbg_value(ptr %126, !1869, !DIExpression(), !3165)
  %127 = load ptr, ptr %126, align 8, !dbg !3167, !alias.scope !3162, !noundef !23
  %128 = icmp eq ptr %127, null, !dbg !3167
  br i1 %128, label %bb28, label %bb2.i128, !dbg !3167

bb2.i128:                                         ; preds = %bb29
    #dbg_value(ptr %126, !1523, !DIExpression(), !3168)
    #dbg_value(ptr %126, !1530, !DIExpression(), !3170)
    #dbg_value(i64 1, !1538, !DIExpression(), !3172)
    #dbg_value(i8 1, !1547, !DIExpression(), !3172)
    #dbg_value(i64 1, !1550, !DIExpression(), !3174)
    #dbg_value(i8 1, !1557, !DIExpression(), !3174)
    #dbg_value(i8 2, !1562, !DIExpression(), !3176)
    #dbg_value(ptr %127, !1546, !DIExpression(), !3172)
    #dbg_value(ptr %127, !1556, !DIExpression(), !3174)
  %129 = atomicrmw sub ptr %127, i64 1 release, align 8, !dbg !3178, !noalias !3179
  %130 = icmp eq i64 %129, 1, !dbg !3184
  br i1 %130, label %bb2.i.i.i129, label %bb28, !dbg !3184

bb2.i.i.i129:                                     ; preds = %bb2.i128
  fence acquire, !dbg !3185
; invoke alloc::sync::Arc<T,A>::drop_slow
  invoke void @"_ZN5alloc4sync16Arc$LT$T$C$A$GT$9drop_slow17hc4aa5653d7cc5847E"(ptr noalias noundef nonnull align 8 dereferenceable(16) %126)
          to label %bb28 unwind label %cleanup18, !dbg !3186

bb6:                                              ; preds = %bb2.i124, %bb7, %bb2.i.i.i125, %cleanup18
  %.pn55 = phi { ptr, i32 } [ %136, %cleanup18 ], [ %.pn53, %bb2.i.i.i125 ], [ %.pn53, %bb7 ], [ %.pn53, %bb2.i124 ]
  %131 = getelementptr inbounds nuw i8, ptr %_1, i64 432, !dbg !2704
  tail call void @llvm.experimental.noalias.scope.decl(metadata !3187), !dbg !2704
    #dbg_value(ptr %131, !1869, !DIExpression(), !3190)
  %132 = load ptr, ptr %131, align 8, !dbg !3192, !alias.scope !3187, !noundef !23
  %133 = icmp eq ptr %132, null, !dbg !3192
  br i1 %133, label %bb5, label %bb2.i132, !dbg !3192

bb2.i132:                                         ; preds = %bb6
    #dbg_value(ptr %131, !1523, !DIExpression(), !3193)
    #dbg_value(ptr %131, !1530, !DIExpression(), !3195)
    #dbg_value(i64 1, !1538, !DIExpression(), !3197)
    #dbg_value(i8 1, !1547, !DIExpression(), !3197)
    #dbg_value(i64 1, !1550, !DIExpression(), !3199)
    #dbg_value(i8 1, !1557, !DIExpression(), !3199)
    #dbg_value(i8 2, !1562, !DIExpression(), !3201)
    #dbg_value(ptr %132, !1546, !DIExpression(), !3197)
    #dbg_value(ptr %132, !1556, !DIExpression(), !3199)
  %134 = atomicrmw sub ptr %132, i64 1 release, align 8, !dbg !3203, !noalias !3204
  %135 = icmp eq i64 %134, 1, !dbg !3209
  br i1 %135, label %bb2.i.i.i133, label %bb5, !dbg !3209

bb2.i.i.i133:                                     ; preds = %bb2.i132
  fence acquire, !dbg !3210
; invoke alloc::sync::Arc<T,A>::drop_slow
  invoke void @"_ZN5alloc4sync16Arc$LT$T$C$A$GT$9drop_slow17hc4aa5653d7cc5847E"(ptr noalias noundef nonnull align 8 dereferenceable(16) %131)
          to label %bb5 unwind label %terminate, !dbg !3211

cleanup18:                                        ; preds = %bb2.i.i.i129
  %136 = landingpad { ptr, i32 }
          cleanup
  br label %bb6

bb28:                                             ; preds = %bb2.i128, %bb29, %bb2.i.i.i129
  %137 = getelementptr inbounds nuw i8, ptr %_1, i64 432, !dbg !2704
  tail call void @llvm.experimental.noalias.scope.decl(metadata !3212), !dbg !2704
    #dbg_value(ptr %137, !1869, !DIExpression(), !3215)
  %138 = load ptr, ptr %137, align 8, !dbg !3217, !alias.scope !3212, !noundef !23
  %139 = icmp eq ptr %138, null, !dbg !3217
  br i1 %139, label %bb27, label %bb2.i136, !dbg !3217

bb2.i136:                                         ; preds = %bb28
    #dbg_value(ptr %137, !1523, !DIExpression(), !3218)
    #dbg_value(ptr %137, !1530, !DIExpression(), !3220)
    #dbg_value(i64 1, !1538, !DIExpression(), !3222)
    #dbg_value(i8 1, !1547, !DIExpression(), !3222)
    #dbg_value(i64 1, !1550, !DIExpression(), !3224)
    #dbg_value(i8 1, !1557, !DIExpression(), !3224)
    #dbg_value(i8 2, !1562, !DIExpression(), !3226)
    #dbg_value(ptr %138, !1546, !DIExpression(), !3222)
    #dbg_value(ptr %138, !1556, !DIExpression(), !3224)
  %140 = atomicrmw sub ptr %138, i64 1 release, align 8, !dbg !3228, !noalias !3229
  %141 = icmp eq i64 %140, 1, !dbg !3234
  br i1 %141, label %bb2.i.i.i137, label %bb27, !dbg !3234

bb2.i.i.i137:                                     ; preds = %bb2.i136
  fence acquire, !dbg !3235
; invoke alloc::sync::Arc<T,A>::drop_slow
  invoke void @"_ZN5alloc4sync16Arc$LT$T$C$A$GT$9drop_slow17hc4aa5653d7cc5847E"(ptr noalias noundef nonnull align 8 dereferenceable(16) %137)
          to label %bb27 unwind label %cleanup19, !dbg !3236

bb5:                                              ; preds = %bb2.i132, %bb6, %bb2.i.i.i133, %cleanup19
  %.pn57 = phi { ptr, i32 } [ %145, %cleanup19 ], [ %.pn55, %bb2.i.i.i133 ], [ %.pn55, %bb6 ], [ %.pn55, %bb2.i132 ]
  %142 = getelementptr inbounds nuw i8, ptr %_1, i64 264, !dbg !2704
  tail call void @llvm.experimental.noalias.scope.decl(metadata !3237), !dbg !2704
    #dbg_value(ptr %142, !3240, !DIExpression(), !3248)
  tail call void @llvm.experimental.noalias.scope.decl(metadata !3250), !dbg !3253
    #dbg_value(ptr %142, !3254, !DIExpression(), !3262)
  tail call void @llvm.experimental.noalias.scope.decl(metadata !3264), !dbg !3267
    #dbg_value(ptr %142, !3268, !DIExpression(), !3274)
    #dbg_value(ptr %142, !3276, !DIExpression(), !3284)
    #dbg_value(i64 1, !3286, !DIExpression(), !3291)
    #dbg_value(i8 1, !3290, !DIExpression(), !3291)
    #dbg_value(i64 1, !3293, !DIExpression(), !3298)
    #dbg_value(i8 1, !3297, !DIExpression(), !3298)
    #dbg_value(i8 2, !3300, !DIExpression(), !3303)
  %_10.i.i.i = load ptr, ptr %142, align 8, !dbg !3305, !alias.scope !3312, !nonnull !23, !noundef !23
    #dbg_value(ptr %_10.i.i.i, !3289, !DIExpression(), !3291)
    #dbg_value(ptr %_10.i.i.i, !3296, !DIExpression(), !3298)
  %143 = atomicrmw sub ptr %_10.i.i.i, i64 1 release, align 8, !dbg !3313, !noalias !3312
  %144 = icmp eq i64 %143, 1, !dbg !3314
  br i1 %144, label %bb2.i.i.i140, label %bb4, !dbg !3314

bb2.i.i.i140:                                     ; preds = %bb5
  fence acquire, !dbg !3315
; invoke alloc::sync::Arc<T,A>::drop_slow
  invoke void @"_ZN5alloc4sync16Arc$LT$T$C$A$GT$9drop_slow17h99fca90633548f02E"(ptr noalias noundef nonnull align 8 dereferenceable(16) %142)
          to label %bb4 unwind label %terminate, !dbg !3316

cleanup19:                                        ; preds = %bb2.i.i.i137
  %145 = landingpad { ptr, i32 }
          cleanup
  br label %bb5

bb27:                                             ; preds = %bb2.i136, %bb28, %bb2.i.i.i137
  %146 = getelementptr inbounds nuw i8, ptr %_1, i64 264, !dbg !2704
  tail call void @llvm.experimental.noalias.scope.decl(metadata !3317), !dbg !2704
    #dbg_value(ptr %146, !3240, !DIExpression(), !3320)
  tail call void @llvm.experimental.noalias.scope.decl(metadata !3322), !dbg !3325
    #dbg_value(ptr %146, !3254, !DIExpression(), !3326)
  tail call void @llvm.experimental.noalias.scope.decl(metadata !3328), !dbg !3331
    #dbg_value(ptr %146, !3268, !DIExpression(), !3332)
    #dbg_value(ptr %146, !3276, !DIExpression(), !3334)
    #dbg_value(i64 1, !3286, !DIExpression(), !3336)
    #dbg_value(i8 1, !3290, !DIExpression(), !3336)
    #dbg_value(i64 1, !3293, !DIExpression(), !3338)
    #dbg_value(i8 1, !3297, !DIExpression(), !3338)
    #dbg_value(i8 2, !3300, !DIExpression(), !3340)
  %_10.i.i.i142 = load ptr, ptr %146, align 8, !dbg !3342, !alias.scope !3344, !nonnull !23, !noundef !23
    #dbg_value(ptr %_10.i.i.i142, !3289, !DIExpression(), !3336)
    #dbg_value(ptr %_10.i.i.i142, !3296, !DIExpression(), !3338)
  %147 = atomicrmw sub ptr %_10.i.i.i142, i64 1 release, align 8, !dbg !3345, !noalias !3344
  %148 = icmp eq i64 %147, 1, !dbg !3346
  br i1 %148, label %bb2.i.i.i143, label %bb26, !dbg !3346

bb2.i.i.i143:                                     ; preds = %bb27
  fence acquire, !dbg !3347
; invoke alloc::sync::Arc<T,A>::drop_slow
  invoke void @"_ZN5alloc4sync16Arc$LT$T$C$A$GT$9drop_slow17h99fca90633548f02E"(ptr noalias noundef nonnull align 8 dereferenceable(16) %146)
          to label %bb26 unwind label %cleanup20, !dbg !3348

bb4:                                              ; preds = %bb5, %bb2.i.i.i140, %cleanup20
  %.pn59 = phi { ptr, i32 } [ %150, %cleanup20 ], [ %.pn57, %bb2.i.i.i140 ], [ %.pn57, %bb5 ]
  %149 = getelementptr inbounds nuw i8, ptr %_1, i64 240, !dbg !2704
; invoke core::ptr::drop_in_place<alloc::vec::Vec<alloc::sync::Arc<std::ffi::os_str::OsStr>>>
  invoke fastcc void @"_ZN4core3ptr91drop_in_place$LT$alloc..vec..Vec$LT$alloc..sync..Arc$LT$std..ffi..os_str..OsStr$GT$$GT$$GT$17h257dfeb142110893E"(ptr noalias noundef align 8 dereferenceable(24) %149) #18
          to label %bb3 unwind label %terminate, !dbg !2704

cleanup20:                                        ; preds = %bb2.i.i.i143
  %150 = landingpad { ptr, i32 }
          cleanup
  br label %bb4

bb26:                                             ; preds = %bb27, %bb2.i.i.i143
  %151 = getelementptr inbounds nuw i8, ptr %_1, i64 240, !dbg !2704
; invoke core::ptr::drop_in_place<alloc::vec::Vec<alloc::sync::Arc<std::ffi::os_str::OsStr>>>
  invoke fastcc void @"_ZN4core3ptr91drop_in_place$LT$alloc..vec..Vec$LT$alloc..sync..Arc$LT$std..ffi..os_str..OsStr$GT$$GT$$GT$17h257dfeb142110893E"(ptr noalias noundef align 8 dereferenceable(24) %151)
          to label %bb25 unwind label %cleanup21, !dbg !2704

bb3:                                              ; preds = %bb4, %cleanup21
  %.pn61 = phi { ptr, i32 } [ %155, %cleanup21 ], [ %.pn59, %bb4 ]
  %152 = getelementptr inbounds nuw i8, ptr %_1, i64 280, !dbg !2704
  tail call void @llvm.experimental.noalias.scope.decl(metadata !3349), !dbg !2704
    #dbg_value(ptr %152, !3352, !DIExpression(), !3360)
  tail call void @llvm.experimental.noalias.scope.decl(metadata !3362), !dbg !3365
    #dbg_value(ptr %152, !3366, !DIExpression(), !3372)
    #dbg_value(ptr %152, !3374, !DIExpression(), !3382)
    #dbg_value(i64 1, !3384, !DIExpression(), !3389)
    #dbg_value(i8 1, !3388, !DIExpression(), !3389)
    #dbg_value(i64 1, !3391, !DIExpression(), !3396)
    #dbg_value(i8 1, !3395, !DIExpression(), !3396)
    #dbg_value(i8 2, !3398, !DIExpression(), !3401)
  %_10.i.i = load ptr, ptr %152, align 8, !dbg !3403, !alias.scope !3410, !nonnull !23, !noundef !23
    #dbg_value(ptr %_10.i.i, !3387, !DIExpression(), !3389)
    #dbg_value(ptr %_10.i.i, !3394, !DIExpression(), !3396)
  %153 = atomicrmw sub ptr %_10.i.i, i64 1 release, align 8, !dbg !3411, !noalias !3410
  %154 = icmp eq i64 %153, 1, !dbg !3412
  br i1 %154, label %bb2.i.i146, label %bb1, !dbg !3412

bb2.i.i146:                                       ; preds = %bb3
  fence acquire, !dbg !3413
; invoke alloc::sync::Arc<T,A>::drop_slow
  invoke void @"_ZN5alloc4sync16Arc$LT$T$C$A$GT$9drop_slow17ha7250d45a15ee33aE"(ptr noalias noundef nonnull align 8 dereferenceable(8) %152)
          to label %bb1 unwind label %terminate, !dbg !3414

cleanup21:                                        ; preds = %bb26
  %155 = landingpad { ptr, i32 }
          cleanup
  br label %bb3

bb25:                                             ; preds = %bb26
  %156 = getelementptr inbounds nuw i8, ptr %_1, i64 280, !dbg !2704
  tail call void @llvm.experimental.noalias.scope.decl(metadata !3415), !dbg !2704
    #dbg_value(ptr %156, !3352, !DIExpression(), !3418)
  tail call void @llvm.experimental.noalias.scope.decl(metadata !3420), !dbg !3423
    #dbg_value(ptr %156, !3366, !DIExpression(), !3424)
    #dbg_value(ptr %156, !3374, !DIExpression(), !3426)
    #dbg_value(i64 1, !3384, !DIExpression(), !3428)
    #dbg_value(i8 1, !3388, !DIExpression(), !3428)
    #dbg_value(i64 1, !3391, !DIExpression(), !3430)
    #dbg_value(i8 1, !3395, !DIExpression(), !3430)
    #dbg_value(i8 2, !3398, !DIExpression(), !3432)
  %_10.i.i148 = load ptr, ptr %156, align 8, !dbg !3434, !alias.scope !3436, !nonnull !23, !noundef !23
    #dbg_value(ptr %_10.i.i148, !3387, !DIExpression(), !3428)
    #dbg_value(ptr %_10.i.i148, !3394, !DIExpression(), !3430)
  %157 = atomicrmw sub ptr %_10.i.i148, i64 1 release, align 8, !dbg !3437, !noalias !3436
  %158 = icmp eq i64 %157, 1, !dbg !3438
  br i1 %158, label %bb2.i.i149, label %"_ZN4core3ptr59drop_in_place$LT$alloc..sync..Arc$LT$cc..BuildCache$GT$$GT$17he7faaa0b51ed205aE.exit150", !dbg !3438

bb2.i.i149:                                       ; preds = %bb25
  fence acquire, !dbg !3439
; call alloc::sync::Arc<T,A>::drop_slow
  tail call void @"_ZN5alloc4sync16Arc$LT$T$C$A$GT$9drop_slow17ha7250d45a15ee33aE"(ptr noalias noundef nonnull align 8 dereferenceable(8) %156), !dbg !3440
  br label %"_ZN4core3ptr59drop_in_place$LT$alloc..sync..Arc$LT$cc..BuildCache$GT$$GT$17he7faaa0b51ed205aE.exit150", !dbg !3440

"_ZN4core3ptr59drop_in_place$LT$alloc..sync..Arc$LT$cc..BuildCache$GT$$GT$17he7faaa0b51ed205aE.exit150": ; preds = %bb25, %bb2.i.i149
  ret void, !dbg !2704

terminate:                                        ; preds = %bb2.i.i146, %bb2.i.i.i140, %bb2.i.i.i133, %bb2.i.i.i125, %bb2.i.i.i117, %bb2.i.i.i109, %bb2.i.i.i102, %bb2.i.i.i94, %bb2.i.i.i86, %bb2.i.i.i78, %bb2.i.i.i70, %bb2.i.i.i, %bb4, %bb9, %bb17, %bb18, %bb19, %bb20, %bb21, %bb22, %bb23, %cleanup
  %159 = landingpad { ptr, i32 }
          filter [0 x ptr] zeroinitializer
; call core::panicking::panic_in_cleanup
  tail call void @_ZN4core9panicking16panic_in_cleanup17h8f68387bb6cbbf54E() #17, !dbg !2704
  unreachable, !dbg !2704

bb1:                                              ; preds = %bb3, %bb2.i.i146
  resume { ptr, i32 } %.pn61, !dbg !2704
}

; core::ptr::drop_in_place<alloc::vec::Vec<alloc::sync::Arc<std::path::Path>>>
; Function Attrs: nonlazybind uwtable
define internal fastcc void @"_ZN4core3ptr83drop_in_place$LT$alloc..vec..Vec$LT$alloc..sync..Arc$LT$std..path..Path$GT$$GT$$GT$17h93e5ac05b0b48884E"(ptr noalias noundef nonnull readonly align 8 captures(none) dereferenceable(24) %_1) unnamed_addr #0 personality ptr @rust_eh_personality !dbg !3441 {
start:
    #dbg_value(ptr %_1, !3446, !DIExpression(), !3449)
  %0 = getelementptr inbounds nuw i8, ptr %_1, i64 8, !dbg !3450
  %_1.val = load ptr, ptr %0, align 8, !dbg !3450, !nonnull !23, !noundef !23
  %1 = getelementptr inbounds nuw i8, ptr %_1, i64 16, !dbg !3450
  %_1.val1 = load i64, ptr %1, align 8, !dbg !3450, !noundef !23
    #dbg_value(ptr poison, !3451, !DIExpression(), !3456)
    #dbg_value(ptr %_1.val, !3458, !DIExpression(DW_OP_LLVM_fragment, 0, 64), !3468)
    #dbg_value(i64 %_1.val1, !3458, !DIExpression(DW_OP_LLVM_fragment, 64, 64), !3468)
  %_710.i.i = icmp eq i64 %_1.val1, 0, !dbg !3470
  br i1 %_710.i.i, label %bb4, label %bb5.i.i, !dbg !3470

bb5.i.i:                                          ; preds = %start, %"_ZN4core3ptr60drop_in_place$LT$alloc..sync..Arc$LT$std..path..Path$GT$$GT$17ha19aecb901dba068E.exit.i.i"
  %_3.sroa.0.011.i.i = phi i64 [ %2, %"_ZN4core3ptr60drop_in_place$LT$alloc..sync..Arc$LT$std..path..Path$GT$$GT$17ha19aecb901dba068E.exit.i.i" ], [ 0, %start ]
  %_6.i.i = getelementptr inbounds nuw %"alloc::sync::Arc<std::path::Path>", ptr %_1.val, i64 %_3.sroa.0.011.i.i, !dbg !3470
  %2 = add nuw i64 %_3.sroa.0.011.i.i, 1, !dbg !3470
  tail call void @llvm.experimental.noalias.scope.decl(metadata !3471), !dbg !3470
    #dbg_value(ptr %_6.i.i, !1523, !DIExpression(), !3474)
  tail call void @llvm.experimental.noalias.scope.decl(metadata !3476), !dbg !3479
    #dbg_value(ptr %_6.i.i, !1530, !DIExpression(), !3480)
    #dbg_value(ptr %_6.i.i, !3482, !DIExpression(), !3493)
    #dbg_value(i64 1, !1538, !DIExpression(), !3495)
    #dbg_value(i8 1, !1547, !DIExpression(), !3495)
    #dbg_value(i64 1, !1550, !DIExpression(), !3497)
    #dbg_value(i8 1, !1557, !DIExpression(), !3497)
    #dbg_value(i8 2, !1562, !DIExpression(), !3499)
  %_10.0.i.i.i.i = load ptr, ptr %_6.i.i, align 8, !dbg !3501, !alias.scope !3508, !nonnull !23, !noundef !23
    #dbg_value(ptr %_10.0.i.i.i.i, !1546, !DIExpression(), !3495)
    #dbg_value(ptr %_10.0.i.i.i.i, !1556, !DIExpression(), !3497)
  %3 = atomicrmw sub ptr %_10.0.i.i.i.i, i64 1 release, align 8, !dbg !3511, !noalias !3512
  %4 = icmp eq i64 %3, 1, !dbg !3513
  br i1 %4, label %bb2.i.i.i.i, label %"_ZN4core3ptr60drop_in_place$LT$alloc..sync..Arc$LT$std..path..Path$GT$$GT$17ha19aecb901dba068E.exit.i.i", !dbg !3513

bb2.i.i.i.i:                                      ; preds = %bb5.i.i
  fence acquire, !dbg !3514
; invoke alloc::sync::Arc<T,A>::drop_slow
  invoke void @"_ZN5alloc4sync16Arc$LT$T$C$A$GT$9drop_slow17hc4aa5653d7cc5847E"(ptr noalias noundef nonnull align 8 dereferenceable(16) %_6.i.i)
          to label %"_ZN4core3ptr60drop_in_place$LT$alloc..sync..Arc$LT$std..path..Path$GT$$GT$17ha19aecb901dba068E.exit.i.i" unwind label %cleanup.i.i, !dbg !3515

"_ZN4core3ptr60drop_in_place$LT$alloc..sync..Arc$LT$std..path..Path$GT$$GT$17ha19aecb901dba068E.exit.i.i": ; preds = %bb2.i.i.i.i, %bb5.i.i
  %_7.i.i = icmp eq i64 %2, %_1.val1, !dbg !3470
  br i1 %_7.i.i, label %bb4, label %bb5.i.i, !dbg !3470

cleanup.i.i:                                      ; preds = %bb2.i.i.i.i
  %5 = landingpad { ptr, i32 }
          cleanup
  %_512.i.i = icmp eq i64 %2, %_1.val1, !dbg !3470
  br i1 %_512.i.i, label %cleanup.body, label %bb3.i.i, !dbg !3470

bb3.i.i:                                          ; preds = %cleanup.i.i, %"_ZN4core3ptr60drop_in_place$LT$alloc..sync..Arc$LT$std..path..Path$GT$$GT$17ha19aecb901dba068E.exit9.i.i"
  %_3.sroa.0.113.i.i = phi i64 [ %6, %"_ZN4core3ptr60drop_in_place$LT$alloc..sync..Arc$LT$std..path..Path$GT$$GT$17ha19aecb901dba068E.exit9.i.i" ], [ %2, %cleanup.i.i ]
  %_4.i.i = getelementptr inbounds nuw %"alloc::sync::Arc<std::path::Path>", ptr %_1.val, i64 %_3.sroa.0.113.i.i, !dbg !3470
  %6 = add i64 %_3.sroa.0.113.i.i, 1, !dbg !3470
  tail call void @llvm.experimental.noalias.scope.decl(metadata !3516), !dbg !3470
    #dbg_value(ptr %_4.i.i, !1523, !DIExpression(), !3519)
  tail call void @llvm.experimental.noalias.scope.decl(metadata !3521), !dbg !3524
    #dbg_value(ptr %_4.i.i, !1530, !DIExpression(), !3525)
    #dbg_value(ptr %_4.i.i, !3482, !DIExpression(), !3527)
    #dbg_value(i64 1, !1538, !DIExpression(), !3529)
    #dbg_value(i8 1, !1547, !DIExpression(), !3529)
    #dbg_value(i64 1, !1550, !DIExpression(), !3531)
    #dbg_value(i8 1, !1557, !DIExpression(), !3531)
    #dbg_value(i8 2, !1562, !DIExpression(), !3533)
  %_10.0.i.i6.i.i = load ptr, ptr %_4.i.i, align 8, !dbg !3535, !alias.scope !3537, !nonnull !23, !noundef !23
    #dbg_value(ptr %_10.0.i.i6.i.i, !1546, !DIExpression(), !3529)
    #dbg_value(ptr %_10.0.i.i6.i.i, !1556, !DIExpression(), !3531)
  %7 = atomicrmw sub ptr %_10.0.i.i6.i.i, i64 1 release, align 8, !dbg !3538, !noalias !3539
  %8 = icmp eq i64 %7, 1, !dbg !3540
  br i1 %8, label %bb2.i.i7.i.i, label %"_ZN4core3ptr60drop_in_place$LT$alloc..sync..Arc$LT$std..path..Path$GT$$GT$17ha19aecb901dba068E.exit9.i.i", !dbg !3540

bb2.i.i7.i.i:                                     ; preds = %bb3.i.i
  fence acquire, !dbg !3541
; invoke alloc::sync::Arc<T,A>::drop_slow
  invoke void @"_ZN5alloc4sync16Arc$LT$T$C$A$GT$9drop_slow17hc4aa5653d7cc5847E"(ptr noalias noundef nonnull align 8 dereferenceable(16) %_4.i.i)
          to label %"_ZN4core3ptr60drop_in_place$LT$alloc..sync..Arc$LT$std..path..Path$GT$$GT$17ha19aecb901dba068E.exit9.i.i" unwind label %terminate.i.i, !dbg !3542

"_ZN4core3ptr60drop_in_place$LT$alloc..sync..Arc$LT$std..path..Path$GT$$GT$17ha19aecb901dba068E.exit9.i.i": ; preds = %bb2.i.i7.i.i, %bb3.i.i
  %_5.i.i = icmp eq i64 %6, %_1.val1, !dbg !3470
  br i1 %_5.i.i, label %cleanup.body, label %bb3.i.i, !dbg !3470

terminate.i.i:                                    ; preds = %bb2.i.i7.i.i
  %9 = landingpad { ptr, i32 }
          filter [0 x ptr] zeroinitializer
; call core::panicking::panic_in_cleanup
  tail call void @_ZN4core9panicking16panic_in_cleanup17h8f68387bb6cbbf54E() #17, !dbg !3470
  unreachable, !dbg !3470

cleanup.body:                                     ; preds = %"_ZN4core3ptr60drop_in_place$LT$alloc..sync..Arc$LT$std..path..Path$GT$$GT$17ha19aecb901dba068E.exit9.i.i", %cleanup.i.i
  %_1.val2 = load i64, ptr %_1, align 8, !dbg !3450, !range !1520, !noundef !23
    #dbg_value(ptr poison, !3543, !DIExpression(), !3551)
    #dbg_value(ptr poison, !3553, !DIExpression(), !3559)
    #dbg_value(ptr poison, !2429, !DIExpression(), !3561)
    #dbg_value(i64 8, !2436, !DIExpression(DW_OP_LLVM_fragment, 0, 64), !3561)
    #dbg_value(i64 16, !2436, !DIExpression(DW_OP_LLVM_fragment, 64, 64), !3561)
    #dbg_value(i64 8, !2442, !DIExpression(DW_OP_LLVM_fragment, 0, 64), !3563)
    #dbg_value(i64 16, !2442, !DIExpression(DW_OP_LLVM_fragment, 64, 64), !3563)
    #dbg_value(ptr poison, !2465, !DIExpression(), !3563)
    #dbg_value(i64 16, !2472, !DIExpression(), !3565)
  %10 = icmp eq i64 %_1.val2, 0, !dbg !3567
  br i1 %10, label %bb1, label %bb2.i.i.i, !dbg !3567

bb2.i.i.i:                                        ; preds = %cleanup.body
    #dbg_value(i64 %_1.val2, !2479, !DIExpression(), !3565)
  %11 = shl nuw i64 %_1.val2, 4, !dbg !3568
    #dbg_value(ptr %_1.val, !2437, !DIExpression(), !3569)
    #dbg_value(i64 8, !2439, !DIExpression(DW_OP_LLVM_fragment, 0, 64), !3569)
    #dbg_value(i64 %11, !2439, !DIExpression(DW_OP_LLVM_fragment, 64, 64), !3569)
    #dbg_value(i64 8, !2485, !DIExpression(DW_OP_LLVM_fragment, 0, 64), !3570)
    #dbg_value(i64 %11, !2485, !DIExpression(DW_OP_LLVM_fragment, 64, 64), !3570)
    #dbg_value(ptr poison, !2490, !DIExpression(), !3570)
    #dbg_value(ptr %_1.val, !2491, !DIExpression(), !3570)
    #dbg_value(ptr %_1.val, !2494, !DIExpression(), !3572)
    #dbg_value(i64 8, !2499, !DIExpression(DW_OP_LLVM_fragment, 0, 64), !3572)
    #dbg_value(i64 %11, !2499, !DIExpression(DW_OP_LLVM_fragment, 64, 64), !3572)
; call __rustc::__rust_dealloc
  tail call void @_RNvCsj3IbkTTFM3W_7___rustc14___rust_dealloc(ptr noundef nonnull %_1.val, i64 noundef %11, i64 noundef range(i64 1, -9223372036854775807) 8) #16, !dbg !3574
  br label %bb1, !dbg !3575

bb4:                                              ; preds = %"_ZN4core3ptr60drop_in_place$LT$alloc..sync..Arc$LT$std..path..Path$GT$$GT$17ha19aecb901dba068E.exit.i.i", %start
  %_1.val4 = load i64, ptr %_1, align 8, !dbg !3450, !range !1520, !noundef !23
    #dbg_value(ptr poison, !3543, !DIExpression(), !3576)
    #dbg_value(ptr poison, !3553, !DIExpression(), !3578)
    #dbg_value(ptr poison, !2429, !DIExpression(), !3580)
    #dbg_value(i64 8, !2436, !DIExpression(DW_OP_LLVM_fragment, 0, 64), !3580)
    #dbg_value(i64 16, !2436, !DIExpression(DW_OP_LLVM_fragment, 64, 64), !3580)
    #dbg_value(i64 8, !2442, !DIExpression(DW_OP_LLVM_fragment, 0, 64), !3582)
    #dbg_value(i64 16, !2442, !DIExpression(DW_OP_LLVM_fragment, 64, 64), !3582)
    #dbg_value(ptr poison, !2465, !DIExpression(), !3582)
    #dbg_value(i64 16, !2472, !DIExpression(), !3584)
  %12 = icmp eq i64 %_1.val4, 0, !dbg !3586
  br i1 %12, label %"_ZN4core3ptr90drop_in_place$LT$alloc..raw_vec..RawVec$LT$alloc..sync..Arc$LT$std..path..Path$GT$$GT$$GT$17h94092e5430a52918E.exit7", label %bb2.i.i.i6, !dbg !3586

bb2.i.i.i6:                                       ; preds = %bb4
    #dbg_value(i64 %_1.val4, !2479, !DIExpression(), !3584)
  %13 = shl nuw i64 %_1.val4, 4, !dbg !3587
    #dbg_value(ptr %_1.val, !2437, !DIExpression(), !3588)
    #dbg_value(i64 8, !2439, !DIExpression(DW_OP_LLVM_fragment, 0, 64), !3588)
    #dbg_value(i64 %13, !2439, !DIExpression(DW_OP_LLVM_fragment, 64, 64), !3588)
    #dbg_value(i64 8, !2485, !DIExpression(DW_OP_LLVM_fragment, 0, 64), !3589)
    #dbg_value(i64 %13, !2485, !DIExpression(DW_OP_LLVM_fragment, 64, 64), !3589)
    #dbg_value(ptr poison, !2490, !DIExpression(), !3589)
    #dbg_value(ptr %_1.val, !2491, !DIExpression(), !3589)
    #dbg_value(ptr %_1.val, !2494, !DIExpression(), !3591)
    #dbg_value(i64 8, !2499, !DIExpression(DW_OP_LLVM_fragment, 0, 64), !3591)
    #dbg_value(i64 %13, !2499, !DIExpression(DW_OP_LLVM_fragment, 64, 64), !3591)
; call __rustc::__rust_dealloc
  tail call void @_RNvCsj3IbkTTFM3W_7___rustc14___rust_dealloc(ptr noundef nonnull %_1.val, i64 noundef %13, i64 noundef range(i64 1, -9223372036854775807) 8) #16, !dbg !3593
  br label %"_ZN4core3ptr90drop_in_place$LT$alloc..raw_vec..RawVec$LT$alloc..sync..Arc$LT$std..path..Path$GT$$GT$$GT$17h94092e5430a52918E.exit7", !dbg !3594

"_ZN4core3ptr90drop_in_place$LT$alloc..raw_vec..RawVec$LT$alloc..sync..Arc$LT$std..path..Path$GT$$GT$$GT$17h94092e5430a52918E.exit7": ; preds = %bb4, %bb2.i.i.i6
  ret void, !dbg !3450

bb1:                                              ; preds = %bb2.i.i.i, %cleanup.body
  resume { ptr, i32 } %5, !dbg !3450
}

; core::ptr::drop_in_place<alloc::vec::Vec<alloc::sync::Arc<std::ffi::os_str::OsStr>>>
; Function Attrs: nonlazybind uwtable
define internal fastcc void @"_ZN4core3ptr91drop_in_place$LT$alloc..vec..Vec$LT$alloc..sync..Arc$LT$std..ffi..os_str..OsStr$GT$$GT$$GT$17h257dfeb142110893E"(ptr noalias noundef nonnull readonly align 8 captures(none) dereferenceable(24) %_1) unnamed_addr #0 personality ptr @rust_eh_personality !dbg !3595 {
start:
    #dbg_value(ptr %_1, !3600, !DIExpression(), !3603)
  %0 = getelementptr inbounds nuw i8, ptr %_1, i64 8, !dbg !3604
  %_1.val = load ptr, ptr %0, align 8, !dbg !3604, !nonnull !23, !noundef !23
  %1 = getelementptr inbounds nuw i8, ptr %_1, i64 16, !dbg !3604
  %_1.val1 = load i64, ptr %1, align 8, !dbg !3604, !noundef !23
    #dbg_value(ptr poison, !3605, !DIExpression(), !3611)
    #dbg_value(ptr %_1.val, !3613, !DIExpression(DW_OP_LLVM_fragment, 0, 64), !3623)
    #dbg_value(i64 %_1.val1, !3613, !DIExpression(DW_OP_LLVM_fragment, 64, 64), !3623)
  %_710.i.i = icmp eq i64 %_1.val1, 0, !dbg !3625
  br i1 %_710.i.i, label %bb4, label %bb5.i.i, !dbg !3625

bb5.i.i:                                          ; preds = %start, %"_ZN4core3ptr68drop_in_place$LT$alloc..sync..Arc$LT$std..ffi..os_str..OsStr$GT$$GT$17h5622447909d9bf00E.exit.i.i"
  %_3.sroa.0.011.i.i = phi i64 [ %2, %"_ZN4core3ptr68drop_in_place$LT$alloc..sync..Arc$LT$std..ffi..os_str..OsStr$GT$$GT$17h5622447909d9bf00E.exit.i.i" ], [ 0, %start ]
  %_6.i.i = getelementptr inbounds nuw %"alloc::sync::Arc<std::ffi::os_str::OsStr>", ptr %_1.val, i64 %_3.sroa.0.011.i.i, !dbg !3625
  %2 = add nuw i64 %_3.sroa.0.011.i.i, 1, !dbg !3625
  tail call void @llvm.experimental.noalias.scope.decl(metadata !3626), !dbg !3625
    #dbg_value(ptr %_6.i.i, !2175, !DIExpression(), !3629)
  tail call void @llvm.experimental.noalias.scope.decl(metadata !3631), !dbg !3634
    #dbg_value(ptr %_6.i.i, !2187, !DIExpression(), !3635)
    #dbg_value(ptr %_6.i.i, !2195, !DIExpression(), !3637)
    #dbg_value(i64 1, !2208, !DIExpression(), !3639)
    #dbg_value(i8 1, !2212, !DIExpression(), !3639)
    #dbg_value(i64 1, !2215, !DIExpression(), !3641)
    #dbg_value(i8 1, !2219, !DIExpression(), !3641)
    #dbg_value(i8 2, !2222, !DIExpression(), !3643)
  %_10.0.i.i.i.i = load ptr, ptr %_6.i.i, align 8, !dbg !3645, !alias.scope !3647, !nonnull !23, !noundef !23
    #dbg_value(ptr %_10.0.i.i.i.i, !2211, !DIExpression(), !3639)
    #dbg_value(ptr %_10.0.i.i.i.i, !2218, !DIExpression(), !3641)
  %3 = atomicrmw sub ptr %_10.0.i.i.i.i, i64 1 release, align 8, !dbg !3650, !noalias !3651
  %4 = icmp eq i64 %3, 1, !dbg !3652
  br i1 %4, label %bb2.i.i.i.i, label %"_ZN4core3ptr68drop_in_place$LT$alloc..sync..Arc$LT$std..ffi..os_str..OsStr$GT$$GT$17h5622447909d9bf00E.exit.i.i", !dbg !3652

bb2.i.i.i.i:                                      ; preds = %bb5.i.i
  fence acquire, !dbg !3653
; invoke alloc::sync::Arc<T,A>::drop_slow
  invoke void @"_ZN5alloc4sync16Arc$LT$T$C$A$GT$9drop_slow17hbf12b01ed7716fa7E"(ptr noalias noundef nonnull align 8 dereferenceable(16) %_6.i.i)
          to label %"_ZN4core3ptr68drop_in_place$LT$alloc..sync..Arc$LT$std..ffi..os_str..OsStr$GT$$GT$17h5622447909d9bf00E.exit.i.i" unwind label %cleanup.i.i, !dbg !3654

"_ZN4core3ptr68drop_in_place$LT$alloc..sync..Arc$LT$std..ffi..os_str..OsStr$GT$$GT$17h5622447909d9bf00E.exit.i.i": ; preds = %bb2.i.i.i.i, %bb5.i.i
  %_7.i.i = icmp eq i64 %2, %_1.val1, !dbg !3625
  br i1 %_7.i.i, label %bb4, label %bb5.i.i, !dbg !3625

cleanup.i.i:                                      ; preds = %bb2.i.i.i.i
  %5 = landingpad { ptr, i32 }
          cleanup
  %_512.i.i = icmp eq i64 %2, %_1.val1, !dbg !3625
  br i1 %_512.i.i, label %cleanup.body, label %bb3.i.i, !dbg !3625

bb3.i.i:                                          ; preds = %cleanup.i.i, %"_ZN4core3ptr68drop_in_place$LT$alloc..sync..Arc$LT$std..ffi..os_str..OsStr$GT$$GT$17h5622447909d9bf00E.exit9.i.i"
  %_3.sroa.0.113.i.i = phi i64 [ %6, %"_ZN4core3ptr68drop_in_place$LT$alloc..sync..Arc$LT$std..ffi..os_str..OsStr$GT$$GT$17h5622447909d9bf00E.exit9.i.i" ], [ %2, %cleanup.i.i ]
  %_4.i.i = getelementptr inbounds nuw %"alloc::sync::Arc<std::ffi::os_str::OsStr>", ptr %_1.val, i64 %_3.sroa.0.113.i.i, !dbg !3625
  %6 = add i64 %_3.sroa.0.113.i.i, 1, !dbg !3625
  tail call void @llvm.experimental.noalias.scope.decl(metadata !3655), !dbg !3625
    #dbg_value(ptr %_4.i.i, !2175, !DIExpression(), !3658)
  tail call void @llvm.experimental.noalias.scope.decl(metadata !3660), !dbg !3663
    #dbg_value(ptr %_4.i.i, !2187, !DIExpression(), !3664)
    #dbg_value(ptr %_4.i.i, !2195, !DIExpression(), !3666)
    #dbg_value(i64 1, !2208, !DIExpression(), !3668)
    #dbg_value(i8 1, !2212, !DIExpression(), !3668)
    #dbg_value(i64 1, !2215, !DIExpression(), !3670)
    #dbg_value(i8 1, !2219, !DIExpression(), !3670)
    #dbg_value(i8 2, !2222, !DIExpression(), !3672)
  %_10.0.i.i6.i.i = load ptr, ptr %_4.i.i, align 8, !dbg !3674, !alias.scope !3676, !nonnull !23, !noundef !23
    #dbg_value(ptr %_10.0.i.i6.i.i, !2211, !DIExpression(), !3668)
    #dbg_value(ptr %_10.0.i.i6.i.i, !2218, !DIExpression(), !3670)
  %7 = atomicrmw sub ptr %_10.0.i.i6.i.i, i64 1 release, align 8, !dbg !3677, !noalias !3678
  %8 = icmp eq i64 %7, 1, !dbg !3679
  br i1 %8, label %bb2.i.i7.i.i, label %"_ZN4core3ptr68drop_in_place$LT$alloc..sync..Arc$LT$std..ffi..os_str..OsStr$GT$$GT$17h5622447909d9bf00E.exit9.i.i", !dbg !3679

bb2.i.i7.i.i:                                     ; preds = %bb3.i.i
  fence acquire, !dbg !3680
; invoke alloc::sync::Arc<T,A>::drop_slow
  invoke void @"_ZN5alloc4sync16Arc$LT$T$C$A$GT$9drop_slow17hbf12b01ed7716fa7E"(ptr noalias noundef nonnull align 8 dereferenceable(16) %_4.i.i)
          to label %"_ZN4core3ptr68drop_in_place$LT$alloc..sync..Arc$LT$std..ffi..os_str..OsStr$GT$$GT$17h5622447909d9bf00E.exit9.i.i" unwind label %terminate.i.i, !dbg !3681

"_ZN4core3ptr68drop_in_place$LT$alloc..sync..Arc$LT$std..ffi..os_str..OsStr$GT$$GT$17h5622447909d9bf00E.exit9.i.i": ; preds = %bb2.i.i7.i.i, %bb3.i.i
  %_5.i.i = icmp eq i64 %6, %_1.val1, !dbg !3625
  br i1 %_5.i.i, label %cleanup.body, label %bb3.i.i, !dbg !3625

terminate.i.i:                                    ; preds = %bb2.i.i7.i.i
  %9 = landingpad { ptr, i32 }
          filter [0 x ptr] zeroinitializer
; call core::panicking::panic_in_cleanup
  tail call void @_ZN4core9panicking16panic_in_cleanup17h8f68387bb6cbbf54E() #17, !dbg !3625
  unreachable, !dbg !3625

cleanup.body:                                     ; preds = %"_ZN4core3ptr68drop_in_place$LT$alloc..sync..Arc$LT$std..ffi..os_str..OsStr$GT$$GT$17h5622447909d9bf00E.exit9.i.i", %cleanup.i.i
  %_1.val2 = load i64, ptr %_1, align 8, !dbg !3604, !range !1520, !noundef !23
    #dbg_value(ptr poison, !3682, !DIExpression(), !3690)
    #dbg_value(ptr poison, !3692, !DIExpression(), !3698)
    #dbg_value(ptr poison, !2429, !DIExpression(), !3700)
    #dbg_value(i64 8, !2436, !DIExpression(DW_OP_LLVM_fragment, 0, 64), !3700)
    #dbg_value(i64 16, !2436, !DIExpression(DW_OP_LLVM_fragment, 64, 64), !3700)
    #dbg_value(i64 8, !2442, !DIExpression(DW_OP_LLVM_fragment, 0, 64), !3702)
    #dbg_value(i64 16, !2442, !DIExpression(DW_OP_LLVM_fragment, 64, 64), !3702)
    #dbg_value(ptr poison, !2465, !DIExpression(), !3702)
    #dbg_value(i64 16, !2472, !DIExpression(), !3704)
  %10 = icmp eq i64 %_1.val2, 0, !dbg !3706
  br i1 %10, label %bb1, label %bb2.i.i.i, !dbg !3706

bb2.i.i.i:                                        ; preds = %cleanup.body
    #dbg_value(i64 %_1.val2, !2479, !DIExpression(), !3704)
  %11 = shl nuw i64 %_1.val2, 4, !dbg !3707
    #dbg_value(ptr %_1.val, !2437, !DIExpression(), !3708)
    #dbg_value(i64 8, !2439, !DIExpression(DW_OP_LLVM_fragment, 0, 64), !3708)
    #dbg_value(i64 %11, !2439, !DIExpression(DW_OP_LLVM_fragment, 64, 64), !3708)
    #dbg_value(i64 8, !2485, !DIExpression(DW_OP_LLVM_fragment, 0, 64), !3709)
    #dbg_value(i64 %11, !2485, !DIExpression(DW_OP_LLVM_fragment, 64, 64), !3709)
    #dbg_value(ptr poison, !2490, !DIExpression(), !3709)
    #dbg_value(ptr %_1.val, !2491, !DIExpression(), !3709)
    #dbg_value(ptr %_1.val, !2494, !DIExpression(), !3711)
    #dbg_value(i64 8, !2499, !DIExpression(DW_OP_LLVM_fragment, 0, 64), !3711)
    #dbg_value(i64 %11, !2499, !DIExpression(DW_OP_LLVM_fragment, 64, 64), !3711)
; call __rustc::__rust_dealloc
  tail call void @_RNvCsj3IbkTTFM3W_7___rustc14___rust_dealloc(ptr noundef nonnull %_1.val, i64 noundef %11, i64 noundef range(i64 1, -9223372036854775807) 8) #16, !dbg !3713
  br label %bb1, !dbg !3714

bb4:                                              ; preds = %"_ZN4core3ptr68drop_in_place$LT$alloc..sync..Arc$LT$std..ffi..os_str..OsStr$GT$$GT$17h5622447909d9bf00E.exit.i.i", %start
  %_1.val4 = load i64, ptr %_1, align 8, !dbg !3604, !range !1520, !noundef !23
    #dbg_value(ptr poison, !3682, !DIExpression(), !3715)
    #dbg_value(ptr poison, !3692, !DIExpression(), !3717)
    #dbg_value(ptr poison, !2429, !DIExpression(), !3719)
    #dbg_value(i64 8, !2436, !DIExpression(DW_OP_LLVM_fragment, 0, 64), !3719)
    #dbg_value(i64 16, !2436, !DIExpression(DW_OP_LLVM_fragment, 64, 64), !3719)
    #dbg_value(i64 8, !2442, !DIExpression(DW_OP_LLVM_fragment, 0, 64), !3721)
    #dbg_value(i64 16, !2442, !DIExpression(DW_OP_LLVM_fragment, 64, 64), !3721)
    #dbg_value(ptr poison, !2465, !DIExpression(), !3721)
    #dbg_value(i64 16, !2472, !DIExpression(), !3723)
  %12 = icmp eq i64 %_1.val4, 0, !dbg !3725
  br i1 %12, label %"_ZN4core3ptr98drop_in_place$LT$alloc..raw_vec..RawVec$LT$alloc..sync..Arc$LT$std..ffi..os_str..OsStr$GT$$GT$$GT$17hd81e9a277245165eE.exit7", label %bb2.i.i.i6, !dbg !3725

bb2.i.i.i6:                                       ; preds = %bb4
    #dbg_value(i64 %_1.val4, !2479, !DIExpression(), !3723)
  %13 = shl nuw i64 %_1.val4, 4, !dbg !3726
    #dbg_value(ptr %_1.val, !2437, !DIExpression(), !3727)
    #dbg_value(i64 8, !2439, !DIExpression(DW_OP_LLVM_fragment, 0, 64), !3727)
    #dbg_value(i64 %13, !2439, !DIExpression(DW_OP_LLVM_fragment, 64, 64), !3727)
    #dbg_value(i64 8, !2485, !DIExpression(DW_OP_LLVM_fragment, 0, 64), !3728)
    #dbg_value(i64 %13, !2485, !DIExpression(DW_OP_LLVM_fragment, 64, 64), !3728)
    #dbg_value(ptr poison, !2490, !DIExpression(), !3728)
    #dbg_value(ptr %_1.val, !2491, !DIExpression(), !3728)
    #dbg_value(ptr %_1.val, !2494, !DIExpression(), !3730)
    #dbg_value(i64 8, !2499, !DIExpression(DW_OP_LLVM_fragment, 0, 64), !3730)
    #dbg_value(i64 %13, !2499, !DIExpression(DW_OP_LLVM_fragment, 64, 64), !3730)
; call __rustc::__rust_dealloc
  tail call void @_RNvCsj3IbkTTFM3W_7___rustc14___rust_dealloc(ptr noundef nonnull %_1.val, i64 noundef %13, i64 noundef range(i64 1, -9223372036854775807) 8) #16, !dbg !3732
  br label %"_ZN4core3ptr98drop_in_place$LT$alloc..raw_vec..RawVec$LT$alloc..sync..Arc$LT$std..ffi..os_str..OsStr$GT$$GT$$GT$17hd81e9a277245165eE.exit7", !dbg !3733

"_ZN4core3ptr98drop_in_place$LT$alloc..raw_vec..RawVec$LT$alloc..sync..Arc$LT$std..ffi..os_str..OsStr$GT$$GT$$GT$17hd81e9a277245165eE.exit7": ; preds = %bb4, %bb2.i.i.i6
  ret void, !dbg !3604

bb1:                                              ; preds = %bb2.i.i.i, %cleanup.body
  resume { ptr, i32 } %5, !dbg !3604
}

; alloc::raw_vec::finish_grow
; Function Attrs: cold nounwind nonlazybind uwtable
define internal fastcc void @_ZN5alloc7raw_vec11finish_grow17h9362ef4599ffc6bfE(ptr dead_on_unwind noalias noundef nonnull writable writeonly align 8 captures(none) dereferenceable(24) initializes((0, 24)) %_0, i64 noundef range(i64 1, -9223372036854775807) %0, i64 noundef %1, ptr dead_on_return noalias noundef nonnull readonly align 8 captures(none) dereferenceable(24) %current_memory) unnamed_addr #3 !dbg !3734 {
start:
    #dbg_value(ptr poison, !3785, !DIExpression(), !3803)
    #dbg_value(i64 %0, !3770, !DIExpression(DW_OP_LLVM_fragment, 0, 64), !3805)
    #dbg_value(i64 %1, !3770, !DIExpression(DW_OP_LLVM_fragment, 64, 64), !3805)
    #dbg_declare(ptr %current_memory, !3771, !DIExpression(), !3806)
    #dbg_value(ptr poison, !3772, !DIExpression(), !3805)
  %2 = getelementptr inbounds nuw i8, ptr %current_memory, i64 8, !dbg !3807
  %3 = load i64, ptr %2, align 8, !dbg !3807, !range !3808, !noundef !23
  %.not = icmp eq i64 %3, 0, !dbg !3807
  br i1 %.not, label %bb3, label %bb1, !dbg !3809

bb1:                                              ; preds = %start
  %ptr = load ptr, ptr %current_memory, align 8, !dbg !3810, !nonnull !23, !noundef !23
    #dbg_value(ptr %ptr, !3775, !DIExpression(), !3811)
  %4 = getelementptr inbounds nuw i8, ptr %current_memory, i64 16, !dbg !3812
  %5 = load i64, ptr %4, align 8, !dbg !3812, !noundef !23
    #dbg_value(i64 %3, !3777, !DIExpression(DW_OP_LLVM_fragment, 0, 64), !3811)
    #dbg_value(i64 %5, !3777, !DIExpression(DW_OP_LLVM_fragment, 64, 64), !3811)
  %cond = icmp eq i64 %3, %0, !dbg !3813
    #dbg_value(i1 true, !3814, !DIExpression(DW_OP_LLVM_convert, 1, DW_ATE_unsigned, DW_OP_LLVM_convert, 8, DW_ATE_unsigned, DW_OP_stack_value), !3819)
  tail call void @llvm.assume(i1 %cond), !dbg !3821
    #dbg_value(ptr poison, !3822, !DIExpression(), !3830)
    #dbg_value(ptr %ptr, !3827, !DIExpression(), !3830)
    #dbg_value(i64 %3, !3828, !DIExpression(DW_OP_LLVM_fragment, 0, 64), !3830)
    #dbg_value(i64 %5, !3828, !DIExpression(DW_OP_LLVM_fragment, 64, 64), !3830)
    #dbg_value(i64 %0, !3829, !DIExpression(DW_OP_LLVM_fragment, 0, 64), !3830)
    #dbg_value(i64 %1, !3829, !DIExpression(DW_OP_LLVM_fragment, 64, 64), !3830)
    #dbg_value(ptr poison, !3832, !DIExpression(), !3863)
    #dbg_value(i64 %3, !3841, !DIExpression(DW_OP_LLVM_fragment, 0, 64), !3865)
    #dbg_value(i64 %5, !3841, !DIExpression(DW_OP_LLVM_fragment, 64, 64), !3865)
    #dbg_value(i64 %0, !3842, !DIExpression(DW_OP_LLVM_fragment, 0, 64), !3865)
    #dbg_value(i64 %1, !3842, !DIExpression(DW_OP_LLVM_fragment, 64, 64), !3865)
    #dbg_value(ptr poison, !3839, !DIExpression(), !3865)
    #dbg_value(ptr %ptr, !3840, !DIExpression(), !3865)
    #dbg_value(i1 false, !3843, !DIExpression(DW_OP_LLVM_convert, 1, DW_ATE_unsigned, DW_OP_LLVM_convert, 8, DW_ATE_unsigned, DW_OP_stack_value), !3865)
    #dbg_value(i64 %5, !3844, !DIExpression(), !3863)
  %6 = icmp eq i64 %5, 0, !dbg !3866
  br i1 %6, label %bb2.i.i, label %bb3.i.i, !dbg !3866

bb2.i.i:                                          ; preds = %bb1
    #dbg_value(ptr poison, !1291, !DIExpression(), !3867)
    #dbg_value(i64 %0, !1306, !DIExpression(DW_OP_LLVM_fragment, 0, 64), !3870)
    #dbg_value(i64 %1, !1306, !DIExpression(DW_OP_LLVM_fragment, 64, 64), !3870)
    #dbg_value(ptr poison, !1305, !DIExpression(), !3870)
    #dbg_value(i1 false, !1307, !DIExpression(DW_OP_LLVM_convert, 1, DW_ATE_unsigned, DW_OP_LLVM_convert, 8, DW_ATE_unsigned, DW_OP_stack_value), !3870)
    #dbg_value(i64 %1, !1308, !DIExpression(), !3871)
  %7 = icmp eq i64 %1, 0, !dbg !3872
  br i1 %7, label %bb2.i.i.i, label %bb4.i.i.i, !dbg !3872

bb2.i.i.i:                                        ; preds = %bb2.i.i
    #dbg_value(ptr undef, !1291, !DIExpression(), !3867)
  %_20.i.i.i = inttoptr i64 %0 to ptr, !dbg !3873
  br label %bb8, !dbg !3876

bb4.i.i.i:                                        ; preds = %bb2.i.i
    #dbg_value(i64 %0, !1358, !DIExpression(DW_OP_LLVM_fragment, 0, 64), !3877)
    #dbg_value(i64 %1, !1358, !DIExpression(DW_OP_LLVM_fragment, 64, 64), !3877)
; call __rustc::__rust_no_alloc_shim_is_unstable_v2
  tail call void @_RNvCsj3IbkTTFM3W_7___rustc35___rust_no_alloc_shim_is_unstable_v2() #16, !dbg !3879
; call __rustc::__rust_alloc
  %8 = tail call noundef ptr @_RNvCsj3IbkTTFM3W_7___rustc12___rust_alloc(i64 noundef %1, i64 noundef range(i64 1, -9223372036854775807) %0) #16, !dbg !3880
    #dbg_value(ptr %8, !1310, !DIExpression(), !3881)
    #dbg_value(ptr %8, !1373, !DIExpression(), !3882)
  br label %bb5, !dbg !3884

bb3.i.i:                                          ; preds = %bb1
    #dbg_value(ptr undef, !3832, !DIExpression(), !3863)
    #dbg_value(i64 %1, !3845, !DIExpression(), !3885)
  %cond.i.i = icmp uge i64 %1, %5, !dbg !3886
    #dbg_value(i1 true, !3887, !DIExpression(DW_OP_LLVM_convert, 1, DW_ATE_unsigned, DW_OP_LLVM_convert, 8, DW_ATE_unsigned, DW_OP_stack_value), !3890)
  tail call void @llvm.assume(i1 %cond.i.i), !dbg !3892
    #dbg_value(ptr %ptr, !3893, !DIExpression(), !3900)
    #dbg_value(i64 %3, !3898, !DIExpression(DW_OP_LLVM_fragment, 0, 64), !3900)
    #dbg_value(i64 %5, !3898, !DIExpression(DW_OP_LLVM_fragment, 64, 64), !3900)
    #dbg_value(i64 %1, !3899, !DIExpression(), !3900)
; call __rustc::__rust_realloc
  %9 = tail call noundef ptr @_RNvCsj3IbkTTFM3W_7___rustc14___rust_realloc(ptr noundef nonnull %ptr, i64 noundef %5, i64 noundef range(i64 1, -9223372036854775807) %0, i64 noundef %1) #16, !dbg !3902
    #dbg_value(ptr %9, !3847, !DIExpression(), !3903)
    #dbg_value(ptr %9, !3904, !DIExpression(), !3907)
  br label %bb5, !dbg !3909

bb3:                                              ; preds = %start
    #dbg_value(ptr poison, !3910, !DIExpression(), !3914)
    #dbg_value(i64 %0, !3913, !DIExpression(DW_OP_LLVM_fragment, 0, 64), !3914)
    #dbg_value(i64 %1, !3913, !DIExpression(DW_OP_LLVM_fragment, 64, 64), !3914)
    #dbg_value(ptr poison, !1291, !DIExpression(), !3916)
    #dbg_value(i64 %0, !1306, !DIExpression(DW_OP_LLVM_fragment, 0, 64), !3919)
    #dbg_value(i64 %1, !1306, !DIExpression(DW_OP_LLVM_fragment, 64, 64), !3919)
    #dbg_value(ptr poison, !1305, !DIExpression(), !3919)
    #dbg_value(i1 false, !1307, !DIExpression(DW_OP_LLVM_convert, 1, DW_ATE_unsigned, DW_OP_LLVM_convert, 8, DW_ATE_unsigned, DW_OP_stack_value), !3919)
    #dbg_value(i64 %1, !1308, !DIExpression(), !3920)
  %10 = icmp eq i64 %1, 0, !dbg !3921
  br i1 %10, label %bb2.i.i12, label %bb4.i.i10, !dbg !3921

bb2.i.i12:                                        ; preds = %bb3
    #dbg_value(ptr undef, !1291, !DIExpression(), !3916)
  %_20.i.i = inttoptr i64 %0 to ptr, !dbg !3922
  br label %bb8, !dbg !3925

bb4.i.i10:                                        ; preds = %bb3
    #dbg_value(i64 %0, !1358, !DIExpression(DW_OP_LLVM_fragment, 0, 64), !3926)
    #dbg_value(i64 %1, !1358, !DIExpression(DW_OP_LLVM_fragment, 64, 64), !3926)
; call __rustc::__rust_no_alloc_shim_is_unstable_v2
  tail call void @_RNvCsj3IbkTTFM3W_7___rustc35___rust_no_alloc_shim_is_unstable_v2() #16, !dbg !3928
; call __rustc::__rust_alloc
  %11 = tail call noundef ptr @_RNvCsj3IbkTTFM3W_7___rustc12___rust_alloc(i64 noundef %1, i64 noundef range(i64 1, -9223372036854775807) %0) #16, !dbg !3929
    #dbg_value(ptr %11, !1310, !DIExpression(), !3930)
    #dbg_value(ptr %11, !1373, !DIExpression(), !3931)
  br label %bb5, !dbg !3933

bb5:                                              ; preds = %bb4.i.i10, %bb3.i.i, %bb4.i.i.i
  %_0.sroa.0.0.i.i.pn = phi ptr [ %9, %bb3.i.i ], [ %8, %bb4.i.i.i ], [ %11, %bb4.i.i10 ]
    #dbg_value(ptr %_0.sroa.0.0.i.i.pn, !3773, !DIExpression(DW_OP_LLVM_fragment, 0, 64), !3934)
    #dbg_value(i64 poison, !3773, !DIExpression(DW_OP_LLVM_fragment, 64, 64), !3934)
    #dbg_value(ptr %_0.sroa.0.0.i.i.pn, !3798, !DIExpression(DW_OP_LLVM_fragment, 0, 64), !3803)
    #dbg_value(i64 poison, !3798, !DIExpression(DW_OP_LLVM_fragment, 64, 64), !3803)
    #dbg_value(ptr undef, !3785, !DIExpression(), !3803)
  %12 = icmp eq ptr %_0.sroa.0.0.i.i.pn, null, !dbg !3935
  %13 = inttoptr i64 %0 to ptr
  %spec.select = select i1 %12, ptr %13, ptr %_0.sroa.0.0.i.i.pn, !dbg !3936
  %spec.select6 = zext i1 %12 to i64, !dbg !3936
  br label %bb8, !dbg !3936

bb8:                                              ; preds = %bb5, %bb2.i.i12, %bb2.i.i.i
  %_0.sroa.0.0.i.i.pn.sink = phi ptr [ %_20.i.i, %bb2.i.i12 ], [ %_20.i.i.i, %bb2.i.i.i ], [ %spec.select, %bb5 ], !dbg !3803
  %storemerge = phi i64 [ 0, %bb2.i.i12 ], [ 0, %bb2.i.i.i ], [ %spec.select6, %bb5 ], !dbg !3803
  %14 = getelementptr inbounds nuw i8, ptr %_0, i64 8, !dbg !3803
  store ptr %_0.sroa.0.0.i.i.pn.sink, ptr %14, align 8, !dbg !3803
  %15 = getelementptr inbounds nuw i8, ptr %_0, i64 16, !dbg !3803
  store i64 %1, ptr %15, align 8, !dbg !3803
  store i64 %storemerge, ptr %_0, align 8, !dbg !3803
  ret void, !dbg !3937
}

; alloc::raw_vec::RawVec<T,A>::grow_one
; Function Attrs: noinline nonlazybind uwtable
define internal fastcc void @"_ZN5alloc7raw_vec19RawVec$LT$T$C$A$GT$8grow_one17he549eb5292caf699E"(ptr noalias noundef nonnull align 8 captures(none) dereferenceable(16) %self, ptr noalias noundef nonnull readonly align 8 captures(address, read_provenance) dereferenceable(24) %0) unnamed_addr #2 personality ptr @rust_eh_personality !dbg !3938 {
start:
  %_26.i = alloca [24 x i8], align 8
  %self5.i = alloca [24 x i8], align 8
    #dbg_value(ptr %self, !3943, !DIExpression(), !3944)
    #dbg_value(i64 8, !3945, !DIExpression(DW_OP_LLVM_fragment, 0, 64), !3954)
    #dbg_value(i64 16, !3945, !DIExpression(DW_OP_LLVM_fragment, 64, 64), !3954)
    #dbg_value(ptr %self, !3951, !DIExpression(), !3954)
  %self2 = load i64, ptr %self, align 8, !dbg !3956, !range !1520, !noundef !23
  tail call void @llvm.experimental.noalias.scope.decl(metadata !3957), !dbg !3960
    #dbg_value(i64 8, !3961, !DIExpression(DW_OP_LLVM_fragment, 0, 64), !4033)
    #dbg_value(i64 16, !3961, !DIExpression(DW_OP_LLVM_fragment, 64, 64), !4033)
    #dbg_value(ptr %self, !3981, !DIExpression(), !4033)
    #dbg_value(ptr %self, !4035, !DIExpression(), !4043)
    #dbg_value(i64 %self2, !3982, !DIExpression(), !4033)
    #dbg_value(i64 1, !3983, !DIExpression(), !4033)
    #dbg_declare(ptr %self5.i, !4045, !DIExpression(), !4072)
    #dbg_value(i64 %self2, !3984, !DIExpression(DW_OP_plus_uconst, 1, DW_OP_stack_value), !4074)
    #dbg_value(i64 %self2, !4075, !DIExpression(DW_OP_plus_uconst, 1, DW_OP_stack_value), !4083)
  %v116.i = shl nuw i64 %self2, 1, !dbg !4085
    #dbg_value(i64 %v116.i, !4082, !DIExpression(), !4083)
    #dbg_value(i64 %v116.i, !4086, !DIExpression(), !4093)
    #dbg_value(i64 %self2, !4090, !DIExpression(DW_OP_plus_uconst, 1, DW_OP_stack_value), !4093)
  %1 = icmp eq i64 %self2, 0, !dbg !4095
  %_0.sroa.0.0.i.i = select i1 %1, i64 1, i64 %v116.i, !dbg !4095
    #dbg_value(i64 %_0.sroa.0.0.i.i, !4004, !DIExpression(), !4096)
    #dbg_value(i64 %_0.sroa.0.0.i.i, !4075, !DIExpression(), !4097)
    #dbg_value(i64 4, !4082, !DIExpression(), !4097)
    #dbg_value(i64 4, !4086, !DIExpression(), !4099)
    #dbg_value(i64 %_0.sroa.0.0.i.i, !4090, !DIExpression(), !4099)
  %_0.sroa.0.0.i56.i = tail call noundef range(i64 0, -1) i64 @llvm.umax.i64(i64 range(i64 0, -1) %_0.sroa.0.0.i.i, i64 4), !dbg !4101
    #dbg_value(i64 %_0.sroa.0.0.i56.i, !4006, !DIExpression(), !4102)
    #dbg_value(i64 %_0.sroa.0.0.i56.i, !4103, !DIExpression(), !4124)
    #dbg_value(i64 %_0.sroa.0.0.i56.i, !4042, !DIExpression(), !4043)
    #dbg_value(i64 8, !4123, !DIExpression(DW_OP_LLVM_fragment, 0, 64), !4124)
    #dbg_value(i64 16, !4123, !DIExpression(DW_OP_LLVM_fragment, 64, 64), !4124)
    #dbg_value(ptr poison, !4126, !DIExpression(), !4157)
    #dbg_value(i64 %_0.sroa.0.0.i56.i, !4152, !DIExpression(), !4157)
    #dbg_value(i64 %_0.sroa.0.0.i56.i, !4159, !DIExpression(), !4182)
    #dbg_value(i64 %_0.sroa.0.0.i56.i, !4184, !DIExpression(), !4204)
    #dbg_value(i64 %_0.sroa.0.0.i56.i, !4206, !DIExpression(), !4216)
    #dbg_value(i64 16, !4200, !DIExpression(), !4204)
    #dbg_value(i64 16, !4215, !DIExpression(), !4216)
    #dbg_value(i64 16, !4153, !DIExpression(DW_OP_LLVM_fragment, 64, 64), !4218)
    #dbg_value(i64 8, !4153, !DIExpression(DW_OP_LLVM_fragment, 0, 64), !4218)
    #dbg_value(ptr undef, !4179, !DIExpression(), !4182)
  %_21.0.i.i = shl i64 %_0.sroa.0.0.i56.i, 4, !dbg !4219
  %_21.1.i.i = icmp ugt i64 %_0.sroa.0.0.i.i, 1152921504606846975, !dbg !4219
    #dbg_value(i1 %_21.1.i.i, !4203, !DIExpression(DW_OP_LLVM_convert, 1, DW_ATE_unsigned, DW_OP_LLVM_convert, 8, DW_ATE_unsigned, DW_OP_stack_value), !4220)
    #dbg_value(i1 %_21.1.i.i, !4221, !DIExpression(DW_OP_LLVM_convert, 1, DW_ATE_unsigned, DW_OP_LLVM_convert, 8, DW_ATE_unsigned, DW_OP_stack_value), !4228)
    #dbg_value(i64 %_21.0.i.i, !4180, !DIExpression(), !4230)
    #dbg_value(i64 %_21.0.i.i, !4201, !DIExpression(), !4220)
  %_26.i.i = icmp ugt i64 %_21.0.i.i, 9223372036854775800
  %or.cond.i.i = or i1 %_21.1.i.i, %_26.i.i, !dbg !4231
  br i1 %or.cond.i.i, label %bb2, label %bb22.i, !dbg !4231, !prof !4232

bb22.i:                                           ; preds = %start
    #dbg_value(i64 8, !4155, !DIExpression(DW_OP_LLVM_fragment, 0, 64), !4233)
    #dbg_value(i64 %_21.0.i.i, !4155, !DIExpression(DW_OP_LLVM_fragment, 64, 64), !4233)
    #dbg_value(i64 8, !4008, !DIExpression(DW_OP_LLVM_fragment, 0, 64), !4234)
    #dbg_value(i64 %_21.0.i.i, !4008, !DIExpression(DW_OP_LLVM_fragment, 64, 64), !4234)
  call void @llvm.lifetime.start.p0(i64 24, ptr nonnull %self5.i), !dbg !4235, !noalias !3957
  call void @llvm.lifetime.start.p0(i64 24, ptr nonnull %_26.i), !dbg !4236, !noalias !3957
  %2 = getelementptr inbounds nuw i8, ptr %self, i64 8, !dbg !4237
    #dbg_value(i64 8, !2442, !DIExpression(DW_OP_LLVM_fragment, 0, 64), !4238)
    #dbg_value(i64 16, !2442, !DIExpression(DW_OP_LLVM_fragment, 64, 64), !4238)
    #dbg_value(ptr poison, !2465, !DIExpression(), !4238)
    #dbg_value(i64 16, !2472, !DIExpression(), !4240)
  br i1 %1, label %"_ZN5alloc7raw_vec20RawVecInner$LT$A$GT$14current_memory17he51279d8cbca293dE.exit.i", label %bb4.i.i, !dbg !4242

bb4.i.i:                                          ; preds = %bb22.i
  %self.val55.i = load ptr, ptr %2, align 8, !dbg !4237, !alias.scope !3957, !nonnull !23, !noundef !23
    #dbg_value(i64 %self2, !2479, !DIExpression(), !4240)
  %3 = shl nuw i64 %self2, 4, !dbg !4243
    #dbg_value(i64 %3, !2466, !DIExpression(), !4244)
    #dbg_value(i64 8, !2468, !DIExpression(DW_OP_LLVM_fragment, 0, 64), !4245)
    #dbg_value(i64 %3, !2468, !DIExpression(DW_OP_LLVM_fragment, 64, 64), !4245)
  store ptr %self.val55.i, ptr %_26.i, align 8, !dbg !4246, !alias.scope !4247, !noalias !3957
  %_15.sroa.5.0._0.sroa_idx.i.i = getelementptr inbounds nuw i8, ptr %_26.i, i64 16, !dbg !4246
  store i64 %3, ptr %_15.sroa.5.0._0.sroa_idx.i.i, align 8, !dbg !4246, !alias.scope !4247, !noalias !3957
  br label %"_ZN5alloc7raw_vec20RawVecInner$LT$A$GT$14current_memory17he51279d8cbca293dE.exit.i", !dbg !4250

"_ZN5alloc7raw_vec20RawVecInner$LT$A$GT$14current_memory17he51279d8cbca293dE.exit.i": ; preds = %bb4.i.i, %bb22.i
  %.sink.i.i = phi i64 [ 8, %bb4.i.i ], [ 0, %bb22.i ], !dbg !4238
  %4 = getelementptr inbounds nuw i8, ptr %_26.i, i64 8, !dbg !4238
  store i64 %.sink.i.i, ptr %4, align 8, !dbg !4238, !alias.scope !4247, !noalias !3957
; call alloc::raw_vec::finish_grow
  call fastcc void @_ZN5alloc7raw_vec11finish_grow17h9362ef4599ffc6bfE(ptr noalias noundef align 8 captures(address) dereferenceable(24) %self5.i, i64 noundef 8, i64 noundef %_21.0.i.i, ptr noalias noundef readonly align 8 captures(address) dereferenceable(24) %_26.i), !dbg !4235, !noalias !3957
  call void @llvm.lifetime.end.p0(i64 24, ptr nonnull %_26.i), !dbg !4251, !noalias !3957
  %_53.i = load i64, ptr %self5.i, align 8, !dbg !4252, !range !2007, !noalias !3957, !noundef !23
  %5 = trunc nuw i64 %_53.i to i1, !dbg !4253
  %6 = getelementptr inbounds nuw i8, ptr %self5.i, i64 8, !dbg !4254
  br i1 %5, label %bb23.i, label %bb3, !dbg !4253

bb23.i:                                           ; preds = %"_ZN5alloc7raw_vec20RawVecInner$LT$A$GT$14current_memory17he51279d8cbca293dE.exit.i"
  %e.0.i = load i64, ptr %6, align 8, !dbg !4255, !range !3808, !noalias !3957, !noundef !23
  %7 = getelementptr inbounds nuw i8, ptr %self5.i, i64 16, !dbg !4255
  %e.1.i = load i64, ptr %7, align 8, !dbg !4255, !noalias !3957
  call void @llvm.lifetime.end.p0(i64 24, ptr nonnull %self5.i), !dbg !4256, !noalias !3957
  br label %bb2, !dbg !4257

bb2:                                              ; preds = %bb23.i, %start
  %_0.sroa.6.0.i.ph = phi i64 [ undef, %start ], [ %e.1.i, %bb23.i ]
  %_0.sroa.0.0.i.ph = phi i64 [ 0, %start ], [ %e.0.i, %bb23.i ]
    #dbg_value(i64 %_0.sroa.0.0.i.ph, !3952, !DIExpression(DW_OP_LLVM_fragment, 0, 64), !4259)
    #dbg_value(i64 %_0.sroa.6.0.i.ph, !3952, !DIExpression(DW_OP_LLVM_fragment, 64, 64), !4259)
; call alloc::raw_vec::handle_error
  tail call void @_ZN5alloc7raw_vec12handle_error17h44cc7051d170a168E(i64 noundef %_0.sroa.0.0.i.ph, i64 %_0.sroa.6.0.i.ph, ptr noalias noundef nonnull readonly align 8 captures(address, read_provenance) dereferenceable(24) %0) #19, !dbg !4260
  unreachable, !dbg !4260

bb3:                                              ; preds = %"_ZN5alloc7raw_vec20RawVecInner$LT$A$GT$14current_memory17he51279d8cbca293dE.exit.i"
  %v.025.i = load ptr, ptr %6, align 8, !dbg !4261, !noalias !3957, !nonnull !23, !noundef !23
  call void @llvm.lifetime.end.p0(i64 24, ptr nonnull %self5.i), !dbg !4256, !noalias !3957
    #dbg_value(ptr %v.025.i, !4027, !DIExpression(DW_OP_LLVM_fragment, 0, 64), !4262)
    #dbg_value(ptr %v.025.i, !4041, !DIExpression(DW_OP_LLVM_fragment, 0, 64), !4043)
    #dbg_value(i64 poison, !4027, !DIExpression(DW_OP_LLVM_fragment, 64, 64), !4262)
    #dbg_value(i64 poison, !4041, !DIExpression(DW_OP_LLVM_fragment, 64, 64), !4043)
  store ptr %v.025.i, ptr %2, align 8, !dbg !4263, !alias.scope !3957
  %8 = icmp sgt i64 %_0.sroa.0.0.i56.i, -1, !dbg !4264
  tail call void @llvm.assume(i1 %8), !dbg !4264
  store i64 %_0.sroa.0.0.i56.i, ptr %self, align 8, !dbg !4271, !alias.scope !3957
  ret void, !dbg !4272
}

; Function Attrs: nounwind nonlazybind uwtable
declare noundef range(i32 0, 10) i32 @rust_eh_personality(i32 noundef, i32 noundef, i64 noundef, ptr noundef, ptr noundef) unnamed_addr #4

; Function Attrs: mustprogress nocallback nofree nosync nounwind willreturn memory(argmem: readwrite)
declare void @llvm.lifetime.start.p0(i64 immarg, ptr captures(none)) #5

; cc::Build::new
; Function Attrs: nonlazybind uwtable
declare void @_ZN2cc5Build3new17h82707a2561c82f08E(ptr dead_on_unwind noalias noundef writable sret([472 x i8]) align 8 captures(address) dereferenceable(472)) unnamed_addr #0

; cc::Build::compile
; Function Attrs: nonlazybind uwtable
declare void @_ZN2cc5Build7compile17h4280cb8d92f8f164E(ptr noalias noundef readonly align 8 captures(address, read_provenance) dereferenceable(472), ptr noalias noundef nonnull readonly align 1 captures(address, read_provenance), i64 noundef) unnamed_addr #0

; Function Attrs: mustprogress nocallback nofree nosync nounwind willreturn memory(argmem: readwrite)
declare void @llvm.lifetime.end.p0(i64 immarg, ptr captures(none)) #5

; std::io::stdio::_print
; Function Attrs: nonlazybind uwtable
declare void @_ZN3std2io5stdio6_print17h02b5be036b2109f4E(ptr dead_on_return noalias noundef align 8 captures(address) dereferenceable(48)) unnamed_addr #0

; core::panicking::panic_in_cleanup
; Function Attrs: cold minsize noinline noreturn nounwind nonlazybind optsize uwtable
declare void @_ZN4core9panicking16panic_in_cleanup17h8f68387bb6cbbf54E() unnamed_addr #6

; Function Attrs: mustprogress nocallback nofree nosync nounwind willreturn memory(inaccessiblemem: write)
declare void @llvm.assume(i1 noundef) #7

; std::rt::lang_start_internal
; Function Attrs: nonlazybind uwtable
declare noundef i64 @_ZN3std2rt19lang_start_internal17hce2b8b328837374bE(ptr noundef nonnull align 1, ptr noalias noundef readonly align 8 captures(address, read_provenance) dereferenceable(48), i64 noundef, ptr noundef, i8 noundef) unnamed_addr #0

; Function Attrs: mustprogress nocallback nofree nounwind willreturn memory(argmem: readwrite)
declare void @llvm.memcpy.p0.p0.i64(ptr noalias writeonly captures(none), ptr noalias readonly captures(none), i64, i1 immarg) #8

; alloc::sync::arcinner_layout_for_value_layout
; Function Attrs: nonlazybind uwtable
declare { i64, i64 } @_ZN5alloc4sync32arcinner_layout_for_value_layout17hf49ba868461d8433E(i64 noundef range(i64 1, -9223372036854775807), i64 noundef) unnamed_addr #0

; alloc::alloc::handle_alloc_error
; Function Attrs: cold minsize noreturn nonlazybind optsize uwtable
declare void @_ZN5alloc5alloc18handle_alloc_error17h1a71ccc8de2526dcE(i64 noundef range(i64 1, -9223372036854775807), i64 noundef) unnamed_addr #9

; __rustc::__rust_no_alloc_shim_is_unstable_v2
; Function Attrs: nounwind nonlazybind uwtable
declare void @_RNvCsj3IbkTTFM3W_7___rustc35___rust_no_alloc_shim_is_unstable_v2() unnamed_addr #4

; __rustc::__rust_alloc
; Function Attrs: nounwind nonlazybind allockind("alloc,uninitialized,aligned") allocsize(0) uwtable
declare noalias noundef ptr @_RNvCsj3IbkTTFM3W_7___rustc12___rust_alloc(i64 noundef, i64 allocalign noundef) unnamed_addr #10

; __rustc::__rust_dealloc
; Function Attrs: nounwind nonlazybind allockind("free") uwtable
declare void @_RNvCsj3IbkTTFM3W_7___rustc14___rust_dealloc(ptr allocptr noundef, i64 noundef, i64 noundef) unnamed_addr #11

; __rustc::__rust_realloc
; Function Attrs: nounwind nonlazybind allockind("realloc,aligned") allocsize(3) uwtable
declare noalias noundef ptr @_RNvCsj3IbkTTFM3W_7___rustc14___rust_realloc(ptr allocptr noundef, i64 noundef, i64 allocalign noundef, i64 noundef) unnamed_addr #12

; alloc::raw_vec::handle_error
; Function Attrs: cold minsize noreturn nonlazybind optsize uwtable
declare void @_ZN5alloc7raw_vec12handle_error17h44cc7051d170a168E(i64 noundef range(i64 0, -9223372036854775807), i64, ptr noalias noundef readonly align 8 captures(address, read_provenance) dereferenceable(24)) unnamed_addr #9

; alloc::sync::Arc<T,A>::drop_slow
; Function Attrs: noinline nonlazybind uwtable
declare void @"_ZN5alloc4sync16Arc$LT$T$C$A$GT$9drop_slow17hbf12b01ed7716fa7E"(ptr noalias noundef align 8 dereferenceable(16)) unnamed_addr #2

; alloc::sync::Arc<T,A>::drop_slow
; Function Attrs: noinline nonlazybind uwtable
declare void @"_ZN5alloc4sync16Arc$LT$T$C$A$GT$9drop_slow17hbc25fce3e9353209E"(ptr noalias noundef align 8 dereferenceable(16)) unnamed_addr #2

; alloc::sync::Arc<T,A>::drop_slow
; Function Attrs: noinline nonlazybind uwtable
declare void @"_ZN5alloc4sync16Arc$LT$T$C$A$GT$9drop_slow17hc4aa5653d7cc5847E"(ptr noalias noundef align 8 dereferenceable(16)) unnamed_addr #2

; alloc::sync::Arc<T,A>::drop_slow
; Function Attrs: noinline nonlazybind uwtable
declare void @"_ZN5alloc4sync16Arc$LT$T$C$A$GT$9drop_slow17ha7250d45a15ee33aE"(ptr noalias noundef align 8 dereferenceable(8)) unnamed_addr #2

; alloc::sync::Arc<T,A>::drop_slow
; Function Attrs: noinline nonlazybind uwtable
declare void @"_ZN5alloc4sync16Arc$LT$T$C$A$GT$9drop_slow17h99fca90633548f02E"(ptr noalias noundef align 8 dereferenceable(8)) unnamed_addr #2

; Function Attrs: nonlazybind
define noundef i32 @main(i32 %0, ptr %1) unnamed_addr #13 {
top:
  %_7.i = alloca [8 x i8], align 8
  %2 = load volatile i8, ptr @__rustc_debug_gdb_scripts_section__, align 1
  %3 = sext i32 %0 to i64
    #dbg_value(ptr @_ZN18build_script_build4main17h1027e6978416fe3eE, !1912, !DIExpression(), !1916)
    #dbg_value(i64 %3, !1913, !DIExpression(), !1916)
    #dbg_value(ptr %1, !1914, !DIExpression(), !1916)
    #dbg_value(i8 0, !1915, !DIExpression(), !1916)
  call void @llvm.lifetime.start.p0(i64 8, ptr nonnull %_7.i), !dbg !1917
  store ptr @_ZN18build_script_build4main17h1027e6978416fe3eE, ptr %_7.i, align 8, !dbg !1917
; call std::rt::lang_start_internal
  %_0.i = call noundef i64 @_ZN3std2rt19lang_start_internal17hce2b8b328837374bE(ptr noundef nonnull align 1 %_7.i, ptr noalias noundef readonly align 8 captures(address, read_provenance) dereferenceable(48) @vtable.0, i64 noundef %3, ptr noundef %1, i8 noundef 0), !dbg !1918
  call void @llvm.lifetime.end.p0(i64 8, ptr nonnull %_7.i), !dbg !1919
  %4 = trunc i64 %_0.i to i32
  ret i32 %4
}

; Function Attrs: nocallback nofree nosync nounwind willreturn memory(inaccessiblemem: readwrite)
declare void @llvm.experimental.noalias.scope.decl(metadata) #14

; Function Attrs: nocallback nofree nosync nounwind speculatable willreturn memory(none)
declare i64 @llvm.umax.i64(i64, i64) #15

attributes #0 = { nonlazybind uwtable "probe-stack"="inline-asm" "target-cpu"="x86-64" }
attributes #1 = { inlinehint nonlazybind uwtable "probe-stack"="inline-asm" "target-cpu"="x86-64" }
attributes #2 = { noinline nonlazybind uwtable "probe-stack"="inline-asm" "target-cpu"="x86-64" }
attributes #3 = { cold nounwind nonlazybind uwtable "probe-stack"="inline-asm" "target-cpu"="x86-64" }
attributes #4 = { nounwind nonlazybind uwtable "probe-stack"="inline-asm" "target-cpu"="x86-64" }
attributes #5 = { mustprogress nocallback nofree nosync nounwind willreturn memory(argmem: readwrite) }
attributes #6 = { cold minsize noinline noreturn nounwind nonlazybind optsize uwtable "probe-stack"="inline-asm" "target-cpu"="x86-64" }
attributes #7 = { mustprogress nocallback nofree nosync nounwind willreturn memory(inaccessiblemem: write) }
attributes #8 = { mustprogress nocallback nofree nounwind willreturn memory(argmem: readwrite) }
attributes #9 = { cold minsize noreturn nonlazybind optsize uwtable "probe-stack"="inline-asm" "target-cpu"="x86-64" }
attributes #10 = { nounwind nonlazybind allockind("alloc,uninitialized,aligned") allocsize(0) uwtable "alloc-family"="__rust_alloc" "probe-stack"="inline-asm" "target-cpu"="x86-64" }
attributes #11 = { nounwind nonlazybind allockind("free") uwtable "alloc-family"="__rust_alloc" "probe-stack"="inline-asm" "target-cpu"="x86-64" }
attributes #12 = { nounwind nonlazybind allockind("realloc,aligned") allocsize(3) uwtable "alloc-family"="__rust_alloc" "probe-stack"="inline-asm" "target-cpu"="x86-64" }
attributes #13 = { nonlazybind "probe-stack"="inline-asm" "target-cpu"="x86-64" }
attributes #14 = { nocallback nofree nosync nounwind willreturn memory(inaccessiblemem: readwrite) }
attributes #15 = { nocallback nofree nosync nounwind speculatable willreturn memory(none) }
attributes #16 = { nounwind }
attributes #17 = { cold noreturn nounwind }
attributes #18 = { cold }
attributes #19 = { noreturn }

!llvm.module.flags = !{!24, !25, !26, !27, !28}
!llvm.ident = !{!29}
!llvm.dbg.cu = !{!30}

!0 = !DIGlobalVariableExpression(var: !1, expr: !DIExpression())
!1 = distinct !DIGlobalVariable(name: "<std::rt::lang_start::{closure_env#0}<()> as core::ops::function::Fn<()>>::{vtable}", scope: null, file: !2, type: !3, isLocal: true, isDefinition: true)
!2 = !DIFile(filename: "<unknown>", directory: "")
!3 = !DICompositeType(tag: DW_TAG_structure_type, name: "<std::rt::lang_start::{closure_env#0}<()> as core::ops::function::Fn<()>>::{vtable_type}", file: !2, size: 384, align: 64, flags: DIFlagArtificial, elements: !4, vtableHolder: !14, templateParams: !23, identifier: "47ca48354a1eae17c7180e4e001a6ff")
!4 = !{!5, !8, !10, !11, !12, !13}
!5 = !DIDerivedType(tag: DW_TAG_member, name: "drop_in_place", scope: !3, file: !2, baseType: !6, size: 64, align: 64)
!6 = !DIDerivedType(tag: DW_TAG_pointer_type, name: "*const ()", baseType: !7, size: 64, align: 64, dwarfAddressSpace: 0)
!7 = !DIBasicType(name: "()", encoding: DW_ATE_unsigned)
!8 = !DIDerivedType(tag: DW_TAG_member, name: "size", scope: !3, file: !2, baseType: !9, size: 64, align: 64, offset: 64)
!9 = !DIBasicType(name: "usize", size: 64, encoding: DW_ATE_unsigned)
!10 = !DIDerivedType(tag: DW_TAG_member, name: "align", scope: !3, file: !2, baseType: !9, size: 64, align: 64, offset: 128)
!11 = !DIDerivedType(tag: DW_TAG_member, name: "__method3", scope: !3, file: !2, baseType: !6, size: 64, align: 64, offset: 192)
!12 = !DIDerivedType(tag: DW_TAG_member, name: "__method4", scope: !3, file: !2, baseType: !6, size: 64, align: 64, offset: 256)
!13 = !DIDerivedType(tag: DW_TAG_member, name: "__method5", scope: !3, file: !2, baseType: !6, size: 64, align: 64, offset: 320)
!14 = !DICompositeType(tag: DW_TAG_structure_type, name: "{closure_env#0}<()>", scope: !15, file: !2, size: 64, align: 64, elements: !18, templateParams: !23, identifier: "6d9a64dc1e997260cfd7fe3b035f14f8")
!15 = !DINamespace(name: "lang_start", scope: !16)
!16 = !DINamespace(name: "rt", scope: !17)
!17 = !DINamespace(name: "std", scope: null)
!18 = !{!19}
!19 = !DIDerivedType(tag: DW_TAG_member, name: "main", scope: !14, file: !2, baseType: !20, size: 64, align: 64)
!20 = !DIDerivedType(tag: DW_TAG_pointer_type, name: "fn()", baseType: !21, size: 64, align: 64, dwarfAddressSpace: 0)
!21 = !DISubroutineType(types: !22)
!22 = !{null}
!23 = !{}
!24 = !{i32 8, !"PIC Level", i32 2}
!25 = !{i32 7, !"PIE Level", i32 2}
!26 = !{i32 2, !"RtLibUseGOT", i32 1}
!27 = !{i32 7, !"Dwarf Version", i32 4}
!28 = !{i32 2, !"Debug Info Version", i32 3}
!29 = !{!"rustc version 1.91.0 (f8297e351 2025-10-28)"}
!30 = distinct !DICompileUnit(language: DW_LANG_Rust, file: !31, producer: "clang LLVM (rustc version 1.91.0 (f8297e351 2025-10-28))", isOptimized: true, runtimeVersion: 0, emissionKind: FullDebug, enums: !32, globals: !138, splitDebugInlining: false, nameTableKind: None)
!31 = !DIFile(filename: "build.rs/@/build_script_build.829a1aa83ee2f87c-cgu.0", directory: "/users/ddavis65/rust-ffi-test")
!32 = !{!33, !41, !53, !123, !129}
!33 = !DICompositeType(tag: DW_TAG_enumeration_type, name: "OutputKind", scope: !34, file: !2, baseType: !36, size: 8, align: 8, flags: DIFlagEnumClass, elements: !37)
!34 = !DINamespace(name: "command_helpers", scope: !35)
!35 = !DINamespace(name: "cc", scope: null)
!36 = !DIBasicType(name: "u8", size: 8, encoding: DW_ATE_unsigned)
!37 = !{!38, !39, !40}
!38 = !DIEnumerator(name: "Forward", value: 0, isUnsigned: true)
!39 = !DIEnumerator(name: "Discard", value: 1, isUnsigned: true)
!40 = !DIEnumerator(name: "Capture", value: 2, isUnsigned: true)
!41 = !DICompositeType(tag: DW_TAG_enumeration_type, name: "ErrorKind", scope: !35, file: !2, baseType: !36, size: 8, align: 8, flags: DIFlagEnumClass, elements: !42)
!42 = !{!43, !44, !45, !46, !47, !48, !49, !50, !51, !52}
!43 = !DIEnumerator(name: "IOError", value: 0, isUnsigned: true)
!44 = !DIEnumerator(name: "EnvVarNotFound", value: 1, isUnsigned: true)
!45 = !DIEnumerator(name: "ToolExecError", value: 2, isUnsigned: true)
!46 = !DIEnumerator(name: "ToolNotFound", value: 3, isUnsigned: true)
!47 = !DIEnumerator(name: "InvalidArgument", value: 4, isUnsigned: true)
!48 = !DIEnumerator(name: "ToolFamilyMacroNotFound", value: 5, isUnsigned: true)
!49 = !DIEnumerator(name: "InvalidTarget", value: 6, isUnsigned: true)
!50 = !DIEnumerator(name: "UnknownTarget", value: 7, isUnsigned: true)
!51 = !DIEnumerator(name: "InvalidFlag", value: 8, isUnsigned: true)
!52 = !DIEnumerator(name: "Disabled", value: 9, isUnsigned: true)
!53 = !DICompositeType(tag: DW_TAG_enumeration_type, name: "AlignmentEnum", scope: !54, file: !2, baseType: !57, size: 64, align: 64, flags: DIFlagEnumClass, elements: !58)
!54 = !DINamespace(name: "alignment", scope: !55)
!55 = !DINamespace(name: "ptr", scope: !56)
!56 = !DINamespace(name: "core", scope: null)
!57 = !DIBasicType(name: "u64", size: 64, encoding: DW_ATE_unsigned)
!58 = !{!59, !60, !61, !62, !63, !64, !65, !66, !67, !68, !69, !70, !71, !72, !73, !74, !75, !76, !77, !78, !79, !80, !81, !82, !83, !84, !85, !86, !87, !88, !89, !90, !91, !92, !93, !94, !95, !96, !97, !98, !99, !100, !101, !102, !103, !104, !105, !106, !107, !108, !109, !110, !111, !112, !113, !114, !115, !116, !117, !118, !119, !120, !121, !122}
!59 = !DIEnumerator(name: "_Align1Shl0", value: 1, isUnsigned: true)
!60 = !DIEnumerator(name: "_Align1Shl1", value: 2, isUnsigned: true)
!61 = !DIEnumerator(name: "_Align1Shl2", value: 4, isUnsigned: true)
!62 = !DIEnumerator(name: "_Align1Shl3", value: 8, isUnsigned: true)
!63 = !DIEnumerator(name: "_Align1Shl4", value: 16, isUnsigned: true)
!64 = !DIEnumerator(name: "_Align1Shl5", value: 32, isUnsigned: true)
!65 = !DIEnumerator(name: "_Align1Shl6", value: 64, isUnsigned: true)
!66 = !DIEnumerator(name: "_Align1Shl7", value: 128, isUnsigned: true)
!67 = !DIEnumerator(name: "_Align1Shl8", value: 256, isUnsigned: true)
!68 = !DIEnumerator(name: "_Align1Shl9", value: 512, isUnsigned: true)
!69 = !DIEnumerator(name: "_Align1Shl10", value: 1024, isUnsigned: true)
!70 = !DIEnumerator(name: "_Align1Shl11", value: 2048, isUnsigned: true)
!71 = !DIEnumerator(name: "_Align1Shl12", value: 4096, isUnsigned: true)
!72 = !DIEnumerator(name: "_Align1Shl13", value: 8192, isUnsigned: true)
!73 = !DIEnumerator(name: "_Align1Shl14", value: 16384, isUnsigned: true)
!74 = !DIEnumerator(name: "_Align1Shl15", value: 32768, isUnsigned: true)
!75 = !DIEnumerator(name: "_Align1Shl16", value: 65536, isUnsigned: true)
!76 = !DIEnumerator(name: "_Align1Shl17", value: 131072, isUnsigned: true)
!77 = !DIEnumerator(name: "_Align1Shl18", value: 262144, isUnsigned: true)
!78 = !DIEnumerator(name: "_Align1Shl19", value: 524288, isUnsigned: true)
!79 = !DIEnumerator(name: "_Align1Shl20", value: 1048576, isUnsigned: true)
!80 = !DIEnumerator(name: "_Align1Shl21", value: 2097152, isUnsigned: true)
!81 = !DIEnumerator(name: "_Align1Shl22", value: 4194304, isUnsigned: true)
!82 = !DIEnumerator(name: "_Align1Shl23", value: 8388608, isUnsigned: true)
!83 = !DIEnumerator(name: "_Align1Shl24", value: 16777216, isUnsigned: true)
!84 = !DIEnumerator(name: "_Align1Shl25", value: 33554432, isUnsigned: true)
!85 = !DIEnumerator(name: "_Align1Shl26", value: 67108864, isUnsigned: true)
!86 = !DIEnumerator(name: "_Align1Shl27", value: 134217728, isUnsigned: true)
!87 = !DIEnumerator(name: "_Align1Shl28", value: 268435456, isUnsigned: true)
!88 = !DIEnumerator(name: "_Align1Shl29", value: 536870912, isUnsigned: true)
!89 = !DIEnumerator(name: "_Align1Shl30", value: 1073741824, isUnsigned: true)
!90 = !DIEnumerator(name: "_Align1Shl31", value: 2147483648, isUnsigned: true)
!91 = !DIEnumerator(name: "_Align1Shl32", value: 4294967296, isUnsigned: true)
!92 = !DIEnumerator(name: "_Align1Shl33", value: 8589934592, isUnsigned: true)
!93 = !DIEnumerator(name: "_Align1Shl34", value: 17179869184, isUnsigned: true)
!94 = !DIEnumerator(name: "_Align1Shl35", value: 34359738368, isUnsigned: true)
!95 = !DIEnumerator(name: "_Align1Shl36", value: 68719476736, isUnsigned: true)
!96 = !DIEnumerator(name: "_Align1Shl37", value: 137438953472, isUnsigned: true)
!97 = !DIEnumerator(name: "_Align1Shl38", value: 274877906944, isUnsigned: true)
!98 = !DIEnumerator(name: "_Align1Shl39", value: 549755813888, isUnsigned: true)
!99 = !DIEnumerator(name: "_Align1Shl40", value: 1099511627776, isUnsigned: true)
!100 = !DIEnumerator(name: "_Align1Shl41", value: 2199023255552, isUnsigned: true)
!101 = !DIEnumerator(name: "_Align1Shl42", value: 4398046511104, isUnsigned: true)
!102 = !DIEnumerator(name: "_Align1Shl43", value: 8796093022208, isUnsigned: true)
!103 = !DIEnumerator(name: "_Align1Shl44", value: 17592186044416, isUnsigned: true)
!104 = !DIEnumerator(name: "_Align1Shl45", value: 35184372088832, isUnsigned: true)
!105 = !DIEnumerator(name: "_Align1Shl46", value: 70368744177664, isUnsigned: true)
!106 = !DIEnumerator(name: "_Align1Shl47", value: 140737488355328, isUnsigned: true)
!107 = !DIEnumerator(name: "_Align1Shl48", value: 281474976710656, isUnsigned: true)
!108 = !DIEnumerator(name: "_Align1Shl49", value: 562949953421312, isUnsigned: true)
!109 = !DIEnumerator(name: "_Align1Shl50", value: 1125899906842624, isUnsigned: true)
!110 = !DIEnumerator(name: "_Align1Shl51", value: 2251799813685248, isUnsigned: true)
!111 = !DIEnumerator(name: "_Align1Shl52", value: 4503599627370496, isUnsigned: true)
!112 = !DIEnumerator(name: "_Align1Shl53", value: 9007199254740992, isUnsigned: true)
!113 = !DIEnumerator(name: "_Align1Shl54", value: 18014398509481984, isUnsigned: true)
!114 = !DIEnumerator(name: "_Align1Shl55", value: 36028797018963968, isUnsigned: true)
!115 = !DIEnumerator(name: "_Align1Shl56", value: 72057594037927936, isUnsigned: true)
!116 = !DIEnumerator(name: "_Align1Shl57", value: 144115188075855872, isUnsigned: true)
!117 = !DIEnumerator(name: "_Align1Shl58", value: 288230376151711744, isUnsigned: true)
!118 = !DIEnumerator(name: "_Align1Shl59", value: 576460752303423488, isUnsigned: true)
!119 = !DIEnumerator(name: "_Align1Shl60", value: 1152921504606846976, isUnsigned: true)
!120 = !DIEnumerator(name: "_Align1Shl61", value: 2305843009213693952, isUnsigned: true)
!121 = !DIEnumerator(name: "_Align1Shl62", value: 4611686018427387904, isUnsigned: true)
!122 = !DIEnumerator(name: "_Align1Shl63", value: 9223372036854775808, isUnsigned: true)
!123 = !DICompositeType(tag: DW_TAG_enumeration_type, name: "AssertKind", scope: !124, file: !2, baseType: !36, size: 8, align: 8, flags: DIFlagEnumClass, elements: !125)
!124 = !DINamespace(name: "panicking", scope: !56)
!125 = !{!126, !127, !128}
!126 = !DIEnumerator(name: "Eq", value: 0, isUnsigned: true)
!127 = !DIEnumerator(name: "Ne", value: 1, isUnsigned: true)
!128 = !DIEnumerator(name: "Match", value: 2, isUnsigned: true)
!129 = !DICompositeType(tag: DW_TAG_enumeration_type, name: "Ordering", scope: !130, file: !2, baseType: !36, size: 8, align: 8, flags: DIFlagEnumClass, elements: !132)
!130 = !DINamespace(name: "atomic", scope: !131)
!131 = !DINamespace(name: "sync", scope: !56)
!132 = !{!133, !134, !135, !136, !137}
!133 = !DIEnumerator(name: "Relaxed", value: 0, isUnsigned: true)
!134 = !DIEnumerator(name: "Release", value: 1, isUnsigned: true)
!135 = !DIEnumerator(name: "Acquire", value: 2, isUnsigned: true)
!136 = !DIEnumerator(name: "AcqRel", value: 3, isUnsigned: true)
!137 = !DIEnumerator(name: "SeqCst", value: 4, isUnsigned: true)
!138 = !{!0, !139}
!139 = !DIGlobalVariableExpression(var: !140, expr: !DIExpression())
!140 = distinct !DIGlobalVariable(name: "<core::alloc::layout::LayoutError as core::fmt::Debug>::{vtable}", scope: null, file: !2, type: !141, isLocal: true, isDefinition: true)
!141 = !DICompositeType(tag: DW_TAG_structure_type, name: "<core::alloc::layout::LayoutError as core::fmt::Debug>::{vtable_type}", file: !2, size: 256, align: 64, flags: DIFlagArtificial, elements: !142, vtableHolder: !147, templateParams: !23, identifier: "f6ccac86669078b47b7be45bba706cea")
!142 = !{!143, !144, !145, !146}
!143 = !DIDerivedType(tag: DW_TAG_member, name: "drop_in_place", scope: !141, file: !2, baseType: !6, size: 64, align: 64)
!144 = !DIDerivedType(tag: DW_TAG_member, name: "size", scope: !141, file: !2, baseType: !9, size: 64, align: 64, offset: 64)
!145 = !DIDerivedType(tag: DW_TAG_member, name: "align", scope: !141, file: !2, baseType: !9, size: 64, align: 64, offset: 128)
!146 = !DIDerivedType(tag: DW_TAG_member, name: "__method3", scope: !141, file: !2, baseType: !6, size: 64, align: 64, offset: 192)
!147 = !DICompositeType(tag: DW_TAG_structure_type, name: "LayoutError", scope: !148, file: !2, align: 8, flags: DIFlagPublic, elements: !23, identifier: "28c229f3433a9d915d5bc25d47d5a1a6")
!148 = !DINamespace(name: "layout", scope: !149)
!149 = !DINamespace(name: "alloc", scope: !56)
!150 = distinct !DISubprogram(name: "main", linkageName: "_ZN18build_script_build4main17h1027e6978416fe3eE", scope: !152, file: !151, line: 2, type: !21, scopeLine: 2, flags: DIFlagPrototyped, spFlags: DISPFlagLocalToUnit | DISPFlagDefinition | DISPFlagOptimized | DISPFlagMainSubprogram, unit: !30, templateParams: !23)
!151 = !DIFile(filename: "build.rs", directory: "/users/ddavis65/rust-ffi-test", checksumkind: CSK_MD5, checksum: "5e7e8914bb4b98fabe44f23026604b60")
!152 = !DINamespace(name: "build_script_build", scope: null)
!153 = !DILocalVariable(name: "pieces", scope: !154, file: !155, line: 194, type: !291, align: 64)
!154 = distinct !DISubprogram(name: "new_const<1>", linkageName: "_ZN4core3fmt2rt38_$LT$impl$u20$core..fmt..Arguments$GT$9new_const17h15464fc7eebfa43bE", scope: !156, file: !155, line: 194, type: !289, scopeLine: 194, flags: DIFlagPrototyped, spFlags: DISPFlagLocalToUnit | DISPFlagDefinition | DISPFlagOptimized, unit: !30, templateParams: !23, declaration: !295, retainedNodes: !296)
!155 = !DIFile(filename: "/rustc/f8297e351a40c1439a467bbbb6879088047f50b3/library/core/src/fmt/rt.rs", directory: "", checksumkind: CSK_MD5, checksum: "03cba3c9b7eca44212bc16adf1d5b1bc")
!156 = !DICompositeType(tag: DW_TAG_structure_type, name: "Arguments", scope: !157, file: !2, size: 384, align: 64, flags: DIFlagPublic, elements: !158, templateParams: !23, identifier: "3e14e6e534bc9c56f5fa95bdb9db37b9")
!157 = !DINamespace(name: "fmt", scope: !56)
!158 = !{!159, !170, !214}
!159 = !DIDerivedType(tag: DW_TAG_member, name: "pieces", scope: !156, file: !2, baseType: !160, size: 128, align: 64, flags: DIFlagPrivate)
!160 = !DICompositeType(tag: DW_TAG_structure_type, name: "&[&str]", file: !2, size: 128, align: 64, elements: !161, templateParams: !23, identifier: "4e66b00a376d6af5b8765440fb2839f")
!161 = !{!162, !169}
!162 = !DIDerivedType(tag: DW_TAG_member, name: "data_ptr", scope: !160, file: !2, baseType: !163, size: 64, align: 64)
!163 = !DIDerivedType(tag: DW_TAG_pointer_type, baseType: !164, size: 64, align: 64, dwarfAddressSpace: 0)
!164 = !DICompositeType(tag: DW_TAG_structure_type, name: "&str", file: !2, size: 128, align: 64, elements: !165, templateParams: !23, identifier: "9277eecd40495f85161460476aacc992")
!165 = !{!166, !168}
!166 = !DIDerivedType(tag: DW_TAG_member, name: "data_ptr", scope: !164, file: !2, baseType: !167, size: 64, align: 64)
!167 = !DIDerivedType(tag: DW_TAG_pointer_type, baseType: !36, size: 64, align: 64, dwarfAddressSpace: 0)
!168 = !DIDerivedType(tag: DW_TAG_member, name: "length", scope: !164, file: !2, baseType: !9, size: 64, align: 64, offset: 64)
!169 = !DIDerivedType(tag: DW_TAG_member, name: "length", scope: !160, file: !2, baseType: !9, size: 64, align: 64, offset: 64)
!170 = !DIDerivedType(tag: DW_TAG_member, name: "fmt", scope: !156, file: !2, baseType: !171, size: 128, align: 64, offset: 256, flags: DIFlagPrivate)
!171 = !DICompositeType(tag: DW_TAG_structure_type, name: "Option<&[core::fmt::rt::Placeholder]>", scope: !172, file: !2, size: 128, align: 64, flags: DIFlagPublic, elements: !173, templateParams: !23, identifier: "f4128f4a1478b8d4e97c2666c541d44c")
!172 = !DINamespace(name: "option", scope: !56)
!173 = !{!174}
!174 = !DICompositeType(tag: DW_TAG_variant_part, scope: !171, file: !2, size: 128, align: 64, elements: !175, templateParams: !23, identifier: "9c68ec629ca43f00f69cd1c83e6a86ee", discriminator: !213)
!175 = !{!176, !209}
!176 = !DIDerivedType(tag: DW_TAG_member, name: "None", scope: !174, file: !2, baseType: !177, size: 128, align: 64, extraData: i64 0)
!177 = !DICompositeType(tag: DW_TAG_structure_type, name: "None", scope: !171, file: !2, size: 128, align: 64, flags: DIFlagPublic, elements: !23, templateParams: !178, identifier: "47cc9dc96ffcd771f05fd8baf8718f9f")
!178 = !{!179}
!179 = !DITemplateTypeParameter(name: "T", type: !180)
!180 = !DICompositeType(tag: DW_TAG_structure_type, name: "&[core::fmt::rt::Placeholder]", file: !2, size: 128, align: 64, elements: !181, templateParams: !23, identifier: "47e0d68c4284c2763bc79684afc58b04")
!181 = !{!182, !208}
!182 = !DIDerivedType(tag: DW_TAG_member, name: "data_ptr", scope: !180, file: !2, baseType: !183, size: 64, align: 64)
!183 = !DIDerivedType(tag: DW_TAG_pointer_type, baseType: !184, size: 64, align: 64, dwarfAddressSpace: 0)
!184 = !DICompositeType(tag: DW_TAG_structure_type, name: "Placeholder", scope: !185, file: !2, size: 384, align: 64, flags: DIFlagPublic, elements: !186, templateParams: !23, identifier: "a24e9441b09da4bb466626271bc603ff")
!185 = !DINamespace(name: "rt", scope: !157)
!186 = !{!187, !188, !190, !207}
!187 = !DIDerivedType(tag: DW_TAG_member, name: "position", scope: !184, file: !2, baseType: !9, size: 64, align: 64, offset: 256, flags: DIFlagPublic)
!188 = !DIDerivedType(tag: DW_TAG_member, name: "flags", scope: !184, file: !2, baseType: !189, size: 32, align: 32, offset: 320, flags: DIFlagPublic)
!189 = !DIBasicType(name: "u32", size: 32, encoding: DW_ATE_unsigned)
!190 = !DIDerivedType(tag: DW_TAG_member, name: "precision", scope: !184, file: !2, baseType: !191, size: 128, align: 64, flags: DIFlagPublic)
!191 = !DICompositeType(tag: DW_TAG_structure_type, name: "Count", scope: !185, file: !2, size: 128, align: 64, flags: DIFlagPublic, elements: !192, templateParams: !23, identifier: "40215f7dafe59c81d016b26a091f523c")
!192 = !{!193}
!193 = !DICompositeType(tag: DW_TAG_variant_part, scope: !191, file: !2, size: 128, align: 64, elements: !194, templateParams: !23, identifier: "6d1f0d392a2148b575e310d1f1121c4e", discriminator: !206)
!194 = !{!195, !200, !204}
!195 = !DIDerivedType(tag: DW_TAG_member, name: "Is", scope: !193, file: !2, baseType: !196, size: 128, align: 64, extraData: i16 0)
!196 = !DICompositeType(tag: DW_TAG_structure_type, name: "Is", scope: !191, file: !2, size: 128, align: 64, flags: DIFlagPublic, elements: !197, templateParams: !23, identifier: "eb70fbd88edb38f655d53298908aed8b")
!197 = !{!198}
!198 = !DIDerivedType(tag: DW_TAG_member, name: "__0", scope: !196, file: !2, baseType: !199, size: 16, align: 16, offset: 16, flags: DIFlagPublic)
!199 = !DIBasicType(name: "u16", size: 16, encoding: DW_ATE_unsigned)
!200 = !DIDerivedType(tag: DW_TAG_member, name: "Param", scope: !193, file: !2, baseType: !201, size: 128, align: 64, extraData: i16 1)
!201 = !DICompositeType(tag: DW_TAG_structure_type, name: "Param", scope: !191, file: !2, size: 128, align: 64, flags: DIFlagPublic, elements: !202, templateParams: !23, identifier: "98b6d299d0747bdfcea62178e60c14d2")
!202 = !{!203}
!203 = !DIDerivedType(tag: DW_TAG_member, name: "__0", scope: !201, file: !2, baseType: !9, size: 64, align: 64, offset: 64, flags: DIFlagPublic)
!204 = !DIDerivedType(tag: DW_TAG_member, name: "Implied", scope: !193, file: !2, baseType: !205, size: 128, align: 64, extraData: i16 2)
!205 = !DICompositeType(tag: DW_TAG_structure_type, name: "Implied", scope: !191, file: !2, size: 128, align: 64, flags: DIFlagPublic, elements: !23, identifier: "b0e7d3bde035ab0cee4c0dd5a5255ff4")
!206 = !DIDerivedType(tag: DW_TAG_member, scope: !191, file: !2, baseType: !199, size: 16, align: 16, flags: DIFlagArtificial)
!207 = !DIDerivedType(tag: DW_TAG_member, name: "width", scope: !184, file: !2, baseType: !191, size: 128, align: 64, offset: 128, flags: DIFlagPublic)
!208 = !DIDerivedType(tag: DW_TAG_member, name: "length", scope: !180, file: !2, baseType: !9, size: 64, align: 64, offset: 64)
!209 = !DIDerivedType(tag: DW_TAG_member, name: "Some", scope: !174, file: !2, baseType: !210, size: 128, align: 64)
!210 = !DICompositeType(tag: DW_TAG_structure_type, name: "Some", scope: !171, file: !2, size: 128, align: 64, flags: DIFlagPublic, elements: !211, templateParams: !178, identifier: "bf5c5b5bd7587d5644e79af587197807")
!211 = !{!212}
!212 = !DIDerivedType(tag: DW_TAG_member, name: "__0", scope: !210, file: !2, baseType: !180, size: 128, align: 64, flags: DIFlagPublic)
!213 = !DIDerivedType(tag: DW_TAG_member, scope: !171, file: !2, baseType: !57, size: 64, align: 64, flags: DIFlagArtificial)
!214 = !DIDerivedType(tag: DW_TAG_member, name: "args", scope: !156, file: !2, baseType: !215, size: 128, align: 64, offset: 128, flags: DIFlagPrivate)
!215 = !DICompositeType(tag: DW_TAG_structure_type, name: "&[core::fmt::rt::Argument]", file: !2, size: 128, align: 64, elements: !216, templateParams: !23, identifier: "58bf012de0ac0100eebb52b78c8cbe69")
!216 = !{!217, !288}
!217 = !DIDerivedType(tag: DW_TAG_member, name: "data_ptr", scope: !215, file: !2, baseType: !218, size: 64, align: 64)
!218 = !DIDerivedType(tag: DW_TAG_pointer_type, baseType: !219, size: 64, align: 64, dwarfAddressSpace: 0)
!219 = !DICompositeType(tag: DW_TAG_structure_type, name: "Argument", scope: !185, file: !2, size: 128, align: 64, flags: DIFlagPublic, elements: !220, templateParams: !23, identifier: "a64ebb2da98ad8cd523bf22d581450a0")
!220 = !{!221}
!221 = !DIDerivedType(tag: DW_TAG_member, name: "ty", scope: !219, file: !2, baseType: !222, size: 128, align: 64, flags: DIFlagPrivate)
!222 = !DICompositeType(tag: DW_TAG_structure_type, name: "ArgumentType", scope: !185, file: !2, size: 128, align: 64, flags: DIFlagPrivate, elements: !223, templateParams: !23, identifier: "a0986c1d8c42330c2ccb6994238d036")
!223 = !{!224}
!224 = !DICompositeType(tag: DW_TAG_variant_part, scope: !222, file: !2, size: 128, align: 64, elements: !225, templateParams: !23, identifier: "4cce771e46b015aa294ea53675c7967", discriminator: !287)
!225 = !{!226, !283}
!226 = !DIDerivedType(tag: DW_TAG_member, name: "Placeholder", scope: !224, file: !2, baseType: !227, size: 128, align: 64)
!227 = !DICompositeType(tag: DW_TAG_structure_type, name: "Placeholder", scope: !222, file: !2, size: 128, align: 64, flags: DIFlagPrivate, elements: !228, templateParams: !23, identifier: "32096f5d360ce82abef8f28a1c366c8e")
!228 = !{!229, !236, !277}
!229 = !DIDerivedType(tag: DW_TAG_member, name: "value", scope: !227, file: !2, baseType: !230, size: 64, align: 64, flags: DIFlagPrivate)
!230 = !DICompositeType(tag: DW_TAG_structure_type, name: "NonNull<()>", scope: !231, file: !2, size: 64, align: 64, flags: DIFlagPublic, elements: !232, templateParams: !234, identifier: "59004c9764b8f8a0c7eeffd3340ced68")
!231 = !DINamespace(name: "non_null", scope: !55)
!232 = !{!233}
!233 = !DIDerivedType(tag: DW_TAG_member, name: "pointer", scope: !230, file: !2, baseType: !6, size: 64, align: 64, flags: DIFlagPrivate)
!234 = !{!235}
!235 = !DITemplateTypeParameter(name: "T", type: !7)
!236 = !DIDerivedType(tag: DW_TAG_member, name: "formatter", scope: !227, file: !2, baseType: !237, size: 64, align: 64, offset: 64, flags: DIFlagPrivate)
!237 = !DIDerivedType(tag: DW_TAG_pointer_type, name: "unsafe fn(core::ptr::non_null::NonNull<()>, &mut core::fmt::Formatter) -> core::result::Result<(), core::fmt::Error>", baseType: !238, size: 64, align: 64, dwarfAddressSpace: 0)
!238 = !DISubroutineType(types: !239)
!239 = !{!240, !230, !257}
!240 = !DICompositeType(tag: DW_TAG_structure_type, name: "Result<(), core::fmt::Error>", scope: !241, file: !2, size: 8, align: 8, flags: DIFlagPublic, elements: !242, templateParams: !23, identifier: "cc621153baa62273e1d5317cd8c95256")
!241 = !DINamespace(name: "result", scope: !56)
!242 = !{!243}
!243 = !DICompositeType(tag: DW_TAG_variant_part, scope: !240, file: !2, size: 8, align: 8, elements: !244, templateParams: !23, identifier: "97f70f95c44c3df549ad0d94d230cef4", discriminator: !256)
!244 = !{!245, !252}
!245 = !DIDerivedType(tag: DW_TAG_member, name: "Ok", scope: !243, file: !2, baseType: !246, size: 8, align: 8, extraData: i8 0)
!246 = !DICompositeType(tag: DW_TAG_structure_type, name: "Ok", scope: !240, file: !2, size: 8, align: 8, flags: DIFlagPublic, elements: !247, templateParams: !249, identifier: "ec2f8aa08737d6854b25f87e36015000")
!247 = !{!248}
!248 = !DIDerivedType(tag: DW_TAG_member, name: "__0", scope: !246, file: !2, baseType: !7, align: 8, offset: 8, flags: DIFlagPublic)
!249 = !{!235, !250}
!250 = !DITemplateTypeParameter(name: "E", type: !251)
!251 = !DICompositeType(tag: DW_TAG_structure_type, name: "Error", scope: !157, file: !2, align: 8, flags: DIFlagPublic, elements: !23, identifier: "4e10c97380bc1052e26842e514c07b58")
!252 = !DIDerivedType(tag: DW_TAG_member, name: "Err", scope: !243, file: !2, baseType: !253, size: 8, align: 8, extraData: i8 1)
!253 = !DICompositeType(tag: DW_TAG_structure_type, name: "Err", scope: !240, file: !2, size: 8, align: 8, flags: DIFlagPublic, elements: !254, templateParams: !249, identifier: "5836f172dd113fa0e1839c449d1255a")
!254 = !{!255}
!255 = !DIDerivedType(tag: DW_TAG_member, name: "__0", scope: !253, file: !2, baseType: !251, align: 8, offset: 8, flags: DIFlagPublic)
!256 = !DIDerivedType(tag: DW_TAG_member, scope: !240, file: !2, baseType: !36, size: 8, align: 8, flags: DIFlagArtificial)
!257 = !DIDerivedType(tag: DW_TAG_pointer_type, name: "&mut core::fmt::Formatter", baseType: !258, size: 64, align: 64, dwarfAddressSpace: 0)
!258 = !DICompositeType(tag: DW_TAG_structure_type, name: "Formatter", scope: !157, file: !2, size: 192, align: 64, flags: DIFlagPublic, elements: !259, templateParams: !23, identifier: "94e132869bcec4069af040a17a417dc7")
!259 = !{!260, !266}
!260 = !DIDerivedType(tag: DW_TAG_member, name: "options", scope: !258, file: !2, baseType: !261, size: 64, align: 32, offset: 128, flags: DIFlagPrivate)
!261 = !DICompositeType(tag: DW_TAG_structure_type, name: "FormattingOptions", scope: !157, file: !2, size: 64, align: 32, flags: DIFlagPublic, elements: !262, templateParams: !23, identifier: "693054fe9da7b65cbaf8d4db1884220d")
!262 = !{!263, !264, !265}
!263 = !DIDerivedType(tag: DW_TAG_member, name: "flags", scope: !261, file: !2, baseType: !189, size: 32, align: 32, flags: DIFlagPrivate)
!264 = !DIDerivedType(tag: DW_TAG_member, name: "width", scope: !261, file: !2, baseType: !199, size: 16, align: 16, offset: 32, flags: DIFlagPrivate)
!265 = !DIDerivedType(tag: DW_TAG_member, name: "precision", scope: !261, file: !2, baseType: !199, size: 16, align: 16, offset: 48, flags: DIFlagPrivate)
!266 = !DIDerivedType(tag: DW_TAG_member, name: "buf", scope: !258, file: !2, baseType: !267, size: 128, align: 64, flags: DIFlagPrivate)
!267 = !DICompositeType(tag: DW_TAG_structure_type, name: "&mut dyn core::fmt::Write", file: !2, size: 128, align: 64, elements: !268, templateParams: !23, identifier: "104810609c399af05a756c8a6780b67e")
!268 = !{!269, !272}
!269 = !DIDerivedType(tag: DW_TAG_member, name: "pointer", scope: !267, file: !2, baseType: !270, size: 64, align: 64)
!270 = !DIDerivedType(tag: DW_TAG_pointer_type, baseType: !271, size: 64, align: 64, dwarfAddressSpace: 0)
!271 = !DICompositeType(tag: DW_TAG_structure_type, name: "dyn core::fmt::Write", file: !2, align: 8, elements: !23, identifier: "a14cb6e521f593dff04dad945921eaa8")
!272 = !DIDerivedType(tag: DW_TAG_member, name: "vtable", scope: !267, file: !2, baseType: !273, size: 64, align: 64, offset: 64)
!273 = !DIDerivedType(tag: DW_TAG_pointer_type, name: "&[usize; 6]", baseType: !274, size: 64, align: 64, dwarfAddressSpace: 0)
!274 = !DICompositeType(tag: DW_TAG_array_type, baseType: !9, size: 384, align: 64, elements: !275)
!275 = !{!276}
!276 = !DISubrange(count: 6, lowerBound: 0)
!277 = !DIDerivedType(tag: DW_TAG_member, name: "_lifetime", scope: !227, file: !2, baseType: !278, align: 8, offset: 128, flags: DIFlagPrivate)
!278 = !DICompositeType(tag: DW_TAG_structure_type, name: "PhantomData<&()>", scope: !279, file: !2, align: 8, flags: DIFlagPublic, elements: !23, templateParams: !280, identifier: "3353c2e93b9170d7bdb4cbe585bbf9b1")
!279 = !DINamespace(name: "marker", scope: !56)
!280 = !{!281}
!281 = !DITemplateTypeParameter(name: "T", type: !282)
!282 = !DIDerivedType(tag: DW_TAG_pointer_type, name: "&()", baseType: !7, size: 64, align: 64, dwarfAddressSpace: 0)
!283 = !DIDerivedType(tag: DW_TAG_member, name: "Count", scope: !224, file: !2, baseType: !284, size: 128, align: 64, extraData: i64 0)
!284 = !DICompositeType(tag: DW_TAG_structure_type, name: "Count", scope: !222, file: !2, size: 128, align: 64, flags: DIFlagPrivate, elements: !285, templateParams: !23, identifier: "b3336e3ef853d0e4f5e2fa7ee806da5b")
!285 = !{!286}
!286 = !DIDerivedType(tag: DW_TAG_member, name: "__0", scope: !284, file: !2, baseType: !199, size: 16, align: 16, offset: 64, flags: DIFlagPrivate)
!287 = !DIDerivedType(tag: DW_TAG_member, scope: !222, file: !2, baseType: !57, size: 64, align: 64, flags: DIFlagArtificial)
!288 = !DIDerivedType(tag: DW_TAG_member, name: "length", scope: !215, file: !2, baseType: !9, size: 64, align: 64, offset: 64)
!289 = !DISubroutineType(types: !290)
!290 = !{!156, !291}
!291 = !DIDerivedType(tag: DW_TAG_pointer_type, name: "&[&str; 1]", baseType: !292, size: 64, align: 64, dwarfAddressSpace: 0)
!292 = !DICompositeType(tag: DW_TAG_array_type, baseType: !164, size: 128, align: 64, elements: !293)
!293 = !{!294}
!294 = !DISubrange(count: 1, lowerBound: 0)
!295 = !DISubprogram(name: "new_const<1>", linkageName: "_ZN4core3fmt2rt38_$LT$impl$u20$core..fmt..Arguments$GT$9new_const17h15464fc7eebfa43bE", scope: !156, file: !155, line: 194, type: !289, scopeLine: 194, flags: DIFlagPrototyped, spFlags: DISPFlagLocalToUnit | DISPFlagOptimized, templateParams: !23)
!296 = !{!153}
!297 = !DILocation(line: 0, scope: !154, inlinedAt: !298)
!298 = !DILocation(line: 9, column: 5, scope: !150)
!299 = !DILocation(line: 3, column: 5, scope: !150)
!300 = !{!301}
!301 = distinct !{!301, !302, !"_ZN2cc5Build4file17h910d492587995a53E: %self"}
!302 = distinct !{!302, !"_ZN2cc5Build4file17h910d492587995a53E"}
!303 = !DILocation(line: 4, column: 6, scope: !150)
!304 = !DILocalVariable(name: "p", arg: 2, scope: !305, file: !306, line: 836, type: !164)
!305 = distinct !DISubprogram(name: "file<&str>", linkageName: "_ZN2cc5Build4file17h910d492587995a53E", scope: !307, file: !306, line: 836, type: !995, scopeLine: 836, flags: DIFlagPrototyped, spFlags: DISPFlagLocalToUnit | DISPFlagDefinition | DISPFlagOptimized, unit: !30, templateParams: !999, declaration: !998, retainedNodes: !1001)
!306 = !DIFile(filename: "/users/ddavis65/.cargo/registry/src/index.crates.io-1949cf8c6b5b557f/cc-1.2.45/src/lib.rs", directory: "", checksumkind: CSK_MD5, checksum: "fd8d6943bf6b7fcb5f03c292250a29c6")
!307 = !DICompositeType(tag: DW_TAG_structure_type, name: "Build", scope: !35, file: !2, size: 3776, align: 64, flags: DIFlagPublic, elements: !308, templateParams: !23, identifier: "b5d4b0aeb13e6c9721f7764c0c815828")
!308 = !{!309, !400, !452, !453, !490, !491, !492, !493, !495, !496, !497, !511, !512, !513, !514, !515, !516, !517, !518, !519, !531, !532, !546, !547, !564, !565, !566, !567, !601, !602, !603, !604, !605, !606, !607, !608, !609, !610, !611, !612, !993, !994}
!309 = !DIDerivedType(tag: DW_TAG_member, name: "include_directories", scope: !307, file: !2, baseType: !310, size: 192, align: 64, offset: 192, flags: DIFlagPrivate)
!310 = !DICompositeType(tag: DW_TAG_structure_type, name: "Vec<alloc::sync::Arc<std::path::Path, alloc::alloc::Global>, alloc::alloc::Global>", scope: !311, file: !2, size: 192, align: 64, flags: DIFlagPublic, elements: !313, templateParams: !398, identifier: "169be43eb40c82f3c0b495ff7ea7ce98")
!311 = !DINamespace(name: "vec", scope: !312)
!312 = !DINamespace(name: "alloc", scope: null)
!313 = !{!314, !399}
!314 = !DIDerivedType(tag: DW_TAG_member, name: "buf", scope: !310, file: !2, baseType: !315, size: 128, align: 64, flags: DIFlagPrivate)
!315 = !DICompositeType(tag: DW_TAG_structure_type, name: "RawVec<alloc::sync::Arc<std::path::Path, alloc::alloc::Global>, alloc::alloc::Global>", scope: !316, file: !2, size: 128, align: 64, flags: DIFlagProtected, elements: !317, templateParams: !398, identifier: "e8c7203923ba3113f98f1ce1736d6714")
!316 = !DINamespace(name: "raw_vec", scope: !312)
!317 = !{!318, !345}
!318 = !DIDerivedType(tag: DW_TAG_member, name: "inner", scope: !315, file: !2, baseType: !319, size: 128, align: 64, flags: DIFlagPrivate)
!319 = !DICompositeType(tag: DW_TAG_structure_type, name: "RawVecInner<alloc::alloc::Global>", scope: !316, file: !2, size: 128, align: 64, flags: DIFlagPrivate, elements: !320, templateParams: !343, identifier: "d9b585b851a6ea35649b1d69fe7eae64")
!320 = !{!321, !334, !340}
!321 = !DIDerivedType(tag: DW_TAG_member, name: "ptr", scope: !319, file: !2, baseType: !322, size: 64, align: 64, offset: 64, flags: DIFlagPrivate)
!322 = !DICompositeType(tag: DW_TAG_structure_type, name: "Unique<u8>", scope: !323, file: !2, size: 64, align: 64, flags: DIFlagPublic, elements: !324, templateParams: !330, identifier: "c3ca02706589197133726e3ebb88f38a")
!323 = !DINamespace(name: "unique", scope: !55)
!324 = !{!325, !332}
!325 = !DIDerivedType(tag: DW_TAG_member, name: "pointer", scope: !322, file: !2, baseType: !326, size: 64, align: 64, flags: DIFlagPrivate)
!326 = !DICompositeType(tag: DW_TAG_structure_type, name: "NonNull<u8>", scope: !231, file: !2, size: 64, align: 64, flags: DIFlagPublic, elements: !327, templateParams: !330, identifier: "8a8631ef5a10de98d90eca8cb5e9c24f")
!327 = !{!328}
!328 = !DIDerivedType(tag: DW_TAG_member, name: "pointer", scope: !326, file: !2, baseType: !329, size: 64, align: 64, flags: DIFlagPrivate)
!329 = !DIDerivedType(tag: DW_TAG_pointer_type, name: "*const u8", baseType: !36, size: 64, align: 64, dwarfAddressSpace: 0)
!330 = !{!331}
!331 = !DITemplateTypeParameter(name: "T", type: !36)
!332 = !DIDerivedType(tag: DW_TAG_member, name: "_marker", scope: !322, file: !2, baseType: !333, align: 8, offset: 64, flags: DIFlagPrivate)
!333 = !DICompositeType(tag: DW_TAG_structure_type, name: "PhantomData<u8>", scope: !279, file: !2, align: 8, flags: DIFlagPublic, elements: !23, templateParams: !330, identifier: "4ee2ce85d019f8c54e6cb96475ed02e")
!334 = !DIDerivedType(tag: DW_TAG_member, name: "cap", scope: !319, file: !2, baseType: !335, size: 64, align: 64, flags: DIFlagPrivate)
!335 = !DICompositeType(tag: DW_TAG_structure_type, name: "UsizeNoHighBit", scope: !336, file: !2, size: 64, align: 64, flags: DIFlagPublic, elements: !338, templateParams: !23, identifier: "fb3cc97d9cfd36835928e5fd70db120e")
!336 = !DINamespace(name: "niche_types", scope: !337)
!337 = !DINamespace(name: "num", scope: !56)
!338 = !{!339}
!339 = !DIDerivedType(tag: DW_TAG_member, name: "__0", scope: !335, file: !2, baseType: !9, size: 64, align: 64, flags: DIFlagPrivate)
!340 = !DIDerivedType(tag: DW_TAG_member, name: "alloc", scope: !319, file: !2, baseType: !341, align: 8, offset: 128, flags: DIFlagPrivate)
!341 = !DICompositeType(tag: DW_TAG_structure_type, name: "Global", scope: !342, file: !2, align: 8, flags: DIFlagPublic, elements: !23, identifier: "261a8454d8f730546a4c59211f97b50b")
!342 = !DINamespace(name: "alloc", scope: !312)
!343 = !{!344}
!344 = !DITemplateTypeParameter(name: "A", type: !341)
!345 = !DIDerivedType(tag: DW_TAG_member, name: "_marker", scope: !315, file: !2, baseType: !346, align: 8, offset: 128, flags: DIFlagPrivate)
!346 = !DICompositeType(tag: DW_TAG_structure_type, name: "PhantomData<alloc::sync::Arc<std::path::Path, alloc::alloc::Global>>", scope: !279, file: !2, align: 8, flags: DIFlagPublic, elements: !23, templateParams: !347, identifier: "3bbe6b303d389bb3f4c16d432359403e")
!347 = !{!348}
!348 = !DITemplateTypeParameter(name: "T", type: !349)
!349 = !DICompositeType(tag: DW_TAG_structure_type, name: "Arc<std::path::Path, alloc::alloc::Global>", scope: !350, file: !2, size: 128, align: 64, flags: DIFlagPublic, elements: !351, templateParams: !397, identifier: "6d75974034d52afba24b12509148cdb8")
!350 = !DINamespace(name: "sync", scope: !312)
!351 = !{!352, !394, !396}
!352 = !DIDerivedType(tag: DW_TAG_member, name: "ptr", scope: !349, file: !2, baseType: !353, size: 128, align: 64, flags: DIFlagPrivate)
!353 = !DICompositeType(tag: DW_TAG_structure_type, name: "NonNull<alloc::sync::ArcInner<std::path::Path>>", scope: !231, file: !2, size: 128, align: 64, flags: DIFlagPublic, elements: !354, templateParams: !392, identifier: "26f89bc4994513d85fb483ff1eb8df22")
!354 = !{!355}
!355 = !DIDerivedType(tag: DW_TAG_member, name: "pointer", scope: !353, file: !2, baseType: !356, size: 128, align: 64, flags: DIFlagPrivate)
!356 = !DICompositeType(tag: DW_TAG_structure_type, name: "*const alloc::sync::ArcInner<std::path::Path>", file: !2, size: 128, align: 64, elements: !357, templateParams: !23, identifier: "981b765924b24332b79148a4f70a16ea")
!357 = !{!358, !391}
!358 = !DIDerivedType(tag: DW_TAG_member, name: "data_ptr", scope: !356, file: !2, baseType: !359, size: 64, align: 64)
!359 = !DIDerivedType(tag: DW_TAG_pointer_type, baseType: !360, size: 64, align: 64, dwarfAddressSpace: 0)
!360 = !DICompositeType(tag: DW_TAG_structure_type, name: "ArcInner<std::path::Path>", scope: !350, file: !2, size: 128, align: 64, flags: DIFlagPrivate, elements: !361, templateParams: !389, identifier: "e0883100970daa99c7782bbe691c015e")
!361 = !{!362, !372, !373}
!362 = !DIDerivedType(tag: DW_TAG_member, name: "strong", scope: !360, file: !2, baseType: !363, size: 64, align: 64, flags: DIFlagPrivate)
!363 = !DICompositeType(tag: DW_TAG_structure_type, name: "AtomicUsize", scope: !130, file: !2, size: 64, align: 64, flags: DIFlagPublic, elements: !364, templateParams: !23, identifier: "eae64ebbcbc496d646b0fd35ea460d51")
!364 = !{!365}
!365 = !DIDerivedType(tag: DW_TAG_member, name: "v", scope: !363, file: !2, baseType: !366, size: 64, align: 64, flags: DIFlagPrivate)
!366 = !DICompositeType(tag: DW_TAG_structure_type, name: "UnsafeCell<usize>", scope: !367, file: !2, size: 64, align: 64, flags: DIFlagPublic, elements: !368, templateParams: !370, identifier: "e5018d9c15bb29f71f624e9c428147a7")
!367 = !DINamespace(name: "cell", scope: !56)
!368 = !{!369}
!369 = !DIDerivedType(tag: DW_TAG_member, name: "value", scope: !366, file: !2, baseType: !9, size: 64, align: 64, flags: DIFlagPrivate)
!370 = !{!371}
!371 = !DITemplateTypeParameter(name: "T", type: !9)
!372 = !DIDerivedType(tag: DW_TAG_member, name: "weak", scope: !360, file: !2, baseType: !363, size: 64, align: 64, offset: 64, flags: DIFlagPrivate)
!373 = !DIDerivedType(tag: DW_TAG_member, name: "data", scope: !360, file: !2, baseType: !374, align: 8, offset: 128, flags: DIFlagPrivate)
!374 = !DICompositeType(tag: DW_TAG_structure_type, name: "Path", scope: !375, file: !2, align: 8, flags: DIFlagPublic, elements: !376, templateParams: !23, identifier: "766b023873ea55762ce11458fca99398")
!375 = !DINamespace(name: "path", scope: !17)
!376 = !{!377}
!377 = !DIDerivedType(tag: DW_TAG_member, name: "inner", scope: !374, file: !2, baseType: !378, align: 8, flags: DIFlagPrivate)
!378 = !DICompositeType(tag: DW_TAG_structure_type, name: "OsStr", scope: !379, file: !2, align: 8, flags: DIFlagPublic, elements: !381, templateParams: !23, identifier: "5154f08aee687ba89db24be1ea9e8a1d")
!379 = !DINamespace(name: "os_str", scope: !380)
!380 = !DINamespace(name: "ffi", scope: !17)
!381 = !{!382}
!382 = !DIDerivedType(tag: DW_TAG_member, name: "inner", scope: !378, file: !2, baseType: !383, align: 8, flags: DIFlagPrivate)
!383 = !DICompositeType(tag: DW_TAG_structure_type, name: "Slice", scope: !384, file: !2, align: 8, flags: DIFlagPublic, elements: !387, templateParams: !23, identifier: "ccfd121fa885ee49e7e507ea72630378")
!384 = !DINamespace(name: "bytes", scope: !385)
!385 = !DINamespace(name: "os_str", scope: !386)
!386 = !DINamespace(name: "sys", scope: !17)
!387 = !{!388}
!388 = !DIDerivedType(tag: DW_TAG_member, name: "inner", scope: !383, file: !2, baseType: !36, align: 8, flags: DIFlagPublic)
!389 = !{!390}
!390 = !DITemplateTypeParameter(name: "T", type: !374)
!391 = !DIDerivedType(tag: DW_TAG_member, name: "length", scope: !356, file: !2, baseType: !9, size: 64, align: 64, offset: 64)
!392 = !{!393}
!393 = !DITemplateTypeParameter(name: "T", type: !360)
!394 = !DIDerivedType(tag: DW_TAG_member, name: "phantom", scope: !349, file: !2, baseType: !395, align: 8, offset: 128, flags: DIFlagPrivate)
!395 = !DICompositeType(tag: DW_TAG_structure_type, name: "PhantomData<alloc::sync::ArcInner<std::path::Path>>", scope: !279, file: !2, align: 8, flags: DIFlagPublic, elements: !23, templateParams: !392, identifier: "3cfc00a7155fe9fc357f9da2fd7eb7b9")
!396 = !DIDerivedType(tag: DW_TAG_member, name: "alloc", scope: !349, file: !2, baseType: !341, align: 8, offset: 128, flags: DIFlagPrivate)
!397 = !{!390, !344}
!398 = !{!348, !344}
!399 = !DIDerivedType(tag: DW_TAG_member, name: "len", scope: !310, file: !2, baseType: !9, size: 64, align: 64, offset: 128, flags: DIFlagPrivate)
!400 = !DIDerivedType(tag: DW_TAG_member, name: "definitions", scope: !307, file: !2, baseType: !401, size: 192, align: 64, offset: 384, flags: DIFlagPrivate)
!401 = !DICompositeType(tag: DW_TAG_structure_type, name: "Vec<(alloc::sync::Arc<str, alloc::alloc::Global>, core::option::Option<alloc::sync::Arc<str, alloc::alloc::Global>>), alloc::alloc::Global>", scope: !311, file: !2, size: 192, align: 64, flags: DIFlagPublic, elements: !402, templateParams: !450, identifier: "de5cf34235e8c3c5759c2920f0473ed4")
!402 = !{!403, !451}
!403 = !DIDerivedType(tag: DW_TAG_member, name: "buf", scope: !401, file: !2, baseType: !404, size: 128, align: 64, flags: DIFlagPrivate)
!404 = !DICompositeType(tag: DW_TAG_structure_type, name: "RawVec<(alloc::sync::Arc<str, alloc::alloc::Global>, core::option::Option<alloc::sync::Arc<str, alloc::alloc::Global>>), alloc::alloc::Global>", scope: !316, file: !2, size: 128, align: 64, flags: DIFlagProtected, elements: !405, templateParams: !450, identifier: "6b81c57948f8a0fc4d98c068a18eb0d5")
!405 = !{!406, !407}
!406 = !DIDerivedType(tag: DW_TAG_member, name: "inner", scope: !404, file: !2, baseType: !319, size: 128, align: 64, flags: DIFlagPrivate)
!407 = !DIDerivedType(tag: DW_TAG_member, name: "_marker", scope: !404, file: !2, baseType: !408, align: 8, offset: 128, flags: DIFlagPrivate)
!408 = !DICompositeType(tag: DW_TAG_structure_type, name: "PhantomData<(alloc::sync::Arc<str, alloc::alloc::Global>, core::option::Option<alloc::sync::Arc<str, alloc::alloc::Global>>)>", scope: !279, file: !2, align: 8, flags: DIFlagPublic, elements: !23, templateParams: !409, identifier: "289c51f6dedfe2dd7213d1e339db03b")
!409 = !{!410}
!410 = !DITemplateTypeParameter(name: "T", type: !411)
!411 = !DICompositeType(tag: DW_TAG_structure_type, name: "(alloc::sync::Arc<str, alloc::alloc::Global>, core::option::Option<alloc::sync::Arc<str, alloc::alloc::Global>>)", file: !2, size: 256, align: 64, elements: !412, templateParams: !23, identifier: "f28af0c80dea7b1d5752cc4e5e53a0c1")
!412 = !{!413, !436}
!413 = !DIDerivedType(tag: DW_TAG_member, name: "__0", scope: !411, file: !2, baseType: !414, size: 128, align: 64)
!414 = !DICompositeType(tag: DW_TAG_structure_type, name: "Arc<str, alloc::alloc::Global>", scope: !350, file: !2, size: 128, align: 64, flags: DIFlagPublic, elements: !415, templateParams: !435, identifier: "a3dbfadf22048119b9439cbf09e0436b")
!415 = !{!416, !432, !434}
!416 = !DIDerivedType(tag: DW_TAG_member, name: "ptr", scope: !414, file: !2, baseType: !417, size: 128, align: 64, flags: DIFlagPrivate)
!417 = !DICompositeType(tag: DW_TAG_structure_type, name: "NonNull<alloc::sync::ArcInner<str>>", scope: !231, file: !2, size: 128, align: 64, flags: DIFlagPublic, elements: !418, templateParams: !430, identifier: "836d568eb31c0cfdc9f46c5c461f5d87")
!418 = !{!419}
!419 = !DIDerivedType(tag: DW_TAG_member, name: "pointer", scope: !417, file: !2, baseType: !420, size: 128, align: 64, flags: DIFlagPrivate)
!420 = !DICompositeType(tag: DW_TAG_structure_type, name: "*const alloc::sync::ArcInner<str>", file: !2, size: 128, align: 64, elements: !421, templateParams: !23, identifier: "75621cfedbfc50359e80f9e61ff0a948")
!421 = !{!422, !429}
!422 = !DIDerivedType(tag: DW_TAG_member, name: "data_ptr", scope: !420, file: !2, baseType: !423, size: 64, align: 64)
!423 = !DIDerivedType(tag: DW_TAG_pointer_type, baseType: !424, size: 64, align: 64, dwarfAddressSpace: 0)
!424 = !DICompositeType(tag: DW_TAG_structure_type, name: "ArcInner<str>", scope: !350, file: !2, size: 128, align: 64, flags: DIFlagPrivate, elements: !425, templateParams: !330, identifier: "5fef3dc607303a9dedc2f19545e95f2")
!425 = !{!426, !427, !428}
!426 = !DIDerivedType(tag: DW_TAG_member, name: "strong", scope: !424, file: !2, baseType: !363, size: 64, align: 64, flags: DIFlagPrivate)
!427 = !DIDerivedType(tag: DW_TAG_member, name: "weak", scope: !424, file: !2, baseType: !363, size: 64, align: 64, offset: 64, flags: DIFlagPrivate)
!428 = !DIDerivedType(tag: DW_TAG_member, name: "data", scope: !424, file: !2, baseType: !36, align: 8, offset: 128, flags: DIFlagPrivate)
!429 = !DIDerivedType(tag: DW_TAG_member, name: "length", scope: !420, file: !2, baseType: !9, size: 64, align: 64, offset: 64)
!430 = !{!431}
!431 = !DITemplateTypeParameter(name: "T", type: !424)
!432 = !DIDerivedType(tag: DW_TAG_member, name: "phantom", scope: !414, file: !2, baseType: !433, align: 8, offset: 128, flags: DIFlagPrivate)
!433 = !DICompositeType(tag: DW_TAG_structure_type, name: "PhantomData<alloc::sync::ArcInner<str>>", scope: !279, file: !2, align: 8, flags: DIFlagPublic, elements: !23, templateParams: !430, identifier: "4b9727144e7fb093e502be2d69cf9ee3")
!434 = !DIDerivedType(tag: DW_TAG_member, name: "alloc", scope: !414, file: !2, baseType: !341, align: 8, offset: 128, flags: DIFlagPrivate)
!435 = !{!331, !344}
!436 = !DIDerivedType(tag: DW_TAG_member, name: "__1", scope: !411, file: !2, baseType: !437, size: 128, align: 64, offset: 128)
!437 = !DICompositeType(tag: DW_TAG_structure_type, name: "Option<alloc::sync::Arc<str, alloc::alloc::Global>>", scope: !172, file: !2, size: 128, align: 64, flags: DIFlagPublic, elements: !438, templateParams: !23, identifier: "d9b2ab4da4fa3be11640da147bda94cb")
!438 = !{!439}
!439 = !DICompositeType(tag: DW_TAG_variant_part, scope: !437, file: !2, size: 128, align: 64, elements: !440, templateParams: !23, identifier: "92fff633fa898a3b34726b51ce9fa4ec", discriminator: !449)
!440 = !{!441, !445}
!441 = !DIDerivedType(tag: DW_TAG_member, name: "None", scope: !439, file: !2, baseType: !442, size: 128, align: 64, extraData: i64 0)
!442 = !DICompositeType(tag: DW_TAG_structure_type, name: "None", scope: !437, file: !2, size: 128, align: 64, flags: DIFlagPublic, elements: !23, templateParams: !443, identifier: "8f906e4ad3a38c8516cc45ceed171d26")
!443 = !{!444}
!444 = !DITemplateTypeParameter(name: "T", type: !414)
!445 = !DIDerivedType(tag: DW_TAG_member, name: "Some", scope: !439, file: !2, baseType: !446, size: 128, align: 64)
!446 = !DICompositeType(tag: DW_TAG_structure_type, name: "Some", scope: !437, file: !2, size: 128, align: 64, flags: DIFlagPublic, elements: !447, templateParams: !443, identifier: "88c279fcce75ffa6f3f12507220fc845")
!447 = !{!448}
!448 = !DIDerivedType(tag: DW_TAG_member, name: "__0", scope: !446, file: !2, baseType: !414, size: 128, align: 64, flags: DIFlagPublic)
!449 = !DIDerivedType(tag: DW_TAG_member, scope: !437, file: !2, baseType: !57, size: 64, align: 64, flags: DIFlagArtificial)
!450 = !{!410, !344}
!451 = !DIDerivedType(tag: DW_TAG_member, name: "len", scope: !401, file: !2, baseType: !9, size: 64, align: 64, offset: 128, flags: DIFlagPrivate)
!452 = !DIDerivedType(tag: DW_TAG_member, name: "objects", scope: !307, file: !2, baseType: !310, size: 192, align: 64, offset: 576, flags: DIFlagPrivate)
!453 = !DIDerivedType(tag: DW_TAG_member, name: "flags", scope: !307, file: !2, baseType: !454, size: 192, align: 64, offset: 768, flags: DIFlagPrivate)
!454 = !DICompositeType(tag: DW_TAG_structure_type, name: "Vec<alloc::sync::Arc<std::ffi::os_str::OsStr, alloc::alloc::Global>, alloc::alloc::Global>", scope: !311, file: !2, size: 192, align: 64, flags: DIFlagPublic, elements: !455, templateParams: !488, identifier: "6081fcf7252f304b4be295ca03818395")
!455 = !{!456, !489}
!456 = !DIDerivedType(tag: DW_TAG_member, name: "buf", scope: !454, file: !2, baseType: !457, size: 128, align: 64, flags: DIFlagPrivate)
!457 = !DICompositeType(tag: DW_TAG_structure_type, name: "RawVec<alloc::sync::Arc<std::ffi::os_str::OsStr, alloc::alloc::Global>, alloc::alloc::Global>", scope: !316, file: !2, size: 128, align: 64, flags: DIFlagProtected, elements: !458, templateParams: !488, identifier: "492e8b112ff24d493e4fe17b77bf9c2")
!458 = !{!459, !460}
!459 = !DIDerivedType(tag: DW_TAG_member, name: "inner", scope: !457, file: !2, baseType: !319, size: 128, align: 64, flags: DIFlagPrivate)
!460 = !DIDerivedType(tag: DW_TAG_member, name: "_marker", scope: !457, file: !2, baseType: !461, align: 8, offset: 128, flags: DIFlagPrivate)
!461 = !DICompositeType(tag: DW_TAG_structure_type, name: "PhantomData<alloc::sync::Arc<std::ffi::os_str::OsStr, alloc::alloc::Global>>", scope: !279, file: !2, align: 8, flags: DIFlagPublic, elements: !23, templateParams: !462, identifier: "c45f14030b6de0229d8467e693d6e7d9")
!462 = !{!463}
!463 = !DITemplateTypeParameter(name: "T", type: !464)
!464 = !DICompositeType(tag: DW_TAG_structure_type, name: "Arc<std::ffi::os_str::OsStr, alloc::alloc::Global>", scope: !350, file: !2, size: 128, align: 64, flags: DIFlagPublic, elements: !465, templateParams: !487, identifier: "616c6211c59fa8f34500e83267e95274")
!465 = !{!466, !484, !486}
!466 = !DIDerivedType(tag: DW_TAG_member, name: "ptr", scope: !464, file: !2, baseType: !467, size: 128, align: 64, flags: DIFlagPrivate)
!467 = !DICompositeType(tag: DW_TAG_structure_type, name: "NonNull<alloc::sync::ArcInner<std::ffi::os_str::OsStr>>", scope: !231, file: !2, size: 128, align: 64, flags: DIFlagPublic, elements: !468, templateParams: !482, identifier: "ab811a19e5ef0ef794df758cc9e292e4")
!468 = !{!469}
!469 = !DIDerivedType(tag: DW_TAG_member, name: "pointer", scope: !467, file: !2, baseType: !470, size: 128, align: 64, flags: DIFlagPrivate)
!470 = !DICompositeType(tag: DW_TAG_structure_type, name: "*const alloc::sync::ArcInner<std::ffi::os_str::OsStr>", file: !2, size: 128, align: 64, elements: !471, templateParams: !23, identifier: "45f177846f761e44baf44bf0cb3f4649")
!471 = !{!472, !481}
!472 = !DIDerivedType(tag: DW_TAG_member, name: "data_ptr", scope: !470, file: !2, baseType: !473, size: 64, align: 64)
!473 = !DIDerivedType(tag: DW_TAG_pointer_type, baseType: !474, size: 64, align: 64, dwarfAddressSpace: 0)
!474 = !DICompositeType(tag: DW_TAG_structure_type, name: "ArcInner<std::ffi::os_str::OsStr>", scope: !350, file: !2, size: 128, align: 64, flags: DIFlagPrivate, elements: !475, templateParams: !479, identifier: "4c5e54148f1a962eec6428a7f1df07")
!475 = !{!476, !477, !478}
!476 = !DIDerivedType(tag: DW_TAG_member, name: "strong", scope: !474, file: !2, baseType: !363, size: 64, align: 64, flags: DIFlagPrivate)
!477 = !DIDerivedType(tag: DW_TAG_member, name: "weak", scope: !474, file: !2, baseType: !363, size: 64, align: 64, offset: 64, flags: DIFlagPrivate)
!478 = !DIDerivedType(tag: DW_TAG_member, name: "data", scope: !474, file: !2, baseType: !378, align: 8, offset: 128, flags: DIFlagPrivate)
!479 = !{!480}
!480 = !DITemplateTypeParameter(name: "T", type: !378)
!481 = !DIDerivedType(tag: DW_TAG_member, name: "length", scope: !470, file: !2, baseType: !9, size: 64, align: 64, offset: 64)
!482 = !{!483}
!483 = !DITemplateTypeParameter(name: "T", type: !474)
!484 = !DIDerivedType(tag: DW_TAG_member, name: "phantom", scope: !464, file: !2, baseType: !485, align: 8, offset: 128, flags: DIFlagPrivate)
!485 = !DICompositeType(tag: DW_TAG_structure_type, name: "PhantomData<alloc::sync::ArcInner<std::ffi::os_str::OsStr>>", scope: !279, file: !2, align: 8, flags: DIFlagPublic, elements: !23, templateParams: !482, identifier: "3d7aa247ac780c2adc23a70eb7e6e864")
!486 = !DIDerivedType(tag: DW_TAG_member, name: "alloc", scope: !464, file: !2, baseType: !341, align: 8, offset: 128, flags: DIFlagPrivate)
!487 = !{!480, !344}
!488 = !{!463, !344}
!489 = !DIDerivedType(tag: DW_TAG_member, name: "len", scope: !454, file: !2, baseType: !9, size: 64, align: 64, offset: 128, flags: DIFlagPrivate)
